ARM GAS  /tmp/cc2BjfGA.s 			page 1


   1              		.syntax unified
   2              		.cpu cortex-m4
   3              		.fpu softvfp
   4              		.eabi_attribute 20, 1
   5              		.eabi_attribute 21, 1
   6              		.eabi_attribute 23, 3
   7              		.eabi_attribute 24, 1
   8              		.eabi_attribute 25, 1
   9              		.eabi_attribute 26, 1
  10              		.eabi_attribute 30, 2
  11              		.eabi_attribute 34, 1
  12              		.eabi_attribute 18, 4
  13              		.thumb
  14              		.file	"angular_separation.c"
  15              		.text
  16              	.Ltext0:
  17              		.cfi_sections	.debug_frame
  18              		.global	__aeabi_dsub
  19              		.global	__aeabi_dmul
  20              		.global	__aeabi_dadd
  21              		.section	.text.ln_get_angular_separation,"ax",%progbits
  22              		.align	2
  23              		.p2align 4,,15
  24              		.global	ln_get_angular_separation
  25              		.thumb
  26              		.thumb_func
  27              		.type	ln_get_angular_separation, %function
  28              	ln_get_angular_separation:
  29              	.LFB0:
  30              		.file 1 "./libnova/src/angular_separation.c"
  31              		.loc 1 34 0
  32              		.cfi_startproc
  33              		@ args = 0, pretend = 0, frame = 24
  34              		@ frame_needed = 0, uses_anonymous_args = 0
  35              	.LVL0:
  36 0000 2DE9F04F 		push	{r4, r5, r6, r7, r8, r9, sl, fp, lr}
  37              	.LCFI0:
  38              		.cfi_def_cfa_offset 36
  39              		.cfi_offset 4, -36
  40              		.cfi_offset 5, -32
  41              		.cfi_offset 6, -28
  42              		.cfi_offset 7, -24
  43              		.cfi_offset 8, -20
  44              		.cfi_offset 9, -16
  45              		.cfi_offset 10, -12
  46              		.cfi_offset 11, -8
  47              		.cfi_offset 14, -4
  48 0004 0C46     		mov	r4, r1
  49 0006 87B0     		sub	sp, sp, #28
  50              	.LCFI1:
  51              		.cfi_def_cfa_offset 64
  52              		.loc 1 34 0
  53 0008 0546     		mov	r5, r0
  54              		.loc 1 40 0
  55 000a D0E90001 		ldrd	r0, [r0]
  56              	.LVL1:
  57 000e FFF7FEFF 		bl	ln_deg_to_rad
ARM GAS  /tmp/cc2BjfGA.s 			page 2


  58              	.LVL2:
  59 0012 8246     		mov	sl, r0
  60 0014 8B46     		mov	fp, r1
  61              	.LVL3:
  62              		.loc 1 41 0
  63 0016 D5E90201 		ldrd	r0, [r5, #8]
  64 001a FFF7FEFF 		bl	ln_deg_to_rad
  65              	.LVL4:
  66 001e 0646     		mov	r6, r0
  67 0020 0F46     		mov	r7, r1
  68              	.LVL5:
  69              		.loc 1 42 0
  70 0022 D4E90001 		ldrd	r0, [r4]
  71 0026 FFF7FEFF 		bl	ln_deg_to_rad
  72              	.LVL6:
  73 002a 8046     		mov	r8, r0
  74 002c 8946     		mov	r9, r1
  75              	.LVL7:
  76              		.loc 1 43 0
  77 002e D4E90201 		ldrd	r0, [r4, #8]
  78 0032 FFF7FEFF 		bl	ln_deg_to_rad
  79              	.LVL8:
  80 0036 0446     		mov	r4, r0
  81              	.LVL9:
  82 0038 0D46     		mov	r5, r1
  83              	.LVL10:
  84              		.loc 1 45 0
  85 003a 3046     		mov	r0, r6
  86 003c 3946     		mov	r1, r7
  87 003e FFF7FEFF 		bl	cos
  88              	.LVL11:
  89 0042 CDE90001 		strd	r0, [sp]
  90 0046 2046     		mov	r0, r4
  91 0048 2946     		mov	r1, r5
  92 004a FFF7FEFF 		bl	sin
  93              	.LVL12:
  94 004e CDE90201 		strd	r0, [sp, #8]
  95              		.loc 1 46 0
  96 0052 3046     		mov	r0, r6
  97 0054 3946     		mov	r1, r7
  98 0056 FFF7FEFF 		bl	sin
  99              	.LVL13:
 100 005a CDE90401 		strd	r0, [sp, #16]
 101 005e 2046     		mov	r0, r4
 102 0060 2946     		mov	r1, r5
 103 0062 FFF7FEFF 		bl	cos
 104              	.LVL14:
 105 0066 5246     		mov	r2, sl
 106 0068 0446     		mov	r4, r0
 107              	.LVL15:
 108 006a 0D46     		mov	r5, r1
 109 006c 5B46     		mov	r3, fp
 110 006e 4046     		mov	r0, r8
 111 0070 4946     		mov	r1, r9
 112 0072 FFF7FEFF 		bl	__aeabi_dsub
 113              	.LVL16:
 114 0076 8046     		mov	r8, r0
ARM GAS  /tmp/cc2BjfGA.s 			page 3


 115              	.LVL17:
 116 0078 8946     		mov	r9, r1
 117 007a FFF7FEFF 		bl	cos
 118              	.LVL18:
 119              		.loc 1 45 0
 120 007e DDE90223 		ldrd	r2, [sp, #8]
 121              		.loc 1 46 0
 122 0082 8246     		mov	sl, r0
 123              	.LVL19:
 124 0084 8B46     		mov	fp, r1
 125              		.loc 1 45 0
 126 0086 DDE90001 		ldrd	r0, [sp]
 127 008a FFF7FEFF 		bl	__aeabi_dmul
 128              	.LVL20:
 129              		.loc 1 46 0
 130 008e 2246     		mov	r2, r4
 131              		.loc 1 45 0
 132 0090 0646     		mov	r6, r0
 133              	.LVL21:
 134 0092 0F46     		mov	r7, r1
 135              		.loc 1 46 0
 136 0094 2B46     		mov	r3, r5
 137 0096 DDE90401 		ldrd	r0, [sp, #16]
 138 009a FFF7FEFF 		bl	__aeabi_dmul
 139              	.LVL22:
 140 009e 5246     		mov	r2, sl
 141 00a0 5B46     		mov	r3, fp
 142 00a2 FFF7FEFF 		bl	__aeabi_dmul
 143              	.LVL23:
 144 00a6 0246     		mov	r2, r0
 145 00a8 0B46     		mov	r3, r1
 146              		.loc 1 45 0
 147 00aa 3046     		mov	r0, r6
 148 00ac 3946     		mov	r1, r7
 149 00ae FFF7FEFF 		bl	__aeabi_dsub
 150              	.LVL24:
 151 00b2 0646     		mov	r6, r0
 152 00b4 0F46     		mov	r7, r1
 153              	.LVL25:
 154              		.loc 1 47 0
 155 00b6 4046     		mov	r0, r8
 156 00b8 4946     		mov	r1, r9
 157 00ba FFF7FEFF 		bl	sin
 158              	.LVL26:
 159 00be 0246     		mov	r2, r0
 160 00c0 0B46     		mov	r3, r1
 161 00c2 2046     		mov	r0, r4
 162 00c4 2946     		mov	r1, r5
 163 00c6 FFF7FEFF 		bl	__aeabi_dmul
 164              	.LVL27:
 165              		.loc 1 50 0
 166 00ca 3246     		mov	r2, r6
 167              		.loc 1 47 0
 168 00cc 8046     		mov	r8, r0
 169 00ce 8946     		mov	r9, r1
 170              	.LVL28:
 171              		.loc 1 50 0
ARM GAS  /tmp/cc2BjfGA.s 			page 4


 172 00d0 3B46     		mov	r3, r7
 173 00d2 3046     		mov	r0, r6
 174 00d4 3946     		mov	r1, r7
 175 00d6 FFF7FEFF 		bl	__aeabi_dmul
 176              	.LVL29:
 177              		.loc 1 51 0
 178 00da 4246     		mov	r2, r8
 179              		.loc 1 50 0
 180 00dc 0646     		mov	r6, r0
 181              	.LVL30:
 182 00de 0F46     		mov	r7, r1
 183              		.loc 1 51 0
 184 00e0 4B46     		mov	r3, r9
 185 00e2 4046     		mov	r0, r8
 186 00e4 4946     		mov	r1, r9
 187 00e6 FFF7FEFF 		bl	__aeabi_dmul
 188              	.LVL31:
 189 00ea 0246     		mov	r2, r0
 190 00ec 0B46     		mov	r3, r1
 191              		.loc 1 52 0
 192 00ee 3046     		mov	r0, r6
 193 00f0 3946     		mov	r1, r7
 194 00f2 FFF7FEFF 		bl	__aeabi_dadd
 195              	.LVL32:
 196 00f6 FFF7FEFF 		bl	sqrt
 197              	.LVL33:
 198              		.loc 1 48 0
 199 00fa DDE90423 		ldrd	r2, [sp, #16]
 200              		.loc 1 52 0
 201 00fe 0646     		mov	r6, r0
 202 0100 0F46     		mov	r7, r1
 203              		.loc 1 48 0
 204 0102 DDE90201 		ldrd	r0, [sp, #8]
 205 0106 FFF7FEFF 		bl	__aeabi_dmul
 206              	.LVL34:
 207 010a 2246     		mov	r2, r4
 208 010c 8046     		mov	r8, r0
 209              	.LVL35:
 210 010e 8946     		mov	r9, r1
 211 0110 2B46     		mov	r3, r5
 212 0112 DDE90001 		ldrd	r0, [sp]
 213 0116 FFF7FEFF 		bl	__aeabi_dmul
 214              	.LVL36:
 215 011a 0246     		mov	r2, r0
 216 011c 0B46     		mov	r3, r1
 217 011e 5046     		mov	r0, sl
 218 0120 5946     		mov	r1, fp
 219 0122 FFF7FEFF 		bl	__aeabi_dmul
 220              	.LVL37:
 221 0126 0246     		mov	r2, r0
 222 0128 0B46     		mov	r3, r1
 223 012a 4046     		mov	r0, r8
 224 012c 4946     		mov	r1, r9
 225 012e FFF7FEFF 		bl	__aeabi_dadd
 226              	.LVL38:
 227 0132 0246     		mov	r2, r0
 228 0134 0B46     		mov	r3, r1
ARM GAS  /tmp/cc2BjfGA.s 			page 5


 229              		.loc 1 52 0
 230 0136 3046     		mov	r0, r6
 231 0138 3946     		mov	r1, r7
 232 013a FFF7FEFF 		bl	atan2
 233              	.LVL39:
 234              		.loc 1 55 0
 235 013e 07B0     		add	sp, sp, #28
 236 0140 BDE8F04F 		pop	{r4, r5, r6, r7, r8, r9, sl, fp, lr}
 237              		.loc 1 54 0
 238 0144 FFF7FEBF 		b	ln_rad_to_deg
 239              	.LVL40:
 240              		.cfi_endproc
 241              	.LFE0:
 242              		.size	ln_get_angular_separation, .-ln_get_angular_separation
 243 0148 AFF30080 		.section	.text.ln_get_rel_posn_angle,"ax",%progbits
 243      AFF30080 
 244              		.align	2
 245              		.p2align 4,,15
 246              		.global	ln_get_rel_posn_angle
 247              		.thumb
 248              		.thumb_func
 249              		.type	ln_get_rel_posn_angle, %function
 250              	ln_get_rel_posn_angle:
 251              	.LFB1:
 252              		.loc 1 66 0
 253              		.cfi_startproc
 254              		@ args = 0, pretend = 0, frame = 16
 255              		@ frame_needed = 0, uses_anonymous_args = 0
 256              	.LVL41:
 257 0000 2DE9F04F 		push	{r4, r5, r6, r7, r8, r9, sl, fp, lr}
 258              	.LCFI2:
 259              		.cfi_def_cfa_offset 36
 260              		.cfi_offset 4, -36
 261              		.cfi_offset 5, -32
 262              		.cfi_offset 6, -28
 263              		.cfi_offset 7, -24
 264              		.cfi_offset 8, -20
 265              		.cfi_offset 9, -16
 266              		.cfi_offset 10, -12
 267              		.cfi_offset 11, -8
 268              		.cfi_offset 14, -4
 269 0004 0C46     		mov	r4, r1
 270 0006 85B0     		sub	sp, sp, #20
 271              	.LCFI3:
 272              		.cfi_def_cfa_offset 56
 273              		.loc 1 66 0
 274 0008 0546     		mov	r5, r0
 275              		.loc 1 72 0
 276 000a D0E90001 		ldrd	r0, [r0]
 277              	.LVL42:
 278 000e FFF7FEFF 		bl	ln_deg_to_rad
 279              	.LVL43:
 280 0012 8046     		mov	r8, r0
 281 0014 8946     		mov	r9, r1
 282              	.LVL44:
 283              		.loc 1 73 0
 284 0016 D5E90201 		ldrd	r0, [r5, #8]
ARM GAS  /tmp/cc2BjfGA.s 			page 6


 285 001a FFF7FEFF 		bl	ln_deg_to_rad
 286              	.LVL45:
 287 001e 0646     		mov	r6, r0
 288 0020 0F46     		mov	r7, r1
 289              	.LVL46:
 290              		.loc 1 74 0
 291 0022 D4E90001 		ldrd	r0, [r4]
 292 0026 FFF7FEFF 		bl	ln_deg_to_rad
 293              	.LVL47:
 294 002a 8246     		mov	sl, r0
 295 002c 8B46     		mov	fp, r1
 296              	.LVL48:
 297              		.loc 1 75 0
 298 002e D4E90201 		ldrd	r0, [r4, #8]
 299 0032 FFF7FEFF 		bl	ln_deg_to_rad
 300              	.LVL49:
 301              		.loc 1 77 0
 302 0036 5246     		mov	r2, sl
 303 0038 5B46     		mov	r3, fp
 304              		.loc 1 75 0
 305 003a 0446     		mov	r4, r0
 306              	.LVL50:
 307 003c 0D46     		mov	r5, r1
 308              	.LVL51:
 309              		.loc 1 77 0
 310 003e 4046     		mov	r0, r8
 311 0040 4946     		mov	r1, r9
 312 0042 FFF7FEFF 		bl	__aeabi_dsub
 313              	.LVL52:
 314 0046 0190     		str	r0, [sp, #4]
 315 0048 0091     		str	r1, [sp, #0]
 316 004a FFF7FEFF 		bl	sin
 317              	.LVL53:
 318 004e 8246     		mov	sl, r0
 319              	.LVL54:
 320 0050 8B46     		mov	fp, r1
 321              	.LVL55:
 322              		.loc 1 78 0
 323 0052 2046     		mov	r0, r4
 324 0054 2946     		mov	r1, r5
 325 0056 FFF7FEFF 		bl	cos
 326              	.LVL56:
 327 005a 8046     		mov	r8, r0
 328              	.LVL57:
 329 005c 8946     		mov	r9, r1
 330 005e 3046     		mov	r0, r6
 331 0060 3946     		mov	r1, r7
 332 0062 FFF7FEFF 		bl	tan
 333              	.LVL58:
 334 0066 0646     		mov	r6, r0
 335              	.LVL59:
 336 0068 0F46     		mov	r7, r1
 337 006a 2046     		mov	r0, r4
 338 006c 2946     		mov	r1, r5
 339 006e FFF7FEFF 		bl	sin
 340              	.LVL60:
 341 0072 0446     		mov	r4, r0
ARM GAS  /tmp/cc2BjfGA.s 			page 7


 342              	.LVL61:
 343 0074 0D46     		mov	r5, r1
 344 0076 0198     		ldr	r0, [sp, #4]
 345 0078 0099     		ldr	r1, [sp, #0]
 346 007a FFF7FEFF 		bl	cos
 347              	.LVL62:
 348 007e 3246     		mov	r2, r6
 349 0080 CDE90201 		strd	r0, [sp, #8]
 350              	.LVL63:
 351 0084 3B46     		mov	r3, r7
 352 0086 4046     		mov	r0, r8
 353              	.LVL64:
 354 0088 4946     		mov	r1, r9
 355 008a FFF7FEFF 		bl	__aeabi_dmul
 356              	.LVL65:
 357 008e DDE90223 		ldrd	r2, [sp, #8]
 358 0092 0646     		mov	r6, r0
 359              	.LVL66:
 360 0094 0F46     		mov	r7, r1
 361 0096 2046     		mov	r0, r4
 362 0098 2946     		mov	r1, r5
 363 009a FFF7FEFF 		bl	__aeabi_dmul
 364              	.LVL67:
 365 009e 0246     		mov	r2, r0
 366 00a0 0B46     		mov	r3, r1
 367 00a2 3046     		mov	r0, r6
 368 00a4 3946     		mov	r1, r7
 369 00a6 FFF7FEFF 		bl	__aeabi_dsub
 370              	.LVL68:
 371 00aa 0246     		mov	r2, r0
 372 00ac 0B46     		mov	r3, r1
 373              		.loc 1 80 0
 374 00ae 5046     		mov	r0, sl
 375 00b0 5946     		mov	r1, fp
 376 00b2 FFF7FEFF 		bl	atan2
 377              	.LVL69:
 378              		.loc 1 82 0
 379 00b6 05B0     		add	sp, sp, #20
 380 00b8 BDE8F04F 		pop	{r4, r5, r6, r7, r8, r9, sl, fp, lr}
 381              		.loc 1 81 0
 382 00bc FFF7FEBF 		b	ln_rad_to_deg
 383              	.LVL70:
 384              		.cfi_endproc
 385              	.LFE1:
 386              		.size	ln_get_rel_posn_angle, .-ln_get_rel_posn_angle
 387              		.text
 388              	.Letext0:
 389              		.file 2 "./libnova/src/libnova/ln_types.h"
 390              		.file 3 "/usr/bin/../lib/gcc/arm-none-eabi/4.7.4/../../../../arm-none-eabi/include/math.h"
 391              		.file 4 "./libnova/src/libnova/utility.h"