ARM GAS  /tmp/ccAa4Zjr.s 			page 1


   1              		.syntax unified
   2              		.cpu cortex-m4
   3              		.fpu softvfp
   4              		.eabi_attribute 20, 1
   5              		.eabi_attribute 21, 1
   6              		.eabi_attribute 23, 3
   7              		.eabi_attribute 24, 1
   8              		.eabi_attribute 25, 1
   9              		.eabi_attribute 26, 1
  10              		.eabi_attribute 30, 2
  11              		.eabi_attribute 34, 1
  12              		.eabi_attribute 18, 4
  13              		.thumb
  14              		.file	"apparent_position.c"
  15              		.text
  16              	.Ltext0:
  17              		.cfi_sections	.debug_frame
  18              		.section	.text.ln_get_apparent_posn,"ax",%progbits
  19              		.align	2
  20              		.p2align 4,,15
  21              		.global	ln_get_apparent_posn
  22              		.thumb
  23              		.thumb_func
  24              		.type	ln_get_apparent_posn, %function
  25              	ln_get_apparent_posn:
  26              	.LFB0:
  27              		.file 1 "./libnova/src/apparent_position.c"
  28              		.loc 1 41 0
  29              		.cfi_startproc
  30              		@ args = 4, pretend = 0, frame = 32
  31              		@ frame_needed = 0, uses_anonymous_args = 0
  32              	.LVL0:
  33 0000 F0B5     		push	{r4, r5, r6, r7, lr}
  34              	.LCFI0:
  35              		.cfi_def_cfa_offset 20
  36              		.cfi_offset 4, -20
  37              		.cfi_offset 5, -16
  38              		.cfi_offset 6, -12
  39              		.cfi_offset 7, -8
  40              		.cfi_offset 14, -4
  41 0002 8BB0     		sub	sp, sp, #44
  42              	.LCFI1:
  43              		.cfi_def_cfa_offset 64
  44              		.loc 1 45 0
  45 0004 02AF     		add	r7, sp, #8
  46              		.loc 1 41 0
  47 0006 1446     		mov	r4, r2
  48 0008 1D46     		mov	r5, r3
  49              		.loc 1 46 0
  50 000a 06AE     		add	r6, sp, #24
  51              		.loc 1 45 0
  52 000c 0097     		str	r7, [sp, #0]
  53 000e FFF7FEFF 		bl	ln_get_equ_pm
  54              	.LVL1:
  55              		.loc 1 46 0
  56 0012 3846     		mov	r0, r7
  57 0014 2246     		mov	r2, r4
ARM GAS  /tmp/ccAa4Zjr.s 			page 2


  58 0016 2B46     		mov	r3, r5
  59 0018 0096     		str	r6, [sp, #0]
  60 001a FFF7FEFF 		bl	ln_get_equ_aber
  61              	.LVL2:
  62              		.loc 1 47 0
  63 001e 109B     		ldr	r3, [sp, #64]
  64 0020 3046     		mov	r0, r6
  65 0022 0093     		str	r3, [sp, #0]
  66 0024 2246     		mov	r2, r4
  67 0026 2B46     		mov	r3, r5
  68 0028 FFF7FEFF 		bl	ln_get_equ_prec
  69              	.LVL3:
  70              		.loc 1 48 0
  71 002c 0BB0     		add	sp, sp, #44
  72 002e F0BD     		pop	{r4, r5, r6, r7, pc}
  73              		.cfi_endproc
  74              	.LFE0:
  75              		.size	ln_get_apparent_posn, .-ln_get_apparent_posn
  76              		.text
  77              	.Letext0:
  78              		.file 2 "./libnova/src/libnova/ln_types.h"
  79              		.file 3 "./libnova/src/libnova/proper_motion.h"
  80              		.file 4 "./libnova/src/libnova/aberration.h"
  81              		.file 5 "./libnova/src/libnova/precession.h"