ARM GAS  /tmp/ccvRzfPu.s 			page 1


   1              		.syntax unified
   2              		.cpu cortex-m4
   3              		.fpu softvfp
   4              		.eabi_attribute 20, 1
   5              		.eabi_attribute 21, 1
   6              		.eabi_attribute 23, 3
   7              		.eabi_attribute 24, 1
   8              		.eabi_attribute 25, 1
   9              		.eabi_attribute 26, 1
  10              		.eabi_attribute 30, 2
  11              		.eabi_attribute 34, 1
  12              		.eabi_attribute 18, 4
  13              		.thumb
  14              		.file	"asteroid.c"
  15              		.text
  16              	.Ltext0:
  17              		.cfi_sections	.debug_frame
  18              		.global	__aeabi_dcmpeq
  19              		.global	__aeabi_dsub
  20              		.global	__aeabi_dmul
  21              		.global	__aeabi_dadd
  22              		.section	.text.ln_get_asteroid_mag,"ax",%progbits
  23              		.align	2
  24              		.p2align 4,,15
  25              		.global	ln_get_asteroid_mag
  26              		.thumb
  27              		.thumb_func
  28              		.type	ln_get_asteroid_mag, %function
  29              	ln_get_asteroid_mag:
  30              	.LFB0:
  31              		.file 1 "./libnova/src/asteroid.c"
  32              		.loc 1 35 0
  33              		.cfi_startproc
  34              		@ args = 16, pretend = 0, frame = 0
  35              		@ frame_needed = 0, uses_anonymous_args = 0
  36              	.LVL0:
  37 0000 2DE9F04F 		push	{r4, r5, r6, r7, r8, r9, sl, fp, lr}
  38              	.LCFI0:
  39              		.cfi_def_cfa_offset 36
  40              		.cfi_offset 4, -36
  41              		.cfi_offset 5, -32
  42              		.cfi_offset 6, -28
  43              		.cfi_offset 7, -24
  44              		.cfi_offset 8, -20
  45              		.cfi_offset 9, -16
  46              		.cfi_offset 10, -12
  47              		.cfi_offset 11, -8
  48              		.cfi_offset 14, -4
  49 0004 83B0     		sub	sp, sp, #12
  50              	.LCFI1:
  51              		.cfi_def_cfa_offset 48
  52              		.loc 1 35 0
  53 0006 9246     		mov	sl, r2
  54 0008 0446     		mov	r4, r0
  55 000a 0D46     		mov	r5, r1
  56              		.loc 1 41 0
  57 000c FFF7FEFF 		bl	ln_get_ell_body_phase_angle
ARM GAS  /tmp/ccvRzfPu.s 			page 2


  58              	.LVL1:
  59              		.loc 1 42 0
  60 0010 FFF7FEFF 		bl	ln_deg_to_rad
  61              	.LVL2:
  62              		.loc 1 45 0
  63 0014 DAE90A67 		ldrd	r6, [sl, #40]
  64              		.loc 1 42 0
  65 0018 8046     		mov	r8, r0
  66 001a 8946     		mov	r9, r1
  67              	.LVL3:
  68              		.loc 1 45 0
  69 001c 0022     		movs	r2, #0
  70 001e 0023     		movs	r3, #0
  71 0020 3046     		mov	r0, r6
  72 0022 3946     		mov	r1, r7
  73 0024 FFF7FEFF 		bl	__aeabi_dcmpeq
  74              	.LVL4:
  75 0028 38B1     		cbz	r0, .L2
  76              		.loc 1 46 0
  77 002a DAE90001 		ldrd	r0, [sl]
  78 002e FFF7FEFF 		bl	ln_get_ell_mean_motion
  79              	.LVL5:
  80 0032 0646     		mov	r6, r0
  81 0034 0F46     		mov	r7, r1
  82 0036 CAE90A67 		strd	r6, [sl, #40]
  83              	.L2:
  84              		.loc 1 47 0
  85 003a DAE90C23 		ldrd	r2, [sl, #48]
  86 003e 2046     		mov	r0, r4
  87 0040 2946     		mov	r1, r5
  88 0042 FFF7FEFF 		bl	__aeabi_dsub
  89              	.LVL6:
  90 0046 0246     		mov	r2, r0
  91 0048 0B46     		mov	r3, r1
  92 004a 3046     		mov	r0, r6
  93 004c 3946     		mov	r1, r7
  94 004e FFF7FEFF 		bl	ln_get_ell_mean_anomaly
  95              	.LVL7:
  96 0052 0246     		mov	r2, r0
  97 0054 0B46     		mov	r3, r1
  98              	.LVL8:
  99              		.loc 1 50 0
 100 0056 DAE90201 		ldrd	r0, [sl, #8]
 101 005a FFF7FEFF 		bl	ln_solve_kepler
 102              	.LVL9:
 103              		.loc 1 53 0
 104 005e DAE90067 		ldrd	r6, [sl]
 105 0062 DAE90223 		ldrd	r2, [sl, #8]
 106 0066 CDE90001 		strd	r0, [sp]
 107 006a 3046     		mov	r0, r6
 108              	.LVL10:
 109 006c 3946     		mov	r1, r7
 110 006e FFF7FEFF 		bl	ln_get_ell_radius_vector
 111              	.LVL11:
 112              		.loc 1 54 0
 113 0072 5246     		mov	r2, sl
 114              		.loc 1 53 0
ARM GAS  /tmp/ccvRzfPu.s 			page 3


 115 0074 0646     		mov	r6, r0
 116 0076 0F46     		mov	r7, r1
 117              	.LVL12:
 118              		.loc 1 54 0
 119 0078 2046     		mov	r0, r4
 120 007a 2946     		mov	r1, r5
 121 007c FFF7FEFF 		bl	ln_get_ell_body_solar_dist
 122              	.LVL13:
 123              		.loc 1 56 0
 124 0080 0023     		movs	r3, #0
 125 0082 0022     		movs	r2, #0
 126              		.loc 1 54 0
 127 0084 0446     		mov	r4, r0
 128 0086 0D46     		mov	r5, r1
 129              	.LVL14:
 130              		.loc 1 56 0
 131 0088 C3F6E073 		movt	r3, 16352
 132 008c 4046     		mov	r0, r8
 133 008e 4946     		mov	r1, r9
 134 0090 FFF7FEFF 		bl	__aeabi_dmul
 135              	.LVL15:
 136 0094 FFF7FEFF 		bl	tan
 137              	.LVL16:
 138 0098 33A3     		adr	r3, .L6
 139 009a D3E90023 		ldrd	r2, [r3]
 140 009e 8046     		mov	r8, r0
 141              	.LVL17:
 142 00a0 8946     		mov	r9, r1
 143 00a2 FFF7FEFF 		bl	pow
 144              	.LVL18:
 145 00a6 32A3     		adr	r3, .L6+8
 146 00a8 D3E90023 		ldrd	r2, [r3]
 147 00ac FFF7FEFF 		bl	__aeabi_dmul
 148              	.LVL19:
 149 00b0 FFF7FEFF 		bl	exp
 150              	.LVL20:
 151              		.loc 1 57 0
 152 00b4 30A3     		adr	r3, .L6+16
 153 00b6 D3E90023 		ldrd	r2, [r3]
 154              		.loc 1 56 0
 155 00ba 8246     		mov	sl, r0
 156              	.LVL21:
 157 00bc 8B46     		mov	fp, r1
 158              	.LVL22:
 159              		.loc 1 57 0
 160 00be 4046     		mov	r0, r8
 161 00c0 4946     		mov	r1, r9
 162 00c2 FFF7FEFF 		bl	pow
 163              	.LVL23:
 164 00c6 2EA3     		adr	r3, .L6+24
 165 00c8 D3E90023 		ldrd	r2, [r3]
 166 00cc FFF7FEFF 		bl	__aeabi_dmul
 167              	.LVL24:
 168 00d0 FFF7FEFF 		bl	exp
 169              	.LVL25:
 170              		.loc 1 59 0
 171 00d4 2246     		mov	r2, r4
ARM GAS  /tmp/ccvRzfPu.s 			page 4


 172 00d6 2B46     		mov	r3, r5
 173              		.loc 1 57 0
 174 00d8 8046     		mov	r8, r0
 175 00da 8946     		mov	r9, r1
 176              	.LVL26:
 177              		.loc 1 59 0
 178 00dc 3046     		mov	r0, r6
 179 00de 3946     		mov	r1, r7
 180 00e0 FFF7FEFF 		bl	__aeabi_dmul
 181              	.LVL27:
 182 00e4 FFF7FEFF 		bl	log10
 183              	.LVL28:
 184 00e8 0D46     		mov	r5, r1
 185 00ea 0021     		movs	r1, #0
 186 00ec DDE90E23 		ldrd	r2, [sp, #56]
 187 00f0 0446     		mov	r4, r0
 188              	.LVL29:
 189 00f2 C3F6F071 		movt	r1, 16368
 190 00f6 0020     		movs	r0, #0
 191 00f8 FFF7FEFF 		bl	__aeabi_dsub
 192              	.LVL30:
 193 00fc 5246     		mov	r2, sl
 194 00fe 5B46     		mov	r3, fp
 195 0100 FFF7FEFF 		bl	__aeabi_dmul
 196              	.LVL31:
 197 0104 4246     		mov	r2, r8
 198 0106 0646     		mov	r6, r0
 199              	.LVL32:
 200 0108 0F46     		mov	r7, r1
 201 010a 4B46     		mov	r3, r9
 202 010c DDE90E01 		ldrd	r0, [sp, #56]
 203 0110 FFF7FEFF 		bl	__aeabi_dmul
 204              	.LVL33:
 205 0114 0246     		mov	r2, r0
 206 0116 0B46     		mov	r3, r1
 207 0118 3046     		mov	r0, r6
 208 011a 3946     		mov	r1, r7
 209 011c FFF7FEFF 		bl	__aeabi_dadd
 210              	.LVL34:
 211 0120 FFF7FEFF 		bl	log10
 212              	.LVL35:
 213 0124 0023     		movs	r3, #0
 214 0126 0646     		mov	r6, r0
 215 0128 0F46     		mov	r7, r1
 216 012a 0022     		movs	r2, #0
 217 012c 2046     		mov	r0, r4
 218 012e 2946     		mov	r1, r5
 219 0130 C4F21403 		movt	r3, 16404
 220 0134 FFF7FEFF 		bl	__aeabi_dmul
 221              	.LVL36:
 222 0138 DDE90C23 		ldrd	r2, [sp, #48]
 223 013c FFF7FEFF 		bl	__aeabi_dadd
 224              	.LVL37:
 225 0140 0023     		movs	r3, #0
 226 0142 0446     		mov	r4, r0
 227 0144 0D46     		mov	r5, r1
 228 0146 0022     		movs	r2, #0
ARM GAS  /tmp/ccvRzfPu.s 			page 5


 229 0148 3046     		mov	r0, r6
 230 014a 3946     		mov	r1, r7
 231 014c C4F20403 		movt	r3, 16388
 232 0150 FFF7FEFF 		bl	__aeabi_dmul
 233              	.LVL38:
 234 0154 0246     		mov	r2, r0
 235 0156 0B46     		mov	r3, r1
 236 0158 2046     		mov	r0, r4
 237 015a 2946     		mov	r1, r5
 238 015c FFF7FEFF 		bl	__aeabi_dsub
 239              	.LVL39:
 240              		.loc 1 60 0
 241 0160 03B0     		add	sp, sp, #12
 242 0162 BDE8F08F 		pop	{r4, r5, r6, r7, r8, r9, sl, fp, pc}
 243              	.L7:
 244 0166 00BF     		.align	3
 245              	.L6:
 246 0168 295C8FC2 		.word	3264175145
 247 016c F528E43F 		.word	1071917301
 248 0170 A4703D0A 		.word	171798692
 249 0174 D7A30AC0 		.word	-1073044521
 250 0178 85EB51B8 		.word	3092376453
 251 017c 1E85F33F 		.word	1072923934
 252 0180 560E2DB2 		.word	2989297238
 253 0184 9DEFC7BF 		.word	-1077416035
 254              		.cfi_endproc
 255              	.LFE0:
 256              		.size	ln_get_asteroid_mag, .-ln_get_asteroid_mag
 257 0188 AFF30080 		.section	.text.ln_get_asteroid_sdiam_km,"ax",%progbits
 257      AFF30080 
 258              		.align	2
 259              		.p2align 4,,15
 260              		.global	ln_get_asteroid_sdiam_km
 261              		.thumb
 262              		.thumb_func
 263              		.type	ln_get_asteroid_sdiam_km, %function
 264              	ln_get_asteroid_sdiam_km:
 265              	.LFB1:
 266              		.loc 1 73 0
 267              		.cfi_startproc
 268              		@ args = 0, pretend = 0, frame = 0
 269              		@ frame_needed = 0, uses_anonymous_args = 0
 270              	.LVL40:
 271 0000 F8B5     		push	{r3, r4, r5, r6, r7, lr}
 272              	.LCFI2:
 273              		.cfi_def_cfa_offset 24
 274              		.cfi_offset 3, -24
 275              		.cfi_offset 4, -20
 276              		.cfi_offset 5, -16
 277              		.cfi_offset 6, -12
 278              		.cfi_offset 7, -8
 279              		.cfi_offset 14, -4
 280              		.loc 1 73 0
 281 0002 0446     		mov	r4, r0
 282 0004 0D46     		mov	r5, r1
 283              		.loc 1 74 0
 284 0006 1046     		mov	r0, r2
ARM GAS  /tmp/ccvRzfPu.s 			page 6


 285              	.LVL41:
 286 0008 1946     		mov	r1, r3
 287 000a FFF7FEFF 		bl	log10
 288              	.LVL42:
 289 000e 10A3     		adr	r3, .L9
 290 0010 D3E90023 		ldrd	r2, [r3]
 291 0014 0646     		mov	r6, r0
 292 0016 0F46     		mov	r7, r1
 293 0018 2046     		mov	r0, r4
 294 001a 2946     		mov	r1, r5
 295 001c FFF7FEFF 		bl	__aeabi_dmul
 296              	.LVL43:
 297 0020 0246     		mov	r2, r0
 298 0022 0B46     		mov	r3, r1
 299 0024 0CA1     		adr	r1, .L9+8
 300 0026 D1E90001 		ldrd	r0, [r1]
 301 002a FFF7FEFF 		bl	__aeabi_dsub
 302              	.LVL44:
 303 002e 0023     		movs	r3, #0
 304 0030 0446     		mov	r4, r0
 305 0032 0D46     		mov	r5, r1
 306 0034 0022     		movs	r2, #0
 307 0036 3046     		mov	r0, r6
 308 0038 3946     		mov	r1, r7
 309 003a C3F6E073 		movt	r3, 16352
 310 003e FFF7FEFF 		bl	__aeabi_dmul
 311              	.LVL45:
 312 0042 0246     		mov	r2, r0
 313 0044 0B46     		mov	r3, r1
 314 0046 2046     		mov	r0, r4
 315 0048 2946     		mov	r1, r5
 316 004a FFF7FEFF 		bl	__aeabi_dsub
 317              	.LVL46:
 318              		.loc 1 75 0
 319 004e F8BD     		pop	{r3, r4, r5, r6, r7, pc}
 320              	.L10:
 321              		.align	3
 322              	.L9:
 323 0050 9A999999 		.word	2576980378
 324 0054 9999C93F 		.word	1070176665
 325 0058 0AD7A370 		.word	1889785610
 326 005c 3D0A0940 		.word	1074334269
 327              		.cfi_endproc
 328              	.LFE1:
 329              		.size	ln_get_asteroid_sdiam_km, .-ln_get_asteroid_sdiam_km
 330              		.global	__aeabi_ddiv
 331              		.section	.text.ln_get_asteroid_sdiam_arc,"ax",%progbits
 332              		.align	2
 333              		.p2align 4,,15
 334              		.global	ln_get_asteroid_sdiam_arc
 335              		.thumb
 336              		.thumb_func
 337              		.type	ln_get_asteroid_sdiam_arc, %function
 338              	ln_get_asteroid_sdiam_arc:
 339              	.LFB2:
 340              		.loc 1 90 0
 341              		.cfi_startproc
ARM GAS  /tmp/ccvRzfPu.s 			page 7


 342              		@ args = 16, pretend = 0, frame = 0
 343              		@ frame_needed = 0, uses_anonymous_args = 0
 344              	.LVL47:
 345 0000 2DE9F843 		push	{r3, r4, r5, r6, r7, r8, r9, lr}
 346              	.LCFI3:
 347              		.cfi_def_cfa_offset 32
 348              		.cfi_offset 3, -32
 349              		.cfi_offset 4, -28
 350              		.cfi_offset 5, -24
 351              		.cfi_offset 6, -20
 352              		.cfi_offset 7, -16
 353              		.cfi_offset 8, -12
 354              		.cfi_offset 9, -8
 355              		.cfi_offset 14, -4
 356              		.loc 1 94 0
 357 0004 FFF7FEFF 		bl	ln_get_ell_body_earth_dist
 358              	.LVL48:
 359 0008 0446     		mov	r4, r0
 360 000a 0D46     		mov	r5, r1
 361              	.LVL49:
 362              		.loc 1 96 0
 363 000c DDE90A01 		ldrd	r0, [sp, #40]
 364 0010 FFF7FEFF 		bl	log10
 365              	.LVL50:
 366 0014 16A3     		adr	r3, .L12
 367 0016 D3E90023 		ldrd	r2, [r3]
 368 001a 8046     		mov	r8, r0
 369 001c 8946     		mov	r9, r1
 370              	.LVL51:
 371 001e DDE90801 		ldrd	r0, [sp, #32]
 372 0022 FFF7FEFF 		bl	__aeabi_dmul
 373              	.LVL52:
 374 0026 0246     		mov	r2, r0
 375 0028 0B46     		mov	r3, r1
 376 002a 13A1     		adr	r1, .L12+8
 377 002c D1E90001 		ldrd	r0, [r1]
 378 0030 FFF7FEFF 		bl	__aeabi_dsub
 379              	.LVL53:
 380 0034 0023     		movs	r3, #0
 381 0036 0646     		mov	r6, r0
 382 0038 0F46     		mov	r7, r1
 383 003a 0022     		movs	r2, #0
 384 003c 4046     		mov	r0, r8
 385 003e 4946     		mov	r1, r9
 386 0040 C3F6E073 		movt	r3, 16352
 387 0044 FFF7FEFF 		bl	__aeabi_dmul
 388              	.LVL54:
 389 0048 0246     		mov	r2, r0
 390 004a 0B46     		mov	r3, r1
 391 004c 3046     		mov	r0, r6
 392 004e 3946     		mov	r1, r7
 393 0050 FFF7FEFF 		bl	__aeabi_dsub
 394              	.LVL55:
 395              		.loc 1 97 0
 396 0054 0AA3     		adr	r3, .L12+16
 397 0056 D3E90023 		ldrd	r2, [r3]
 398 005a FFF7FEFF 		bl	__aeabi_dmul
ARM GAS  /tmp/ccvRzfPu.s 			page 8


 399              	.LVL56:
 400 005e 2246     		mov	r2, r4
 401 0060 2B46     		mov	r3, r5
 402 0062 FFF7FEFF 		bl	__aeabi_ddiv
 403              	.LVL57:
 404              		.loc 1 98 0
 405 0066 BDE8F883 		pop	{r3, r4, r5, r6, r7, r8, r9, pc}
 406              	.L13:
 407 006a 00BFAFF3 		.align	3
 407      0080
 408              	.L12:
 409 0070 9A999999 		.word	2576980378
 410 0074 9999C93F 		.word	1070176665
 411 0078 0AD7A370 		.word	1889785610
 412 007c 3D0A0940 		.word	1074334269
 413 0080 C229183A 		.word	974662082
 414 0084 1B97563F 		.word	1062639387
 415              		.cfi_endproc
 416              	.LFE2:
 417              		.size	ln_get_asteroid_sdiam_arc, .-ln_get_asteroid_sdiam_arc
 418 0088 AFF30080 		.text
 418      AFF30080 
 419              	.Letext0:
 420              		.file 2 "./libnova/src/libnova/ln_types.h"
 421              		.file 3 "./libnova/src/libnova/elliptic_motion.h"
 422              		.file 4 "./libnova/src/libnova/utility.h"
 423              		.file 5 "/usr/bin/../lib/gcc/arm-none-eabi/4.7.4/../../../../arm-none-eabi/include/math.h"