ARM GAS  /tmp/ccsoMgCh.s 			page 1


   1              		.syntax unified
   2              		.cpu cortex-m4
   3              		.fpu softvfp
   4              		.eabi_attribute 20, 1
   5              		.eabi_attribute 21, 1
   6              		.eabi_attribute 23, 3
   7              		.eabi_attribute 24, 1
   8              		.eabi_attribute 25, 1
   9              		.eabi_attribute 26, 1
  10              		.eabi_attribute 30, 2
  11              		.eabi_attribute 34, 1
  12              		.eabi_attribute 18, 4
  13              		.thumb
  14              		.file	"chprintf.c"
  15              		.text
  16              	.Ltext0:
  17              		.cfi_sections	.debug_frame
  18              		.section	.text.long_to_string_with_divisor,"ax",%progbits
  19              		.align	2
  20              		.p2align 4,,15
  21              		.thumb
  22              		.thumb_func
  23              		.type	long_to_string_with_divisor, %function
  24              	long_to_string_with_divisor:
  25              	.LFB7:
  26              		.file 1 "../../os/various/chprintf.c"
  27              		.loc 1 43 0
  28              		.cfi_startproc
  29              		@ args = 0, pretend = 0, frame = 0
  30              		@ frame_needed = 0, uses_anonymous_args = 0
  31              		@ link register save eliminated.
  32              	.LVL0:
  33 0000 F0B4     		push	{r4, r5, r6, r7}
  34              	.LCFI0:
  35              		.cfi_def_cfa_offset 16
  36              		.cfi_offset 4, -16
  37              		.cfi_offset 5, -12
  38              		.cfi_offset 6, -8
  39              		.cfi_offset 7, -4
  40              		.loc 1 50 0
  41 0002 002B     		cmp	r3, #0
  42 0004 08BF     		it	eq
  43 0006 0B46     		moveq	r3, r1
  44              	.LVL1:
  45              		.loc 1 43 0
  46 0008 0746     		mov	r7, r0
  47              	.LVL2:
  48              		.loc 1 55 0
  49 000a 00F10B0C 		add	ip, r0, #11
  50              	.LVL3:
  51              		.loc 1 40 0
  52 000e 00F10A05 		add	r5, r0, #10
  53              	.LVL4:
  54              	.L4:
  55              		.loc 1 57 0
  56 0012 B1FBF2F6 		udiv	r6, r1, r2
  57 0016 02FB1611 		mls	r1, r2, r6, r1
ARM GAS  /tmp/ccsoMgCh.s 			page 2


  58              	.LVL5:
  59              		.loc 1 58 0
  60 001a 01F13004 		add	r4, r1, #48
  61              	.LVL6:
  62              		.loc 1 59 0
  63 001e 392C     		cmp	r4, #57
  64              		.loc 1 60 0
  65 0020 C8BF     		it	gt
  66 0022 01F13704 		addgt	r4, r1, #55
  67              	.LVL7:
  68              		.loc 1 61 0
  69 0026 E4B2     		uxtb	r4, r4
  70              	.LVL8:
  71              		.loc 1 63 0
  72 0028 B3FBF2F3 		udiv	r3, r3, r2
  73              	.LVL9:
  74              		.loc 1 61 0
  75 002c 2846     		mov	r0, r5
  76              	.LVL10:
  77              		.loc 1 62 0
  78 002e 3146     		mov	r1, r6
  79              	.LVL11:
  80              		.loc 1 61 0
  81 0030 05F80149 		strb	r4, [r5], #-1
  82              	.LVL12:
  83              		.loc 1 63 0
  84 0034 002B     		cmp	r3, #0
  85 0036 ECD1     		bne	.L4
  86              	.LVL13:
  87              		.loc 1 65 0
  88 0038 C0EB0C03 		rsb	r3, r0, ip
  89              	.LVL14:
  90 003c F943     		mvns	r1, r7
  91              	.LVL15:
  92 003e 0246     		mov	r2, r0
  93              	.LVL16:
  94              		.loc 1 40 0
  95 0040 F818     		adds	r0, r7, r3
  96              	.LVL17:
  97 0042 4318     		adds	r3, r0, r1
  98              	.LVL18:
  99 0044 DB07     		lsls	r3, r3, #31
 100 0046 0AD5     		bpl	.L6
 101              	.LVL19:
 102              		.loc 1 67 0
 103 0048 07F8014B 		strb	r4, [r7], #1
 104              	.LVL20:
 105 004c 12F8014F 		ldrb	r4, [r2, #1]!	@ zero_extendqisi2
 106 0050 05E0     		b	.L6
 107              	.L17:
 108 0052 12F8014F 		ldrb	r4, [r2, #1]!	@ zero_extendqisi2
 109              	.LVL21:
 110 0056 7C70     		strb	r4, [r7, #1]
 111 0058 12F8014F 		ldrb	r4, [r2, #1]!	@ zero_extendqisi2
 112 005c 5F1C     		adds	r7, r3, #1
 113              	.LVL22:
 114              	.L6:
ARM GAS  /tmp/ccsoMgCh.s 			page 3


 115              		.loc 1 67 0 is_stmt 0 discriminator 1
 116 005e 3B46     		mov	r3, r7
 117 0060 03F8014B 		strb	r4, [r3], #1
 118              		.loc 1 68 0 is_stmt 1 discriminator 1
 119 0064 8342     		cmp	r3, r0
 120 0066 F4D1     		bne	.L17
 121              		.loc 1 71 0
 122 0068 F0BC     		pop	{r4, r5, r6, r7}
 123 006a 7047     		bx	lr
 124              		.cfi_endproc
 125              	.LFE7:
 126              		.size	long_to_string_with_divisor, .-long_to_string_with_divisor
 127              		.global	__aeabi_d2f
 128              		.global	__aeabi_fcmplt
 129              		.global	__aeabi_f2iz
 130              		.global	__aeabi_f2d
 131              		.global	__aeabi_i2d
 132              		.global	__aeabi_dsub
 133              		.global	__aeabi_dmul
 134              		.global	__aeabi_d2iz
 135 006c AFF30080 		.section	.text.chprintf,"ax",%progbits
 136              		.align	2
 137              		.p2align 4,,15
 138              		.global	chprintf
 139              		.thumb
 140              		.thumb_func
 141              		.type	chprintf, %function
 142              	chprintf:
 143              	.LFB10:
 144              		.loc 1 112 0
 145              		.cfi_startproc
 146              		@ args = 4, pretend = 12, frame = 48
 147              		@ frame_needed = 0, uses_anonymous_args = 1
 148              	.LVL23:
 149 0000 0EB4     		push	{r1, r2, r3}
 150              	.LCFI1:
 151              		.cfi_def_cfa_offset 12
 152              		.cfi_offset 1, -12
 153              		.cfi_offset 2, -8
 154              		.cfi_offset 3, -4
 155 0002 2DE9F04F 		push	{r4, r5, r6, r7, r8, r9, sl, fp, lr}
 156              	.LCFI2:
 157              		.cfi_def_cfa_offset 48
 158              		.cfi_offset 4, -48
 159              		.cfi_offset 5, -44
 160              		.cfi_offset 6, -40
 161              		.cfi_offset 7, -36
 162              		.cfi_offset 8, -32
 163              		.cfi_offset 9, -28
 164              		.cfi_offset 10, -24
 165              		.cfi_offset 11, -20
 166              		.cfi_offset 14, -16
 167 0006 8CB0     		sub	sp, sp, #48
 168              	.LCFI3:
 169              		.cfi_def_cfa_offset 96
 170              		.loc 1 112 0
 171 0008 15AB     		add	r3, sp, #84
ARM GAS  /tmp/ccsoMgCh.s 			page 4


 172              		.loc 1 238 0
 173 000a 0DF1190C 		add	ip, sp, #25
 174              		.loc 1 136 0
 175 000e 0DF11808 		add	r8, sp, #24
 176              		.loc 1 112 0
 177 0012 53F8044B 		ldr	r4, [r3], #4
 178              		.loc 1 238 0
 179 0016 CDF804C0 		str	ip, [sp, #4]
 180 001a C8EB0C0C 		rsb	ip, r8, ip
 181              		.loc 1 112 0
 182 001e 0646     		mov	r6, r0
 183              		.loc 1 125 0
 184 0020 0593     		str	r3, [sp, #20]
 185 0022 CDF808C0 		str	ip, [sp, #8]
 186              	.LVL24:
 187              	.L117:
 188              		.loc 1 127 0
 189 0026 2546     		mov	r5, r4
 190 0028 15F8011B 		ldrb	r1, [r5], #1	@ zero_extendqisi2
 191              	.LVL25:
 192              		.loc 1 128 0
 193 002c 59B1     		cbz	r1, .L116
 194              	.LVL26:
 195              	.L131:
 196              		.loc 1 132 0
 197 002e 2529     		cmp	r1, #37
 198 0030 0ED0     		beq	.L21
 199              		.loc 1 133 0
 200 0032 3468     		ldr	r4, [r6, #0]
 201 0034 A368     		ldr	r3, [r4, #8]
 202              		.loc 1 127 0
 203 0036 2C46     		mov	r4, r5
 204 0038 2546     		mov	r5, r4
 205              	.LVL27:
 206              		.loc 1 133 0
 207 003a 3046     		mov	r0, r6
 208 003c 9847     		blx	r3
 209              	.LVL28:
 210              		.loc 1 127 0
 211 003e 15F8011B 		ldrb	r1, [r5], #1	@ zero_extendqisi2
 212              	.LVL29:
 213              		.loc 1 128 0
 214 0042 0029     		cmp	r1, #0
 215 0044 F3D1     		bne	.L131
 216              	.LVL30:
 217              	.L116:
 218              		.loc 1 263 0
 219 0046 0CB0     		add	sp, sp, #48
 220 0048 BDE8F04F 		pop	{r4, r5, r6, r7, r8, r9, sl, fp, lr}
 221 004c 03B0     		add	sp, sp, #12
 222 004e 7047     		bx	lr
 223              	.L21:
 224              	.LVL31:
 225              		.loc 1 139 0
 226 0050 6378     		ldrb	r3, [r4, #1]	@ zero_extendqisi2
 227 0052 2D2B     		cmp	r3, #45
 228 0054 00F0C981 		beq	.L132
ARM GAS  /tmp/ccsoMgCh.s 			page 5


 229              		.loc 1 138 0
 230 0058 4FF00009 		mov	r9, #0
 231              	.LVL32:
 232              	.L23:
 233              		.loc 1 144 0
 234 005c 2E2B     		cmp	r3, #46
 235 005e 00F0C081 		beq	.L133
 236              		.loc 1 143 0
 237 0062 2027     		movs	r7, #32
 238              	.LVL33:
 239              	.L24:
 240              		.loc 1 146 0
 241 0064 2C46     		mov	r4, r5
 242 0066 0599     		ldr	r1, [sp, #20]
 243              		.loc 1 148 0
 244 0068 0025     		movs	r5, #0
 245              	.LVL34:
 246 006a 06E0     		b	.L27
 247              	.LVL35:
 248              	.L134:
 249              		.loc 1 154 0
 250 006c 0A78     		ldrb	r2, [r1, #0]	@ zero_extendqisi2
 251              	.LVL36:
 252 006e 0431     		adds	r1, r1, #4
 253              	.LVL37:
 254              	.L25:
 255              		.loc 1 157 0
 256 0070 05EB8505 		add	r5, r5, r5, lsl #2
 257              	.LVL38:
 258 0074 2378     		ldrb	r3, [r4, #0]	@ zero_extendqisi2
 259 0076 02EB4505 		add	r5, r2, r5, lsl #1
 260              	.LVL39:
 261              	.L27:
 262              		.loc 1 151 0
 263 007a A3F13002 		sub	r2, r3, #48
 264 007e D2B2     		uxtb	r2, r2
 265              		.loc 1 150 0
 266 0080 0134     		adds	r4, r4, #1
 267              	.LVL40:
 268              		.loc 1 151 0
 269 0082 092A     		cmp	r2, #9
 270 0084 F4D9     		bls	.L25
 271              		.loc 1 153 0
 272 0086 2A2B     		cmp	r3, #42
 273 0088 F0D0     		beq	.L134
 274              		.loc 1 160 0
 275 008a 0020     		movs	r0, #0
 276 008c 2E2B     		cmp	r3, #46
 277 008e 0591     		str	r1, [sp, #20]
 278              	.LVL41:
 279 0090 4BD0     		beq	.L31
 280              	.LVL42:
 281              		.loc 1 174 0
 282 0092 6C2B     		cmp	r3, #108
 283 0094 55D0     		beq	.L32
 284              	.LVL43:
 285              	.L135:
ARM GAS  /tmp/ccsoMgCh.s 			page 6


 286              		.loc 1 174 0 is_stmt 0 discriminator 1
 287 0096 4C2B     		cmp	r3, #76
 288 0098 53D0     		beq	.L32
 289              		.loc 1 180 0 is_stmt 1
 290 009a A3F14101 		sub	r1, r3, #65
 291 009e 1929     		cmp	r1, #25
 292 00a0 8CBF     		ite	hi
 293 00a2 0021     		movhi	r1, #0
 294 00a4 0121     		movls	r1, #1
 295              	.LVL44:
 296              	.L34:
 297              		.loc 1 183 0
 298 00a6 A3F14402 		sub	r2, r3, #68
 299 00aa 342A     		cmp	r2, #52
 300 00ac 00F29381 		bhi	.L35
 301 00b0 DFE812F0 		tbh	[pc, r2, lsl #1]
 302              	.L43:
 303 00b4 8101     		.2byte	(.L36-.L43)/2
 304 00b6 9101     		.2byte	(.L35-.L43)/2
 305 00b8 9101     		.2byte	(.L35-.L43)/2
 306 00ba 9101     		.2byte	(.L35-.L43)/2
 307 00bc 9101     		.2byte	(.L35-.L43)/2
 308 00be 9101     		.2byte	(.L35-.L43)/2
 309 00c0 9101     		.2byte	(.L35-.L43)/2
 310 00c2 9101     		.2byte	(.L35-.L43)/2
 311 00c4 9101     		.2byte	(.L35-.L43)/2
 312 00c6 9101     		.2byte	(.L35-.L43)/2
 313 00c8 9101     		.2byte	(.L35-.L43)/2
 314 00ca 7F01     		.2byte	(.L37-.L43)/2
 315 00cc 9101     		.2byte	(.L35-.L43)/2
 316 00ce 9101     		.2byte	(.L35-.L43)/2
 317 00d0 9101     		.2byte	(.L35-.L43)/2
 318 00d2 9101     		.2byte	(.L35-.L43)/2
 319 00d4 9101     		.2byte	(.L35-.L43)/2
 320 00d6 7701     		.2byte	(.L68-.L43)/2
 321 00d8 9101     		.2byte	(.L35-.L43)/2
 322 00da 9101     		.2byte	(.L35-.L43)/2
 323 00dc 6901     		.2byte	(.L39-.L43)/2
 324 00de 9101     		.2byte	(.L35-.L43)/2
 325 00e0 9101     		.2byte	(.L35-.L43)/2
 326 00e2 9101     		.2byte	(.L35-.L43)/2
 327 00e4 9101     		.2byte	(.L35-.L43)/2
 328 00e6 9101     		.2byte	(.L35-.L43)/2
 329 00e8 9101     		.2byte	(.L35-.L43)/2
 330 00ea 9101     		.2byte	(.L35-.L43)/2
 331 00ec 9101     		.2byte	(.L35-.L43)/2
 332 00ee 9101     		.2byte	(.L35-.L43)/2
 333 00f0 9101     		.2byte	(.L35-.L43)/2
 334 00f2 2A01     		.2byte	(.L40-.L43)/2
 335 00f4 8101     		.2byte	(.L36-.L43)/2
 336 00f6 9101     		.2byte	(.L35-.L43)/2
 337 00f8 E500     		.2byte	(.L41-.L43)/2
 338 00fa 9101     		.2byte	(.L35-.L43)/2
 339 00fc 9101     		.2byte	(.L35-.L43)/2
 340 00fe 9101     		.2byte	(.L35-.L43)/2
 341 0100 9101     		.2byte	(.L35-.L43)/2
 342 0102 9101     		.2byte	(.L35-.L43)/2
ARM GAS  /tmp/ccsoMgCh.s 			page 7


 343 0104 9101     		.2byte	(.L35-.L43)/2
 344 0106 9101     		.2byte	(.L35-.L43)/2
 345 0108 9101     		.2byte	(.L35-.L43)/2
 346 010a 7F01     		.2byte	(.L37-.L43)/2
 347 010c 9101     		.2byte	(.L35-.L43)/2
 348 010e 9101     		.2byte	(.L35-.L43)/2
 349 0110 9101     		.2byte	(.L35-.L43)/2
 350 0112 4F00     		.2byte	(.L42-.L43)/2
 351 0114 9101     		.2byte	(.L35-.L43)/2
 352 0116 7701     		.2byte	(.L68-.L43)/2
 353 0118 9101     		.2byte	(.L35-.L43)/2
 354 011a 9101     		.2byte	(.L35-.L43)/2
 355 011c 6901     		.2byte	(.L39-.L43)/2
 356              	.LVL45:
 357              	.L30:
 358              		.loc 1 166 0
 359 011e 0A78     		ldrb	r2, [r1, #0]	@ zero_extendqisi2
 360              	.LVL46:
 361 0120 0431     		adds	r1, r1, #4
 362              	.LVL47:
 363              	.L29:
 364              		.loc 1 169 0
 365 0122 00EB8003 		add	r3, r0, r0, lsl #2
 366              	.LVL48:
 367              		.loc 1 170 0
 368 0126 02EB4300 		add	r0, r2, r3, lsl #1
 369              	.LVL49:
 370              	.L31:
 371              		.loc 1 162 0
 372 012a 14F8013B 		ldrb	r3, [r4], #1	@ zero_extendqisi2
 373              	.LVL50:
 374              		.loc 1 163 0
 375 012e A3F13002 		sub	r2, r3, #48
 376 0132 D2B2     		uxtb	r2, r2
 377 0134 092A     		cmp	r2, #9
 378 0136 F4D9     		bls	.L29
 379              		.loc 1 165 0
 380 0138 2A2B     		cmp	r3, #42
 381 013a F0D0     		beq	.L30
 382              		.loc 1 174 0
 383 013c 6C2B     		cmp	r3, #108
 384 013e 0591     		str	r1, [sp, #20]
 385 0140 A9D1     		bne	.L135
 386              	.LVL51:
 387              	.L32:
 388              		.loc 1 176 0
 389 0142 2178     		ldrb	r1, [r4, #0]	@ zero_extendqisi2
 390 0144 0029     		cmp	r1, #0
 391 0146 00F05581 		beq	.L67
 392              	.LVL52:
 393              		.loc 1 177 0
 394 014a 0B46     		mov	r3, r1
 395 014c 0134     		adds	r4, r4, #1
 396              	.LVL53:
 397              		.loc 1 175 0
 398 014e 0121     		movs	r1, #1
 399 0150 A9E7     		b	.L34
ARM GAS  /tmp/ccsoMgCh.s 			page 8


 400              	.LVL54:
 401              	.L42:
 402              		.loc 1 190 0
 403 0152 059F     		ldr	r7, [sp, #20]
 404              		.loc 1 191 0
 405 0154 AA49     		ldr	r1, .L141+8
 406              	.LVL55:
 407              		.loc 1 190 0
 408 0156 3B68     		ldr	r3, [r7, #0]
 409              	.LVL56:
 410              		.loc 1 191 0
 411 0158 002B     		cmp	r3, #0
 412 015a 14BF     		ite	ne
 413 015c 9A46     		movne	sl, r3
 414 015e 8A46     		moveq	sl, r1
 415              	.LVL57:
 416              		.loc 1 190 0
 417 0160 0437     		adds	r7, r7, #4
 418              		.loc 1 194 0
 419 0162 9AF80020 		ldrb	r2, [sl, #0]	@ zero_extendqisi2
 420              	.LVL58:
 421              		.loc 1 190 0
 422 0166 0597     		str	r7, [sp, #20]
 423              		.loc 1 193 0
 424 0168 47F6FF73 		movw	r3, #32767
 425 016c 0028     		cmp	r0, #0
 426 016e 08BF     		it	eq
 427 0170 1846     		moveq	r0, r3
 428              	.LVL59:
 429              		.loc 1 194 0
 430 0172 002A     		cmp	r2, #0
 431 0174 00F06481 		beq	.L71
 432 0178 9AF80170 		ldrb	r7, [sl, #1]	@ zero_extendqisi2
 433 017c 411E     		subs	r1, r0, #1
 434 017e 0AEB000B 		add	fp, sl, r0
 435              		.loc 1 112 0
 436 0182 0AF10102 		add	r2, sl, #1
 437              	.LVL60:
 438 0186 01F00100 		and	r0, r1, #1
 439              		.loc 1 194 0
 440 018a 002F     		cmp	r7, #0
 441 018c 73D0     		beq	.L118
 442 018e 9345     		cmp	fp, r2
 443 0190 1346     		mov	r3, r2
 444 0192 08D0     		beq	.L120
 445 0194 0028     		cmp	r0, #0
 446 0196 69D0     		beq	.L48
 447 0198 5778     		ldrb	r7, [r2, #1]	@ zero_extendqisi2
 448              		.loc 1 112 0
 449 019a 0132     		adds	r2, r2, #1
 450              	.LVL61:
 451              		.loc 1 194 0
 452 019c 002F     		cmp	r7, #0
 453 019e 6AD0     		beq	.L118
 454 01a0 9345     		cmp	fp, r2
 455 01a2 1346     		mov	r3, r2
 456 01a4 62D1     		bne	.L48
ARM GAS  /tmp/ccsoMgCh.s 			page 9


 457              	.LVL62:
 458              	.L120:
 459 01a6 CAEB0B0B 		rsb	fp, sl, fp
 460              		.loc 1 242 0
 461 01aa CBEB0505 		rsb	r5, fp, r5
 462              	.LVL63:
 463              		.loc 1 189 0
 464 01ae 2027     		movs	r7, #32
 465              	.LVL64:
 466 01b0 25EAE575 		bic	r5, r5, r5, asr #31
 467              	.LVL65:
 468              		.loc 1 244 0
 469 01b4 B9F1000F 		cmp	r9, #0
 470 01b8 00F0B880 		beq	.L136
 471              	.LVL66:
 472              	.L56:
 473              		.loc 1 255 0 discriminator 1
 474 01bc BBF1000F 		cmp	fp, #0
 475 01c0 27DD     		ble	.L62
 476              		.loc 1 256 0
 477 01c2 D146     		mov	r9, sl
 478 01c4 3068     		ldr	r0, [r6, #0]
 479 01c6 19F8011B 		ldrb	r1, [r9], #1	@ zero_extendqisi2
 480 01ca 8268     		ldr	r2, [r0, #8]
 481              		.loc 1 112 0
 482 01cc D344     		add	fp, sl, fp
 483              	.LVL67:
 484 01ce 6FEA0A0E 		mvn	lr, sl
 485              		.loc 1 256 0
 486 01d2 3046     		mov	r0, r6
 487 01d4 0BEB0E0A 		add	sl, fp, lr
 488              	.LVL68:
 489 01d8 9047     		blx	r2
 490              	.LVL69:
 491              		.loc 1 255 0
 492 01da D945     		cmp	r9, fp
 493 01dc 0AF0010A 		and	sl, sl, #1
 494              	.LVL70:
 495 01e0 17D0     		beq	.L62
 496 01e2 BAF1000F 		cmp	sl, #0
 497 01e6 03D0     		beq	.L61
 498              	.LVL71:
 499              		.loc 1 256 0
 500 01e8 3368     		ldr	r3, [r6, #0]
 501 01ea 19F8011B 		ldrb	r1, [r9], #1	@ zero_extendqisi2
 502 01ee 0BE0     		b	.L130
 503              	.L61:
 504 01f0 3068     		ldr	r0, [r6, #0]
 505 01f2 CA46     		mov	sl, r9
 506 01f4 8268     		ldr	r2, [r0, #8]
 507 01f6 1AF8011B 		ldrb	r1, [sl], #1	@ zero_extendqisi2
 508 01fa 3046     		mov	r0, r6
 509 01fc 9047     		blx	r2
 510              	.LVL72:
 511 01fe 3368     		ldr	r3, [r6, #0]
 512 0200 99F80110 		ldrb	r1, [r9, #1]	@ zero_extendqisi2
 513 0204 0AF10109 		add	r9, sl, #1
ARM GAS  /tmp/ccsoMgCh.s 			page 10


 514              	.L130:
 515 0208 9A68     		ldr	r2, [r3, #8]
 516 020a 3046     		mov	r0, r6
 517 020c 9047     		blx	r2
 518              	.LVL73:
 519              		.loc 1 255 0
 520 020e D945     		cmp	r9, fp
 521 0210 EED1     		bne	.L61
 522              	.L62:
 523              	.LVL74:
 524              		.loc 1 258 0
 525 0212 002D     		cmp	r5, #0
 526 0214 3FF407AF 		beq	.L117
 527              		.loc 1 259 0
 528 0218 3168     		ldr	r1, [r6, #0]
 529 021a 6B1E     		subs	r3, r5, #1
 530 021c 8A68     		ldr	r2, [r1, #8]
 531              		.loc 1 258 0
 532 021e 1D46     		mov	r5, r3
 533              	.LVL75:
 534              		.loc 1 259 0
 535 0220 3046     		mov	r0, r6
 536 0222 3946     		mov	r1, r7
 537 0224 03F00109 		and	r9, r3, #1
 538 0228 9047     		blx	r2
 539              	.LVL76:
 540              		.loc 1 258 0
 541 022a 002D     		cmp	r5, #0
 542 022c 3FF4FBAE 		beq	.L117
 543 0230 B9F1000F 		cmp	r9, #0
 544 0234 07D0     		beq	.L79
 545              		.loc 1 259 0
 546 0236 3168     		ldr	r1, [r6, #0]
 547 0238 3046     		mov	r0, r6
 548 023a 8B68     		ldr	r3, [r1, #8]
 549 023c 3946     		mov	r1, r7
 550 023e 9847     		blx	r3
 551              	.LVL77:
 552              		.loc 1 258 0
 553 0240 013D     		subs	r5, r5, #1
 554 0242 3FF4F0AE 		beq	.L117
 555              	.L79:
 556              		.loc 1 259 0
 557 0246 3068     		ldr	r0, [r6, #0]
 558 0248 3946     		mov	r1, r7
 559 024a 8268     		ldr	r2, [r0, #8]
 560 024c 3046     		mov	r0, r6
 561 024e 9047     		blx	r2
 562              	.LVL78:
 563 0250 3168     		ldr	r1, [r6, #0]
 564              		.loc 1 260 0
 565 0252 013D     		subs	r5, r5, #1
 566              		.loc 1 259 0
 567 0254 8B68     		ldr	r3, [r1, #8]
 568 0256 3046     		mov	r0, r6
 569 0258 3946     		mov	r1, r7
 570 025a 9847     		blx	r3
ARM GAS  /tmp/ccsoMgCh.s 			page 11


 571              	.LVL79:
 572              		.loc 1 258 0
 573 025c 013D     		subs	r5, r5, #1
 574 025e F2D1     		bne	.L79
 575 0260 E1E6     		b	.L117
 576              	.LVL80:
 577              	.L47:
 578              		.loc 1 194 0 discriminator 2
 579 0262 5778     		ldrb	r7, [r2, #1]	@ zero_extendqisi2
 580              		.loc 1 112 0 discriminator 2
 581 0264 0132     		adds	r2, r2, #1
 582              	.LVL81:
 583              		.loc 1 194 0 discriminator 2
 584 0266 37B1     		cbz	r7, .L118
 585              		.loc 1 194 0 is_stmt 0
 586 0268 9B45     		cmp	fp, r3
 587 026a 9CD0     		beq	.L120
 588              	.L48:
 589              		.loc 1 194 0 discriminator 1
 590 026c 5878     		ldrb	r0, [r3, #1]	@ zero_extendqisi2
 591              		.loc 1 112 0 is_stmt 1 discriminator 1
 592 026e 5A1C     		adds	r2, r3, #1
 593              	.LVL82:
 594 0270 531C     		adds	r3, r2, #1
 595              		.loc 1 194 0 discriminator 1
 596 0272 0028     		cmp	r0, #0
 597 0274 F5D1     		bne	.L47
 598              	.LVL83:
 599              	.L118:
 600 0276 CAEB020B 		rsb	fp, sl, r2
 601              		.loc 1 189 0
 602 027a 2027     		movs	r7, #32
 603 027c 4EE0     		b	.L44
 604              	.LVL84:
 605              	.L41:
 606              		.loc 1 211 0
 607 027e 059A     		ldr	r2, [sp, #20]
 608 0280 D01D     		adds	r0, r2, #7
 609              	.LVL85:
 610 0282 20F00701 		bic	r1, r0, #7
 611              	.LVL86:
 612 0286 01F10803 		add	r3, r1, #8
 613              	.LVL87:
 614 028a D1E90001 		ldrd	r0, [r1]
 615 028e 0593     		str	r3, [sp, #20]
 616 0290 FFF7FEFF 		bl	__aeabi_d2f
 617              	.LVL88:
 618              		.loc 1 212 0
 619 0294 0021     		movs	r1, #0
 620              		.loc 1 211 0
 621 0296 8246     		mov	sl, r0
 622              	.LVL89:
 623              		.loc 1 212 0
 624 0298 FFF7FEFF 		bl	__aeabi_fcmplt
 625              	.LVL90:
 626 029c 0028     		cmp	r0, #0
 627 029e 40F0C780 		bne	.L137
ARM GAS  /tmp/ccsoMgCh.s 			page 12


 628              		.loc 1 136 0
 629 02a2 C346     		mov	fp, r8
 630              	.LVL91:
 631              	.L52:
 632              	.LBB8:
 633              	.LBB9:
 634              		.loc 1 83 0
 635 02a4 5046     		mov	r0, sl
 636 02a6 FFF7FEFF 		bl	__aeabi_f2iz
 637              	.LVL92:
 638 02aa 0390     		str	r0, [sp, #12]
 639              	.LVL93:
 640              		.loc 1 84 0
 641 02ac 0A22     		movs	r2, #10
 642 02ae 0023     		movs	r3, #0
 643 02b0 5846     		mov	r0, fp
 644              	.LVL94:
 645 02b2 0399     		ldr	r1, [sp, #12]
 646 02b4 FFF7FEFF 		bl	long_to_string_with_divisor
 647              	.LVL95:
 648              		.loc 1 85 0
 649 02b8 8446     		mov	ip, r0
 650 02ba 2E20     		movs	r0, #46
 651              	.LVL96:
 652 02bc 0CF8010B 		strb	r0, [ip], #1
 653              	.LVL97:
 654              	.LBE9:
 655              	.LBE8:
 656              		.loc 1 216 0
 657 02c0 5046     		mov	r0, sl
 658 02c2 CDF800C0 		str	ip, [sp, #0]
 659 02c6 FFF7FEFF 		bl	__aeabi_f2d
 660              	.LVL98:
 661 02ca 8246     		mov	sl, r0
 662              	.LVL99:
 663              	.LBB12:
 664              	.LBB10:
 665              		.loc 1 86 0
 666 02cc 0398     		ldr	r0, [sp, #12]
 667              	.LBE10:
 668              	.LBE12:
 669              		.loc 1 216 0
 670 02ce 8B46     		mov	fp, r1
 671              	.LVL100:
 672              	.LBB13:
 673              	.LBB11:
 674              		.loc 1 86 0
 675 02d0 FFF7FEFF 		bl	__aeabi_i2d
 676              	.LVL101:
 677 02d4 0246     		mov	r2, r0
 678 02d6 0B46     		mov	r3, r1
 679 02d8 5046     		mov	r0, sl
 680 02da 5946     		mov	r1, fp
 681 02dc FFF7FEFF 		bl	__aeabi_dsub
 682              	.LVL102:
 683 02e0 45A3     		adr	r3, .L141
 684 02e2 D3E90023 		ldrd	r2, [r3]
ARM GAS  /tmp/ccsoMgCh.s 			page 13


 685 02e6 FFF7FEFF 		bl	__aeabi_dmul
 686              	.LVL103:
 687 02ea FFF7FEFF 		bl	__aeabi_d2iz
 688              	.LVL104:
 689              		.loc 1 87 0
 690 02ee DDF800C0 		ldr	ip, [sp, #0]
 691              	.LVL105:
 692              		.loc 1 86 0
 693 02f2 0146     		mov	r1, r0
 694              		.loc 1 87 0
 695 02f4 0A22     		movs	r2, #10
 696 02f6 6046     		mov	r0, ip
 697 02f8 42F21073 		movw	r3, #10000
 698 02fc FFF7FEFF 		bl	long_to_string_with_divisor
 699              	.LVL106:
 700              	.LBE11:
 701              	.LBE13:
 702              		.loc 1 137 0
 703 0300 C246     		mov	sl, r8
 704 0302 C8EB000B 		rsb	fp, r8, r0
 705              		.loc 1 217 0
 706 0306 09E0     		b	.L44
 707              	.LVL107:
 708              	.L40:
 709              		.loc 1 186 0
 710 0308 059F     		ldr	r7, [sp, #20]
 711 030a DDF808B0 		ldr	fp, [sp, #8]
 712 030e 3968     		ldr	r1, [r7, #0]
 713              	.LVL108:
 714 0310 3B1D     		adds	r3, r7, #4
 715              	.LVL109:
 716 0312 0593     		str	r3, [sp, #20]
 717 0314 8DF81810 		strb	r1, [sp, #24]
 718              	.LVL110:
 719              		.loc 1 185 0
 720 0318 2027     		movs	r7, #32
 721              		.loc 1 137 0
 722 031a C246     		mov	sl, r8
 723              	.LVL111:
 724              	.L44:
 725              		.loc 1 242 0
 726 031c CBEB0505 		rsb	r5, fp, r5
 727              	.LVL112:
 728 0320 25EAE575 		bic	r5, r5, r5, asr #31
 729              	.LVL113:
 730              		.loc 1 244 0
 731 0324 B9F1000F 		cmp	r9, #0
 732 0328 7FF448AF 		bne	.L56
 733              	.LVL114:
 734              	.L136:
 735              		.loc 1 245 0
 736 032c 6D42     		negs	r5, r5
 737              	.LVL115:
 738              		.loc 1 246 0
 739 032e 002D     		cmp	r5, #0
 740 0330 3FF444AF 		beq	.L56
 741              		.loc 1 247 0
ARM GAS  /tmp/ccsoMgCh.s 			page 14


 742 0334 9AF80010 		ldrb	r1, [sl, #0]	@ zero_extendqisi2
 743 0338 2D29     		cmp	r1, #45
 744 033a 6ED0     		beq	.L138
 745              	.L104:
 746              		.loc 1 252 0
 747 033c 3168     		ldr	r1, [r6, #0]
 748 033e 3046     		mov	r0, r6
 749 0340 8B68     		ldr	r3, [r1, #8]
 750 0342 3946     		mov	r1, r7
 751 0344 6FEA0509 		mvn	r9, r5
 752              	.LVL116:
 753 0348 9847     		blx	r3
 754              	.LVL117:
 755              		.loc 1 253 0
 756 034a 0135     		adds	r5, r5, #1
 757              	.LVL118:
 758 034c 09F00109 		and	r9, r9, #1
 759              	.LVL119:
 760 0350 3FF434AF 		beq	.L56
 761 0354 B9F1000F 		cmp	r9, #0
 762 0358 07D0     		beq	.L80
 763              	.LVL120:
 764              		.loc 1 252 0
 765 035a 3268     		ldr	r2, [r6, #0]
 766 035c 3046     		mov	r0, r6
 767 035e 9368     		ldr	r3, [r2, #8]
 768 0360 3946     		mov	r1, r7
 769 0362 9847     		blx	r3
 770              	.LVL121:
 771              		.loc 1 253 0
 772 0364 0135     		adds	r5, r5, #1
 773              	.LVL122:
 774 0366 3FF429AF 		beq	.L56
 775              	.LVL123:
 776              	.L80:
 777              		.loc 1 252 0 discriminator 1
 778 036a 3068     		ldr	r0, [r6, #0]
 779 036c 3946     		mov	r1, r7
 780 036e 8268     		ldr	r2, [r0, #8]
 781 0370 3046     		mov	r0, r6
 782 0372 9047     		blx	r2
 783              	.LVL124:
 784 0374 3168     		ldr	r1, [r6, #0]
 785              		.loc 1 253 0 discriminator 1
 786 0376 0135     		adds	r5, r5, #1
 787              	.LVL125:
 788              		.loc 1 252 0 discriminator 1
 789 0378 8B68     		ldr	r3, [r1, #8]
 790 037a 3046     		mov	r0, r6
 791 037c 3946     		mov	r1, r7
 792 037e 9847     		blx	r3
 793              	.LVL126:
 794              		.loc 1 253 0 discriminator 1
 795 0380 0135     		adds	r5, r5, #1
 796              	.LVL127:
 797 0382 F2D1     		bne	.L80
 798 0384 1AE7     		b	.L56
ARM GAS  /tmp/ccsoMgCh.s 			page 15


 799              	.LVL128:
 800              	.L39:
 801              		.loc 1 183 0
 802 0386 1022     		movs	r2, #16
 803              	.LVL129:
 804              	.L38:
 805              		.loc 1 232 0
 806 0388 059B     		ldr	r3, [sp, #20]
 807              		.loc 1 231 0
 808 038a 71B1     		cbz	r1, .L54
 809              	.L139:
 810              		.loc 1 232 0
 811 038c 191D     		adds	r1, r3, #4
 812              	.LVL130:
 813 038e 0591     		str	r1, [sp, #20]
 814 0390 1968     		ldr	r1, [r3, #0]
 815              	.LVL131:
 816              	.L55:
 817              	.LBB14:
 818              	.LBB15:
 819              		.loc 1 75 0
 820 0392 4046     		mov	r0, r8
 821 0394 0023     		movs	r3, #0
 822 0396 FFF7FEFF 		bl	long_to_string_with_divisor
 823              	.LVL132:
 824              	.LBE15:
 825              	.LBE14:
 826              		.loc 1 137 0
 827 039a C246     		mov	sl, r8
 828 039c C8EB000B 		rsb	fp, r8, r0
 829              		.loc 1 236 0
 830 03a0 BCE7     		b	.L44
 831              	.LVL133:
 832              	.L68:
 833              		.loc 1 183 0
 834 03a2 0A22     		movs	r2, #10
 835              	.LVL134:
 836              		.loc 1 232 0
 837 03a4 059B     		ldr	r3, [sp, #20]
 838              		.loc 1 231 0
 839 03a6 0029     		cmp	r1, #0
 840 03a8 F0D1     		bne	.L139
 841              	.L54:
 842              		.loc 1 234 0
 843 03aa 181D     		adds	r0, r3, #4
 844              	.LVL135:
 845 03ac 1968     		ldr	r1, [r3, #0]
 846              	.LVL136:
 847 03ae 0590     		str	r0, [sp, #20]
 848 03b0 EFE7     		b	.L55
 849              	.LVL137:
 850              	.L37:
 851 03b2 0822     		movs	r2, #8
 852 03b4 E8E7     		b	.L38
 853              	.LVL138:
 854              	.L36:
 855              		.loc 1 200 0
ARM GAS  /tmp/ccsoMgCh.s 			page 16


 856 03b6 059B     		ldr	r3, [sp, #20]
 857              	.LVL139:
 858 03b8 1A1D     		adds	r2, r3, #4
 859              	.LVL140:
 860              		.loc 1 199 0
 861 03ba 19B3     		cbz	r1, .L49
 862              		.loc 1 200 0
 863 03bc 1968     		ldr	r1, [r3, #0]
 864              	.LVL141:
 865 03be 0592     		str	r2, [sp, #20]
 866              		.loc 1 203 0
 867 03c0 0029     		cmp	r1, #0
 868 03c2 23DB     		blt	.L140
 869              	.L72:
 870              		.loc 1 136 0
 871 03c4 4046     		mov	r0, r8
 872              	.LVL142:
 873              	.L51:
 874              	.LBB16:
 875              	.LBB17:
 876              		.loc 1 75 0
 877 03c6 0A22     		movs	r2, #10
 878 03c8 0023     		movs	r3, #0
 879 03ca FFF7FEFF 		bl	long_to_string_with_divisor
 880              	.LVL143:
 881              	.LBE17:
 882              	.LBE16:
 883              		.loc 1 137 0
 884 03ce C246     		mov	sl, r8
 885 03d0 C8EB000B 		rsb	fp, r8, r0
 886              		.loc 1 208 0
 887 03d4 A2E7     		b	.L44
 888              	.LVL144:
 889              	.L35:
 890              		.loc 1 238 0
 891 03d6 8DF81830 		strb	r3, [sp, #24]
 892              	.LVL145:
 893 03da DDF808B0 		ldr	fp, [sp, #8]
 894              		.loc 1 137 0
 895 03de C246     		mov	sl, r8
 896              		.loc 1 239 0
 897 03e0 9CE7     		b	.L44
 898              	.LVL146:
 899              	.L133:
 900 03e2 6B78     		ldrb	r3, [r5, #1]	@ zero_extendqisi2
 901              		.loc 1 146 0
 902 03e4 3027     		movs	r7, #48
 903              		.loc 1 145 0
 904 03e6 0135     		adds	r5, r5, #1
 905              	.LVL147:
 906 03e8 3CE6     		b	.L24
 907              	.LVL148:
 908              	.L132:
 909              		.loc 1 140 0
 910 03ea A51C     		adds	r5, r4, #2
 911              	.LVL149:
 912 03ec A378     		ldrb	r3, [r4, #2]	@ zero_extendqisi2
ARM GAS  /tmp/ccsoMgCh.s 			page 17


 913              		.loc 1 141 0
 914 03ee 4FF00109 		mov	r9, #1
 915 03f2 33E6     		b	.L23
 916              	.LVL150:
 917              	.L67:
 918              		.loc 1 175 0
 919 03f4 0121     		movs	r1, #1
 920 03f6 56E6     		b	.L34
 921              	.L142:
 922              		.align	3
 923              	.L141:
 924 03f8 00000000 		.word	0
 925 03fc 006AF840 		.word	1090021888
 926 0400 00000000 		.word	.LC0
 927              	.LVL151:
 928              	.L49:
 929              		.loc 1 202 0
 930 0404 1968     		ldr	r1, [r3, #0]
 931              	.LVL152:
 932 0406 0592     		str	r2, [sp, #20]
 933              		.loc 1 203 0
 934 0408 0029     		cmp	r1, #0
 935 040a DBDA     		bge	.L72
 936              	.L140:
 937              		.loc 1 204 0
 938 040c 2D20     		movs	r0, #45
 939              	.LVL153:
 940 040e 8DF81800 		strb	r0, [sp, #24]
 941              	.LVL154:
 942              		.loc 1 205 0
 943 0412 4942     		negs	r1, r1
 944              	.LVL155:
 945              		.loc 1 204 0
 946 0414 0DF11900 		add	r0, sp, #25
 947 0418 D5E7     		b	.L51
 948              	.LVL156:
 949              	.L138:
 950              		.loc 1 247 0 discriminator 1
 951 041a 302F     		cmp	r7, #48
 952 041c 8ED1     		bne	.L104
 953              		.loc 1 248 0
 954 041e 3368     		ldr	r3, [r6, #0]
 955 0420 3046     		mov	r0, r6
 956 0422 9A68     		ldr	r2, [r3, #8]
 957 0424 9047     		blx	r2
 958              	.LVL157:
 959 0426 0AF1010A 		add	sl, sl, #1
 960              	.LVL158:
 961              		.loc 1 249 0
 962 042a 0BF1FF3B 		add	fp, fp, #-1
 963              	.LVL159:
 964 042e 85E7     		b	.L104
 965              	.LVL160:
 966              	.L137:
 967              		.loc 1 213 0
 968 0430 2D22     		movs	r2, #45
 969              		.loc 1 214 0
ARM GAS  /tmp/ccsoMgCh.s 			page 18


 970 0432 0AF1004A 		add	sl, sl, #-2147483648
 971              	.LVL161:
 972              		.loc 1 213 0
 973 0436 8DF81820 		strb	r2, [sp, #24]
 974              	.LVL162:
 975 043a 0DF1190B 		add	fp, sp, #25
 976 043e 31E7     		b	.L52
 977              	.LVL163:
 978              	.L71:
 979              		.loc 1 194 0
 980 0440 9346     		mov	fp, r2
 981              		.loc 1 189 0
 982 0442 2027     		movs	r7, #32
 983 0444 6AE7     		b	.L44
 984              		.cfi_endproc
 985              	.LFE10:
 986              		.size	chprintf, .-chprintf
 987 0446 00BFAFF3 		.section	.rodata.str1.4,"aMS",%progbits,1
 987      0080AFF3 
 987      0080
 988              		.align	2
 989              	.LC0:
 990 0000 286E756C 		.ascii	"(null)\000"
 990      6C2900
 991 0007 00       		.text
 992              	.Letext0:
 993              		.file 2 "/usr/bin/../lib/gcc/arm-none-eabi/4.7.4/include/stdarg.h"
 994              		.file 3 "/usr/bin/../lib/gcc/arm-none-eabi/4.7.4/include/stddef.h"
 995              		.file 4 "/usr/bin/../lib/gcc/arm-none-eabi/4.7.4/../../../../arm-none-eabi/include/stdint.h"
 996              		.file 5 "../../os/ports/GCC/ARMCMx/chtypes.h"
 997              		.file 6 "<built-in>"
 998              		.file 7 "../../os/kernel/include/chstreams.h"
 999              		.section	.debug_info,"",%progbits
 1000              	.Ldebug_info0:
 1001 0000 F8050000 		.4byte	0x5f8
 1002 0004 0200     		.2byte	0x2
 1003 0006 00000000 		.4byte	.Ldebug_abbrev0
 1004 000a 04       		.byte	0x4
 1005 000b 01       		.uleb128 0x1
 1006 000c AE000000 		.4byte	.LASF35
 1007 0010 01       		.byte	0x1
 1008 0011 22010000 		.4byte	.LASF36
 1009 0015 A8010000 		.4byte	.LASF37
 1010 0019 40000000 		.4byte	.Ldebug_ranges0+0x40
 1011 001d 00000000 		.4byte	0
 1012 0021 00000000 		.4byte	0
 1013 0025 00000000 		.4byte	.Ldebug_line0
 1014 0029 02       		.uleb128 0x2
 1015 002a 08       		.byte	0x8
 1016 002b 04       		.byte	0x4
 1017 002c 00010000 		.4byte	.LASF0
 1018 0030 03       		.uleb128 0x3
 1019 0031 04       		.byte	0x4
 1020 0032 05       		.byte	0x5
 1021 0033 696E7400 		.ascii	"int\000"
 1022 0037 02       		.uleb128 0x2
 1023 0038 04       		.byte	0x4
ARM GAS  /tmp/ccsoMgCh.s 			page 19


 1024 0039 04       		.byte	0x4
 1025 003a 52000000 		.4byte	.LASF1
 1026 003e 04       		.uleb128 0x4
 1027 003f 07010000 		.4byte	.LASF2
 1028 0043 02       		.byte	0x2
 1029 0044 28       		.byte	0x28
 1030 0045 49000000 		.4byte	0x49
 1031 0049 05       		.uleb128 0x5
 1032 004a 86010000 		.4byte	.LASF20
 1033 004e 04       		.byte	0x4
 1034 004f 06       		.byte	0x6
 1035 0050 00       		.byte	0
 1036 0051 63000000 		.4byte	0x63
 1037 0055 06       		.uleb128 0x6
 1038 0056 0D000000 		.4byte	.LASF38
 1039 005a 63000000 		.4byte	0x63
 1040 005e 02       		.byte	0x2
 1041 005f 23       		.byte	0x23
 1042 0060 00       		.uleb128 0
 1043 0061 01       		.byte	0x1
 1044 0062 00       		.byte	0
 1045 0063 07       		.uleb128 0x7
 1046 0064 04       		.byte	0x4
 1047 0065 04       		.uleb128 0x4
 1048 0066 58000000 		.4byte	.LASF3
 1049 006a 02       		.byte	0x2
 1050 006b 66       		.byte	0x66
 1051 006c 3E000000 		.4byte	0x3e
 1052 0070 04       		.uleb128 0x4
 1053 0071 00000000 		.4byte	.LASF4
 1054 0075 03       		.byte	0x3
 1055 0076 D5       		.byte	0xd5
 1056 0077 7B000000 		.4byte	0x7b
 1057 007b 02       		.uleb128 0x2
 1058 007c 04       		.byte	0x4
 1059 007d 07       		.byte	0x7
 1060 007e 1A000000 		.4byte	.LASF5
 1061 0082 02       		.uleb128 0x2
 1062 0083 01       		.byte	0x1
 1063 0084 06       		.byte	0x6
 1064 0085 23020000 		.4byte	.LASF6
 1065 0089 04       		.uleb128 0x4
 1066 008a 4A000000 		.4byte	.LASF7
 1067 008e 04       		.byte	0x4
 1068 008f 2A       		.byte	0x2a
 1069 0090 94000000 		.4byte	0x94
 1070 0094 02       		.uleb128 0x2
 1071 0095 01       		.byte	0x1
 1072 0096 08       		.byte	0x8
 1073 0097 75000000 		.4byte	.LASF8
 1074 009b 02       		.uleb128 0x2
 1075 009c 02       		.byte	0x2
 1076 009d 05       		.byte	0x5
 1077 009e 00020000 		.4byte	.LASF9
 1078 00a2 02       		.uleb128 0x2
 1079 00a3 02       		.byte	0x2
 1080 00a4 07       		.byte	0x7
ARM GAS  /tmp/ccsoMgCh.s 			page 20


 1081 00a5 95000000 		.4byte	.LASF10
 1082 00a9 04       		.uleb128 0x4
 1083 00aa 6E010000 		.4byte	.LASF11
 1084 00ae 04       		.byte	0x4
 1085 00af 4F       		.byte	0x4f
 1086 00b0 B4000000 		.4byte	0xb4
 1087 00b4 02       		.uleb128 0x2
 1088 00b5 04       		.byte	0x4
 1089 00b6 05       		.byte	0x5
 1090 00b7 1A020000 		.4byte	.LASF12
 1091 00bb 02       		.uleb128 0x2
 1092 00bc 04       		.byte	0x4
 1093 00bd 07       		.byte	0x7
 1094 00be 83000000 		.4byte	.LASF13
 1095 00c2 02       		.uleb128 0x2
 1096 00c3 08       		.byte	0x8
 1097 00c4 05       		.byte	0x5
 1098 00c5 90010000 		.4byte	.LASF14
 1099 00c9 02       		.uleb128 0x2
 1100 00ca 08       		.byte	0x8
 1101 00cb 07       		.byte	0x7
 1102 00cc 3E010000 		.4byte	.LASF15
 1103 00d0 04       		.uleb128 0x4
 1104 00d1 27000000 		.4byte	.LASF16
 1105 00d5 05       		.byte	0x5
 1106 00d6 27       		.byte	0x27
 1107 00d7 A9000000 		.4byte	0xa9
 1108 00db 04       		.uleb128 0x4
 1109 00dc 63010000 		.4byte	.LASF17
 1110 00e0 05       		.byte	0x5
 1111 00e1 2D       		.byte	0x2d
 1112 00e2 A9000000 		.4byte	0xa9
 1113 00e6 02       		.uleb128 0x2
 1114 00e7 04       		.byte	0x4
 1115 00e8 07       		.byte	0x7
 1116 00e9 76010000 		.4byte	.LASF18
 1117 00ed 08       		.uleb128 0x8
 1118 00ee 04       		.byte	0x4
 1119 00ef F3000000 		.4byte	0xf3
 1120 00f3 09       		.uleb128 0x9
 1121 00f4 F8000000 		.4byte	0xf8
 1122 00f8 02       		.uleb128 0x2
 1123 00f9 01       		.byte	0x1
 1124 00fa 08       		.byte	0x8
 1125 00fb F0010000 		.4byte	.LASF19
 1126 00ff 08       		.uleb128 0x8
 1127 0100 04       		.byte	0x4
 1128 0101 05010000 		.4byte	0x105
 1129 0105 0A       		.uleb128 0xa
 1130 0106 01       		.byte	0x1
 1131 0107 DB000000 		.4byte	0xdb
 1132 010b 15010000 		.4byte	0x115
 1133 010f 0B       		.uleb128 0xb
 1134 0110 63000000 		.4byte	0x63
 1135 0114 00       		.byte	0
 1136 0115 08       		.uleb128 0x8
 1137 0116 04       		.byte	0x4
ARM GAS  /tmp/ccsoMgCh.s 			page 21


 1138 0117 89000000 		.4byte	0x89
 1139 011b 05       		.uleb128 0x5
 1140 011c 34020000 		.4byte	.LASF21
 1141 0120 10       		.byte	0x10
 1142 0121 07       		.byte	0x7
 1143 0122 41       		.byte	0x41
 1144 0123 60010000 		.4byte	0x160
 1145 0127 0C       		.uleb128 0xc
 1146 0128 A8000000 		.4byte	.LASF22
 1147 012c 07       		.byte	0x7
 1148 012d 42       		.byte	0x42
 1149 012e 85010000 		.4byte	0x185
 1150 0132 02       		.byte	0x2
 1151 0133 23       		.byte	0x23
 1152 0134 00       		.uleb128 0
 1153 0135 0C       		.uleb128 0xc
 1154 0136 16010000 		.4byte	.LASF23
 1155 013a 07       		.byte	0x7
 1156 013b 42       		.byte	0x42
 1157 013c A5010000 		.4byte	0x1a5
 1158 0140 02       		.byte	0x2
 1159 0141 23       		.byte	0x23
 1160 0142 04       		.uleb128 0x4
 1161 0143 0D       		.uleb128 0xd
 1162 0144 70757400 		.ascii	"put\000"
 1163 0148 07       		.byte	0x7
 1164 0149 42       		.byte	0x42
 1165 014a C0010000 		.4byte	0x1c0
 1166 014e 02       		.byte	0x2
 1167 014f 23       		.byte	0x23
 1168 0150 08       		.uleb128 0x8
 1169 0151 0D       		.uleb128 0xd
 1170 0152 67657400 		.ascii	"get\000"
 1171 0156 07       		.byte	0x7
 1172 0157 42       		.byte	0x42
 1173 0158 FF000000 		.4byte	0xff
 1174 015c 02       		.byte	0x2
 1175 015d 23       		.byte	0x23
 1176 015e 0C       		.uleb128 0xc
 1177 015f 00       		.byte	0
 1178 0160 0A       		.uleb128 0xa
 1179 0161 01       		.byte	0x1
 1180 0162 70000000 		.4byte	0x70
 1181 0166 7A010000 		.4byte	0x17a
 1182 016a 0B       		.uleb128 0xb
 1183 016b 63000000 		.4byte	0x63
 1184 016f 0B       		.uleb128 0xb
 1185 0170 7A010000 		.4byte	0x17a
 1186 0174 0B       		.uleb128 0xb
 1187 0175 70000000 		.4byte	0x70
 1188 0179 00       		.byte	0
 1189 017a 08       		.uleb128 0x8
 1190 017b 04       		.byte	0x4
 1191 017c 80010000 		.4byte	0x180
 1192 0180 09       		.uleb128 0x9
 1193 0181 89000000 		.4byte	0x89
 1194 0185 08       		.uleb128 0x8
ARM GAS  /tmp/ccsoMgCh.s 			page 22


 1195 0186 04       		.byte	0x4
 1196 0187 60010000 		.4byte	0x160
 1197 018b 0A       		.uleb128 0xa
 1198 018c 01       		.byte	0x1
 1199 018d 70000000 		.4byte	0x70
 1200 0191 A5010000 		.4byte	0x1a5
 1201 0195 0B       		.uleb128 0xb
 1202 0196 63000000 		.4byte	0x63
 1203 019a 0B       		.uleb128 0xb
 1204 019b 15010000 		.4byte	0x115
 1205 019f 0B       		.uleb128 0xb
 1206 01a0 70000000 		.4byte	0x70
 1207 01a4 00       		.byte	0
 1208 01a5 08       		.uleb128 0x8
 1209 01a6 04       		.byte	0x4
 1210 01a7 8B010000 		.4byte	0x18b
 1211 01ab 0A       		.uleb128 0xa
 1212 01ac 01       		.byte	0x1
 1213 01ad DB000000 		.4byte	0xdb
 1214 01b1 C0010000 		.4byte	0x1c0
 1215 01b5 0B       		.uleb128 0xb
 1216 01b6 63000000 		.4byte	0x63
 1217 01ba 0B       		.uleb128 0xb
 1218 01bb 89000000 		.4byte	0x89
 1219 01bf 00       		.byte	0
 1220 01c0 08       		.uleb128 0x8
 1221 01c1 04       		.byte	0x4
 1222 01c2 AB010000 		.4byte	0x1ab
 1223 01c6 0E       		.uleb128 0xe
 1224 01c7 04       		.byte	0x4
 1225 01c8 07       		.byte	0x7
 1226 01c9 4A       		.byte	0x4a
 1227 01ca DD010000 		.4byte	0x1dd
 1228 01ce 0D       		.uleb128 0xd
 1229 01cf 766D7400 		.ascii	"vmt\000"
 1230 01d3 07       		.byte	0x7
 1231 01d4 4C       		.byte	0x4c
 1232 01d5 DD010000 		.4byte	0x1dd
 1233 01d9 02       		.byte	0x2
 1234 01da 23       		.byte	0x23
 1235 01db 00       		.uleb128 0
 1236 01dc 00       		.byte	0
 1237 01dd 08       		.uleb128 0x8
 1238 01de 04       		.byte	0x4
 1239 01df E3010000 		.4byte	0x1e3
 1240 01e3 09       		.uleb128 0x9
 1241 01e4 1B010000 		.4byte	0x11b
 1242 01e8 04       		.uleb128 0x4
 1243 01e9 60000000 		.4byte	.LASF24
 1244 01ed 07       		.byte	0x7
 1245 01ee 4E       		.byte	0x4e
 1246 01ef C6010000 		.4byte	0x1c6
 1247 01f3 0F       		.uleb128 0xf
 1248 01f4 2E000000 		.4byte	.LASF39
 1249 01f8 01       		.byte	0x1
 1250 01f9 28       		.byte	0x28
 1251 01fa 01       		.byte	0x1
ARM GAS  /tmp/ccsoMgCh.s 			page 23


 1252 01fb 80020000 		.4byte	0x280
 1253 01ff 00000000 		.4byte	.LFB7
 1254 0203 6C000000 		.4byte	.LFE7
 1255 0207 00000000 		.4byte	.LLST0
 1256 020b 01       		.byte	0x1
 1257 020c 80020000 		.4byte	0x280
 1258 0210 10       		.uleb128 0x10
 1259 0211 7000     		.ascii	"p\000"
 1260 0213 01       		.byte	0x1
 1261 0214 28       		.byte	0x28
 1262 0215 80020000 		.4byte	0x280
 1263 0219 20000000 		.4byte	.LLST1
 1264 021d 10       		.uleb128 0x10
 1265 021e 6E756D00 		.ascii	"num\000"
 1266 0222 01       		.byte	0x1
 1267 0223 29       		.byte	0x29
 1268 0224 B4000000 		.4byte	0xb4
 1269 0228 49000000 		.4byte	.LLST2
 1270 022c 11       		.uleb128 0x11
 1271 022d 5D010000 		.4byte	.LASF25
 1272 0231 01       		.byte	0x1
 1273 0232 2A       		.byte	0x2a
 1274 0233 7B000000 		.4byte	0x7b
 1275 0237 6A000000 		.4byte	.LLST3
 1276 023b 11       		.uleb128 0x11
 1277 023c 55010000 		.4byte	.LASF26
 1278 0240 01       		.byte	0x1
 1279 0241 2B       		.byte	0x2b
 1280 0242 B4000000 		.4byte	0xb4
 1281 0246 8B000000 		.4byte	.LLST4
 1282 024a 12       		.uleb128 0x12
 1283 024b 6900     		.ascii	"i\000"
 1284 024d 01       		.byte	0x1
 1285 024e 2C       		.byte	0x2c
 1286 024f 30000000 		.4byte	0x30
 1287 0253 AC000000 		.4byte	.LLST5
 1288 0257 12       		.uleb128 0x12
 1289 0258 7100     		.ascii	"q\000"
 1290 025a 01       		.byte	0x1
 1291 025b 2D       		.byte	0x2d
 1292 025c 80020000 		.4byte	0x280
 1293 0260 F5000000 		.4byte	.LLST6
 1294 0264 12       		.uleb128 0x12
 1295 0265 6C00     		.ascii	"l\000"
 1296 0267 01       		.byte	0x1
 1297 0268 2E       		.byte	0x2e
 1298 0269 B4000000 		.4byte	0xb4
 1299 026d 1E010000 		.4byte	.LLST7
 1300 0271 12       		.uleb128 0x12
 1301 0272 6C6C00   		.ascii	"ll\000"
 1302 0275 01       		.byte	0x1
 1303 0276 2E       		.byte	0x2e
 1304 0277 B4000000 		.4byte	0xb4
 1305 027b 47010000 		.4byte	.LLST8
 1306 027f 00       		.byte	0
 1307 0280 08       		.uleb128 0x8
 1308 0281 04       		.byte	0x4
ARM GAS  /tmp/ccsoMgCh.s 			page 24


 1309 0282 F8000000 		.4byte	0xf8
 1310 0286 13       		.uleb128 0x13
 1311 0287 2F020000 		.4byte	.LASF27
 1312 028b 01       		.byte	0x1
 1313 028c 49       		.byte	0x49
 1314 028d 01       		.byte	0x1
 1315 028e 80020000 		.4byte	0x280
 1316 0292 01       		.byte	0x1
 1317 0293 B7020000 		.4byte	0x2b7
 1318 0297 14       		.uleb128 0x14
 1319 0298 7000     		.ascii	"p\000"
 1320 029a 01       		.byte	0x1
 1321 029b 49       		.byte	0x49
 1322 029c 80020000 		.4byte	0x280
 1323 02a0 14       		.uleb128 0x14
 1324 02a1 6E756D00 		.ascii	"num\000"
 1325 02a5 01       		.byte	0x1
 1326 02a6 49       		.byte	0x49
 1327 02a7 B4000000 		.4byte	0xb4
 1328 02ab 15       		.uleb128 0x15
 1329 02ac 5D010000 		.4byte	.LASF25
 1330 02b0 01       		.byte	0x1
 1331 02b1 49       		.byte	0x49
 1332 02b2 7B000000 		.4byte	0x7b
 1333 02b6 00       		.byte	0
 1334 02b7 13       		.uleb128 0x13
 1335 02b8 69010000 		.4byte	.LASF28
 1336 02bc 01       		.byte	0x1
 1337 02bd 4F       		.byte	0x4f
 1338 02be 01       		.byte	0x1
 1339 02bf 80020000 		.4byte	0x280
 1340 02c3 01       		.byte	0x1
 1341 02c4 F1020000 		.4byte	0x2f1
 1342 02c8 14       		.uleb128 0x14
 1343 02c9 7000     		.ascii	"p\000"
 1344 02cb 01       		.byte	0x1
 1345 02cc 4F       		.byte	0x4f
 1346 02cd 80020000 		.4byte	0x280
 1347 02d1 14       		.uleb128 0x14
 1348 02d2 6E756D00 		.ascii	"num\000"
 1349 02d6 01       		.byte	0x1
 1350 02d7 4F       		.byte	0x4f
 1351 02d8 29000000 		.4byte	0x29
 1352 02dc 16       		.uleb128 0x16
 1353 02dd 6C00     		.ascii	"l\000"
 1354 02df 01       		.byte	0x1
 1355 02e0 50       		.byte	0x50
 1356 02e1 B4000000 		.4byte	0xb4
 1357 02e5 17       		.uleb128 0x17
 1358 02e6 9E010000 		.4byte	.LASF29
 1359 02ea 01       		.byte	0x1
 1360 02eb 51       		.byte	0x51
 1361 02ec BB000000 		.4byte	0xbb
 1362 02f0 00       		.byte	0
 1363 02f1 18       		.uleb128 0x18
 1364 02f2 01       		.byte	0x1
 1365 02f3 F7000000 		.4byte	.LASF40
ARM GAS  /tmp/ccsoMgCh.s 			page 25


 1366 02f7 01       		.byte	0x1
 1367 02f8 70       		.byte	0x70
 1368 02f9 01       		.byte	0x1
 1369 02fa 00000000 		.4byte	.LFB10
 1370 02fe 46040000 		.4byte	.LFE10
 1371 0302 65010000 		.4byte	.LLST9
 1372 0306 01       		.byte	0x1
 1373 0307 E9050000 		.4byte	0x5e9
 1374 030b 10       		.uleb128 0x10
 1375 030c 63687000 		.ascii	"chp\000"
 1376 0310 01       		.byte	0x1
 1377 0311 70       		.byte	0x70
 1378 0312 E9050000 		.4byte	0x5e9
 1379 0316 9E010000 		.4byte	.LLST10
 1380 031a 10       		.uleb128 0x10
 1381 031b 666D7400 		.ascii	"fmt\000"
 1382 031f 01       		.byte	0x1
 1383 0320 70       		.byte	0x70
 1384 0321 ED000000 		.4byte	0xed
 1385 0325 BC010000 		.4byte	.LLST11
 1386 0329 19       		.uleb128 0x19
 1387 032a 1A       		.uleb128 0x1a
 1388 032b 617000   		.ascii	"ap\000"
 1389 032e 01       		.byte	0x1
 1390 032f 71       		.byte	0x71
 1391 0330 65000000 		.4byte	0x65
 1392 0334 03       		.byte	0x3
 1393 0335 91       		.byte	0x91
 1394 0336 B47F     		.sleb128 -76
 1395 0338 12       		.uleb128 0x12
 1396 0339 7000     		.ascii	"p\000"
 1397 033b 01       		.byte	0x1
 1398 033c 72       		.byte	0x72
 1399 033d 80020000 		.4byte	0x280
 1400 0341 35020000 		.4byte	.LLST12
 1401 0345 12       		.uleb128 0x12
 1402 0346 7300     		.ascii	"s\000"
 1403 0348 01       		.byte	0x1
 1404 0349 72       		.byte	0x72
 1405 034a 80020000 		.4byte	0x280
 1406 034e 16030000 		.4byte	.LLST13
 1407 0352 12       		.uleb128 0x12
 1408 0353 6300     		.ascii	"c\000"
 1409 0355 01       		.byte	0x1
 1410 0356 72       		.byte	0x72
 1411 0357 F8000000 		.4byte	0xf8
 1412 035b 9C030000 		.4byte	.LLST14
 1413 035f 1B       		.uleb128 0x1b
 1414 0360 1B010000 		.4byte	.LASF30
 1415 0364 01       		.byte	0x1
 1416 0365 72       		.byte	0x72
 1417 0366 F8000000 		.4byte	0xf8
 1418 036a BE040000 		.4byte	.LLST15
 1419 036e 12       		.uleb128 0x12
 1420 036f 6900     		.ascii	"i\000"
 1421 0371 01       		.byte	0x1
 1422 0372 73       		.byte	0x73
ARM GAS  /tmp/ccsoMgCh.s 			page 26


 1423 0373 30000000 		.4byte	0x30
 1424 0377 61050000 		.4byte	.LLST16
 1425 037b 1B       		.uleb128 0x1b
 1426 037c 9E010000 		.4byte	.LASF29
 1427 0380 01       		.byte	0x1
 1428 0381 73       		.byte	0x73
 1429 0382 30000000 		.4byte	0x30
 1430 0386 97050000 		.4byte	.LLST17
 1431 038a 1B       		.uleb128 0x1b
 1432 038b 07000000 		.4byte	.LASF31
 1433 038f 01       		.byte	0x1
 1434 0390 73       		.byte	0x73
 1435 0391 30000000 		.4byte	0x30
 1436 0395 1D060000 		.4byte	.LLST18
 1437 0399 1B       		.uleb128 0x1b
 1438 039a 12000000 		.4byte	.LASF32
 1439 039e 01       		.byte	0x1
 1440 039f 74       		.byte	0x74
 1441 03a0 D0000000 		.4byte	0xd0
 1442 03a4 D5060000 		.4byte	.LLST19
 1443 03a8 1B       		.uleb128 0x1b
 1444 03a9 F5010000 		.4byte	.LASF33
 1445 03ad 01       		.byte	0x1
 1446 03ae 74       		.byte	0x74
 1447 03af D0000000 		.4byte	0xd0
 1448 03b3 58070000 		.4byte	.LLST20
 1449 03b7 12       		.uleb128 0x12
 1450 03b8 6C00     		.ascii	"l\000"
 1451 03ba 01       		.byte	0x1
 1452 03bb 75       		.byte	0x75
 1453 03bc B4000000 		.4byte	0xb4
 1454 03c0 B0070000 		.4byte	.LLST21
 1455 03c4 12       		.uleb128 0x12
 1456 03c5 6600     		.ascii	"f\000"
 1457 03c7 01       		.byte	0x1
 1458 03c8 77       		.byte	0x77
 1459 03c9 37000000 		.4byte	0x37
 1460 03cd E4070000 		.4byte	.LLST22
 1461 03d1 1C       		.uleb128 0x1c
 1462 03d2 7F010000 		.4byte	.LASF34
 1463 03d6 01       		.byte	0x1
 1464 03d7 78       		.byte	0x78
 1465 03d8 EF050000 		.4byte	0x5ef
 1466 03dc 03       		.byte	0x3
 1467 03dd 91       		.byte	0x91
 1468 03de B87F     		.sleb128 -72
 1469 03e0 1D       		.uleb128 0x1d
 1470 03e1 0A020000 		.4byte	.LASF41
 1471 03e5 01       		.byte	0x1
 1472 03e6 E6       		.byte	0xe6
 1473 03e7 88030000 		.4byte	.L38
 1474 03eb 1E       		.uleb128 0x1e
 1475 03ec B7020000 		.4byte	0x2b7
 1476 03f0 A4020000 		.4byte	.LBB8
 1477 03f4 00000000 		.4byte	.Ldebug_ranges0+0
 1478 03f8 01       		.byte	0x1
 1479 03f9 D8       		.byte	0xd8
ARM GAS  /tmp/ccsoMgCh.s 			page 27


 1480 03fa 65040000 		.4byte	0x465
 1481 03fe 1F       		.uleb128 0x1f
 1482 03ff D1020000 		.4byte	0x2d1
 1483 0403 18080000 		.4byte	.LLST23
 1484 0407 1F       		.uleb128 0x1f
 1485 0408 C8020000 		.4byte	0x2c8
 1486 040c 30080000 		.4byte	.LLST24
 1487 0410 20       		.uleb128 0x20
 1488 0411 20000000 		.4byte	.Ldebug_ranges0+0x20
 1489 0415 21       		.uleb128 0x21
 1490 0416 DC020000 		.4byte	0x2dc
 1491 041a 64080000 		.4byte	.LLST25
 1492 041e 21       		.uleb128 0x21
 1493 041f E5020000 		.4byte	0x2e5
 1494 0423 96080000 		.4byte	.LLST26
 1495 0427 22       		.uleb128 0x22
 1496 0428 B8020000 		.4byte	.LVL95
 1497 042c F3010000 		.4byte	0x1f3
 1498 0430 4D040000 		.4byte	0x44d
 1499 0434 23       		.uleb128 0x23
 1500 0435 01       		.byte	0x1
 1501 0436 53       		.byte	0x53
 1502 0437 01       		.byte	0x1
 1503 0438 30       		.byte	0x30
 1504 0439 23       		.uleb128 0x23
 1505 043a 01       		.byte	0x1
 1506 043b 52       		.byte	0x52
 1507 043c 01       		.byte	0x1
 1508 043d 3A       		.byte	0x3a
 1509 043e 23       		.uleb128 0x23
 1510 043f 01       		.byte	0x1
 1511 0440 51       		.byte	0x51
 1512 0441 04       		.byte	0x4
 1513 0442 91       		.byte	0x91
 1514 0443 947F     		.sleb128 -108
 1515 0445 06       		.byte	0x6
 1516 0446 23       		.uleb128 0x23
 1517 0447 01       		.byte	0x1
 1518 0448 50       		.byte	0x50
 1519 0449 02       		.byte	0x2
 1520 044a 7B       		.byte	0x7b
 1521 044b 00       		.sleb128 0
 1522 044c 00       		.byte	0
 1523 044d 24       		.uleb128 0x24
 1524 044e 00030000 		.4byte	.LVL106
 1525 0452 F3010000 		.4byte	0x1f3
 1526 0456 23       		.uleb128 0x23
 1527 0457 01       		.byte	0x1
 1528 0458 53       		.byte	0x53
 1529 0459 03       		.byte	0x3
 1530 045a 0A       		.byte	0xa
 1531 045b 1027     		.2byte	0x2710
 1532 045d 23       		.uleb128 0x23
 1533 045e 01       		.byte	0x1
 1534 045f 52       		.byte	0x52
 1535 0460 01       		.byte	0x1
 1536 0461 3A       		.byte	0x3a
ARM GAS  /tmp/ccsoMgCh.s 			page 28


 1537 0462 00       		.byte	0
 1538 0463 00       		.byte	0
 1539 0464 00       		.byte	0
 1540 0465 25       		.uleb128 0x25
 1541 0466 86020000 		.4byte	0x286
 1542 046a 92030000 		.4byte	.LBB14
 1543 046e 9A030000 		.4byte	.LBE14
 1544 0472 01       		.byte	0x1
 1545 0473 EB       		.byte	0xeb
 1546 0474 A9040000 		.4byte	0x4a9
 1547 0478 1F       		.uleb128 0x1f
 1548 0479 AB020000 		.4byte	0x2ab
 1549 047d AE080000 		.4byte	.LLST27
 1550 0481 1F       		.uleb128 0x1f
 1551 0482 A0020000 		.4byte	0x2a0
 1552 0486 C1080000 		.4byte	.LLST28
 1553 048a 1F       		.uleb128 0x1f
 1554 048b 97020000 		.4byte	0x297
 1555 048f D4080000 		.4byte	.LLST29
 1556 0493 24       		.uleb128 0x24
 1557 0494 9A030000 		.4byte	.LVL132
 1558 0498 F3010000 		.4byte	0x1f3
 1559 049c 23       		.uleb128 0x23
 1560 049d 01       		.byte	0x1
 1561 049e 53       		.byte	0x53
 1562 049f 01       		.byte	0x1
 1563 04a0 30       		.byte	0x30
 1564 04a1 23       		.uleb128 0x23
 1565 04a2 01       		.byte	0x1
 1566 04a3 50       		.byte	0x50
 1567 04a4 02       		.byte	0x2
 1568 04a5 78       		.byte	0x78
 1569 04a6 00       		.sleb128 0
 1570 04a7 00       		.byte	0
 1571 04a8 00       		.byte	0
 1572 04a9 25       		.uleb128 0x25
 1573 04aa 86020000 		.4byte	0x286
 1574 04ae C6030000 		.4byte	.LBB16
 1575 04b2 CE030000 		.4byte	.LBE16
 1576 04b6 01       		.byte	0x1
 1577 04b7 CF       		.byte	0xcf
 1578 04b8 EC040000 		.4byte	0x4ec
 1579 04bc 1F       		.uleb128 0x1f
 1580 04bd AB020000 		.4byte	0x2ab
 1581 04c1 E7080000 		.4byte	.LLST30
 1582 04c5 1F       		.uleb128 0x1f
 1583 04c6 A0020000 		.4byte	0x2a0
 1584 04ca FB080000 		.4byte	.LLST31
 1585 04ce 1F       		.uleb128 0x1f
 1586 04cf 97020000 		.4byte	0x297
 1587 04d3 0E090000 		.4byte	.LLST32
 1588 04d7 24       		.uleb128 0x24
 1589 04d8 CE030000 		.4byte	.LVL143
 1590 04dc F3010000 		.4byte	0x1f3
 1591 04e0 23       		.uleb128 0x23
 1592 04e1 01       		.byte	0x1
 1593 04e2 53       		.byte	0x53
ARM GAS  /tmp/ccsoMgCh.s 			page 29


 1594 04e3 01       		.byte	0x1
 1595 04e4 30       		.byte	0x30
 1596 04e5 23       		.uleb128 0x23
 1597 04e6 01       		.byte	0x1
 1598 04e7 52       		.byte	0x52
 1599 04e8 01       		.byte	0x1
 1600 04e9 3A       		.byte	0x3a
 1601 04ea 00       		.byte	0
 1602 04eb 00       		.byte	0
 1603 04ec 26       		.uleb128 0x26
 1604 04ed 3E000000 		.4byte	.LVL28
 1605 04f1 FC040000 		.4byte	0x4fc
 1606 04f5 23       		.uleb128 0x23
 1607 04f6 01       		.byte	0x1
 1608 04f7 50       		.byte	0x50
 1609 04f8 02       		.byte	0x2
 1610 04f9 76       		.byte	0x76
 1611 04fa 00       		.sleb128 0
 1612 04fb 00       		.byte	0
 1613 04fc 26       		.uleb128 0x26
 1614 04fd DA010000 		.4byte	.LVL69
 1615 0501 0C050000 		.4byte	0x50c
 1616 0505 23       		.uleb128 0x23
 1617 0506 01       		.byte	0x1
 1618 0507 50       		.byte	0x50
 1619 0508 02       		.byte	0x2
 1620 0509 76       		.byte	0x76
 1621 050a 00       		.sleb128 0
 1622 050b 00       		.byte	0
 1623 050c 26       		.uleb128 0x26
 1624 050d FE010000 		.4byte	.LVL72
 1625 0511 1C050000 		.4byte	0x51c
 1626 0515 23       		.uleb128 0x23
 1627 0516 01       		.byte	0x1
 1628 0517 50       		.byte	0x50
 1629 0518 02       		.byte	0x2
 1630 0519 76       		.byte	0x76
 1631 051a 00       		.sleb128 0
 1632 051b 00       		.byte	0
 1633 051c 26       		.uleb128 0x26
 1634 051d 0E020000 		.4byte	.LVL73
 1635 0521 2C050000 		.4byte	0x52c
 1636 0525 23       		.uleb128 0x23
 1637 0526 01       		.byte	0x1
 1638 0527 50       		.byte	0x50
 1639 0528 02       		.byte	0x2
 1640 0529 76       		.byte	0x76
 1641 052a 00       		.sleb128 0
 1642 052b 00       		.byte	0
 1643 052c 26       		.uleb128 0x26
 1644 052d 2A020000 		.4byte	.LVL76
 1645 0531 42050000 		.4byte	0x542
 1646 0535 23       		.uleb128 0x23
 1647 0536 01       		.byte	0x1
 1648 0537 51       		.byte	0x51
 1649 0538 02       		.byte	0x2
 1650 0539 77       		.byte	0x77
ARM GAS  /tmp/ccsoMgCh.s 			page 30


 1651 053a 00       		.sleb128 0
 1652 053b 23       		.uleb128 0x23
 1653 053c 01       		.byte	0x1
 1654 053d 50       		.byte	0x50
 1655 053e 02       		.byte	0x2
 1656 053f 76       		.byte	0x76
 1657 0540 00       		.sleb128 0
 1658 0541 00       		.byte	0
 1659 0542 26       		.uleb128 0x26
 1660 0543 40020000 		.4byte	.LVL77
 1661 0547 58050000 		.4byte	0x558
 1662 054b 23       		.uleb128 0x23
 1663 054c 01       		.byte	0x1
 1664 054d 51       		.byte	0x51
 1665 054e 02       		.byte	0x2
 1666 054f 77       		.byte	0x77
 1667 0550 00       		.sleb128 0
 1668 0551 23       		.uleb128 0x23
 1669 0552 01       		.byte	0x1
 1670 0553 50       		.byte	0x50
 1671 0554 02       		.byte	0x2
 1672 0555 76       		.byte	0x76
 1673 0556 00       		.sleb128 0
 1674 0557 00       		.byte	0
 1675 0558 26       		.uleb128 0x26
 1676 0559 50020000 		.4byte	.LVL78
 1677 055d 6E050000 		.4byte	0x56e
 1678 0561 23       		.uleb128 0x23
 1679 0562 01       		.byte	0x1
 1680 0563 51       		.byte	0x51
 1681 0564 02       		.byte	0x2
 1682 0565 77       		.byte	0x77
 1683 0566 00       		.sleb128 0
 1684 0567 23       		.uleb128 0x23
 1685 0568 01       		.byte	0x1
 1686 0569 50       		.byte	0x50
 1687 056a 02       		.byte	0x2
 1688 056b 76       		.byte	0x76
 1689 056c 00       		.sleb128 0
 1690 056d 00       		.byte	0
 1691 056e 26       		.uleb128 0x26
 1692 056f 5C020000 		.4byte	.LVL79
 1693 0573 84050000 		.4byte	0x584
 1694 0577 23       		.uleb128 0x23
 1695 0578 01       		.byte	0x1
 1696 0579 51       		.byte	0x51
 1697 057a 02       		.byte	0x2
 1698 057b 77       		.byte	0x77
 1699 057c 00       		.sleb128 0
 1700 057d 23       		.uleb128 0x23
 1701 057e 01       		.byte	0x1
 1702 057f 50       		.byte	0x50
 1703 0580 02       		.byte	0x2
 1704 0581 76       		.byte	0x76
 1705 0582 00       		.sleb128 0
 1706 0583 00       		.byte	0
 1707 0584 26       		.uleb128 0x26
ARM GAS  /tmp/ccsoMgCh.s 			page 31


 1708 0585 4A030000 		.4byte	.LVL117
 1709 0589 9A050000 		.4byte	0x59a
 1710 058d 23       		.uleb128 0x23
 1711 058e 01       		.byte	0x1
 1712 058f 51       		.byte	0x51
 1713 0590 02       		.byte	0x2
 1714 0591 77       		.byte	0x77
 1715 0592 00       		.sleb128 0
 1716 0593 23       		.uleb128 0x23
 1717 0594 01       		.byte	0x1
 1718 0595 50       		.byte	0x50
 1719 0596 02       		.byte	0x2
 1720 0597 76       		.byte	0x76
 1721 0598 00       		.sleb128 0
 1722 0599 00       		.byte	0
 1723 059a 26       		.uleb128 0x26
 1724 059b 64030000 		.4byte	.LVL121
 1725 059f B0050000 		.4byte	0x5b0
 1726 05a3 23       		.uleb128 0x23
 1727 05a4 01       		.byte	0x1
 1728 05a5 51       		.byte	0x51
 1729 05a6 02       		.byte	0x2
 1730 05a7 77       		.byte	0x77
 1731 05a8 00       		.sleb128 0
 1732 05a9 23       		.uleb128 0x23
 1733 05aa 01       		.byte	0x1
 1734 05ab 50       		.byte	0x50
 1735 05ac 02       		.byte	0x2
 1736 05ad 76       		.byte	0x76
 1737 05ae 00       		.sleb128 0
 1738 05af 00       		.byte	0
 1739 05b0 26       		.uleb128 0x26
 1740 05b1 74030000 		.4byte	.LVL124
 1741 05b5 C6050000 		.4byte	0x5c6
 1742 05b9 23       		.uleb128 0x23
 1743 05ba 01       		.byte	0x1
 1744 05bb 51       		.byte	0x51
 1745 05bc 02       		.byte	0x2
 1746 05bd 77       		.byte	0x77
 1747 05be 00       		.sleb128 0
 1748 05bf 23       		.uleb128 0x23
 1749 05c0 01       		.byte	0x1
 1750 05c1 50       		.byte	0x50
 1751 05c2 02       		.byte	0x2
 1752 05c3 76       		.byte	0x76
 1753 05c4 00       		.sleb128 0
 1754 05c5 00       		.byte	0
 1755 05c6 26       		.uleb128 0x26
 1756 05c7 80030000 		.4byte	.LVL126
 1757 05cb DC050000 		.4byte	0x5dc
 1758 05cf 23       		.uleb128 0x23
 1759 05d0 01       		.byte	0x1
 1760 05d1 51       		.byte	0x51
 1761 05d2 02       		.byte	0x2
 1762 05d3 77       		.byte	0x77
 1763 05d4 00       		.sleb128 0
 1764 05d5 23       		.uleb128 0x23
ARM GAS  /tmp/ccsoMgCh.s 			page 32


 1765 05d6 01       		.byte	0x1
 1766 05d7 50       		.byte	0x50
 1767 05d8 02       		.byte	0x2
 1768 05d9 76       		.byte	0x76
 1769 05da 00       		.sleb128 0
 1770 05db 00       		.byte	0
 1771 05dc 27       		.uleb128 0x27
 1772 05dd 26040000 		.4byte	.LVL157
 1773 05e1 23       		.uleb128 0x23
 1774 05e2 01       		.byte	0x1
 1775 05e3 50       		.byte	0x50
 1776 05e4 02       		.byte	0x2
 1777 05e5 76       		.byte	0x76
 1778 05e6 00       		.sleb128 0
 1779 05e7 00       		.byte	0
 1780 05e8 00       		.byte	0
 1781 05e9 08       		.uleb128 0x8
 1782 05ea 04       		.byte	0x4
 1783 05eb E8010000 		.4byte	0x1e8
 1784 05ef 28       		.uleb128 0x28
 1785 05f0 F8000000 		.4byte	0xf8
 1786 05f4 29       		.uleb128 0x29
 1787 05f5 E6000000 		.4byte	0xe6
 1788 05f9 16       		.byte	0x16
 1789 05fa 00       		.byte	0
 1790 05fb 00       		.byte	0
 1791              		.section	.debug_abbrev,"",%progbits
 1792              	.Ldebug_abbrev0:
 1793 0000 01       		.uleb128 0x1
 1794 0001 11       		.uleb128 0x11
 1795 0002 01       		.byte	0x1
 1796 0003 25       		.uleb128 0x25
 1797 0004 0E       		.uleb128 0xe
 1798 0005 13       		.uleb128 0x13
 1799 0006 0B       		.uleb128 0xb
 1800 0007 03       		.uleb128 0x3
 1801 0008 0E       		.uleb128 0xe
 1802 0009 1B       		.uleb128 0x1b
 1803 000a 0E       		.uleb128 0xe
 1804 000b 55       		.uleb128 0x55
 1805 000c 06       		.uleb128 0x6
 1806 000d 11       		.uleb128 0x11
 1807 000e 01       		.uleb128 0x1
 1808 000f 52       		.uleb128 0x52
 1809 0010 01       		.uleb128 0x1
 1810 0011 10       		.uleb128 0x10
 1811 0012 06       		.uleb128 0x6
 1812 0013 00       		.byte	0
 1813 0014 00       		.byte	0
 1814 0015 02       		.uleb128 0x2
 1815 0016 24       		.uleb128 0x24
 1816 0017 00       		.byte	0
 1817 0018 0B       		.uleb128 0xb
 1818 0019 0B       		.uleb128 0xb
 1819 001a 3E       		.uleb128 0x3e
 1820 001b 0B       		.uleb128 0xb
 1821 001c 03       		.uleb128 0x3
ARM GAS  /tmp/ccsoMgCh.s 			page 33


 1822 001d 0E       		.uleb128 0xe
 1823 001e 00       		.byte	0
 1824 001f 00       		.byte	0
 1825 0020 03       		.uleb128 0x3
 1826 0021 24       		.uleb128 0x24
 1827 0022 00       		.byte	0
 1828 0023 0B       		.uleb128 0xb
 1829 0024 0B       		.uleb128 0xb
 1830 0025 3E       		.uleb128 0x3e
 1831 0026 0B       		.uleb128 0xb
 1832 0027 03       		.uleb128 0x3
 1833 0028 08       		.uleb128 0x8
 1834 0029 00       		.byte	0
 1835 002a 00       		.byte	0
 1836 002b 04       		.uleb128 0x4
 1837 002c 16       		.uleb128 0x16
 1838 002d 00       		.byte	0
 1839 002e 03       		.uleb128 0x3
 1840 002f 0E       		.uleb128 0xe
 1841 0030 3A       		.uleb128 0x3a
 1842 0031 0B       		.uleb128 0xb
 1843 0032 3B       		.uleb128 0x3b
 1844 0033 0B       		.uleb128 0xb
 1845 0034 49       		.uleb128 0x49
 1846 0035 13       		.uleb128 0x13
 1847 0036 00       		.byte	0
 1848 0037 00       		.byte	0
 1849 0038 05       		.uleb128 0x5
 1850 0039 13       		.uleb128 0x13
 1851 003a 01       		.byte	0x1
 1852 003b 03       		.uleb128 0x3
 1853 003c 0E       		.uleb128 0xe
 1854 003d 0B       		.uleb128 0xb
 1855 003e 0B       		.uleb128 0xb
 1856 003f 3A       		.uleb128 0x3a
 1857 0040 0B       		.uleb128 0xb
 1858 0041 3B       		.uleb128 0x3b
 1859 0042 0B       		.uleb128 0xb
 1860 0043 01       		.uleb128 0x1
 1861 0044 13       		.uleb128 0x13
 1862 0045 00       		.byte	0
 1863 0046 00       		.byte	0
 1864 0047 06       		.uleb128 0x6
 1865 0048 0D       		.uleb128 0xd
 1866 0049 00       		.byte	0
 1867 004a 03       		.uleb128 0x3
 1868 004b 0E       		.uleb128 0xe
 1869 004c 49       		.uleb128 0x49
 1870 004d 13       		.uleb128 0x13
 1871 004e 38       		.uleb128 0x38
 1872 004f 0A       		.uleb128 0xa
 1873 0050 34       		.uleb128 0x34
 1874 0051 0C       		.uleb128 0xc
 1875 0052 00       		.byte	0
 1876 0053 00       		.byte	0
 1877 0054 07       		.uleb128 0x7
 1878 0055 0F       		.uleb128 0xf
ARM GAS  /tmp/ccsoMgCh.s 			page 34


 1879 0056 00       		.byte	0
 1880 0057 0B       		.uleb128 0xb
 1881 0058 0B       		.uleb128 0xb
 1882 0059 00       		.byte	0
 1883 005a 00       		.byte	0
 1884 005b 08       		.uleb128 0x8
 1885 005c 0F       		.uleb128 0xf
 1886 005d 00       		.byte	0
 1887 005e 0B       		.uleb128 0xb
 1888 005f 0B       		.uleb128 0xb
 1889 0060 49       		.uleb128 0x49
 1890 0061 13       		.uleb128 0x13
 1891 0062 00       		.byte	0
 1892 0063 00       		.byte	0
 1893 0064 09       		.uleb128 0x9
 1894 0065 26       		.uleb128 0x26
 1895 0066 00       		.byte	0
 1896 0067 49       		.uleb128 0x49
 1897 0068 13       		.uleb128 0x13
 1898 0069 00       		.byte	0
 1899 006a 00       		.byte	0
 1900 006b 0A       		.uleb128 0xa
 1901 006c 15       		.uleb128 0x15
 1902 006d 01       		.byte	0x1
 1903 006e 27       		.uleb128 0x27
 1904 006f 0C       		.uleb128 0xc
 1905 0070 49       		.uleb128 0x49
 1906 0071 13       		.uleb128 0x13
 1907 0072 01       		.uleb128 0x1
 1908 0073 13       		.uleb128 0x13
 1909 0074 00       		.byte	0
 1910 0075 00       		.byte	0
 1911 0076 0B       		.uleb128 0xb
 1912 0077 05       		.uleb128 0x5
 1913 0078 00       		.byte	0
 1914 0079 49       		.uleb128 0x49
 1915 007a 13       		.uleb128 0x13
 1916 007b 00       		.byte	0
 1917 007c 00       		.byte	0
 1918 007d 0C       		.uleb128 0xc
 1919 007e 0D       		.uleb128 0xd
 1920 007f 00       		.byte	0
 1921 0080 03       		.uleb128 0x3
 1922 0081 0E       		.uleb128 0xe
 1923 0082 3A       		.uleb128 0x3a
 1924 0083 0B       		.uleb128 0xb
 1925 0084 3B       		.uleb128 0x3b
 1926 0085 0B       		.uleb128 0xb
 1927 0086 49       		.uleb128 0x49
 1928 0087 13       		.uleb128 0x13
 1929 0088 38       		.uleb128 0x38
 1930 0089 0A       		.uleb128 0xa
 1931 008a 00       		.byte	0
 1932 008b 00       		.byte	0
 1933 008c 0D       		.uleb128 0xd
 1934 008d 0D       		.uleb128 0xd
 1935 008e 00       		.byte	0
ARM GAS  /tmp/ccsoMgCh.s 			page 35


 1936 008f 03       		.uleb128 0x3
 1937 0090 08       		.uleb128 0x8
 1938 0091 3A       		.uleb128 0x3a
 1939 0092 0B       		.uleb128 0xb
 1940 0093 3B       		.uleb128 0x3b
 1941 0094 0B       		.uleb128 0xb
 1942 0095 49       		.uleb128 0x49
 1943 0096 13       		.uleb128 0x13
 1944 0097 38       		.uleb128 0x38
 1945 0098 0A       		.uleb128 0xa
 1946 0099 00       		.byte	0
 1947 009a 00       		.byte	0
 1948 009b 0E       		.uleb128 0xe
 1949 009c 13       		.uleb128 0x13
 1950 009d 01       		.byte	0x1
 1951 009e 0B       		.uleb128 0xb
 1952 009f 0B       		.uleb128 0xb
 1953 00a0 3A       		.uleb128 0x3a
 1954 00a1 0B       		.uleb128 0xb
 1955 00a2 3B       		.uleb128 0x3b
 1956 00a3 0B       		.uleb128 0xb
 1957 00a4 01       		.uleb128 0x1
 1958 00a5 13       		.uleb128 0x13
 1959 00a6 00       		.byte	0
 1960 00a7 00       		.byte	0
 1961 00a8 0F       		.uleb128 0xf
 1962 00a9 2E       		.uleb128 0x2e
 1963 00aa 01       		.byte	0x1
 1964 00ab 03       		.uleb128 0x3
 1965 00ac 0E       		.uleb128 0xe
 1966 00ad 3A       		.uleb128 0x3a
 1967 00ae 0B       		.uleb128 0xb
 1968 00af 3B       		.uleb128 0x3b
 1969 00b0 0B       		.uleb128 0xb
 1970 00b1 27       		.uleb128 0x27
 1971 00b2 0C       		.uleb128 0xc
 1972 00b3 49       		.uleb128 0x49
 1973 00b4 13       		.uleb128 0x13
 1974 00b5 11       		.uleb128 0x11
 1975 00b6 01       		.uleb128 0x1
 1976 00b7 12       		.uleb128 0x12
 1977 00b8 01       		.uleb128 0x1
 1978 00b9 40       		.uleb128 0x40
 1979 00ba 06       		.uleb128 0x6
 1980 00bb 9742     		.uleb128 0x2117
 1981 00bd 0C       		.uleb128 0xc
 1982 00be 01       		.uleb128 0x1
 1983 00bf 13       		.uleb128 0x13
 1984 00c0 00       		.byte	0
 1985 00c1 00       		.byte	0
 1986 00c2 10       		.uleb128 0x10
 1987 00c3 05       		.uleb128 0x5
 1988 00c4 00       		.byte	0
 1989 00c5 03       		.uleb128 0x3
 1990 00c6 08       		.uleb128 0x8
 1991 00c7 3A       		.uleb128 0x3a
 1992 00c8 0B       		.uleb128 0xb
ARM GAS  /tmp/ccsoMgCh.s 			page 36


 1993 00c9 3B       		.uleb128 0x3b
 1994 00ca 0B       		.uleb128 0xb
 1995 00cb 49       		.uleb128 0x49
 1996 00cc 13       		.uleb128 0x13
 1997 00cd 02       		.uleb128 0x2
 1998 00ce 06       		.uleb128 0x6
 1999 00cf 00       		.byte	0
 2000 00d0 00       		.byte	0
 2001 00d1 11       		.uleb128 0x11
 2002 00d2 05       		.uleb128 0x5
 2003 00d3 00       		.byte	0
 2004 00d4 03       		.uleb128 0x3
 2005 00d5 0E       		.uleb128 0xe
 2006 00d6 3A       		.uleb128 0x3a
 2007 00d7 0B       		.uleb128 0xb
 2008 00d8 3B       		.uleb128 0x3b
 2009 00d9 0B       		.uleb128 0xb
 2010 00da 49       		.uleb128 0x49
 2011 00db 13       		.uleb128 0x13
 2012 00dc 02       		.uleb128 0x2
 2013 00dd 06       		.uleb128 0x6
 2014 00de 00       		.byte	0
 2015 00df 00       		.byte	0
 2016 00e0 12       		.uleb128 0x12
 2017 00e1 34       		.uleb128 0x34
 2018 00e2 00       		.byte	0
 2019 00e3 03       		.uleb128 0x3
 2020 00e4 08       		.uleb128 0x8
 2021 00e5 3A       		.uleb128 0x3a
 2022 00e6 0B       		.uleb128 0xb
 2023 00e7 3B       		.uleb128 0x3b
 2024 00e8 0B       		.uleb128 0xb
 2025 00e9 49       		.uleb128 0x49
 2026 00ea 13       		.uleb128 0x13
 2027 00eb 02       		.uleb128 0x2
 2028 00ec 06       		.uleb128 0x6
 2029 00ed 00       		.byte	0
 2030 00ee 00       		.byte	0
 2031 00ef 13       		.uleb128 0x13
 2032 00f0 2E       		.uleb128 0x2e
 2033 00f1 01       		.byte	0x1
 2034 00f2 03       		.uleb128 0x3
 2035 00f3 0E       		.uleb128 0xe
 2036 00f4 3A       		.uleb128 0x3a
 2037 00f5 0B       		.uleb128 0xb
 2038 00f6 3B       		.uleb128 0x3b
 2039 00f7 0B       		.uleb128 0xb
 2040 00f8 27       		.uleb128 0x27
 2041 00f9 0C       		.uleb128 0xc
 2042 00fa 49       		.uleb128 0x49
 2043 00fb 13       		.uleb128 0x13
 2044 00fc 20       		.uleb128 0x20
 2045 00fd 0B       		.uleb128 0xb
 2046 00fe 01       		.uleb128 0x1
 2047 00ff 13       		.uleb128 0x13
 2048 0100 00       		.byte	0
 2049 0101 00       		.byte	0
ARM GAS  /tmp/ccsoMgCh.s 			page 37


 2050 0102 14       		.uleb128 0x14
 2051 0103 05       		.uleb128 0x5
 2052 0104 00       		.byte	0
 2053 0105 03       		.uleb128 0x3
 2054 0106 08       		.uleb128 0x8
 2055 0107 3A       		.uleb128 0x3a
 2056 0108 0B       		.uleb128 0xb
 2057 0109 3B       		.uleb128 0x3b
 2058 010a 0B       		.uleb128 0xb
 2059 010b 49       		.uleb128 0x49
 2060 010c 13       		.uleb128 0x13
 2061 010d 00       		.byte	0
 2062 010e 00       		.byte	0
 2063 010f 15       		.uleb128 0x15
 2064 0110 05       		.uleb128 0x5
 2065 0111 00       		.byte	0
 2066 0112 03       		.uleb128 0x3
 2067 0113 0E       		.uleb128 0xe
 2068 0114 3A       		.uleb128 0x3a
 2069 0115 0B       		.uleb128 0xb
 2070 0116 3B       		.uleb128 0x3b
 2071 0117 0B       		.uleb128 0xb
 2072 0118 49       		.uleb128 0x49
 2073 0119 13       		.uleb128 0x13
 2074 011a 00       		.byte	0
 2075 011b 00       		.byte	0
 2076 011c 16       		.uleb128 0x16
 2077 011d 34       		.uleb128 0x34
 2078 011e 00       		.byte	0
 2079 011f 03       		.uleb128 0x3
 2080 0120 08       		.uleb128 0x8
 2081 0121 3A       		.uleb128 0x3a
 2082 0122 0B       		.uleb128 0xb
 2083 0123 3B       		.uleb128 0x3b
 2084 0124 0B       		.uleb128 0xb
 2085 0125 49       		.uleb128 0x49
 2086 0126 13       		.uleb128 0x13
 2087 0127 00       		.byte	0
 2088 0128 00       		.byte	0
 2089 0129 17       		.uleb128 0x17
 2090 012a 34       		.uleb128 0x34
 2091 012b 00       		.byte	0
 2092 012c 03       		.uleb128 0x3
 2093 012d 0E       		.uleb128 0xe
 2094 012e 3A       		.uleb128 0x3a
 2095 012f 0B       		.uleb128 0xb
 2096 0130 3B       		.uleb128 0x3b
 2097 0131 0B       		.uleb128 0xb
 2098 0132 49       		.uleb128 0x49
 2099 0133 13       		.uleb128 0x13
 2100 0134 00       		.byte	0
 2101 0135 00       		.byte	0
 2102 0136 18       		.uleb128 0x18
 2103 0137 2E       		.uleb128 0x2e
 2104 0138 01       		.byte	0x1
 2105 0139 3F       		.uleb128 0x3f
 2106 013a 0C       		.uleb128 0xc
ARM GAS  /tmp/ccsoMgCh.s 			page 38


 2107 013b 03       		.uleb128 0x3
 2108 013c 0E       		.uleb128 0xe
 2109 013d 3A       		.uleb128 0x3a
 2110 013e 0B       		.uleb128 0xb
 2111 013f 3B       		.uleb128 0x3b
 2112 0140 0B       		.uleb128 0xb
 2113 0141 27       		.uleb128 0x27
 2114 0142 0C       		.uleb128 0xc
 2115 0143 11       		.uleb128 0x11
 2116 0144 01       		.uleb128 0x1
 2117 0145 12       		.uleb128 0x12
 2118 0146 01       		.uleb128 0x1
 2119 0147 40       		.uleb128 0x40
 2120 0148 06       		.uleb128 0x6
 2121 0149 9642     		.uleb128 0x2116
 2122 014b 0C       		.uleb128 0xc
 2123 014c 01       		.uleb128 0x1
 2124 014d 13       		.uleb128 0x13
 2125 014e 00       		.byte	0
 2126 014f 00       		.byte	0
 2127 0150 19       		.uleb128 0x19
 2128 0151 18       		.uleb128 0x18
 2129 0152 00       		.byte	0
 2130 0153 00       		.byte	0
 2131 0154 00       		.byte	0
 2132 0155 1A       		.uleb128 0x1a
 2133 0156 34       		.uleb128 0x34
 2134 0157 00       		.byte	0
 2135 0158 03       		.uleb128 0x3
 2136 0159 08       		.uleb128 0x8
 2137 015a 3A       		.uleb128 0x3a
 2138 015b 0B       		.uleb128 0xb
 2139 015c 3B       		.uleb128 0x3b
 2140 015d 0B       		.uleb128 0xb
 2141 015e 49       		.uleb128 0x49
 2142 015f 13       		.uleb128 0x13
 2143 0160 02       		.uleb128 0x2
 2144 0161 0A       		.uleb128 0xa
 2145 0162 00       		.byte	0
 2146 0163 00       		.byte	0
 2147 0164 1B       		.uleb128 0x1b
 2148 0165 34       		.uleb128 0x34
 2149 0166 00       		.byte	0
 2150 0167 03       		.uleb128 0x3
 2151 0168 0E       		.uleb128 0xe
 2152 0169 3A       		.uleb128 0x3a
 2153 016a 0B       		.uleb128 0xb
 2154 016b 3B       		.uleb128 0x3b
 2155 016c 0B       		.uleb128 0xb
 2156 016d 49       		.uleb128 0x49
 2157 016e 13       		.uleb128 0x13
 2158 016f 02       		.uleb128 0x2
 2159 0170 06       		.uleb128 0x6
 2160 0171 00       		.byte	0
 2161 0172 00       		.byte	0
 2162 0173 1C       		.uleb128 0x1c
 2163 0174 34       		.uleb128 0x34
ARM GAS  /tmp/ccsoMgCh.s 			page 39


 2164 0175 00       		.byte	0
 2165 0176 03       		.uleb128 0x3
 2166 0177 0E       		.uleb128 0xe
 2167 0178 3A       		.uleb128 0x3a
 2168 0179 0B       		.uleb128 0xb
 2169 017a 3B       		.uleb128 0x3b
 2170 017b 0B       		.uleb128 0xb
 2171 017c 49       		.uleb128 0x49
 2172 017d 13       		.uleb128 0x13
 2173 017e 02       		.uleb128 0x2
 2174 017f 0A       		.uleb128 0xa
 2175 0180 00       		.byte	0
 2176 0181 00       		.byte	0
 2177 0182 1D       		.uleb128 0x1d
 2178 0183 0A       		.uleb128 0xa
 2179 0184 00       		.byte	0
 2180 0185 03       		.uleb128 0x3
 2181 0186 0E       		.uleb128 0xe
 2182 0187 3A       		.uleb128 0x3a
 2183 0188 0B       		.uleb128 0xb
 2184 0189 3B       		.uleb128 0x3b
 2185 018a 0B       		.uleb128 0xb
 2186 018b 11       		.uleb128 0x11
 2187 018c 01       		.uleb128 0x1
 2188 018d 00       		.byte	0
 2189 018e 00       		.byte	0
 2190 018f 1E       		.uleb128 0x1e
 2191 0190 1D       		.uleb128 0x1d
 2192 0191 01       		.byte	0x1
 2193 0192 31       		.uleb128 0x31
 2194 0193 13       		.uleb128 0x13
 2195 0194 52       		.uleb128 0x52
 2196 0195 01       		.uleb128 0x1
 2197 0196 55       		.uleb128 0x55
 2198 0197 06       		.uleb128 0x6
 2199 0198 58       		.uleb128 0x58
 2200 0199 0B       		.uleb128 0xb
 2201 019a 59       		.uleb128 0x59
 2202 019b 0B       		.uleb128 0xb
 2203 019c 01       		.uleb128 0x1
 2204 019d 13       		.uleb128 0x13
 2205 019e 00       		.byte	0
 2206 019f 00       		.byte	0
 2207 01a0 1F       		.uleb128 0x1f
 2208 01a1 05       		.uleb128 0x5
 2209 01a2 00       		.byte	0
 2210 01a3 31       		.uleb128 0x31
 2211 01a4 13       		.uleb128 0x13
 2212 01a5 02       		.uleb128 0x2
 2213 01a6 06       		.uleb128 0x6
 2214 01a7 00       		.byte	0
 2215 01a8 00       		.byte	0
 2216 01a9 20       		.uleb128 0x20
 2217 01aa 0B       		.uleb128 0xb
 2218 01ab 01       		.byte	0x1
 2219 01ac 55       		.uleb128 0x55
 2220 01ad 06       		.uleb128 0x6
ARM GAS  /tmp/ccsoMgCh.s 			page 40


 2221 01ae 00       		.byte	0
 2222 01af 00       		.byte	0
 2223 01b0 21       		.uleb128 0x21
 2224 01b1 34       		.uleb128 0x34
 2225 01b2 00       		.byte	0
 2226 01b3 31       		.uleb128 0x31
 2227 01b4 13       		.uleb128 0x13
 2228 01b5 02       		.uleb128 0x2
 2229 01b6 06       		.uleb128 0x6
 2230 01b7 00       		.byte	0
 2231 01b8 00       		.byte	0
 2232 01b9 22       		.uleb128 0x22
 2233 01ba 898201   		.uleb128 0x4109
 2234 01bd 01       		.byte	0x1
 2235 01be 11       		.uleb128 0x11
 2236 01bf 01       		.uleb128 0x1
 2237 01c0 31       		.uleb128 0x31
 2238 01c1 13       		.uleb128 0x13
 2239 01c2 01       		.uleb128 0x1
 2240 01c3 13       		.uleb128 0x13
 2241 01c4 00       		.byte	0
 2242 01c5 00       		.byte	0
 2243 01c6 23       		.uleb128 0x23
 2244 01c7 8A8201   		.uleb128 0x410a
 2245 01ca 00       		.byte	0
 2246 01cb 02       		.uleb128 0x2
 2247 01cc 0A       		.uleb128 0xa
 2248 01cd 9142     		.uleb128 0x2111
 2249 01cf 0A       		.uleb128 0xa
 2250 01d0 00       		.byte	0
 2251 01d1 00       		.byte	0
 2252 01d2 24       		.uleb128 0x24
 2253 01d3 898201   		.uleb128 0x4109
 2254 01d6 01       		.byte	0x1
 2255 01d7 11       		.uleb128 0x11
 2256 01d8 01       		.uleb128 0x1
 2257 01d9 31       		.uleb128 0x31
 2258 01da 13       		.uleb128 0x13
 2259 01db 00       		.byte	0
 2260 01dc 00       		.byte	0
 2261 01dd 25       		.uleb128 0x25
 2262 01de 1D       		.uleb128 0x1d
 2263 01df 01       		.byte	0x1
 2264 01e0 31       		.uleb128 0x31
 2265 01e1 13       		.uleb128 0x13
 2266 01e2 11       		.uleb128 0x11
 2267 01e3 01       		.uleb128 0x1
 2268 01e4 12       		.uleb128 0x12
 2269 01e5 01       		.uleb128 0x1
 2270 01e6 58       		.uleb128 0x58
 2271 01e7 0B       		.uleb128 0xb
 2272 01e8 59       		.uleb128 0x59
 2273 01e9 0B       		.uleb128 0xb
 2274 01ea 01       		.uleb128 0x1
 2275 01eb 13       		.uleb128 0x13
 2276 01ec 00       		.byte	0
 2277 01ed 00       		.byte	0
ARM GAS  /tmp/ccsoMgCh.s 			page 41


 2278 01ee 26       		.uleb128 0x26
 2279 01ef 898201   		.uleb128 0x4109
 2280 01f2 01       		.byte	0x1
 2281 01f3 11       		.uleb128 0x11
 2282 01f4 01       		.uleb128 0x1
 2283 01f5 01       		.uleb128 0x1
 2284 01f6 13       		.uleb128 0x13
 2285 01f7 00       		.byte	0
 2286 01f8 00       		.byte	0
 2287 01f9 27       		.uleb128 0x27
 2288 01fa 898201   		.uleb128 0x4109
 2289 01fd 01       		.byte	0x1
 2290 01fe 11       		.uleb128 0x11
 2291 01ff 01       		.uleb128 0x1
 2292 0200 00       		.byte	0
 2293 0201 00       		.byte	0
 2294 0202 28       		.uleb128 0x28
 2295 0203 01       		.uleb128 0x1
 2296 0204 01       		.byte	0x1
 2297 0205 49       		.uleb128 0x49
 2298 0206 13       		.uleb128 0x13
 2299 0207 00       		.byte	0
 2300 0208 00       		.byte	0
 2301 0209 29       		.uleb128 0x29
 2302 020a 21       		.uleb128 0x21
 2303 020b 00       		.byte	0
 2304 020c 49       		.uleb128 0x49
 2305 020d 13       		.uleb128 0x13
 2306 020e 2F       		.uleb128 0x2f
 2307 020f 0B       		.uleb128 0xb
 2308 0210 00       		.byte	0
 2309 0211 00       		.byte	0
 2310 0212 00       		.byte	0
 2311              		.section	.debug_loc,"",%progbits
 2312              	.Ldebug_loc0:
 2313              	.LLST0:
 2314 0000 00000000 		.4byte	.LFB7
 2315 0004 02000000 		.4byte	.LCFI0
 2316 0008 0200     		.2byte	0x2
 2317 000a 7D       		.byte	0x7d
 2318 000b 00       		.sleb128 0
 2319 000c 02000000 		.4byte	.LCFI0
 2320 0010 6C000000 		.4byte	.LFE7
 2321 0014 0200     		.2byte	0x2
 2322 0016 7D       		.byte	0x7d
 2323 0017 10       		.sleb128 16
 2324 0018 00000000 		.4byte	0
 2325 001c 00000000 		.4byte	0
 2326              	.LLST1:
 2327 0020 00000000 		.4byte	.LVL0
 2328 0024 12000000 		.4byte	.LVL4
 2329 0028 0100     		.2byte	0x1
 2330 002a 50       		.byte	0x50
 2331 002b 12000000 		.4byte	.LVL4
 2332 002f 56000000 		.4byte	.LVL21
 2333 0033 0100     		.2byte	0x1
 2334 0035 57       		.byte	0x57
ARM GAS  /tmp/ccsoMgCh.s 			page 42


 2335 0036 5E000000 		.4byte	.LVL22
 2336 003a 6C000000 		.4byte	.LFE7
 2337 003e 0100     		.2byte	0x1
 2338 0040 57       		.byte	0x57
 2339 0041 00000000 		.4byte	0
 2340 0045 00000000 		.4byte	0
 2341              	.LLST2:
 2342 0049 00000000 		.4byte	.LVL0
 2343 004d 12000000 		.4byte	.LVL4
 2344 0051 0100     		.2byte	0x1
 2345 0053 51       		.byte	0x51
 2346 0054 12000000 		.4byte	.LVL4
 2347 0058 6C000000 		.4byte	.LFE7
 2348 005c 0400     		.2byte	0x4
 2349 005e F3       		.byte	0xf3
 2350 005f 01       		.uleb128 0x1
 2351 0060 51       		.byte	0x51
 2352 0061 9F       		.byte	0x9f
 2353 0062 00000000 		.4byte	0
 2354 0066 00000000 		.4byte	0
 2355              	.LLST3:
 2356 006a 00000000 		.4byte	.LVL0
 2357 006e 40000000 		.4byte	.LVL16
 2358 0072 0100     		.2byte	0x1
 2359 0074 52       		.byte	0x52
 2360 0075 40000000 		.4byte	.LVL16
 2361 0079 6C000000 		.4byte	.LFE7
 2362 007d 0400     		.2byte	0x4
 2363 007f F3       		.byte	0xf3
 2364 0080 01       		.uleb128 0x1
 2365 0081 52       		.byte	0x52
 2366 0082 9F       		.byte	0x9f
 2367 0083 00000000 		.4byte	0
 2368 0087 00000000 		.4byte	0
 2369              	.LLST4:
 2370 008b 00000000 		.4byte	.LVL0
 2371 008f 08000000 		.4byte	.LVL1
 2372 0093 0100     		.2byte	0x1
 2373 0095 53       		.byte	0x53
 2374 0096 08000000 		.4byte	.LVL1
 2375 009a 6C000000 		.4byte	.LFE7
 2376 009e 0400     		.2byte	0x4
 2377 00a0 F3       		.byte	0xf3
 2378 00a1 01       		.uleb128 0x1
 2379 00a2 53       		.byte	0x53
 2380 00a3 9F       		.byte	0x9f
 2381 00a4 00000000 		.4byte	0
 2382 00a8 00000000 		.4byte	0
 2383              	.LLST5:
 2384 00ac 1A000000 		.4byte	.LVL5
 2385 00b0 1E000000 		.4byte	.LVL6
 2386 00b4 0100     		.2byte	0x1
 2387 00b6 51       		.byte	0x51
 2388 00b7 1E000000 		.4byte	.LVL6
 2389 00bb 28000000 		.4byte	.LVL8
 2390 00bf 0100     		.2byte	0x1
 2391 00c1 54       		.byte	0x54
ARM GAS  /tmp/ccsoMgCh.s 			page 43


 2392 00c2 38000000 		.4byte	.LVL13
 2393 00c6 3C000000 		.4byte	.LVL14
 2394 00ca 0600     		.2byte	0x6
 2395 00cc 7C       		.byte	0x7c
 2396 00cd 00       		.sleb128 0
 2397 00ce 70       		.byte	0x70
 2398 00cf 00       		.sleb128 0
 2399 00d0 1C       		.byte	0x1c
 2400 00d1 9F       		.byte	0x9f
 2401 00d2 3C000000 		.4byte	.LVL14
 2402 00d6 44000000 		.4byte	.LVL18
 2403 00da 0100     		.2byte	0x1
 2404 00dc 53       		.byte	0x53
 2405 00dd 44000000 		.4byte	.LVL18
 2406 00e1 48000000 		.4byte	.LVL19
 2407 00e5 0600     		.2byte	0x6
 2408 00e7 7C       		.byte	0x7c
 2409 00e8 00       		.sleb128 0
 2410 00e9 72       		.byte	0x72
 2411 00ea 00       		.sleb128 0
 2412 00eb 1C       		.byte	0x1c
 2413 00ec 9F       		.byte	0x9f
 2414 00ed 00000000 		.4byte	0
 2415 00f1 00000000 		.4byte	0
 2416              	.LLST6:
 2417 00f5 0E000000 		.4byte	.LVL3
 2418 00f9 12000000 		.4byte	.LVL4
 2419 00fd 0100     		.2byte	0x1
 2420 00ff 5C       		.byte	0x5c
 2421 0100 2E000000 		.4byte	.LVL10
 2422 0104 42000000 		.4byte	.LVL17
 2423 0108 0100     		.2byte	0x1
 2424 010a 50       		.byte	0x50
 2425 010b 42000000 		.4byte	.LVL17
 2426 010f 48000000 		.4byte	.LVL19
 2427 0113 0100     		.2byte	0x1
 2428 0115 52       		.byte	0x52
 2429 0116 00000000 		.4byte	0
 2430 011a 00000000 		.4byte	0
 2431              	.LLST7:
 2432 011e 0A000000 		.4byte	.LVL2
 2433 0122 1A000000 		.4byte	.LVL5
 2434 0126 0100     		.2byte	0x1
 2435 0128 51       		.byte	0x51
 2436 0129 34000000 		.4byte	.LVL12
 2437 012d 3E000000 		.4byte	.LVL15
 2438 0131 0100     		.2byte	0x1
 2439 0133 51       		.byte	0x51
 2440 0134 3E000000 		.4byte	.LVL15
 2441 0138 6C000000 		.4byte	.LFE7
 2442 013c 0100     		.2byte	0x1
 2443 013e 56       		.byte	0x56
 2444 013f 00000000 		.4byte	0
 2445 0143 00000000 		.4byte	0
 2446              	.LLST8:
 2447 0147 0A000000 		.4byte	.LVL2
 2448 014b 2C000000 		.4byte	.LVL9
ARM GAS  /tmp/ccsoMgCh.s 			page 44


 2449 014f 0100     		.2byte	0x1
 2450 0151 53       		.byte	0x53
 2451 0152 34000000 		.4byte	.LVL12
 2452 0156 3C000000 		.4byte	.LVL14
 2453 015a 0100     		.2byte	0x1
 2454 015c 53       		.byte	0x53
 2455 015d 00000000 		.4byte	0
 2456 0161 00000000 		.4byte	0
 2457              	.LLST9:
 2458 0165 00000000 		.4byte	.LFB10
 2459 0169 02000000 		.4byte	.LCFI1
 2460 016d 0200     		.2byte	0x2
 2461 016f 7D       		.byte	0x7d
 2462 0170 00       		.sleb128 0
 2463 0171 02000000 		.4byte	.LCFI1
 2464 0175 06000000 		.4byte	.LCFI2
 2465 0179 0200     		.2byte	0x2
 2466 017b 7D       		.byte	0x7d
 2467 017c 0C       		.sleb128 12
 2468 017d 06000000 		.4byte	.LCFI2
 2469 0181 08000000 		.4byte	.LCFI3
 2470 0185 0200     		.2byte	0x2
 2471 0187 7D       		.byte	0x7d
 2472 0188 30       		.sleb128 48
 2473 0189 08000000 		.4byte	.LCFI3
 2474 018d 46040000 		.4byte	.LFE10
 2475 0191 0300     		.2byte	0x3
 2476 0193 7D       		.byte	0x7d
 2477 0194 E000     		.sleb128 96
 2478 0196 00000000 		.4byte	0
 2479 019a 00000000 		.4byte	0
 2480              	.LLST10:
 2481 019e 00000000 		.4byte	.LVL23
 2482 01a2 26000000 		.4byte	.LVL24
 2483 01a6 0100     		.2byte	0x1
 2484 01a8 50       		.byte	0x50
 2485 01a9 26000000 		.4byte	.LVL24
 2486 01ad 46040000 		.4byte	.LFE10
 2487 01b1 0100     		.2byte	0x1
 2488 01b3 56       		.byte	0x56
 2489 01b4 00000000 		.4byte	0
 2490 01b8 00000000 		.4byte	0
 2491              	.LLST11:
 2492 01bc 00000000 		.4byte	.LVL23
 2493 01c0 26000000 		.4byte	.LVL24
 2494 01c4 0200     		.2byte	0x2
 2495 01c6 91       		.byte	0x91
 2496 01c7 74       		.sleb128 -12
 2497 01c8 26000000 		.4byte	.LVL24
 2498 01cc 2C000000 		.4byte	.LVL25
 2499 01d0 0100     		.2byte	0x1
 2500 01d2 54       		.byte	0x54
 2501 01d3 2C000000 		.4byte	.LVL25
 2502 01d7 3A000000 		.4byte	.LVL27
 2503 01db 0100     		.2byte	0x1
 2504 01dd 55       		.byte	0x55
 2505 01de 3A000000 		.4byte	.LVL27
ARM GAS  /tmp/ccsoMgCh.s 			page 45


 2506 01e2 42000000 		.4byte	.LVL29
 2507 01e6 0100     		.2byte	0x1
 2508 01e8 54       		.byte	0x54
 2509 01e9 42000000 		.4byte	.LVL29
 2510 01ed 6A000000 		.4byte	.LVL34
 2511 01f1 0100     		.2byte	0x1
 2512 01f3 55       		.byte	0x55
 2513 01f4 6A000000 		.4byte	.LVL34
 2514 01f8 2A010000 		.4byte	.LVL49
 2515 01fc 0100     		.2byte	0x1
 2516 01fe 54       		.byte	0x54
 2517 01ff 2E010000 		.4byte	.LVL50
 2518 0203 E2030000 		.4byte	.LVL146
 2519 0207 0100     		.2byte	0x1
 2520 0209 54       		.byte	0x54
 2521 020a E2030000 		.4byte	.LVL146
 2522 020e E8030000 		.4byte	.LVL147
 2523 0212 0300     		.2byte	0x3
 2524 0214 75       		.byte	0x75
 2525 0215 01       		.sleb128 1
 2526 0216 9F       		.byte	0x9f
 2527 0217 E8030000 		.4byte	.LVL147
 2528 021b F4030000 		.4byte	.LVL150
 2529 021f 0100     		.2byte	0x1
 2530 0221 55       		.byte	0x55
 2531 0222 F4030000 		.4byte	.LVL150
 2532 0226 46040000 		.4byte	.LFE10
 2533 022a 0100     		.2byte	0x1
 2534 022c 54       		.byte	0x54
 2535 022d 00000000 		.4byte	0
 2536 0231 00000000 		.4byte	0
 2537              	.LLST12:
 2538 0235 50000000 		.4byte	.LVL31
 2539 0239 72010000 		.4byte	.LVL59
 2540 023d 0100     		.2byte	0x1
 2541 023f 58       		.byte	0x58
 2542 0240 72010000 		.4byte	.LVL59
 2543 0244 86010000 		.4byte	.LVL60
 2544 0248 0100     		.2byte	0x1
 2545 024a 5A       		.byte	0x5a
 2546 024b 86010000 		.4byte	.LVL60
 2547 024f A6010000 		.4byte	.LVL62
 2548 0253 0100     		.2byte	0x1
 2549 0255 52       		.byte	0x52
 2550 0256 62020000 		.4byte	.LVL80
 2551 025a 66020000 		.4byte	.LVL81
 2552 025e 0100     		.2byte	0x1
 2553 0260 52       		.byte	0x52
 2554 0261 70020000 		.4byte	.LVL82
 2555 0265 76020000 		.4byte	.LVL83
 2556 0269 0100     		.2byte	0x1
 2557 026b 52       		.byte	0x52
 2558 026c 7E020000 		.4byte	.LVL84
 2559 0270 A4020000 		.4byte	.LVL91
 2560 0274 0100     		.2byte	0x1
 2561 0276 58       		.byte	0x58
 2562 0277 A4020000 		.4byte	.LVL91
ARM GAS  /tmp/ccsoMgCh.s 			page 46


 2563 027b D0020000 		.4byte	.LVL100
 2564 027f 0100     		.2byte	0x1
 2565 0281 5B       		.byte	0x5b
 2566 0282 08030000 		.4byte	.LVL107
 2567 0286 18030000 		.4byte	.LVL110
 2568 028a 0100     		.2byte	0x1
 2569 028c 58       		.byte	0x58
 2570 028d 18030000 		.4byte	.LVL110
 2571 0291 1C030000 		.4byte	.LVL111
 2572 0295 0300     		.2byte	0x3
 2573 0297 91       		.byte	0x91
 2574 0298 8C7F     		.sleb128 -116
 2575 029a 86030000 		.4byte	.LVL128
 2576 029e 9A030000 		.4byte	.LVL132
 2577 02a2 0100     		.2byte	0x1
 2578 02a4 58       		.byte	0x58
 2579 02a5 A2030000 		.4byte	.LVL133
 2580 02a9 C6030000 		.4byte	.LVL142
 2581 02ad 0100     		.2byte	0x1
 2582 02af 58       		.byte	0x58
 2583 02b0 C6030000 		.4byte	.LVL142
 2584 02b4 CD030000 		.4byte	.LVL143-1
 2585 02b8 0100     		.2byte	0x1
 2586 02ba 50       		.byte	0x50
 2587 02bb D6030000 		.4byte	.LVL144
 2588 02bf DA030000 		.4byte	.LVL145
 2589 02c3 0100     		.2byte	0x1
 2590 02c5 58       		.byte	0x58
 2591 02c6 DA030000 		.4byte	.LVL145
 2592 02ca E2030000 		.4byte	.LVL146
 2593 02ce 0300     		.2byte	0x3
 2594 02d0 91       		.byte	0x91
 2595 02d1 8C7F     		.sleb128 -116
 2596 02d3 E2030000 		.4byte	.LVL146
 2597 02d7 12040000 		.4byte	.LVL154
 2598 02db 0100     		.2byte	0x1
 2599 02dd 58       		.byte	0x58
 2600 02de 12040000 		.4byte	.LVL154
 2601 02e2 1A040000 		.4byte	.LVL156
 2602 02e6 0300     		.2byte	0x3
 2603 02e8 91       		.byte	0x91
 2604 02e9 8C7F     		.sleb128 -116
 2605 02eb 30040000 		.4byte	.LVL160
 2606 02ef 3A040000 		.4byte	.LVL162
 2607 02f3 0100     		.2byte	0x1
 2608 02f5 58       		.byte	0x58
 2609 02f6 3A040000 		.4byte	.LVL162
 2610 02fa 40040000 		.4byte	.LVL163
 2611 02fe 0300     		.2byte	0x3
 2612 0300 91       		.byte	0x91
 2613 0301 8C7F     		.sleb128 -116
 2614 0303 40040000 		.4byte	.LVL163
 2615 0307 46040000 		.4byte	.LFE10
 2616 030b 0100     		.2byte	0x1
 2617 030d 5A       		.byte	0x5a
 2618 030e 00000000 		.4byte	0
 2619 0312 00000000 		.4byte	0
ARM GAS  /tmp/ccsoMgCh.s 			page 47


 2620              	.LLST13:
 2621 0316 50000000 		.4byte	.LVL31
 2622 031a 58010000 		.4byte	.LVL56
 2623 031e 0100     		.2byte	0x1
 2624 0320 58       		.byte	0x58
 2625 0321 60010000 		.4byte	.LVL57
 2626 0325 D8010000 		.4byte	.LVL68
 2627 0329 0100     		.2byte	0x1
 2628 032b 5A       		.byte	0x5a
 2629 032c D8010000 		.4byte	.LVL68
 2630 0330 D9010000 		.4byte	.LVL69-1
 2631 0334 0400     		.2byte	0x4
 2632 0336 7E       		.byte	0x7e
 2633 0337 00       		.sleb128 0
 2634 0338 20       		.byte	0x20
 2635 0339 9F       		.byte	0x9f
 2636 033a D9010000 		.4byte	.LVL69-1
 2637 033e E8010000 		.4byte	.LVL71
 2638 0342 0300     		.2byte	0x3
 2639 0344 79       		.byte	0x79
 2640 0345 7F       		.sleb128 -1
 2641 0346 9F       		.byte	0x9f
 2642 0347 62020000 		.4byte	.LVL80
 2643 034b 7E020000 		.4byte	.LVL84
 2644 034f 0100     		.2byte	0x1
 2645 0351 5A       		.byte	0x5a
 2646 0352 7E020000 		.4byte	.LVL84
 2647 0356 1C030000 		.4byte	.LVL111
 2648 035a 0100     		.2byte	0x1
 2649 035c 58       		.byte	0x58
 2650 035d 1C030000 		.4byte	.LVL111
 2651 0361 50030000 		.4byte	.LVL119
 2652 0365 0100     		.2byte	0x1
 2653 0367 5A       		.byte	0x5a
 2654 0368 86030000 		.4byte	.LVL128
 2655 036c 1A040000 		.4byte	.LVL156
 2656 0370 0100     		.2byte	0x1
 2657 0372 58       		.byte	0x58
 2658 0373 1A040000 		.4byte	.LVL156
 2659 0377 30040000 		.4byte	.LVL160
 2660 037b 0100     		.2byte	0x1
 2661 037d 5A       		.byte	0x5a
 2662 037e 30040000 		.4byte	.LVL160
 2663 0382 40040000 		.4byte	.LVL163
 2664 0386 0100     		.2byte	0x1
 2665 0388 58       		.byte	0x58
 2666 0389 40040000 		.4byte	.LVL163
 2667 038d 46040000 		.4byte	.LFE10
 2668 0391 0100     		.2byte	0x1
 2669 0393 5A       		.byte	0x5a
 2670 0394 00000000 		.4byte	0
 2671 0398 00000000 		.4byte	0
 2672              	.LLST14:
 2673 039c 2C000000 		.4byte	.LVL25
 2674 03a0 2E000000 		.4byte	.LVL26
 2675 03a4 0200     		.2byte	0x2
 2676 03a6 74       		.byte	0x74
ARM GAS  /tmp/ccsoMgCh.s 			page 48


 2677 03a7 00       		.sleb128 0
 2678 03a8 42000000 		.4byte	.LVL29
 2679 03ac 46000000 		.4byte	.LVL30
 2680 03b0 0200     		.2byte	0x2
 2681 03b2 74       		.byte	0x74
 2682 03b3 00       		.sleb128 0
 2683 03b4 6C000000 		.4byte	.LVL35
 2684 03b8 6E000000 		.4byte	.LVL36
 2685 03bc 0100     		.2byte	0x1
 2686 03be 53       		.byte	0x53
 2687 03bf 6E000000 		.4byte	.LVL36
 2688 03c3 70000000 		.4byte	.LVL37
 2689 03c7 0200     		.2byte	0x2
 2690 03c9 71       		.byte	0x71
 2691 03ca 00       		.sleb128 0
 2692 03cb 70000000 		.4byte	.LVL37
 2693 03cf 7A000000 		.4byte	.LVL39
 2694 03d3 0100     		.2byte	0x1
 2695 03d5 52       		.byte	0x52
 2696 03d6 7A000000 		.4byte	.LVL39
 2697 03da 96000000 		.4byte	.LVL43
 2698 03de 0100     		.2byte	0x1
 2699 03e0 53       		.byte	0x53
 2700 03e1 A6000000 		.4byte	.LVL44
 2701 03e5 1E010000 		.4byte	.LVL45
 2702 03e9 0100     		.2byte	0x1
 2703 03eb 53       		.byte	0x53
 2704 03ec 1E010000 		.4byte	.LVL45
 2705 03f0 20010000 		.4byte	.LVL46
 2706 03f4 0200     		.2byte	0x2
 2707 03f6 74       		.byte	0x74
 2708 03f7 7F       		.sleb128 -1
 2709 03f8 20010000 		.4byte	.LVL46
 2710 03fc 22010000 		.4byte	.LVL47
 2711 0400 0200     		.2byte	0x2
 2712 0402 71       		.byte	0x71
 2713 0403 00       		.sleb128 0
 2714 0404 22010000 		.4byte	.LVL47
 2715 0408 2A010000 		.4byte	.LVL49
 2716 040c 0100     		.2byte	0x1
 2717 040e 52       		.byte	0x52
 2718 040f 2E010000 		.4byte	.LVL50
 2719 0413 42010000 		.4byte	.LVL51
 2720 0417 0200     		.2byte	0x2
 2721 0419 74       		.byte	0x74
 2722 041a 7F       		.sleb128 -1
 2723 041b 4A010000 		.4byte	.LVL52
 2724 041f 4E010000 		.4byte	.LVL53
 2725 0423 0200     		.2byte	0x2
 2726 0425 74       		.byte	0x74
 2727 0426 00       		.sleb128 0
 2728 0427 4E010000 		.4byte	.LVL53
 2729 042b 52010000 		.4byte	.LVL54
 2730 042f 0200     		.2byte	0x2
 2731 0431 74       		.byte	0x74
 2732 0432 7F       		.sleb128 -1
 2733 0433 52010000 		.4byte	.LVL54
ARM GAS  /tmp/ccsoMgCh.s 			page 49


 2734 0437 58010000 		.4byte	.LVL56
 2735 043b 0100     		.2byte	0x1
 2736 043d 53       		.byte	0x53
 2737 043e 58010000 		.4byte	.LVL56
 2738 0442 66010000 		.4byte	.LVL58
 2739 0446 0400     		.2byte	0x4
 2740 0448 72       		.byte	0x72
 2741 0449 C400     		.sleb128 68
 2742 044b 9F       		.byte	0x9f
 2743 044c 7E020000 		.4byte	.LVL84
 2744 0450 8A020000 		.4byte	.LVL87
 2745 0454 0100     		.2byte	0x1
 2746 0456 53       		.byte	0x53
 2747 0457 08030000 		.4byte	.LVL107
 2748 045b 12030000 		.4byte	.LVL109
 2749 045f 0100     		.2byte	0x1
 2750 0461 53       		.byte	0x53
 2751 0462 12030000 		.4byte	.LVL109
 2752 0466 1C030000 		.4byte	.LVL111
 2753 046a 0400     		.2byte	0x4
 2754 046c 72       		.byte	0x72
 2755 046d C400     		.sleb128 68
 2756 046f 9F       		.byte	0x9f
 2757 0470 86030000 		.4byte	.LVL128
 2758 0474 88030000 		.4byte	.LVL129
 2759 0478 0100     		.2byte	0x1
 2760 047a 53       		.byte	0x53
 2761 047b A2030000 		.4byte	.LVL133
 2762 047f A4030000 		.4byte	.LVL134
 2763 0483 0100     		.2byte	0x1
 2764 0485 53       		.byte	0x53
 2765 0486 B2030000 		.4byte	.LVL137
 2766 048a B6030000 		.4byte	.LVL138
 2767 048e 0200     		.2byte	0x2
 2768 0490 38       		.byte	0x38
 2769 0491 9F       		.byte	0x9f
 2770 0492 B6030000 		.4byte	.LVL138
 2771 0496 B8030000 		.4byte	.LVL139
 2772 049a 0100     		.2byte	0x1
 2773 049c 53       		.byte	0x53
 2774 049d B8030000 		.4byte	.LVL139
 2775 04a1 BA030000 		.4byte	.LVL140
 2776 04a5 0400     		.2byte	0x4
 2777 04a7 72       		.byte	0x72
 2778 04a8 C400     		.sleb128 68
 2779 04aa 9F       		.byte	0x9f
 2780 04ab D6030000 		.4byte	.LVL144
 2781 04af E2030000 		.4byte	.LVL146
 2782 04b3 0100     		.2byte	0x1
 2783 04b5 53       		.byte	0x53
 2784 04b6 00000000 		.4byte	0
 2785 04ba 00000000 		.4byte	0
 2786              	.LLST15:
 2787 04be 5C000000 		.4byte	.LVL32
 2788 04c2 64000000 		.4byte	.LVL33
 2789 04c6 0300     		.2byte	0x3
 2790 04c8 08       		.byte	0x8
ARM GAS  /tmp/ccsoMgCh.s 			page 50


 2791 04c9 20       		.byte	0x20
 2792 04ca 9F       		.byte	0x9f
 2793 04cb 64000000 		.4byte	.LVL33
 2794 04cf 52010000 		.4byte	.LVL54
 2795 04d3 0100     		.2byte	0x1
 2796 04d5 57       		.byte	0x57
 2797 04d6 52010000 		.4byte	.LVL54
 2798 04da B0010000 		.4byte	.LVL64
 2799 04de 0300     		.2byte	0x3
 2800 04e0 08       		.byte	0x8
 2801 04e1 20       		.byte	0x20
 2802 04e2 9F       		.byte	0x9f
 2803 04e3 B0010000 		.4byte	.LVL64
 2804 04e7 BC010000 		.4byte	.LVL66
 2805 04eb 0100     		.2byte	0x1
 2806 04ed 57       		.byte	0x57
 2807 04ee 62020000 		.4byte	.LVL80
 2808 04f2 7E020000 		.4byte	.LVL84
 2809 04f6 0300     		.2byte	0x3
 2810 04f8 08       		.byte	0x8
 2811 04f9 20       		.byte	0x20
 2812 04fa 9F       		.byte	0x9f
 2813 04fb 7E020000 		.4byte	.LVL84
 2814 04ff 08030000 		.4byte	.LVL107
 2815 0503 0100     		.2byte	0x1
 2816 0505 57       		.byte	0x57
 2817 0506 08030000 		.4byte	.LVL107
 2818 050a 1C030000 		.4byte	.LVL111
 2819 050e 0300     		.2byte	0x3
 2820 0510 08       		.byte	0x8
 2821 0511 20       		.byte	0x20
 2822 0512 9F       		.byte	0x9f
 2823 0513 1C030000 		.4byte	.LVL111
 2824 0517 2C030000 		.4byte	.LVL114
 2825 051b 0100     		.2byte	0x1
 2826 051d 57       		.byte	0x57
 2827 051e 86030000 		.4byte	.LVL128
 2828 0522 E2030000 		.4byte	.LVL146
 2829 0526 0100     		.2byte	0x1
 2830 0528 57       		.byte	0x57
 2831 0529 E2030000 		.4byte	.LVL146
 2832 052d EA030000 		.4byte	.LVL148
 2833 0531 0300     		.2byte	0x3
 2834 0533 08       		.byte	0x8
 2835 0534 30       		.byte	0x30
 2836 0535 9F       		.byte	0x9f
 2837 0536 F4030000 		.4byte	.LVL150
 2838 053a 1A040000 		.4byte	.LVL156
 2839 053e 0100     		.2byte	0x1
 2840 0540 57       		.byte	0x57
 2841 0541 30040000 		.4byte	.LVL160
 2842 0545 40040000 		.4byte	.LVL163
 2843 0549 0100     		.2byte	0x1
 2844 054b 57       		.byte	0x57
 2845 054c 40040000 		.4byte	.LVL163
 2846 0550 46040000 		.4byte	.LFE10
 2847 0554 0300     		.2byte	0x3
ARM GAS  /tmp/ccsoMgCh.s 			page 51


 2848 0556 08       		.byte	0x8
 2849 0557 20       		.byte	0x20
 2850 0558 9F       		.byte	0x9f
 2851 0559 00000000 		.4byte	0
 2852 055d 00000000 		.4byte	0
 2853              	.LLST16:
 2854 0561 B0010000 		.4byte	.LVL64
 2855 0565 BC010000 		.4byte	.LVL66
 2856 0569 0100     		.2byte	0x1
 2857 056b 5B       		.byte	0x5b
 2858 056c BC010000 		.4byte	.LVL66
 2859 0570 CE010000 		.4byte	.LVL67
 2860 0574 0300     		.2byte	0x3
 2861 0576 7B       		.byte	0x7b
 2862 0577 7F       		.sleb128 -1
 2863 0578 9F       		.byte	0x9f
 2864 0579 1C030000 		.4byte	.LVL111
 2865 057d 50030000 		.4byte	.LVL119
 2866 0581 0100     		.2byte	0x1
 2867 0583 5B       		.byte	0x5b
 2868 0584 1A040000 		.4byte	.LVL156
 2869 0588 30040000 		.4byte	.LVL160
 2870 058c 0100     		.2byte	0x1
 2871 058e 5B       		.byte	0x5b
 2872 058f 00000000 		.4byte	0
 2873 0593 00000000 		.4byte	0
 2874              	.LLST17:
 2875 0597 90000000 		.4byte	.LVL41
 2876 059b 92000000 		.4byte	.LVL42
 2877 059f 0200     		.2byte	0x2
 2878 05a1 30       		.byte	0x30
 2879 05a2 9F       		.byte	0x9f
 2880 05a3 92000000 		.4byte	.LVL42
 2881 05a7 26010000 		.4byte	.LVL48
 2882 05ab 0100     		.2byte	0x1
 2883 05ad 50       		.byte	0x50
 2884 05ae 26010000 		.4byte	.LVL48
 2885 05b2 2A010000 		.4byte	.LVL49
 2886 05b6 0500     		.2byte	0x5
 2887 05b8 73       		.byte	0x73
 2888 05b9 00       		.sleb128 0
 2889 05ba 31       		.byte	0x31
 2890 05bb 24       		.byte	0x24
 2891 05bc 9F       		.byte	0x9f
 2892 05bd 2A010000 		.4byte	.LVL49
 2893 05c1 72010000 		.4byte	.LVL59
 2894 05c5 0100     		.2byte	0x1
 2895 05c7 50       		.byte	0x50
 2896 05c8 7E020000 		.4byte	.LVL84
 2897 05cc 82020000 		.4byte	.LVL85
 2898 05d0 0100     		.2byte	0x1
 2899 05d2 50       		.byte	0x50
 2900 05d3 08030000 		.4byte	.LVL107
 2901 05d7 1C030000 		.4byte	.LVL111
 2902 05db 0100     		.2byte	0x1
 2903 05dd 50       		.byte	0x50
 2904 05de 86030000 		.4byte	.LVL128
ARM GAS  /tmp/ccsoMgCh.s 			page 52


 2905 05e2 92030000 		.4byte	.LVL131
 2906 05e6 0100     		.2byte	0x1
 2907 05e8 50       		.byte	0x50
 2908 05e9 A2030000 		.4byte	.LVL133
 2909 05ed AC030000 		.4byte	.LVL135
 2910 05f1 0100     		.2byte	0x1
 2911 05f3 50       		.byte	0x50
 2912 05f4 B2030000 		.4byte	.LVL137
 2913 05f8 C6030000 		.4byte	.LVL142
 2914 05fc 0100     		.2byte	0x1
 2915 05fe 50       		.byte	0x50
 2916 05ff D6030000 		.4byte	.LVL144
 2917 0603 E2030000 		.4byte	.LVL146
 2918 0607 0100     		.2byte	0x1
 2919 0609 50       		.byte	0x50
 2920 060a F4030000 		.4byte	.LVL150
 2921 060e 0E040000 		.4byte	.LVL153
 2922 0612 0100     		.2byte	0x1
 2923 0614 50       		.byte	0x50
 2924 0615 00000000 		.4byte	0
 2925 0619 00000000 		.4byte	0
 2926              	.LLST18:
 2927 061d 64000000 		.4byte	.LVL33
 2928 0621 6C000000 		.4byte	.LVL35
 2929 0625 0200     		.2byte	0x2
 2930 0627 30       		.byte	0x30
 2931 0628 9F       		.byte	0x9f
 2932 0629 6C000000 		.4byte	.LVL35
 2933 062d 74000000 		.4byte	.LVL38
 2934 0631 0100     		.2byte	0x1
 2935 0633 55       		.byte	0x55
 2936 0634 7A000000 		.4byte	.LVL39
 2937 0638 AE010000 		.4byte	.LVL63
 2938 063c 0100     		.2byte	0x1
 2939 063e 55       		.byte	0x55
 2940 063f B0010000 		.4byte	.LVL64
 2941 0643 E0010000 		.4byte	.LVL70
 2942 0647 0100     		.2byte	0x1
 2943 0649 55       		.byte	0x55
 2944 064a 12020000 		.4byte	.LVL74
 2945 064e 20020000 		.4byte	.LVL75
 2946 0652 0100     		.2byte	0x1
 2947 0654 55       		.byte	0x55
 2948 0655 20020000 		.4byte	.LVL75
 2949 0659 29020000 		.4byte	.LVL76-1
 2950 065d 0300     		.2byte	0x3
 2951 065f 73       		.byte	0x73
 2952 0660 01       		.sleb128 1
 2953 0661 9F       		.byte	0x9f
 2954 0662 29020000 		.4byte	.LVL76-1
 2955 0666 40020000 		.4byte	.LVL77
 2956 066a 0300     		.2byte	0x3
 2957 066c 75       		.byte	0x75
 2958 066d 01       		.sleb128 1
 2959 066e 9F       		.byte	0x9f
 2960 066f 62020000 		.4byte	.LVL80
 2961 0673 4C030000 		.4byte	.LVL118
ARM GAS  /tmp/ccsoMgCh.s 			page 53


 2962 0677 0100     		.2byte	0x1
 2963 0679 55       		.byte	0x55
 2964 067a 4C030000 		.4byte	.LVL118
 2965 067e 50030000 		.4byte	.LVL119
 2966 0682 0300     		.2byte	0x3
 2967 0684 75       		.byte	0x75
 2968 0685 7F       		.sleb128 -1
 2969 0686 9F       		.byte	0x9f
 2970 0687 5A030000 		.4byte	.LVL120
 2971 068b 64030000 		.4byte	.LVL121
 2972 068f 0100     		.2byte	0x1
 2973 0691 55       		.byte	0x55
 2974 0692 64030000 		.4byte	.LVL121
 2975 0696 66030000 		.4byte	.LVL122
 2976 069a 0300     		.2byte	0x3
 2977 069c 75       		.byte	0x75
 2978 069d 01       		.sleb128 1
 2979 069e 9F       		.byte	0x9f
 2980 069f 66030000 		.4byte	.LVL122
 2981 06a3 78030000 		.4byte	.LVL125
 2982 06a7 0100     		.2byte	0x1
 2983 06a9 55       		.byte	0x55
 2984 06aa 80030000 		.4byte	.LVL126
 2985 06ae 82030000 		.4byte	.LVL127
 2986 06b2 0300     		.2byte	0x3
 2987 06b4 75       		.byte	0x75
 2988 06b5 01       		.sleb128 1
 2989 06b6 9F       		.byte	0x9f
 2990 06b7 82030000 		.4byte	.LVL127
 2991 06bb E2030000 		.4byte	.LVL146
 2992 06bf 0100     		.2byte	0x1
 2993 06c1 55       		.byte	0x55
 2994 06c2 F4030000 		.4byte	.LVL150
 2995 06c6 46040000 		.4byte	.LFE10
 2996 06ca 0100     		.2byte	0x1
 2997 06cc 55       		.byte	0x55
 2998 06cd 00000000 		.4byte	0
 2999 06d1 00000000 		.4byte	0
 3000              	.LLST19:
 3001 06d5 A6000000 		.4byte	.LVL44
 3002 06d9 1E010000 		.4byte	.LVL45
 3003 06dd 0100     		.2byte	0x1
 3004 06df 51       		.byte	0x51
 3005 06e0 42010000 		.4byte	.LVL51
 3006 06e4 52010000 		.4byte	.LVL54
 3007 06e8 0200     		.2byte	0x2
 3008 06ea 31       		.byte	0x31
 3009 06eb 9F       		.byte	0x9f
 3010 06ec 52010000 		.4byte	.LVL54
 3011 06f0 56010000 		.4byte	.LVL55
 3012 06f4 0100     		.2byte	0x1
 3013 06f6 51       		.byte	0x51
 3014 06f7 7E020000 		.4byte	.LVL84
 3015 06fb 86020000 		.4byte	.LVL86
 3016 06ff 0100     		.2byte	0x1
 3017 0701 51       		.byte	0x51
 3018 0702 08030000 		.4byte	.LVL107
ARM GAS  /tmp/ccsoMgCh.s 			page 54


 3019 0706 10030000 		.4byte	.LVL108
 3020 070a 0100     		.2byte	0x1
 3021 070c 51       		.byte	0x51
 3022 070d 86030000 		.4byte	.LVL128
 3023 0711 8E030000 		.4byte	.LVL130
 3024 0715 0100     		.2byte	0x1
 3025 0717 51       		.byte	0x51
 3026 0718 A2030000 		.4byte	.LVL133
 3027 071c AE030000 		.4byte	.LVL136
 3028 0720 0100     		.2byte	0x1
 3029 0722 51       		.byte	0x51
 3030 0723 B2030000 		.4byte	.LVL137
 3031 0727 BE030000 		.4byte	.LVL141
 3032 072b 0100     		.2byte	0x1
 3033 072d 51       		.byte	0x51
 3034 072e D6030000 		.4byte	.LVL144
 3035 0732 E2030000 		.4byte	.LVL146
 3036 0736 0100     		.2byte	0x1
 3037 0738 51       		.byte	0x51
 3038 0739 F4030000 		.4byte	.LVL150
 3039 073d 04040000 		.4byte	.LVL151
 3040 0741 0200     		.2byte	0x2
 3041 0743 31       		.byte	0x31
 3042 0744 9F       		.byte	0x9f
 3043 0745 04040000 		.4byte	.LVL151
 3044 0749 06040000 		.4byte	.LVL152
 3045 074d 0100     		.2byte	0x1
 3046 074f 51       		.byte	0x51
 3047 0750 00000000 		.4byte	0
 3048 0754 00000000 		.4byte	0
 3049              	.LLST20:
 3050 0758 50000000 		.4byte	.LVL31
 3051 075c 5C000000 		.4byte	.LVL32
 3052 0760 0200     		.2byte	0x2
 3053 0762 30       		.byte	0x30
 3054 0763 9F       		.byte	0x9f
 3055 0764 5C000000 		.4byte	.LVL32
 3056 0768 BC010000 		.4byte	.LVL66
 3057 076c 0100     		.2byte	0x1
 3058 076e 59       		.byte	0x59
 3059 076f 62020000 		.4byte	.LVL80
 3060 0773 48030000 		.4byte	.LVL116
 3061 0777 0100     		.2byte	0x1
 3062 0779 59       		.byte	0x59
 3063 077a 86030000 		.4byte	.LVL128
 3064 077e EA030000 		.4byte	.LVL148
 3065 0782 0100     		.2byte	0x1
 3066 0784 59       		.byte	0x59
 3067 0785 EA030000 		.4byte	.LVL148
 3068 0789 EC030000 		.4byte	.LVL149
 3069 078d 0200     		.2byte	0x2
 3070 078f 30       		.byte	0x30
 3071 0790 9F       		.byte	0x9f
 3072 0791 EC030000 		.4byte	.LVL149
 3073 0795 F4030000 		.4byte	.LVL150
 3074 0799 0200     		.2byte	0x2
 3075 079b 31       		.byte	0x31
ARM GAS  /tmp/ccsoMgCh.s 			page 55


 3076 079c 9F       		.byte	0x9f
 3077 079d F4030000 		.4byte	.LVL150
 3078 07a1 46040000 		.4byte	.LFE10
 3079 07a5 0100     		.2byte	0x1
 3080 07a7 59       		.byte	0x59
 3081 07a8 00000000 		.4byte	0
 3082 07ac 00000000 		.4byte	0
 3083              	.LLST21:
 3084 07b0 92030000 		.4byte	.LVL131
 3085 07b4 99030000 		.4byte	.LVL132-1
 3086 07b8 0100     		.2byte	0x1
 3087 07ba 51       		.byte	0x51
 3088 07bb AE030000 		.4byte	.LVL136
 3089 07bf B2030000 		.4byte	.LVL137
 3090 07c3 0100     		.2byte	0x1
 3091 07c5 51       		.byte	0x51
 3092 07c6 BE030000 		.4byte	.LVL141
 3093 07ca CD030000 		.4byte	.LVL143-1
 3094 07ce 0100     		.2byte	0x1
 3095 07d0 51       		.byte	0x51
 3096 07d1 06040000 		.4byte	.LVL152
 3097 07d5 1A040000 		.4byte	.LVL156
 3098 07d9 0100     		.2byte	0x1
 3099 07db 51       		.byte	0x51
 3100 07dc 00000000 		.4byte	0
 3101 07e0 00000000 		.4byte	0
 3102              	.LLST22:
 3103 07e4 98020000 		.4byte	.LVL89
 3104 07e8 9B020000 		.4byte	.LVL90-1
 3105 07ec 0100     		.2byte	0x1
 3106 07ee 50       		.byte	0x50
 3107 07ef 9B020000 		.4byte	.LVL90-1
 3108 07f3 CC020000 		.4byte	.LVL99
 3109 07f7 0100     		.2byte	0x1
 3110 07f9 5A       		.byte	0x5a
 3111 07fa 30040000 		.4byte	.LVL160
 3112 07fe 36040000 		.4byte	.LVL161
 3113 0802 0100     		.2byte	0x1
 3114 0804 5A       		.byte	0x5a
 3115 0805 3A040000 		.4byte	.LVL162
 3116 0809 40040000 		.4byte	.LVL163
 3117 080d 0100     		.2byte	0x1
 3118 080f 5A       		.byte	0x5a
 3119 0810 00000000 		.4byte	0
 3120 0814 00000000 		.4byte	0
 3121              	.LLST23:
 3122 0818 A4020000 		.4byte	.LVL91
 3123 081c CC020000 		.4byte	.LVL99
 3124 0820 0600     		.2byte	0x6
 3125 0822 F5       		.byte	0xf5
 3126 0823 0A       		.uleb128 0xa
 3127 0824 37       		.uleb128 0x37
 3128 0825 F7       		.byte	0xf7
 3129 0826 29       		.uleb128 0x29
 3130 0827 9F       		.byte	0x9f
 3131 0828 00000000 		.4byte	0
 3132 082c 00000000 		.4byte	0
ARM GAS  /tmp/ccsoMgCh.s 			page 56


 3133              	.LLST24:
 3134 0830 A4020000 		.4byte	.LVL91
 3135 0834 B8020000 		.4byte	.LVL95
 3136 0838 0100     		.2byte	0x1
 3137 083a 5B       		.byte	0x5b
 3138 083b B8020000 		.4byte	.LVL95
 3139 083f BC020000 		.4byte	.LVL96
 3140 0843 0100     		.2byte	0x1
 3141 0845 50       		.byte	0x50
 3142 0846 BC020000 		.4byte	.LVL96
 3143 084a C9020000 		.4byte	.LVL98-1
 3144 084e 0100     		.2byte	0x1
 3145 0850 5C       		.byte	0x5c
 3146 0851 F2020000 		.4byte	.LVL105
 3147 0855 FF020000 		.4byte	.LVL106-1
 3148 0859 0100     		.2byte	0x1
 3149 085b 5C       		.byte	0x5c
 3150 085c 00000000 		.4byte	0
 3151 0860 00000000 		.4byte	0
 3152              	.LLST25:
 3153 0864 AC020000 		.4byte	.LVL93
 3154 0868 B2020000 		.4byte	.LVL94
 3155 086c 0100     		.2byte	0x1
 3156 086e 50       		.byte	0x50
 3157 086f B2020000 		.4byte	.LVL94
 3158 0873 EA020000 		.4byte	.LVL103
 3159 0877 0300     		.2byte	0x3
 3160 0879 91       		.byte	0x91
 3161 087a 947F     		.sleb128 -108
 3162 087c EA020000 		.4byte	.LVL103
 3163 0880 ED020000 		.4byte	.LVL104-1
 3164 0884 0800     		.2byte	0x8
 3165 0886 F5       		.byte	0xf5
 3166 0887 00       		.uleb128 0
 3167 0888 29       		.uleb128 0x29
 3168 0889 F7       		.byte	0xf7
 3169 088a 30       		.uleb128 0x30
 3170 088b F7       		.byte	0xf7
 3171 088c 00       		.uleb128 0
 3172 088d 9F       		.byte	0x9f
 3173 088e 00000000 		.4byte	0
 3174 0892 00000000 		.4byte	0
 3175              	.LLST26:
 3176 0896 A4020000 		.4byte	.LVL91
 3177 089a 08030000 		.4byte	.LVL107
 3178 089e 0600     		.2byte	0x6
 3179 08a0 0C       		.byte	0xc
 3180 08a1 A0860100 		.4byte	0x186a0
 3181 08a5 9F       		.byte	0x9f
 3182 08a6 00000000 		.4byte	0
 3183 08aa 00000000 		.4byte	0
 3184              	.LLST27:
 3185 08ae 92030000 		.4byte	.LVL131
 3186 08b2 99030000 		.4byte	.LVL132-1
 3187 08b6 0100     		.2byte	0x1
 3188 08b8 52       		.byte	0x52
 3189 08b9 00000000 		.4byte	0
ARM GAS  /tmp/ccsoMgCh.s 			page 57


 3190 08bd 00000000 		.4byte	0
 3191              	.LLST28:
 3192 08c1 92030000 		.4byte	.LVL131
 3193 08c5 99030000 		.4byte	.LVL132-1
 3194 08c9 0100     		.2byte	0x1
 3195 08cb 51       		.byte	0x51
 3196 08cc 00000000 		.4byte	0
 3197 08d0 00000000 		.4byte	0
 3198              	.LLST29:
 3199 08d4 92030000 		.4byte	.LVL131
 3200 08d8 A2030000 		.4byte	.LVL133
 3201 08dc 0100     		.2byte	0x1
 3202 08de 58       		.byte	0x58
 3203 08df 00000000 		.4byte	0
 3204 08e3 00000000 		.4byte	0
 3205              	.LLST30:
 3206 08e7 C6030000 		.4byte	.LVL142
 3207 08eb D6030000 		.4byte	.LVL144
 3208 08ef 0200     		.2byte	0x2
 3209 08f1 3A       		.byte	0x3a
 3210 08f2 9F       		.byte	0x9f
 3211 08f3 00000000 		.4byte	0
 3212 08f7 00000000 		.4byte	0
 3213              	.LLST31:
 3214 08fb C6030000 		.4byte	.LVL142
 3215 08ff CD030000 		.4byte	.LVL143-1
 3216 0903 0100     		.2byte	0x1
 3217 0905 51       		.byte	0x51
 3218 0906 00000000 		.4byte	0
 3219 090a 00000000 		.4byte	0
 3220              	.LLST32:
 3221 090e C6030000 		.4byte	.LVL142
 3222 0912 CD030000 		.4byte	.LVL143-1
 3223 0916 0100     		.2byte	0x1
 3224 0918 50       		.byte	0x50
 3225 0919 00000000 		.4byte	0
 3226 091d 00000000 		.4byte	0
 3227              		.section	.debug_aranges,"",%progbits
 3228 0000 24000000 		.4byte	0x24
 3229 0004 0200     		.2byte	0x2
 3230 0006 00000000 		.4byte	.Ldebug_info0
 3231 000a 04       		.byte	0x4
 3232 000b 00       		.byte	0
 3233 000c 0000     		.2byte	0
 3234 000e 0000     		.2byte	0
 3235 0010 00000000 		.4byte	.LFB7
 3236 0014 6C000000 		.4byte	.LFE7-.LFB7
 3237 0018 00000000 		.4byte	.LFB10
 3238 001c 46040000 		.4byte	.LFE10-.LFB10
 3239 0020 00000000 		.4byte	0
 3240 0024 00000000 		.4byte	0
 3241              		.section	.debug_ranges,"",%progbits
 3242              	.Ldebug_ranges0:
 3243 0000 A4020000 		.4byte	.LBB8
 3244 0004 C0020000 		.4byte	.LBE8
 3245 0008 CC020000 		.4byte	.LBB12
 3246 000c CE020000 		.4byte	.LBE12
ARM GAS  /tmp/ccsoMgCh.s 			page 58


 3247 0010 D0020000 		.4byte	.LBB13
 3248 0014 00030000 		.4byte	.LBE13
 3249 0018 00000000 		.4byte	0
 3250 001c 00000000 		.4byte	0
 3251 0020 A4020000 		.4byte	.LBB9
 3252 0024 C0020000 		.4byte	.LBE9
 3253 0028 CC020000 		.4byte	.LBB10
 3254 002c CE020000 		.4byte	.LBE10
 3255 0030 D0020000 		.4byte	.LBB11
 3256 0034 00030000 		.4byte	.LBE11
 3257 0038 00000000 		.4byte	0
 3258 003c 00000000 		.4byte	0
 3259 0040 00000000 		.4byte	.LFB7
 3260 0044 6C000000 		.4byte	.LFE7
 3261 0048 00000000 		.4byte	.LFB10
 3262 004c 46040000 		.4byte	.LFE10
 3263 0050 00000000 		.4byte	0
 3264 0054 00000000 		.4byte	0
 3265              		.section	.debug_line,"",%progbits
 3266              	.Ldebug_line0:
 3267 0000 F3020000 		.section	.debug_str,"MS",%progbits,1
 3267      02002C01 
 3267      00000201 
 3267      FB0E0D00 
 3267      01010101 
 3268              	.LASF4:
 3269 0000 73697A65 		.ascii	"size_t\000"
 3269      5F7400
 3270              	.LASF31:
 3271 0007 77696474 		.ascii	"width\000"
 3271      6800
 3272              	.LASF38:
 3273 000d 5F5F6170 		.ascii	"__ap\000"
 3273      00
 3274              	.LASF32:
 3275 0012 69735F6C 		.ascii	"is_long\000"
 3275      6F6E6700 
 3276              	.LASF5:
 3277 001a 756E7369 		.ascii	"unsigned int\000"
 3277      676E6564 
 3277      20696E74 
 3277      00
 3278              	.LASF16:
 3279 0027 626F6F6C 		.ascii	"bool_t\000"
 3279      5F7400
 3280              	.LASF39:
 3281 002e 6C6F6E67 		.ascii	"long_to_string_with_divisor\000"
 3281      5F746F5F 
 3281      73747269 
 3281      6E675F77 
 3281      6974685F 
 3282              	.LASF7:
 3283 004a 75696E74 		.ascii	"uint8_t\000"
 3283      385F7400 
 3284              	.LASF1:
 3285 0052 666C6F61 		.ascii	"float\000"
 3285      7400
ARM GAS  /tmp/ccsoMgCh.s 			page 59


 3286              	.LASF3:
 3287 0058 76615F6C 		.ascii	"va_list\000"
 3287      69737400 
 3288              	.LASF24:
 3289 0060 42617365 		.ascii	"BaseSequentialStream\000"
 3289      53657175 
 3289      656E7469 
 3289      616C5374 
 3289      7265616D 
 3290              	.LASF8:
 3291 0075 756E7369 		.ascii	"unsigned char\000"
 3291      676E6564 
 3291      20636861 
 3291      7200
 3292              	.LASF13:
 3293 0083 6C6F6E67 		.ascii	"long unsigned int\000"
 3293      20756E73 
 3293      69676E65 
 3293      6420696E 
 3293      7400
 3294              	.LASF10:
 3295 0095 73686F72 		.ascii	"short unsigned int\000"
 3295      7420756E 
 3295      7369676E 
 3295      65642069 
 3295      6E7400
 3296              	.LASF22:
 3297 00a8 77726974 		.ascii	"write\000"
 3297      6500
 3298              	.LASF35:
 3299 00ae 474E5520 		.ascii	"GNU C 4.7.4 20130913 (release) [ARM/embedded-4_7-br"
 3299      4320342E 
 3299      372E3420 
 3299      32303133 
 3299      30393133 
 3300 00e1 616E6368 		.ascii	"anch revision 202601]\000"
 3300      20726576 
 3300      6973696F 
 3300      6E203230 
 3300      32363031 
 3301              	.LASF40:
 3302 00f7 63687072 		.ascii	"chprintf\000"
 3302      696E7466 
 3302      00
 3303              	.LASF0:
 3304 0100 646F7562 		.ascii	"double\000"
 3304      6C6500
 3305              	.LASF2:
 3306 0107 5F5F676E 		.ascii	"__gnuc_va_list\000"
 3306      75635F76 
 3306      615F6C69 
 3306      737400
 3307              	.LASF23:
 3308 0116 72656164 		.ascii	"read\000"
 3308      00
 3309              	.LASF30:
 3310 011b 66696C6C 		.ascii	"filler\000"
ARM GAS  /tmp/ccsoMgCh.s 			page 60


 3310      657200
 3311              	.LASF36:
 3312 0122 2E2E2F2E 		.ascii	"../../os/various/chprintf.c\000"
 3312      2E2F6F73 
 3312      2F766172 
 3312      696F7573 
 3312      2F636870 
 3313              	.LASF15:
 3314 013e 6C6F6E67 		.ascii	"long long unsigned int\000"
 3314      206C6F6E 
 3314      6720756E 
 3314      7369676E 
 3314      65642069 
 3315              	.LASF26:
 3316 0155 64697669 		.ascii	"divisor\000"
 3316      736F7200 
 3317              	.LASF25:
 3318 015d 72616469 		.ascii	"radix\000"
 3318      7800
 3319              	.LASF17:
 3320 0163 6D73675F 		.ascii	"msg_t\000"
 3320      7400
 3321              	.LASF28:
 3322 0169 66746F61 		.ascii	"ftoa\000"
 3322      00
 3323              	.LASF11:
 3324 016e 696E7433 		.ascii	"int32_t\000"
 3324      325F7400 
 3325              	.LASF18:
 3326 0176 73697A65 		.ascii	"sizetype\000"
 3326      74797065 
 3326      00
 3327              	.LASF34:
 3328 017f 746D7062 		.ascii	"tmpbuf\000"
 3328      756600
 3329              	.LASF20:
 3330 0186 5F5F7661 		.ascii	"__va_list\000"
 3330      5F6C6973 
 3330      7400
 3331              	.LASF14:
 3332 0190 6C6F6E67 		.ascii	"long long int\000"
 3332      206C6F6E 
 3332      6720696E 
 3332      7400
 3333              	.LASF29:
 3334 019e 70726563 		.ascii	"precision\000"
 3334      6973696F 
 3334      6E00
 3335              	.LASF37:
 3336 01a8 2F426967 		.ascii	"/BigDriver/home/nacho/WORKHOME/programacion/chibiOS"
 3336      44726976 
 3336      65722F68 
 3336      6F6D652F 
 3336      6E616368 
 3337 01db 2F636869 		.ascii	"/chibios/nacho/lx200\000"
 3337      62696F73 
 3337      2F6E6163 
ARM GAS  /tmp/ccsoMgCh.s 			page 61


 3337      686F2F6C 
 3337      78323030 
 3338              	.LASF19:
 3339 01f0 63686172 		.ascii	"char\000"
 3339      00
 3340              	.LASF33:
 3341 01f5 6C656674 		.ascii	"left_align\000"
 3341      5F616C69 
 3341      676E00
 3342              	.LASF9:
 3343 0200 73686F72 		.ascii	"short int\000"
 3343      7420696E 
 3343      7400
 3344              	.LASF41:
 3345 020a 756E7369 		.ascii	"unsigned_common\000"
 3345      676E6564 
 3345      5F636F6D 
 3345      6D6F6E00 
 3346              	.LASF12:
 3347 021a 6C6F6E67 		.ascii	"long int\000"
 3347      20696E74 
 3347      00
 3348              	.LASF6:
 3349 0223 7369676E 		.ascii	"signed char\000"
 3349      65642063 
 3349      68617200 
 3350              	.LASF27:
 3351 022f 6C746F61 		.ascii	"ltoa\000"
 3351      00
 3352              	.LASF21:
 3353 0234 42617365 		.ascii	"BaseSequentialStreamVMT\000"
 3353      53657175 
 3353      656E7469 
 3353      616C5374 
 3353      7265616D 
 3354              		.ident	"GCC: (GNU Tools for ARM Embedded Processors) 4.7.4 20130913 (release) [ARM/embedded-4_7-br
ARM GAS  /tmp/ccsoMgCh.s 			page 62


DEFINED SYMBOLS
                            *ABS*:0000000000000000 chprintf.c
     /tmp/ccsoMgCh.s:19     .text.long_to_string_with_divisor:0000000000000000 $t
     /tmp/ccsoMgCh.s:24     .text.long_to_string_with_divisor:0000000000000000 long_to_string_with_divisor
     /tmp/ccsoMgCh.s:136    .text.chprintf:0000000000000000 $t
     /tmp/ccsoMgCh.s:142    .text.chprintf:0000000000000000 chprintf
     /tmp/ccsoMgCh.s:303    .text.chprintf:00000000000000b4 $d
     /tmp/ccsoMgCh.s:359    .text.chprintf:000000000000011e $t
     /tmp/ccsoMgCh.s:924    .text.chprintf:00000000000003f8 $d
     /tmp/ccsoMgCh.s:930    .text.chprintf:0000000000000404 $t
     /tmp/ccsoMgCh.s:988    .rodata.str1.4:0000000000000000 $d
                     .debug_frame:0000000000000010 $d

UNDEFINED SYMBOLS
__aeabi_d2f
__aeabi_fcmplt
__aeabi_f2iz
__aeabi_f2d
__aeabi_i2d
__aeabi_dsub
__aeabi_dmul
__aeabi_d2iz
