ARM GAS  /tmp/ccsoMgCh.s 			page 1


   1              		.syntax unified
   2              		.cpu cortex-m4
   3              		.fpu softvfp
   4              		.eabi_attribute 20, 1
   5              		.eabi_attribute 21, 1
   6              		.eabi_attribute 23, 3
   7              		.eabi_attribute 24, 1
   8              		.eabi_attribute 25, 1
   9              		.eabi_attribute 26, 1
  10              		.eabi_attribute 30, 2
  11              		.eabi_attribute 34, 1
  12              		.eabi_attribute 18, 4
  13              		.thumb
  14              		.file	"chprintf.c"
  15              		.text
  16              	.Ltext0:
  17              		.cfi_sections	.debug_frame
  18              		.section	.text.long_to_string_with_divisor,"ax",%progbits
  19              		.align	2
  20              		.p2align 4,,15
  21              		.thumb
  22              		.thumb_func
  23              		.type	long_to_string_with_divisor, %function
  24              	long_to_string_with_divisor:
  25              	.LFB7:
  26              		.file 1 "../../os/various/chprintf.c"
  27              		.loc 1 43 0
  28              		.cfi_startproc
  29              		@ args = 0, pretend = 0, frame = 0
  30              		@ frame_needed = 0, uses_anonymous_args = 0
  31              		@ link register save eliminated.
  32              	.LVL0:
  33 0000 F0B4     		push	{r4, r5, r6, r7}
  34              	.LCFI0:
  35              		.cfi_def_cfa_offset 16
  36              		.cfi_offset 4, -16
  37              		.cfi_offset 5, -12
  38              		.cfi_offset 6, -8
  39              		.cfi_offset 7, -4
  40              		.loc 1 50 0
  41 0002 002B     		cmp	r3, #0
  42 0004 08BF     		it	eq
  43 0006 0B46     		moveq	r3, r1
  44              	.LVL1:
  45              		.loc 1 43 0
  46 0008 0746     		mov	r7, r0
  47              	.LVL2:
  48              		.loc 1 55 0
  49 000a 00F10B0C 		add	ip, r0, #11
  50              	.LVL3:
  51              		.loc 1 40 0
  52 000e 00F10A05 		add	r5, r0, #10
  53              	.LVL4:
  54              	.L4:
  55              		.loc 1 57 0
  56 0012 B1FBF2F6 		udiv	r6, r1, r2
  57 0016 02FB1611 		mls	r1, r2, r6, r1
ARM GAS  /tmp/ccsoMgCh.s 			page 2


  58              	.LVL5:
  59              		.loc 1 58 0
  60 001a 01F13004 		add	r4, r1, #48
  61              	.LVL6:
  62              		.loc 1 59 0
  63 001e 392C     		cmp	r4, #57
  64              		.loc 1 60 0
  65 0020 C8BF     		it	gt
  66 0022 01F13704 		addgt	r4, r1, #55
  67              	.LVL7:
  68              		.loc 1 61 0
  69 0026 E4B2     		uxtb	r4, r4
  70              	.LVL8:
  71              		.loc 1 63 0
  72 0028 B3FBF2F3 		udiv	r3, r3, r2
  73              	.LVL9:
  74              		.loc 1 61 0
  75 002c 2846     		mov	r0, r5
  76              	.LVL10:
  77              		.loc 1 62 0
  78 002e 3146     		mov	r1, r6
  79              	.LVL11:
  80              		.loc 1 61 0
  81 0030 05F80149 		strb	r4, [r5], #-1
  82              	.LVL12:
  83              		.loc 1 63 0
  84 0034 002B     		cmp	r3, #0
  85 0036 ECD1     		bne	.L4
  86              	.LVL13:
  87              		.loc 1 65 0
  88 0038 C0EB0C03 		rsb	r3, r0, ip
  89              	.LVL14:
  90 003c F943     		mvns	r1, r7
  91              	.LVL15:
  92 003e 0246     		mov	r2, r0
  93              	.LVL16:
  94              		.loc 1 40 0
  95 0040 F818     		adds	r0, r7, r3
  96              	.LVL17:
  97 0042 4318     		adds	r3, r0, r1
  98              	.LVL18:
  99 0044 DB07     		lsls	r3, r3, #31
 100 0046 0AD5     		bpl	.L6
 101              	.LVL19:
 102              		.loc 1 67 0
 103 0048 07F8014B 		strb	r4, [r7], #1
 104              	.LVL20:
 105 004c 12F8014F 		ldrb	r4, [r2, #1]!	@ zero_extendqisi2
 106 0050 05E0     		b	.L6
 107              	.L17:
 108 0052 12F8014F 		ldrb	r4, [r2, #1]!	@ zero_extendqisi2
 109              	.LVL21:
 110 0056 7C70     		strb	r4, [r7, #1]
 111 0058 12F8014F 		ldrb	r4, [r2, #1]!	@ zero_extendqisi2
 112 005c 5F1C     		adds	r7, r3, #1
 113              	.LVL22:
 114              	.L6:
ARM GAS  /tmp/ccsoMgCh.s 			page 3


 115              		.loc 1 67 0 is_stmt 0 discriminator 1
 116 005e 3B46     		mov	r3, r7
 117 0060 03F8014B 		strb	r4, [r3], #1
 118              		.loc 1 68 0 is_stmt 1 discriminator 1
 119 0064 8342     		cmp	r3, r0
 120 0066 F4D1     		bne	.L17
 121              		.loc 1 71 0
 122 0068 F0BC     		pop	{r4, r5, r6, r7}
 123 006a 7047     		bx	lr
 124              		.cfi_endproc
 125              	.LFE7:
 126              		.size	long_to_string_with_divisor, .-long_to_string_with_divisor
 127              		.global	__aeabi_d2f
 128              		.global	__aeabi_fcmplt
 129              		.global	__aeabi_f2iz
 130              		.global	__aeabi_f2d
 131              		.global	__aeabi_i2d
 132              		.global	__aeabi_dsub
 133              		.global	__aeabi_dmul
 134              		.global	__aeabi_d2iz
 135 006c AFF30080 		.section	.text.chprintf,"ax",%progbits
 136              		.align	2
 137              		.p2align 4,,15
 138              		.global	chprintf
 139              		.thumb
 140              		.thumb_func
 141              		.type	chprintf, %function
 142              	chprintf:
 143              	.LFB10:
 144              		.loc 1 112 0
 145              		.cfi_startproc
 146              		@ args = 4, pretend = 12, frame = 48
 147              		@ frame_needed = 0, uses_anonymous_args = 1
 148              	.LVL23:
 149 0000 0EB4     		push	{r1, r2, r3}
 150              	.LCFI1:
 151              		.cfi_def_cfa_offset 12
 152              		.cfi_offset 1, -12
 153              		.cfi_offset 2, -8
 154              		.cfi_offset 3, -4
 155 0002 2DE9F04F 		push	{r4, r5, r6, r7, r8, r9, sl, fp, lr}
 156              	.LCFI2:
 157              		.cfi_def_cfa_offset 48
 158              		.cfi_offset 4, -48
 159              		.cfi_offset 5, -44
 160              		.cfi_offset 6, -40
 161              		.cfi_offset 7, -36
 162              		.cfi_offset 8, -32
 163              		.cfi_offset 9, -28
 164              		.cfi_offset 10, -24
 165              		.cfi_offset 11, -20
 166              		.cfi_offset 14, -16
 167 0006 8CB0     		sub	sp, sp, #48
 168              	.LCFI3:
 169              		.cfi_def_cfa_offset 96
 170              		.loc 1 112 0
 171 0008 15AB     		add	r3, sp, #84
ARM GAS  /tmp/ccsoMgCh.s 			page 4


 172              		.loc 1 238 0
 173 000a 0DF1190C 		add	ip, sp, #25
 174              		.loc 1 136 0
 175 000e 0DF11808 		add	r8, sp, #24
 176              		.loc 1 112 0
 177 0012 53F8044B 		ldr	r4, [r3], #4
 178              		.loc 1 238 0
 179 0016 CDF804C0 		str	ip, [sp, #4]
 180 001a C8EB0C0C 		rsb	ip, r8, ip
 181              		.loc 1 112 0
 182 001e 0646     		mov	r6, r0
 183              		.loc 1 125 0
 184 0020 0593     		str	r3, [sp, #20]
 185 0022 CDF808C0 		str	ip, [sp, #8]
 186              	.LVL24:
 187              	.L117:
 188              		.loc 1 127 0
 189 0026 2546     		mov	r5, r4
 190 0028 15F8011B 		ldrb	r1, [r5], #1	@ zero_extendqisi2
 191              	.LVL25:
 192              		.loc 1 128 0
 193 002c 59B1     		cbz	r1, .L116
 194              	.LVL26:
 195              	.L131:
 196              		.loc 1 132 0
 197 002e 2529     		cmp	r1, #37
 198 0030 0ED0     		beq	.L21
 199              		.loc 1 133 0
 200 0032 3468     		ldr	r4, [r6, #0]
 201 0034 A368     		ldr	r3, [r4, #8]
 202              		.loc 1 127 0
 203 0036 2C46     		mov	r4, r5
 204 0038 2546     		mov	r5, r4
 205              	.LVL27:
 206              		.loc 1 133 0
 207 003a 3046     		mov	r0, r6
 208 003c 9847     		blx	r3
 209              	.LVL28:
 210              		.loc 1 127 0
 211 003e 15F8011B 		ldrb	r1, [r5], #1	@ zero_extendqisi2
 212              	.LVL29:
 213              		.loc 1 128 0
 214 0042 0029     		cmp	r1, #0
 215 0044 F3D1     		bne	.L131
 216              	.LVL30:
 217              	.L116:
 218              		.loc 1 263 0
 219 0046 0CB0     		add	sp, sp, #48
 220 0048 BDE8F04F 		pop	{r4, r5, r6, r7, r8, r9, sl, fp, lr}
 221 004c 03B0     		add	sp, sp, #12
 222 004e 7047     		bx	lr
 223              	.L21:
 224              	.LVL31:
 225              		.loc 1 139 0
 226 0050 6378     		ldrb	r3, [r4, #1]	@ zero_extendqisi2
 227 0052 2D2B     		cmp	r3, #45
 228 0054 00F0C981 		beq	.L132
ARM GAS  /tmp/ccsoMgCh.s 			page 5


 229              		.loc 1 138 0
 230 0058 4FF00009 		mov	r9, #0
 231              	.LVL32:
 232              	.L23:
 233              		.loc 1 144 0
 234 005c 2E2B     		cmp	r3, #46
 235 005e 00F0C081 		beq	.L133
 236              		.loc 1 143 0
 237 0062 2027     		movs	r7, #32
 238              	.LVL33:
 239              	.L24:
 240              		.loc 1 146 0
 241 0064 2C46     		mov	r4, r5
 242 0066 0599     		ldr	r1, [sp, #20]
 243              		.loc 1 148 0
 244 0068 0025     		movs	r5, #0
 245              	.LVL34:
 246 006a 06E0     		b	.L27
 247              	.LVL35:
 248              	.L134:
 249              		.loc 1 154 0
 250 006c 0A78     		ldrb	r2, [r1, #0]	@ zero_extendqisi2
 251              	.LVL36:
 252 006e 0431     		adds	r1, r1, #4
 253              	.LVL37:
 254              	.L25:
 255              		.loc 1 157 0
 256 0070 05EB8505 		add	r5, r5, r5, lsl #2
 257              	.LVL38:
 258 0074 2378     		ldrb	r3, [r4, #0]	@ zero_extendqisi2
 259 0076 02EB4505 		add	r5, r2, r5, lsl #1
 260              	.LVL39:
 261              	.L27:
 262              		.loc 1 151 0
 263 007a A3F13002 		sub	r2, r3, #48
 264 007e D2B2     		uxtb	r2, r2
 265              		.loc 1 150 0
 266 0080 0134     		adds	r4, r4, #1
 267              	.LVL40:
 268              		.loc 1 151 0
 269 0082 092A     		cmp	r2, #9
 270 0084 F4D9     		bls	.L25
 271              		.loc 1 153 0
 272 0086 2A2B     		cmp	r3, #42
 273 0088 F0D0     		beq	.L134
 274              		.loc 1 160 0
 275 008a 0020     		movs	r0, #0
 276 008c 2E2B     		cmp	r3, #46
 277 008e 0591     		str	r1, [sp, #20]
 278              	.LVL41:
 279 0090 4BD0     		beq	.L31
 280              	.LVL42:
 281              		.loc 1 174 0
 282 0092 6C2B     		cmp	r3, #108
 283 0094 55D0     		beq	.L32
 284              	.LVL43:
 285              	.L135:
ARM GAS  /tmp/ccsoMgCh.s 			page 6


 286              		.loc 1 174 0 is_stmt 0 discriminator 1
 287 0096 4C2B     		cmp	r3, #76
 288 0098 53D0     		beq	.L32
 289              		.loc 1 180 0 is_stmt 1
 290 009a A3F14101 		sub	r1, r3, #65
 291 009e 1929     		cmp	r1, #25
 292 00a0 8CBF     		ite	hi
 293 00a2 0021     		movhi	r1, #0
 294 00a4 0121     		movls	r1, #1
 295              	.LVL44:
 296              	.L34:
 297              		.loc 1 183 0
 298 00a6 A3F14402 		sub	r2, r3, #68
 299 00aa 342A     		cmp	r2, #52
 300 00ac 00F29381 		bhi	.L35
 301 00b0 DFE812F0 		tbh	[pc, r2, lsl #1]
 302              	.L43:
 303 00b4 8101     		.2byte	(.L36-.L43)/2
 304 00b6 9101     		.2byte	(.L35-.L43)/2
 305 00b8 9101     		.2byte	(.L35-.L43)/2
 306 00ba 9101     		.2byte	(.L35-.L43)/2
 307 00bc 9101     		.2byte	(.L35-.L43)/2
 308 00be 9101     		.2byte	(.L35-.L43)/2
 309 00c0 9101     		.2byte	(.L35-.L43)/2
 310 00c2 9101     		.2byte	(.L35-.L43)/2
 311 00c4 9101     		.2byte	(.L35-.L43)/2
 312 00c6 9101     		.2byte	(.L35-.L43)/2
 313 00c8 9101     		.2byte	(.L35-.L43)/2
 314 00ca 7F01     		.2byte	(.L37-.L43)/2
 315 00cc 9101     		.2byte	(.L35-.L43)/2
 316 00ce 9101     		.2byte	(.L35-.L43)/2
 317 00d0 9101     		.2byte	(.L35-.L43)/2
 318 00d2 9101     		.2byte	(.L35-.L43)/2
 319 00d4 9101     		.2byte	(.L35-.L43)/2
 320 00d6 7701     		.2byte	(.L68-.L43)/2
 321 00d8 9101     		.2byte	(.L35-.L43)/2
 322 00da 9101     		.2byte	(.L35-.L43)/2
 323 00dc 6901     		.2byte	(.L39-.L43)/2
 324 00de 9101     		.2byte	(.L35-.L43)/2
 325 00e0 9101     		.2byte	(.L35-.L43)/2
 326 00e2 9101     		.2byte	(.L35-.L43)/2
 327 00e4 9101     		.2byte	(.L35-.L43)/2
 328 00e6 9101     		.2byte	(.L35-.L43)/2
 329 00e8 9101     		.2byte	(.L35-.L43)/2
 330 00ea 9101     		.2byte	(.L35-.L43)/2
 331 00ec 9101     		.2byte	(.L35-.L43)/2
 332 00ee 9101     		.2byte	(.L35-.L43)/2
 333 00f0 9101     		.2byte	(.L35-.L43)/2
 334 00f2 2A01     		.2byte	(.L40-.L43)/2
 335 00f4 8101     		.2byte	(.L36-.L43)/2
 336 00f6 9101     		.2byte	(.L35-.L43)/2
 337 00f8 E500     		.2byte	(.L41-.L43)/2
 338 00fa 9101     		.2byte	(.L35-.L43)/2
 339 00fc 9101     		.2byte	(.L35-.L43)/2
 340 00fe 9101     		.2byte	(.L35-.L43)/2
 341 0100 9101     		.2byte	(.L35-.L43)/2
 342 0102 9101     		.2byte	(.L35-.L43)/2
ARM GAS  /tmp/ccsoMgCh.s 			page 7


 343 0104 9101     		.2byte	(.L35-.L43)/2
 344 0106 9101     		.2byte	(.L35-.L43)/2
 345 0108 9101     		.2byte	(.L35-.L43)/2
 346 010a 7F01     		.2byte	(.L37-.L43)/2
 347 010c 9101     		.2byte	(.L35-.L43)/2
 348 010e 9101     		.2byte	(.L35-.L43)/2
 349 0110 9101     		.2byte	(.L35-.L43)/2
 350 0112 4F00     		.2byte	(.L42-.L43)/2
 351 0114 9101     		.2byte	(.L35-.L43)/2
 352 0116 7701     		.2byte	(.L68-.L43)/2
 353 0118 9101     		.2byte	(.L35-.L43)/2
 354 011a 9101     		.2byte	(.L35-.L43)/2
 355 011c 6901     		.2byte	(.L39-.L43)/2
 356              	.LVL45:
 357              	.L30:
 358              		.loc 1 166 0
 359 011e 0A78     		ldrb	r2, [r1, #0]	@ zero_extendqisi2
 360              	.LVL46:
 361 0120 0431     		adds	r1, r1, #4
 362              	.LVL47:
 363              	.L29:
 364              		.loc 1 169 0
 365 0122 00EB8003 		add	r3, r0, r0, lsl #2
 366              	.LVL48:
 367              		.loc 1 170 0
 368 0126 02EB4300 		add	r0, r2, r3, lsl #1
 369              	.LVL49:
 370              	.L31:
 371              		.loc 1 162 0
 372 012a 14F8013B 		ldrb	r3, [r4], #1	@ zero_extendqisi2
 373              	.LVL50:
 374              		.loc 1 163 0
 375 012e A3F13002 		sub	r2, r3, #48
 376 0132 D2B2     		uxtb	r2, r2
 377 0134 092A     		cmp	r2, #9
 378 0136 F4D9     		bls	.L29
 379              		.loc 1 165 0
 380 0138 2A2B     		cmp	r3, #42
 381 013a F0D0     		beq	.L30
 382              		.loc 1 174 0
 383 013c 6C2B     		cmp	r3, #108
 384 013e 0591     		str	r1, [sp, #20]
 385 0140 A9D1     		bne	.L135
 386              	.LVL51:
 387              	.L32:
 388              		.loc 1 176 0
 389 0142 2178     		ldrb	r1, [r4, #0]	@ zero_extendqisi2
 390 0144 0029     		cmp	r1, #0
 391 0146 00F05581 		beq	.L67
 392              	.LVL52:
 393              		.loc 1 177 0
 394 014a 0B46     		mov	r3, r1
 395 014c 0134     		adds	r4, r4, #1
 396              	.LVL53:
 397              		.loc 1 175 0
 398 014e 0121     		movs	r1, #1
 399 0150 A9E7     		b	.L34
ARM GAS  /tmp/ccsoMgCh.s 			page 8


 400              	.LVL54:
 401              	.L42:
 402              		.loc 1 190 0
 403 0152 059F     		ldr	r7, [sp, #20]
 404              		.loc 1 191 0
 405 0154 AA49     		ldr	r1, .L141+8
 406              	.LVL55:
 407              		.loc 1 190 0
 408 0156 3B68     		ldr	r3, [r7, #0]
 409              	.LVL56:
 410              		.loc 1 191 0
 411 0158 002B     		cmp	r3, #0
 412 015a 14BF     		ite	ne
 413 015c 9A46     		movne	sl, r3
 414 015e 8A46     		moveq	sl, r1
 415              	.LVL57:
 416              		.loc 1 190 0
 417 0160 0437     		adds	r7, r7, #4
 418              		.loc 1 194 0
 419 0162 9AF80020 		ldrb	r2, [sl, #0]	@ zero_extendqisi2
 420              	.LVL58:
 421              		.loc 1 190 0
 422 0166 0597     		str	r7, [sp, #20]
 423              		.loc 1 193 0
 424 0168 47F6FF73 		movw	r3, #32767
 425 016c 0028     		cmp	r0, #0
 426 016e 08BF     		it	eq
 427 0170 1846     		moveq	r0, r3
 428              	.LVL59:
 429              		.loc 1 194 0
 430 0172 002A     		cmp	r2, #0
 431 0174 00F06481 		beq	.L71
 432 0178 9AF80170 		ldrb	r7, [sl, #1]	@ zero_extendqisi2
 433 017c 411E     		subs	r1, r0, #1
 434 017e 0AEB000B 		add	fp, sl, r0
 435              		.loc 1 112 0
 436 0182 0AF10102 		add	r2, sl, #1
 437              	.LVL60:
 438 0186 01F00100 		and	r0, r1, #1
 439              		.loc 1 194 0
 440 018a 002F     		cmp	r7, #0
 441 018c 73D0     		beq	.L118
 442 018e 9345     		cmp	fp, r2
 443 0190 1346     		mov	r3, r2
 444 0192 08D0     		beq	.L120
 445 0194 0028     		cmp	r0, #0
 446 0196 69D0     		beq	.L48
 447 0198 5778     		ldrb	r7, [r2, #1]	@ zero_extendqisi2
 448              		.loc 1 112 0
 449 019a 0132     		adds	r2, r2, #1
 450              	.LVL61:
 451              		.loc 1 194 0
 452 019c 002F     		cmp	r7, #0
 453 019e 6AD0     		beq	.L118
 454 01a0 9345     		cmp	fp, r2
 455 01a2 1346     		mov	r3, r2
 456 01a4 62D1     		bne	.L48
ARM GAS  /tmp/ccsoMgCh.s 			page 9


 457              	.LVL62:
 458              	.L120:
 459 01a6 CAEB0B0B 		rsb	fp, sl, fp
 460              		.loc 1 242 0
 461 01aa CBEB0505 		rsb	r5, fp, r5
 462              	.LVL63:
 463              		.loc 1 189 0
 464 01ae 2027     		movs	r7, #32
 465              	.LVL64:
 466 01b0 25EAE575 		bic	r5, r5, r5, asr #31
 467              	.LVL65:
 468              		.loc 1 244 0
 469 01b4 B9F1000F 		cmp	r9, #0
 470 01b8 00F0B880 		beq	.L136
 471              	.LVL66:
 472              	.L56:
 473              		.loc 1 255 0 discriminator 1
 474 01bc BBF1000F 		cmp	fp, #0
 475 01c0 27DD     		ble	.L62
 476              		.loc 1 256 0
 477 01c2 D146     		mov	r9, sl
 478 01c4 3068     		ldr	r0, [r6, #0]
 479 01c6 19F8011B 		ldrb	r1, [r9], #1	@ zero_extendqisi2
 480 01ca 8268     		ldr	r2, [r0, #8]
 481              		.loc 1 112 0
 482 01cc D344     		add	fp, sl, fp
 483              	.LVL67:
 484 01ce 6FEA0A0E 		mvn	lr, sl
 485              		.loc 1 256 0
 486 01d2 3046     		mov	r0, r6
 487 01d4 0BEB0E0A 		add	sl, fp, lr
 488              	.LVL68:
 489 01d8 9047     		blx	r2
 490              	.LVL69:
 491              		.loc 1 255 0
 492 01da D945     		cmp	r9, fp
 493 01dc 0AF0010A 		and	sl, sl, #1
 494              	.LVL70:
 495 01e0 17D0     		beq	.L62
 496 01e2 BAF1000F 		cmp	sl, #0
 497 01e6 03D0     		beq	.L61
 498              	.LVL71:
 499              		.loc 1 256 0
 500 01e8 3368     		ldr	r3, [r6, #0]
 501 01ea 19F8011B 		ldrb	r1, [r9], #1	@ zero_extendqisi2
 502 01ee 0BE0     		b	.L130
 503              	.L61:
 504 01f0 3068     		ldr	r0, [r6, #0]
 505 01f2 CA46     		mov	sl, r9
 506 01f4 8268     		ldr	r2, [r0, #8]
 507 01f6 1AF8011B 		ldrb	r1, [sl], #1	@ zero_extendqisi2
 508 01fa 3046     		mov	r0, r6
 509 01fc 9047     		blx	r2
 510              	.LVL72:
 511 01fe 3368     		ldr	r3, [r6, #0]
 512 0200 99F80110 		ldrb	r1, [r9, #1]	@ zero_extendqisi2
 513 0204 0AF10109 		add	r9, sl, #1
ARM GAS  /tmp/ccsoMgCh.s 			page 10


 514              	.L130:
 515 0208 9A68     		ldr	r2, [r3, #8]
 516 020a 3046     		mov	r0, r6
 517 020c 9047     		blx	r2
 518              	.LVL73:
 519              		.loc 1 255 0
 520 020e D945     		cmp	r9, fp
 521 0210 EED1     		bne	.L61
 522              	.L62:
 523              	.LVL74:
 524              		.loc 1 258 0
 525 0212 002D     		cmp	r5, #0
 526 0214 3FF407AF 		beq	.L117
 527              		.loc 1 259 0
 528 0218 3168     		ldr	r1, [r6, #0]
 529 021a 6B1E     		subs	r3, r5, #1
 530 021c 8A68     		ldr	r2, [r1, #8]
 531              		.loc 1 258 0
 532 021e 1D46     		mov	r5, r3
 533              	.LVL75:
 534              		.loc 1 259 0
 535 0220 3046     		mov	r0, r6
 536 0222 3946     		mov	r1, r7
 537 0224 03F00109 		and	r9, r3, #1
 538 0228 9047     		blx	r2
 539              	.LVL76:
 540              		.loc 1 258 0
 541 022a 002D     		cmp	r5, #0
 542 022c 3FF4FBAE 		beq	.L117
 543 0230 B9F1000F 		cmp	r9, #0
 544 0234 07D0     		beq	.L79
 545              		.loc 1 259 0
 546 0236 3168     		ldr	r1, [r6, #0]
 547 0238 3046     		mov	r0, r6
 548 023a 8B68     		ldr	r3, [r1, #8]
 549 023c 3946     		mov	r1, r7
 550 023e 9847     		blx	r3
 551              	.LVL77:
 552              		.loc 1 258 0
 553 0240 013D     		subs	r5, r5, #1
 554 0242 3FF4F0AE 		beq	.L117
 555              	.L79:
 556              		.loc 1 259 0
 557 0246 3068     		ldr	r0, [r6, #0]
 558 0248 3946     		mov	r1, r7
 559 024a 8268     		ldr	r2, [r0, #8]
 560 024c 3046     		mov	r0, r6
 561 024e 9047     		blx	r2
 562              	.LVL78:
 563 0250 3168     		ldr	r1, [r6, #0]
 564              		.loc 1 260 0
 565 0252 013D     		subs	r5, r5, #1
 566              		.loc 1 259 0
 567 0254 8B68     		ldr	r3, [r1, #8]
 568 0256 3046     		mov	r0, r6
 569 0258 3946     		mov	r1, r7
 570 025a 9847     		blx	r3
ARM GAS  /tmp/ccsoMgCh.s 			page 11


 571              	.LVL79:
 572              		.loc 1 258 0
 573 025c 013D     		subs	r5, r5, #1
 574 025e F2D1     		bne	.L79
 575 0260 E1E6     		b	.L117
 576              	.LVL80:
 577              	.L47:
 578              		.loc 1 194 0 discriminator 2
 579 0262 5778     		ldrb	r7, [r2, #1]	@ zero_extendqisi2
 580              		.loc 1 112 0 discriminator 2
 581 0264 0132     		adds	r2, r2, #1
 582              	.LVL81:
 583              		.loc 1 194 0 discriminator 2
 584 0266 37B1     		cbz	r7, .L118
 585              		.loc 1 194 0 is_stmt 0
 586 0268 9B45     		cmp	fp, r3
 587 026a 9CD0     		beq	.L120
 588              	.L48:
 589              		.loc 1 194 0 discriminator 1
 590 026c 5878     		ldrb	r0, [r3, #1]	@ zero_extendqisi2
 591              		.loc 1 112 0 is_stmt 1 discriminator 1
 592 026e 5A1C     		adds	r2, r3, #1
 593              	.LVL82:
 594 0270 531C     		adds	r3, r2, #1
 595              		.loc 1 194 0 discriminator 1
 596 0272 0028     		cmp	r0, #0
 597 0274 F5D1     		bne	.L47
 598              	.LVL83:
 599              	.L118:
 600 0276 CAEB020B 		rsb	fp, sl, r2
 601              		.loc 1 189 0
 602 027a 2027     		movs	r7, #32
 603 027c 4EE0     		b	.L44
 604              	.LVL84:
 605              	.L41:
 606              		.loc 1 211 0
 607 027e 059A     		ldr	r2, [sp, #20]
 608 0280 D01D     		adds	r0, r2, #7
 609              	.LVL85:
 610 0282 20F00701 		bic	r1, r0, #7
 611              	.LVL86:
 612 0286 01F10803 		add	r3, r1, #8
 613              	.LVL87:
 614 028a D1E90001 		ldrd	r0, [r1]
 615 028e 0593     		str	r3, [sp, #20]
 616 0290 FFF7FEFF 		bl	__aeabi_d2f
 617              	.LVL88:
 618              		.loc 1 212 0
 619 0294 0021     		movs	r1, #0
 620              		.loc 1 211 0
 621 0296 8246     		mov	sl, r0
 622              	.LVL89:
 623              		.loc 1 212 0
 624 0298 FFF7FEFF 		bl	__aeabi_fcmplt
 625              	.LVL90:
 626 029c 0028     		cmp	r0, #0
 627 029e 40F0C780 		bne	.L137
ARM GAS  /tmp/ccsoMgCh.s 			page 12


 628              		.loc 1 136 0
 629 02a2 C346     		mov	fp, r8
 630              	.LVL91:
 631              	.L52:
 632              	.LBB8:
 633              	.LBB9:
 634              		.loc 1 83 0
 635 02a4 5046     		mov	r0, sl
 636 02a6 FFF7FEFF 		bl	__aeabi_f2iz
 637              	.LVL92:
 638 02aa 0390     		str	r0, [sp, #12]
 639              	.LVL93:
 640              		.loc 1 84 0
 641 02ac 0A22     		movs	r2, #10
 642 02ae 0023     		movs	r3, #0
 643 02b0 5846     		mov	r0, fp
 644              	.LVL94:
 645 02b2 0399     		ldr	r1, [sp, #12]
 646 02b4 FFF7FEFF 		bl	long_to_string_with_divisor
 647              	.LVL95:
 648              		.loc 1 85 0
 649 02b8 8446     		mov	ip, r0
 650 02ba 2E20     		movs	r0, #46
 651              	.LVL96:
 652 02bc 0CF8010B 		strb	r0, [ip], #1
 653              	.LVL97:
 654              	.LBE9:
 655              	.LBE8:
 656              		.loc 1 216 0
 657 02c0 5046     		mov	r0, sl
 658 02c2 CDF800C0 		str	ip, [sp, #0]
 659 02c6 FFF7FEFF 		bl	__aeabi_f2d
 660              	.LVL98:
 661 02ca 8246     		mov	sl, r0
 662              	.LVL99:
 663              	.LBB12:
 664              	.LBB10:
 665              		.loc 1 86 0
 666 02cc 0398     		ldr	r0, [sp, #12]
 667              	.LBE10:
 668              	.LBE12:
 669              		.loc 1 216 0
 670 02ce 8B46     		mov	fp, r1
 671              	.LVL100:
 672              	.LBB13:
 673              	.LBB11:
 674              		.loc 1 86 0
 675 02d0 FFF7FEFF 		bl	__aeabi_i2d
 676              	.LVL101:
 677 02d4 0246     		mov	r2, r0
 678 02d6 0B46     		mov	r3, r1
 679 02d8 5046     		mov	r0, sl
 680 02da 5946     		mov	r1, fp
 681 02dc FFF7FEFF 		bl	__aeabi_dsub
 682              	.LVL102:
 683 02e0 45A3     		adr	r3, .L141
 684 02e2 D3E90023 		ldrd	r2, [r3]
ARM GAS  /tmp/ccsoMgCh.s 			page 13


 685 02e6 FFF7FEFF 		bl	__aeabi_dmul
 686              	.LVL103:
 687 02ea FFF7FEFF 		bl	__aeabi_d2iz
 688              	.LVL104:
 689              		.loc 1 87 0
 690 02ee DDF800C0 		ldr	ip, [sp, #0]
 691              	.LVL105:
 692              		.loc 1 86 0
 693 02f2 0146     		mov	r1, r0
 694              		.loc 1 87 0
 695 02f4 0A22     		movs	r2, #10
 696 02f6 6046     		mov	r0, ip
 697 02f8 42F21073 		movw	r3, #10000
 698 02fc FFF7FEFF 		bl	long_to_string_with_divisor
 699              	.LVL106:
 700              	.LBE11:
 701              	.LBE13:
 702              		.loc 1 137 0
 703 0300 C246     		mov	sl, r8
 704 0302 C8EB000B 		rsb	fp, r8, r0
 705              		.loc 1 217 0
 706 0306 09E0     		b	.L44
 707              	.LVL107:
 708              	.L40:
 709              		.loc 1 186 0
 710 0308 059F     		ldr	r7, [sp, #20]
 711 030a DDF808B0 		ldr	fp, [sp, #8]
 712 030e 3968     		ldr	r1, [r7, #0]
 713              	.LVL108:
 714 0310 3B1D     		adds	r3, r7, #4
 715              	.LVL109:
 716 0312 0593     		str	r3, [sp, #20]
 717 0314 8DF81810 		strb	r1, [sp, #24]
 718              	.LVL110:
 719              		.loc 1 185 0
 720 0318 2027     		movs	r7, #32
 721              		.loc 1 137 0
 722 031a C246     		mov	sl, r8
 723              	.LVL111:
 724              	.L44:
 725              		.loc 1 242 0
 726 031c CBEB0505 		rsb	r5, fp, r5
 727              	.LVL112:
 728 0320 25EAE575 		bic	r5, r5, r5, asr #31
 729              	.LVL113:
 730              		.loc 1 244 0
 731 0324 B9F1000F 		cmp	r9, #0
 732 0328 7FF448AF 		bne	.L56
 733              	.LVL114:
 734              	.L136:
 735              		.loc 1 245 0
 736 032c 6D42     		negs	r5, r5
 737              	.LVL115:
 738              		.loc 1 246 0
 739 032e 002D     		cmp	r5, #0
 740 0330 3FF444AF 		beq	.L56
 741              		.loc 1 247 0
ARM GAS  /tmp/ccsoMgCh.s 			page 14


 742 0334 9AF80010 		ldrb	r1, [sl, #0]	@ zero_extendqisi2
 743 0338 2D29     		cmp	r1, #45
 744 033a 6ED0     		beq	.L138
 745              	.L104:
 746              		.loc 1 252 0
 747 033c 3168     		ldr	r1, [r6, #0]
 748 033e 3046     		mov	r0, r6
 749 0340 8B68     		ldr	r3, [r1, #8]
 750 0342 3946     		mov	r1, r7
 751 0344 6FEA0509 		mvn	r9, r5
 752              	.LVL116:
 753 0348 9847     		blx	r3
 754              	.LVL117:
 755              		.loc 1 253 0
 756 034a 0135     		adds	r5, r5, #1
 757              	.LVL118:
 758 034c 09F00109 		and	r9, r9, #1
 759              	.LVL119:
 760 0350 3FF434AF 		beq	.L56
 761 0354 B9F1000F 		cmp	r9, #0
 762 0358 07D0     		beq	.L80
 763              	.LVL120:
 764              		.loc 1 252 0
 765 035a 3268     		ldr	r2, [r6, #0]
 766 035c 3046     		mov	r0, r6
 767 035e 9368     		ldr	r3, [r2, #8]
 768 0360 3946     		mov	r1, r7
 769 0362 9847     		blx	r3
 770              	.LVL121:
 771              		.loc 1 253 0
 772 0364 0135     		adds	r5, r5, #1
 773              	.LVL122:
 774 0366 3FF429AF 		beq	.L56
 775              	.LVL123:
 776              	.L80:
 777              		.loc 1 252 0 discriminator 1
 778 036a 3068     		ldr	r0, [r6, #0]
 779 036c 3946     		mov	r1, r7
 780 036e 8268     		ldr	r2, [r0, #8]
 781 0370 3046     		mov	r0, r6
 782 0372 9047     		blx	r2
 783              	.LVL124:
 784 0374 3168     		ldr	r1, [r6, #0]
 785              		.loc 1 253 0 discriminator 1
 786 0376 0135     		adds	r5, r5, #1
 787              	.LVL125:
 788              		.loc 1 252 0 discriminator 1
 789 0378 8B68     		ldr	r3, [r1, #8]
 790 037a 3046     		mov	r0, r6
 791 037c 3946     		mov	r1, r7
 792 037e 9847     		blx	r3
 793              	.LVL126:
 794              		.loc 1 253 0 discriminator 1
 795 0380 0135     		adds	r5, r5, #1
 796              	.LVL127:
 797 0382 F2D1     		bne	.L80
 798 0384 1AE7     		b	.L56
ARM GAS  /tmp/ccsoMgCh.s 			page 15


 799              	.LVL128:
 800              	.L39:
 801              		.loc 1 183 0
 802 0386 1022     		movs	r2, #16
 803              	.LVL129:
 804              	.L38:
 805              		.loc 1 232 0
 806 0388 059B     		ldr	r3, [sp, #20]
 807              		.loc 1 231 0
 808 038a 71B1     		cbz	r1, .L54
 809              	.L139:
 810              		.loc 1 232 0
 811 038c 191D     		adds	r1, r3, #4
 812              	.LVL130:
 813 038e 0591     		str	r1, [sp, #20]
 814 0390 1968     		ldr	r1, [r3, #0]
 815              	.LVL131:
 816              	.L55:
 817              	.LBB14:
 818              	.LBB15:
 819              		.loc 1 75 0
 820 0392 4046     		mov	r0, r8
 821 0394 0023     		movs	r3, #0
 822 0396 FFF7FEFF 		bl	long_to_string_with_divisor
 823              	.LVL132:
 824              	.LBE15:
 825              	.LBE14:
 826              		.loc 1 137 0
 827 039a C246     		mov	sl, r8
 828 039c C8EB000B 		rsb	fp, r8, r0
 829              		.loc 1 236 0
 830 03a0 BCE7     		b	.L44
 831              	.LVL133:
 832              	.L68:
 833              		.loc 1 183 0
 834 03a2 0A22     		movs	r2, #10
 835              	.LVL134:
 836              		.loc 1 232 0
 837 03a4 059B     		ldr	r3, [sp, #20]
 838              		.loc 1 231 0
 839 03a6 0029     		cmp	r1, #0
 840 03a8 F0D1     		bne	.L139
 841              	.L54:
 842              		.loc 1 234 0
 843 03aa 181D     		adds	r0, r3, #4
 844              	.LVL135:
 845 03ac 1968     		ldr	r1, [r3, #0]
 846              	.LVL136:
 847 03ae 0590     		str	r0, [sp, #20]
 848 03b0 EFE7     		b	.L55
 849              	.LVL137:
 850              	.L37:
 851 03b2 0822     		movs	r2, #8
 852 03b4 E8E7     		b	.L38
 853              	.LVL138:
 854              	.L36:
 855              		.loc 1 200 0
ARM GAS  /tmp/ccsoMgCh.s 			page 16


 856 03b6 059B     		ldr	r3, [sp, #20]
 857              	.LVL139:
 858 03b8 1A1D     		adds	r2, r3, #4
 859              	.LVL140:
 860              		.loc 1 199 0
 861 03ba 19B3     		cbz	r1, .L49
 862              		.loc 1 200 0
 863 03bc 1968     		ldr	r1, [r3, #0]
 864              	.LVL141:
 865 03be 0592     		str	r2, [sp, #20]
 866              		.loc 1 203 0
 867 03c0 0029     		cmp	r1, #0
 868 03c2 23DB     		blt	.L140
 869              	.L72:
 870              		.loc 1 136 0
 871 03c4 4046     		mov	r0, r8
 872              	.LVL142:
 873              	.L51:
 874              	.LBB16:
 875              	.LBB17:
 876              		.loc 1 75 0
 877 03c6 0A22     		movs	r2, #10
 878 03c8 0023     		movs	r3, #0
 879 03ca FFF7FEFF 		bl	long_to_string_with_divisor
 880              	.LVL143:
 881              	.LBE17:
 882              	.LBE16:
 883              		.loc 1 137 0
 884 03ce C246     		mov	sl, r8
 885 03d0 C8EB000B 		rsb	fp, r8, r0
 886              		.loc 1 208 0
 887 03d4 A2E7     		b	.L44
 888              	.LVL144:
 889              	.L35:
 890              		.loc 1 238 0
 891 03d6 8DF81830 		strb	r3, [sp, #24]
 892              	.LVL145:
 893 03da DDF808B0 		ldr	fp, [sp, #8]
 894              		.loc 1 137 0
 895 03de C246     		mov	sl, r8
 896              		.loc 1 239 0
 897 03e0 9CE7     		b	.L44
 898              	.LVL146:
 899              	.L133:
 900 03e2 6B78     		ldrb	r3, [r5, #1]	@ zero_extendqisi2
 901              		.loc 1 146 0
 902 03e4 3027     		movs	r7, #48
 903              		.loc 1 145 0
 904 03e6 0135     		adds	r5, r5, #1
 905              	.LVL147:
 906 03e8 3CE6     		b	.L24
 907              	.LVL148:
 908              	.L132:
 909              		.loc 1 140 0
 910 03ea A51C     		adds	r5, r4, #2
 911              	.LVL149:
 912 03ec A378     		ldrb	r3, [r4, #2]	@ zero_extendqisi2
ARM GAS  /tmp/ccsoMgCh.s 			page 17


 913              		.loc 1 141 0
 914 03ee 4FF00109 		mov	r9, #1
 915 03f2 33E6     		b	.L23
 916              	.LVL150:
 917              	.L67:
 918              		.loc 1 175 0
 919 03f4 0121     		movs	r1, #1
 920 03f6 56E6     		b	.L34
 921              	.L142:
 922              		.align	3
 923              	.L141:
 924 03f8 00000000 		.word	0
 925 03fc 006AF840 		.word	1090021888
 926 0400 00000000 		.word	.LC0
 927              	.LVL151:
 928              	.L49:
 929              		.loc 1 202 0
 930 0404 1968     		ldr	r1, [r3, #0]
 931              	.LVL152:
 932 0406 0592     		str	r2, [sp, #20]
 933              		.loc 1 203 0
 934 0408 0029     		cmp	r1, #0
 935 040a DBDA     		bge	.L72
 936              	.L140:
 937              		.loc 1 204 0
 938 040c 2D20     		movs	r0, #45
 939              	.LVL153:
 940 040e 8DF81800 		strb	r0, [sp, #24]
 941              	.LVL154:
 942              		.loc 1 205 0
 943 0412 4942     		negs	r1, r1
 944              	.LVL155:
 945              		.loc 1 204 0
 946 0414 0DF11900 		add	r0, sp, #25
 947 0418 D5E7     		b	.L51
 948              	.LVL156:
 949              	.L138:
 950              		.loc 1 247 0 discriminator 1
 951 041a 302F     		cmp	r7, #48
 952 041c 8ED1     		bne	.L104
 953              		.loc 1 248 0
 954 041e 3368     		ldr	r3, [r6, #0]
 955 0420 3046     		mov	r0, r6
 956 0422 9A68     		ldr	r2, [r3, #8]
 957 0424 9047     		blx	r2
 958              	.LVL157:
 959 0426 0AF1010A 		add	sl, sl, #1
 960              	.LVL158:
 961              		.loc 1 249 0
 962 042a 0BF1FF3B 		add	fp, fp, #-1
 963              	.LVL159:
 964 042e 85E7     		b	.L104
 965              	.LVL160:
 966              	.L137:
 967              		.loc 1 213 0
 968 0430 2D22     		movs	r2, #45
 969              		.loc 1 214 0
ARM GAS  /tmp/ccsoMgCh.s 			page 18


 970 0432 0AF1004A 		add	sl, sl, #-2147483648
 971              	.LVL161:
 972              		.loc 1 213 0
 973 0436 8DF81820 		strb	r2, [sp, #24]
 974              	.LVL162:
 975 043a 0DF1190B 		add	fp, sp, #25
 976 043e 31E7     		b	.L52
 977              	.LVL163:
 978              	.L71:
 979              		.loc 1 194 0
 980 0440 9346     		mov	fp, r2
 981              		.loc 1 189 0
 982 0442 2027     		movs	r7, #32
 983 0444 6AE7     		b	.L44
 984              		.cfi_endproc
 985              	.LFE10:
 986              		.size	chprintf, .-chprintf
 987 0446 00BFAFF3 		.section	.rodata.str1.4,"aMS",%progbits,1
 987      0080AFF3 
 987      0080
 988              		.align	2
 989              	.LC0:
 990 0000 286E756C 		.ascii	"(null)\000"
 990      6C2900
 991 0007 00       		.text
 992              	.Letext0:
 993              		.file 2 "/usr/bin/../lib/gcc/arm-none-eabi/4.7.4/include/stdarg.h"
 994              		.file 3 "/usr/bin/../lib/gcc/arm-none-eabi/4.7.4/include/stddef.h"
 995              		.file 4 "/usr/bin/../lib/gcc/arm-none-eabi/4.7.4/../../../../arm-none-eabi/include/stdint.h"
 996              		.file 5 "../../os/ports/GCC/ARMCMx/chtypes.h"
 997              		.file 6 "<built-in>"
 998              		.file 7 "../../os/kernel/include/chstreams.h"