ARM GAS  /tmp/ccWdwRDx.s 			page 1


   1              		.syntax unified
   2              		.cpu cortex-m4
   3              		.fpu softvfp
   4              		.eabi_attribute 20, 1
   5              		.eabi_attribute 21, 1
   6              		.eabi_attribute 23, 3
   7              		.eabi_attribute 24, 1
   8              		.eabi_attribute 25, 1
   9              		.eabi_attribute 26, 1
  10              		.eabi_attribute 30, 2
  11              		.eabi_attribute 34, 1
  12              		.eabi_attribute 18, 4
  13              		.thumb
  14              		.file	"comet.c"
  15              		.text
  16              	.Ltext0:
  17              		.cfi_sections	.debug_frame
  18              		.global	__aeabi_dcmpeq
  19              		.global	__aeabi_dsub
  20              		.global	__aeabi_dmul
  21              		.global	__aeabi_dadd
  22              		.section	.text.ln_get_ell_comet_mag,"ax",%progbits
  23              		.align	2
  24              		.p2align 4,,15
  25              		.global	ln_get_ell_comet_mag
  26              		.thumb
  27              		.thumb_func
  28              		.type	ln_get_ell_comet_mag, %function
  29              	ln_get_ell_comet_mag:
  30              	.LFB0:
  31              		.file 1 "./libnova/src/comet.c"
  32              		.loc 1 35 0
  33              		.cfi_startproc
  34              		@ args = 16, pretend = 0, frame = 0
  35              		@ frame_needed = 0, uses_anonymous_args = 0
  36              	.LVL0:
  37 0000 2DE9F043 		push	{r4, r5, r6, r7, r8, r9, lr}
  38              	.LCFI0:
  39              		.cfi_def_cfa_offset 28
  40              		.cfi_offset 4, -28
  41              		.cfi_offset 5, -24
  42              		.cfi_offset 6, -20
  43              		.cfi_offset 7, -16
  44              		.cfi_offset 8, -12
  45              		.cfi_offset 9, -8
  46              		.cfi_offset 14, -4
  47              		.loc 1 40 0
  48 0004 D2E90A45 		ldrd	r4, [r2, #40]
  49              		.loc 1 35 0
  50 0008 83B0     		sub	sp, sp, #12
  51              	.LCFI1:
  52              		.cfi_def_cfa_offset 40
  53              		.loc 1 35 0
  54 000a 9046     		mov	r8, r2
  55 000c 0646     		mov	r6, r0
  56 000e 0F46     		mov	r7, r1
  57              		.loc 1 40 0
ARM GAS  /tmp/ccWdwRDx.s 			page 2


  58 0010 0022     		movs	r2, #0
  59              	.LVL1:
  60 0012 0023     		movs	r3, #0
  61 0014 2046     		mov	r0, r4
  62              	.LVL2:
  63 0016 2946     		mov	r1, r5
  64 0018 FFF7FEFF 		bl	__aeabi_dcmpeq
  65              	.LVL3:
  66 001c 38B1     		cbz	r0, .L2
  67              		.loc 1 41 0
  68 001e D8E90001 		ldrd	r0, [r8]
  69 0022 FFF7FEFF 		bl	ln_get_ell_mean_motion
  70              	.LVL4:
  71 0026 0446     		mov	r4, r0
  72 0028 0D46     		mov	r5, r1
  73 002a C8E90A45 		strd	r4, [r8, #40]
  74              	.L2:
  75              		.loc 1 42 0
  76 002e D8E90C23 		ldrd	r2, [r8, #48]
  77 0032 3046     		mov	r0, r6
  78 0034 3946     		mov	r1, r7
  79 0036 FFF7FEFF 		bl	__aeabi_dsub
  80              	.LVL5:
  81 003a 0246     		mov	r2, r0
  82 003c 0B46     		mov	r3, r1
  83 003e 2046     		mov	r0, r4
  84 0040 2946     		mov	r1, r5
  85 0042 FFF7FEFF 		bl	ln_get_ell_mean_anomaly
  86              	.LVL6:
  87 0046 0246     		mov	r2, r0
  88 0048 0B46     		mov	r3, r1
  89              	.LVL7:
  90              		.loc 1 45 0
  91 004a D8E90201 		ldrd	r0, [r8, #8]
  92 004e FFF7FEFF 		bl	ln_solve_kepler
  93              	.LVL8:
  94              		.loc 1 48 0
  95 0052 D8E90045 		ldrd	r4, [r8]
  96 0056 D8E90223 		ldrd	r2, [r8, #8]
  97 005a CDE90001 		strd	r0, [sp]
  98 005e 2046     		mov	r0, r4
  99              	.LVL9:
 100 0060 2946     		mov	r1, r5
 101 0062 FFF7FEFF 		bl	ln_get_ell_radius_vector
 102              	.LVL10:
 103              		.loc 1 49 0
 104 0066 4246     		mov	r2, r8
 105              		.loc 1 48 0
 106 0068 0446     		mov	r4, r0
 107 006a 0D46     		mov	r5, r1
 108              	.LVL11:
 109              		.loc 1 49 0
 110 006c 3046     		mov	r0, r6
 111 006e 3946     		mov	r1, r7
 112 0070 FFF7FEFF 		bl	ln_get_ell_body_solar_dist
 113              	.LVL12:
 114              		.loc 1 51 0
ARM GAS  /tmp/ccWdwRDx.s 			page 3


 115 0074 FFF7FEFF 		bl	log10
 116              	.LVL13:
 117 0078 8046     		mov	r8, r0
 118              	.LVL14:
 119 007a 8946     		mov	r9, r1
 120 007c 2046     		mov	r0, r4
 121 007e 2946     		mov	r1, r5
 122 0080 FFF7FEFF 		bl	log10
 123              	.LVL15:
 124 0084 0023     		movs	r3, #0
 125 0086 0646     		mov	r6, r0
 126 0088 0F46     		mov	r7, r1
 127 008a 0022     		movs	r2, #0
 128 008c 4046     		mov	r0, r8
 129 008e 4946     		mov	r1, r9
 130 0090 C4F21403 		movt	r3, 16404
 131 0094 FFF7FEFF 		bl	__aeabi_dmul
 132              	.LVL16:
 133 0098 DDE90A23 		ldrd	r2, [sp, #40]
 134 009c FFF7FEFF 		bl	__aeabi_dadd
 135              	.LVL17:
 136 00a0 DDE90C23 		ldrd	r2, [sp, #48]
 137 00a4 0446     		mov	r4, r0
 138              	.LVL18:
 139 00a6 0D46     		mov	r5, r1
 140 00a8 3046     		mov	r0, r6
 141 00aa 3946     		mov	r1, r7
 142 00ac FFF7FEFF 		bl	__aeabi_dmul
 143              	.LVL19:
 144 00b0 0246     		mov	r2, r0
 145 00b2 0B46     		mov	r3, r1
 146 00b4 2046     		mov	r0, r4
 147 00b6 2946     		mov	r1, r5
 148 00b8 FFF7FEFF 		bl	__aeabi_dadd
 149              	.LVL20:
 150              		.loc 1 52 0
 151 00bc 03B0     		add	sp, sp, #12
 152 00be BDE8F083 		pop	{r4, r5, r6, r7, r8, r9, pc}
 153              		.cfi_endproc
 154              	.LFE0:
 155              		.size	ln_get_ell_comet_mag, .-ln_get_ell_comet_mag
 156 00c2 00BFAFF3 		.section	.text.ln_get_par_comet_mag,"ax",%progbits
 156      0080AFF3 
 156      0080AFF3 
 156      0080
 157              		.align	2
 158              		.p2align 4,,15
 159              		.global	ln_get_par_comet_mag
 160              		.thumb
 161              		.thumb_func
 162              		.type	ln_get_par_comet_mag, %function
 163              	ln_get_par_comet_mag:
 164              	.LFB1:
 165              		.loc 1 65 0
 166              		.cfi_startproc
 167              		@ args = 16, pretend = 0, frame = 0
 168              		@ frame_needed = 0, uses_anonymous_args = 0
ARM GAS  /tmp/ccWdwRDx.s 			page 4


 169              	.LVL21:
 170 0000 2DE9F047 		push	{r4, r5, r6, r7, r8, r9, sl, lr}
 171              	.LCFI2:
 172              		.cfi_def_cfa_offset 32
 173              		.cfi_offset 4, -32
 174              		.cfi_offset 5, -28
 175              		.cfi_offset 6, -24
 176              		.cfi_offset 7, -20
 177              		.cfi_offset 8, -16
 178              		.cfi_offset 9, -12
 179              		.cfi_offset 10, -8
 180              		.cfi_offset 14, -4
 181              		.loc 1 72 0
 182 0004 D2E90045 		ldrd	r4, [r2]
 183              		.loc 1 65 0
 184 0008 9246     		mov	sl, r2
 185              		.loc 1 69 0
 186 000a D2E90823 		ldrd	r2, [r2, #32]
 187              	.LVL22:
 188              		.loc 1 65 0
 189 000e 0646     		mov	r6, r0
 190 0010 0F46     		mov	r7, r1
 191              	.LVL23:
 192              		.loc 1 69 0
 193 0012 FFF7FEFF 		bl	__aeabi_dsub
 194              	.LVL24:
 195 0016 0B46     		mov	r3, r1
 196 0018 0246     		mov	r2, r0
 197              		.loc 1 72 0
 198 001a 2946     		mov	r1, r5
 199 001c 2046     		mov	r0, r4
 200 001e FFF7FEFF 		bl	ln_get_par_radius_vector
 201              	.LVL25:
 202              		.loc 1 73 0
 203 0022 5246     		mov	r2, sl
 204              		.loc 1 72 0
 205 0024 0446     		mov	r4, r0
 206 0026 0D46     		mov	r5, r1
 207              	.LVL26:
 208              		.loc 1 73 0
 209 0028 3046     		mov	r0, r6
 210 002a 3946     		mov	r1, r7
 211 002c FFF7FEFF 		bl	ln_get_par_body_solar_dist
 212              	.LVL27:
 213              		.loc 1 75 0
 214 0030 FFF7FEFF 		bl	log10
 215              	.LVL28:
 216 0034 8046     		mov	r8, r0
 217 0036 8946     		mov	r9, r1
 218 0038 2046     		mov	r0, r4
 219 003a 2946     		mov	r1, r5
 220 003c FFF7FEFF 		bl	log10
 221              	.LVL29:
 222 0040 0023     		movs	r3, #0
 223 0042 0646     		mov	r6, r0
 224 0044 0F46     		mov	r7, r1
 225 0046 0022     		movs	r2, #0
ARM GAS  /tmp/ccWdwRDx.s 			page 5


 226 0048 4046     		mov	r0, r8
 227 004a 4946     		mov	r1, r9
 228 004c C4F21403 		movt	r3, 16404
 229 0050 FFF7FEFF 		bl	__aeabi_dmul
 230              	.LVL30:
 231 0054 DDE90823 		ldrd	r2, [sp, #32]
 232 0058 FFF7FEFF 		bl	__aeabi_dadd
 233              	.LVL31:
 234 005c DDE90A23 		ldrd	r2, [sp, #40]
 235 0060 0446     		mov	r4, r0
 236              	.LVL32:
 237 0062 0D46     		mov	r5, r1
 238 0064 3046     		mov	r0, r6
 239 0066 3946     		mov	r1, r7
 240 0068 FFF7FEFF 		bl	__aeabi_dmul
 241              	.LVL33:
 242 006c 0246     		mov	r2, r0
 243 006e 0B46     		mov	r3, r1
 244 0070 2046     		mov	r0, r4
 245 0072 2946     		mov	r1, r5
 246 0074 FFF7FEFF 		bl	__aeabi_dadd
 247              	.LVL34:
 248              		.loc 1 76 0
 249 0078 BDE8F087 		pop	{r4, r5, r6, r7, r8, r9, sl, pc}
 250              		.cfi_endproc
 251              	.LFE1:
 252              		.size	ln_get_par_comet_mag, .-ln_get_par_comet_mag
 253 007c AFF30080 		.text
 254              	.Letext0:
 255              		.file 2 "./libnova/src/libnova/ln_types.h"
 256              		.file 3 "./libnova/src/libnova/elliptic_motion.h"
 257              		.file 4 "/usr/bin/../lib/gcc/arm-none-eabi/4.7.4/../../../../arm-none-eabi/include/math.h"
 258              		.file 5 "./libnova/src/libnova/parabolic_motion.h"