ARM GAS  /tmp/ccRqpCax.s 			page 1


   1              		.syntax unified
   2              		.cpu cortex-m4
   3              		.fpu softvfp
   4              		.eabi_attribute 20, 1
   5              		.eabi_attribute 21, 1
   6              		.eabi_attribute 23, 3
   7              		.eabi_attribute 24, 1
   8              		.eabi_attribute 25, 1
   9              		.eabi_attribute 26, 1
  10              		.eabi_attribute 30, 2
  11              		.eabi_attribute 34, 1
  12              		.eabi_attribute 18, 4
  13              		.thumb
  14              		.file	"dynamical_time.c"
  15              		.text
  16              	.Ltext0:
  17              		.cfi_sections	.debug_frame
  18              		.global	__aeabi_dcmplt
  19              		.global	__aeabi_dsub
  20              		.global	__aeabi_ddiv
  21              		.global	__aeabi_dmul
  22              		.global	__aeabi_dadd
  23              		.global	__aeabi_dcmpge
  24              		.global	__aeabi_d2iz
  25              		.global	__aeabi_i2d
  26              		.global	__aeabi_dcmple
  27              		.section	.text.ln_get_dynamical_time_diff,"ax",%progbits
  28              		.align	2
  29              		.p2align 4,,15
  30              		.global	ln_get_dynamical_time_diff
  31              		.thumb
  32              		.thumb_func
  33              		.type	ln_get_dynamical_time_diff, %function
  34              	ln_get_dynamical_time_diff:
  35              	.LFB5:
  36              		.file 1 "./libnova/src/dynamical_time.c"
  37              		.loc 1 183 0
  38              		.cfi_startproc
  39              		@ args = 0, pretend = 0, frame = 24
  40              		@ frame_needed = 0, uses_anonymous_args = 0
  41              	.LVL0:
  42 0000 2DE9F04D 		push	{r4, r5, r6, r7, r8, sl, fp, lr}
  43              	.LCFI0:
  44              		.cfi_def_cfa_offset 32
  45              		.cfi_offset 4, -32
  46              		.cfi_offset 5, -28
  47              		.cfi_offset 6, -24
  48              		.cfi_offset 7, -20
  49              		.cfi_offset 8, -16
  50              		.cfi_offset 10, -12
  51              		.cfi_offset 11, -8
  52              		.cfi_offset 14, -4
  53              		.loc 1 188 0
  54 0004 A0A3     		adr	r3, .L27
  55 0006 D3E90023 		ldrd	r2, [r3]
  56              		.loc 1 183 0
  57 000a 86B0     		sub	sp, sp, #24
ARM GAS  /tmp/ccRqpCax.s 			page 2


  58              	.LCFI1:
  59              		.cfi_def_cfa_offset 56
  60              		.loc 1 183 0
  61 000c 0446     		mov	r4, r0
  62 000e 0D46     		mov	r5, r1
  63              		.loc 1 188 0
  64 0010 FFF7FEFF 		bl	__aeabi_dcmplt
  65              	.LVL1:
  66 0014 0028     		cmp	r0, #0
  67 0016 40F09980 		bne	.L24
  68              		.loc 1 191 0
  69 001a 2046     		mov	r0, r4
  70 001c 2946     		mov	r1, r5
  71 001e 9AA3     		adr	r3, .L27
  72 0020 D3E90023 		ldrd	r2, [r3]
  73 0024 FFF7FEFF 		bl	__aeabi_dcmpge
  74              	.LVL2:
  75 0028 0028     		cmp	r0, #0
  76 002a 51D1     		bne	.L25
  77              	.L5:
  78              		.loc 1 194 0
  79 002c 2046     		mov	r0, r4
  80 002e 2946     		mov	r1, r5
  81 0030 97A3     		adr	r3, .L27+8
  82 0032 D3E90023 		ldrd	r2, [r3]
  83 0036 FFF7FEFF 		bl	__aeabi_dcmpge
  84              	.LVL3:
  85 003a 48B1     		cbz	r0, .L8
  86              		.loc 1 194 0 is_stmt 0 discriminator 1
  87 003c 2046     		mov	r0, r4
  88 003e 2946     		mov	r1, r5
  89 0040 95A3     		adr	r3, .L27+16
  90 0042 D3E90023 		ldrd	r2, [r3]
  91 0046 FFF7FEFF 		bl	__aeabi_dcmplt
  92              	.LVL4:
  93 004a 0028     		cmp	r0, #0
  94 004c 40F0B080 		bne	.L26
  95              	.L8:
  96              		.loc 1 197 0 is_stmt 1
  97 0050 2046     		mov	r0, r4
  98 0052 2946     		mov	r1, r5
  99 0054 90A3     		adr	r3, .L27+16
 100 0056 D3E90023 		ldrd	r2, [r3]
 101 005a FFF7FEFF 		bl	__aeabi_dcmpge
 102              	.LVL5:
 103 005e 0028     		cmp	r0, #0
 104 0060 5BD0     		beq	.L11
 105              		.loc 1 197 0 is_stmt 0 discriminator 1
 106 0062 2046     		mov	r0, r4
 107 0064 2946     		mov	r1, r5
 108 0066 8EA3     		adr	r3, .L27+24
 109 0068 D3E90023 		ldrd	r2, [r3]
 110 006c FFF7FEFF 		bl	__aeabi_dcmple
 111              	.LVL6:
 112 0070 0028     		cmp	r0, #0
 113 0072 52D0     		beq	.L11
 114              	.LVL7:
ARM GAS  /tmp/ccRqpCax.s 			page 3


 115              	.LBB20:
 116              	.LBB21:
 117              		.loc 1 153 0 is_stmt 1
 118 0074 8CA3     		adr	r3, .L27+32
 119 0076 D3E90023 		ldrd	r2, [r3]
 120 007a 2046     		mov	r0, r4
 121 007c 2946     		mov	r1, r5
 122 007e FFF7FEFF 		bl	__aeabi_dsub
 123              	.LVL8:
 124 0082 8BA3     		adr	r3, .L27+40
 125 0084 D3E90023 		ldrd	r2, [r3]
 126 0088 FFF7FEFF 		bl	__aeabi_ddiv
 127              	.LVL9:
 128              		.loc 1 154 0
 129 008c 0023     		movs	r3, #0
 130 008e 0022     		movs	r2, #0
 131 0090 C3F6E073 		movt	r3, 16352
 132              		.loc 1 153 0
 133 0094 0646     		mov	r6, r0
 134 0096 0F46     		mov	r7, r1
 135              	.LVL10:
 136              		.loc 1 154 0
 137 0098 FFF7FEFF 		bl	__aeabi_dmul
 138              	.LVL11:
 139 009c 86A3     		adr	r3, .L27+48
 140 009e D3E90023 		ldrd	r2, [r3]
 141 00a2 0446     		mov	r4, r0
 142              	.LVL12:
 143 00a4 0D46     		mov	r5, r1
 144 00a6 3046     		mov	r0, r6
 145 00a8 3946     		mov	r1, r7
 146 00aa FFF7FEFF 		bl	__aeabi_dmul
 147              	.LVL13:
 148 00ae 84A3     		adr	r3, .L27+56
 149 00b0 D3E90023 		ldrd	r2, [r3]
 150 00b4 FFF7FEFF 		bl	__aeabi_dadd
 151              	.LVL14:
 152 00b8 0246     		mov	r2, r0
 153 00ba 0B46     		mov	r3, r1
 154 00bc 2046     		mov	r0, r4
 155 00be 2946     		mov	r1, r5
 156 00c0 FFF7FEFF 		bl	__aeabi_dmul
 157              	.LVL15:
 158 00c4 80A3     		adr	r3, .L27+64
 159 00c6 D3E90023 		ldrd	r2, [r3]
 160 00ca FFF7FEFF 		bl	__aeabi_dadd
 161              	.LVL16:
 162              	.LBE21:
 163              	.LBE20:
 164              		.loc 1 199 0
 165 00ce 3AE0     		b	.L4
 166              	.LVL17:
 167              	.L25:
 168              		.loc 1 191 0 discriminator 1
 169 00d0 2046     		mov	r0, r4
 170 00d2 2946     		mov	r1, r5
 171 00d4 7EA3     		adr	r3, .L27+72
ARM GAS  /tmp/ccRqpCax.s 			page 4


 172 00d6 D3E90023 		ldrd	r2, [r3]
 173 00da FFF7FEFF 		bl	__aeabi_dcmplt
 174              	.LVL18:
 175 00de 0028     		cmp	r0, #0
 176 00e0 A4D0     		beq	.L5
 177              	.LVL19:
 178              	.LBB22:
 179              	.LBB23:
 180              		.loc 1 106 0
 181 00e2 7DA3     		adr	r3, .L27+80
 182 00e4 D3E90023 		ldrd	r2, [r3]
 183 00e8 2046     		mov	r0, r4
 184 00ea 2946     		mov	r1, r5
 185 00ec FFF7FEFF 		bl	__aeabi_dsub
 186              	.LVL20:
 187 00f0 7BA3     		adr	r3, .L27+88
 188 00f2 D3E90023 		ldrd	r2, [r3]
 189 00f6 FFF7FEFF 		bl	__aeabi_ddiv
 190              	.LVL21:
 191              		.loc 1 108 0
 192 00fa 4FF40043 		mov	r3, #32768
 193 00fe 0022     		movs	r2, #0
 194 0100 C4F23603 		movt	r3, 16438
 195              		.loc 1 106 0
 196 0104 0446     		mov	r4, r0
 197              	.LVL22:
 198 0106 0D46     		mov	r5, r1
 199              	.LVL23:
 200              		.loc 1 108 0
 201 0108 FFF7FEFF 		bl	__aeabi_dmul
 202              	.LVL24:
 203 010c 0246     		mov	r2, r0
 204 010e 0B46     		mov	r3, r1
 205 0110 2046     		mov	r0, r4
 206 0112 2946     		mov	r1, r5
 207 0114 FFF7FEFF 		bl	__aeabi_dmul
 208              	.LVL25:
 209              	.LBE23:
 210              	.LBE22:
 211              		.loc 1 193 0
 212 0118 15E0     		b	.L4
 213              	.LVL26:
 214              	.L11:
 215              	.LBB24:
 216              	.LBB25:
 217              		.loc 1 165 0
 218 011a 73A3     		adr	r3, .L27+96
 219 011c D3E90023 		ldrd	r2, [r3]
 220 0120 2046     		mov	r0, r4
 221 0122 2946     		mov	r1, r5
 222 0124 FFF7FEFF 		bl	__aeabi_dsub
 223              	.LVL27:
 224              		.loc 1 166 0
 225 0128 0246     		mov	r2, r0
 226 012a 0B46     		mov	r3, r1
 227 012c FFF7FEFF 		bl	__aeabi_dmul
 228              	.LVL28:
ARM GAS  /tmp/ccRqpCax.s 			page 5


 229              		.loc 1 168 0
 230 0130 6FA3     		adr	r3, .L27+104
 231 0132 D3E90023 		ldrd	r2, [r3]
 232 0136 FFF7FEFF 		bl	__aeabi_ddiv
 233              	.LVL29:
 234 013a 0023     		movs	r3, #0
 235 013c 0022     		movs	r2, #0
 236 013e C4F22E03 		movt	r3, 16430
 237 0142 FFF7FEFF 		bl	__aeabi_dsub
 238              	.LVL30:
 239              	.L4:
 240              	.LBE25:
 241              	.LBE24:
 242              		.loc 1 205 0
 243 0146 06B0     		add	sp, sp, #24
 244 0148 BDE8F08D 		pop	{r4, r5, r6, r7, r8, sl, fp, pc}
 245              	.LVL31:
 246              	.L24:
 247              	.LBB26:
 248              	.LBB27:
 249              		.loc 1 94 0
 250 014c 4EA3     		adr	r3, .L27
 251 014e D3E90023 		ldrd	r2, [r3]
 252 0152 2046     		mov	r0, r4
 253 0154 2946     		mov	r1, r5
 254 0156 FFF7FEFF 		bl	__aeabi_dsub
 255              	.LVL32:
 256 015a 61A3     		adr	r3, .L27+88
 257 015c D3E90023 		ldrd	r2, [r3]
 258 0160 FFF7FEFF 		bl	__aeabi_ddiv
 259              	.LVL33:
 260              		.loc 1 96 0
 261 0164 64A3     		adr	r3, .L27+112
 262 0166 D3E90023 		ldrd	r2, [r3]
 263              		.loc 1 94 0
 264 016a 0446     		mov	r4, r0
 265              	.LVL34:
 266 016c 0D46     		mov	r5, r1
 267              	.LVL35:
 268              		.loc 1 96 0
 269 016e FFF7FEFF 		bl	__aeabi_dmul
 270              	.LVL36:
 271 0172 0246     		mov	r2, r0
 272 0174 0B46     		mov	r3, r1
 273 0176 62A1     		adr	r1, .L27+120
 274 0178 D1E90001 		ldrd	r0, [r1]
 275 017c FFF7FEFF 		bl	__aeabi_dsub
 276              	.LVL37:
 277 0180 4FF48043 		mov	r3, #16384
 278 0184 0022     		movs	r2, #0
 279 0186 C4F24703 		movt	r3, 16455
 280 018a 0646     		mov	r6, r0
 281 018c 0F46     		mov	r7, r1
 282 018e 2046     		mov	r0, r4
 283 0190 2946     		mov	r1, r5
 284 0192 FFF7FEFF 		bl	__aeabi_dmul
 285              	.LVL38:
ARM GAS  /tmp/ccRqpCax.s 			page 6


 286 0196 0246     		mov	r2, r0
 287 0198 0B46     		mov	r3, r1
 288 019a 2046     		mov	r0, r4
 289 019c 2946     		mov	r1, r5
 290              	.LVL39:
 291              	.L22:
 292              	.LBE27:
 293              	.LBE26:
 294              	.LBB28:
 295              	.LBB29:
 296              		.loc 1 133 0
 297 019e FFF7FEFF 		bl	__aeabi_dmul
 298              	.LVL40:
 299 01a2 0246     		mov	r2, r0
 300 01a4 0B46     		mov	r3, r1
 301 01a6 3046     		mov	r0, r6
 302 01a8 3946     		mov	r1, r7
 303 01aa FFF7FEFF 		bl	__aeabi_dadd
 304              	.LVL41:
 305              	.LBE29:
 306              	.LBE28:
 307              		.loc 1 196 0
 308 01ae CAE7     		b	.L4
 309              	.LVL42:
 310              	.L26:
 311              	.LBB31:
 312              	.LBB30:
 313              		.loc 1 121 0
 314 01b0 37A3     		adr	r3, .L27+8
 315 01b2 D3E90023 		ldrd	r2, [r3]
 316 01b6 2046     		mov	r0, r4
 317 01b8 2946     		mov	r1, r5
 318 01ba FFF7FEFF 		bl	__aeabi_dsub
 319              	.LVL43:
 320 01be 52A3     		adr	r3, .L27+128
 321 01c0 D3E90023 		ldrd	r2, [r3]
 322 01c4 FFF7FEFF 		bl	__aeabi_ddiv
 323              	.LVL44:
 324 01c8 FFF7FEFF 		bl	__aeabi_d2iz
 325              	.LVL45:
 326              		.loc 1 128 0
 327 01cc DFF840A1 		ldr	sl, .L27+136
 328 01d0 BE28     		cmp	r0, #190
 329 01d2 B4BF     		ite	lt
 330 01d4 8046     		movlt	r8, r0
 331 01d6 4FF0BE08 		movge	r8, #190
 332              	.LVL46:
 333 01da 0AEBC803 		add	r3, sl, r8, lsl #3
 334 01de D3E90267 		ldrd	r6, [r3, #8]
 335 01e2 D3E90023 		ldrd	r2, [r3]
 336 01e6 3046     		mov	r0, r6
 337 01e8 3946     		mov	r1, r7
 338 01ea FFF7FEFF 		bl	__aeabi_dsub
 339              	.LVL47:
 340 01ee CDE90001 		strd	r0, [sp]
 341              	.LVL48:
 342              		.loc 1 129 0
ARM GAS  /tmp/ccRqpCax.s 			page 7


 343 01f2 0AEBC800 		add	r0, sl, r8, lsl #3
 344              	.LVL49:
 345 01f6 3246     		mov	r2, r6
 346 01f8 3B46     		mov	r3, r7
 347 01fa D0E90401 		ldrd	r0, [r0, #16]
 348 01fe FFF7FEFF 		bl	__aeabi_dsub
 349              	.LVL50:
 350 0202 8246     		mov	sl, r0
 351              		.loc 1 131 0
 352 0204 4046     		mov	r0, r8
 353              		.loc 1 129 0
 354 0206 8B46     		mov	fp, r1
 355              	.LVL51:
 356              		.loc 1 131 0
 357 0208 FFF7FEFF 		bl	__aeabi_i2d
 358              	.LVL52:
 359 020c 3EA3     		adr	r3, .L27+128
 360 020e D3E90023 		ldrd	r2, [r3]
 361 0212 FFF7FEFF 		bl	__aeabi_dmul
 362              	.LVL53:
 363 0216 1EA3     		adr	r3, .L27+8
 364 0218 D3E90023 		ldrd	r2, [r3]
 365 021c FFF7FEFF 		bl	__aeabi_dadd
 366              	.LVL54:
 367 0220 0246     		mov	r2, r0
 368 0222 0B46     		mov	r3, r1
 369 0224 2046     		mov	r0, r4
 370 0226 2946     		mov	r1, r5
 371 0228 FFF7FEFF 		bl	__aeabi_dsub
 372              	.LVL55:
 373 022c 36A3     		adr	r3, .L27+128
 374 022e D3E90023 		ldrd	r2, [r3]
 375 0232 FFF7FEFF 		bl	__aeabi_ddiv
 376              	.LVL56:
 377              		.loc 1 133 0
 378 0236 0023     		movs	r3, #0
 379 0238 0022     		movs	r2, #0
 380 023a C3F6E073 		movt	r3, 16352
 381              		.loc 1 131 0
 382 023e CDE90201 		strd	r0, [sp, #8]
 383              	.LVL57:
 384              		.loc 1 133 0
 385 0242 FFF7FEFF 		bl	__aeabi_dmul
 386              	.LVL58:
 387 0246 5246     		mov	r2, sl
 388 0248 CDE90401 		strd	r0, [sp, #16]
 389 024c 5B46     		mov	r3, fp
 390 024e DDE90001 		ldrd	r0, [sp]
 391 0252 FFF7FEFF 		bl	__aeabi_dadd
 392              	.LVL59:
 393              		.loc 1 130 0
 394 0256 5246     		mov	r2, sl
 395              		.loc 1 133 0
 396 0258 0446     		mov	r4, r0
 397              	.LVL60:
 398 025a 0D46     		mov	r5, r1
 399              		.loc 1 130 0
ARM GAS  /tmp/ccRqpCax.s 			page 8


 400 025c 5B46     		mov	r3, fp
 401 025e DDE90001 		ldrd	r0, [sp]
 402 0262 FFF7FEFF 		bl	__aeabi_dsub
 403              	.LVL61:
 404              		.loc 1 133 0
 405 0266 DDE90223 		ldrd	r2, [sp, #8]
 406 026a FFF7FEFF 		bl	__aeabi_dmul
 407              	.LVL62:
 408 026e 0246     		mov	r2, r0
 409 0270 0B46     		mov	r3, r1
 410 0272 2046     		mov	r0, r4
 411 0274 2946     		mov	r1, r5
 412 0276 FFF7FEFF 		bl	__aeabi_dadd
 413              	.LVL63:
 414 027a 0246     		mov	r2, r0
 415 027c 0B46     		mov	r3, r1
 416 027e DDE90401 		ldrd	r0, [sp, #16]
 417 0282 8CE7     		b	.L22
 418              	.L28:
 419 0284 AFF30080 		.align	3
 420              	.L27:
 421 0288 00000080 		.word	2147483648
 422 028c 728B3F41 		.word	1094683506
 423 0290 00000040 		.word	1073741824
 424 0294 18A54141 		.word	1094821144
 425 0298 00000040 		.word	1073741824
 426 029c 77AE4241 		.word	1094889079
 427 02a0 000000C0 		.word	3221225472
 428 02a4 4EBB4241 		.word	1094892366
 429 02a8 00000040 		.word	1073741824
 430 02ac 2CB44241 		.word	1094890540
 431 02b0 00000000 		.word	0
 432 02b4 0089AC40 		.word	1085049088
 433 02b8 80999999 		.word	2576980352
 434 02bc 9999E9BF 		.word	-1075209831
 435 02c0 48E17A14 		.word	343597384
 436 02c4 AE472A40 		.word	1076512686
 437 02c8 0AD7A370 		.word	1889785610
 438 02cc 3DEA4F40 		.word	1078979133
 439 02d0 000000C0 		.word	3221225472
 440 02d4 D3964141 		.word	1094817491
 441 02d8 00000040 		.word	1073741824
 442 02dc 2B494241 		.word	1094863147
 443 02e0 00000000 		.word	0
 444 02e4 A0D5E140 		.word	1088542112
 445 02e8 00000000 		.word	0
 446 02ec A22C4241 		.word	1094855842
 447 02f0 00000000 		.word	0
 448 02f4 CD928341 		.word	1099141837
 449 02f8 00000000 		.word	0
 450 02fc 00507940 		.word	1081692160
 451 0300 00000000 		.word	0
 452 0304 00989C40 		.word	1084004352
 453 0308 00000000 		.word	0
 454 030c 00D48640 		.word	1082577920
 455 0310 00000000 		.word	.LANCHOR0
 456              	.LBE30:
ARM GAS  /tmp/ccRqpCax.s 			page 9


 457              	.LBE31:
 458              		.cfi_endproc
 459              	.LFE5:
 460              		.size	ln_get_dynamical_time_diff, .-ln_get_dynamical_time_diff
 461 0314 AFF30080 		.section	.text.ln_get_jde,"ax",%progbits
 461      AFF30080 
 461      AFF30080 
 462              		.align	2
 463              		.p2align 4,,15
 464              		.global	ln_get_jde
 465              		.thumb
 466              		.thumb_func
 467              		.type	ln_get_jde, %function
 468              	ln_get_jde:
 469              	.LFB6:
 470              		.loc 1 216 0
 471              		.cfi_startproc
 472              		@ args = 0, pretend = 0, frame = 0
 473              		@ frame_needed = 0, uses_anonymous_args = 0
 474              	.LVL64:
 475 0000 38B5     		push	{r3, r4, r5, lr}
 476              	.LCFI2:
 477              		.cfi_def_cfa_offset 16
 478              		.cfi_offset 3, -16
 479              		.cfi_offset 4, -12
 480              		.cfi_offset 5, -8
 481              		.cfi_offset 14, -4
 482              		.loc 1 216 0
 483 0002 0446     		mov	r4, r0
 484 0004 0D46     		mov	r5, r1
 485              		.loc 1 220 0
 486 0006 FFF7FEFF 		bl	ln_get_dynamical_time_diff
 487              	.LVL65:
 488 000a 05A3     		adr	r3, .L30
 489 000c D3E90023 		ldrd	r2, [r3]
 490 0010 FFF7FEFF 		bl	__aeabi_ddiv
 491              	.LVL66:
 492 0014 2246     		mov	r2, r4
 493 0016 2B46     		mov	r3, r5
 494 0018 FFF7FEFF 		bl	__aeabi_dadd
 495              	.LVL67:
 496              		.loc 1 223 0
 497 001c 38BD     		pop	{r3, r4, r5, pc}
 498              	.L31:
 499 001e 00BF     		.align	3
 500              	.L30:
 501 0020 00000000 		.word	0
 502 0024 0018F540 		.word	1089804288
 503              		.cfi_endproc
 504              	.LFE6:
 505              		.size	ln_get_jde, .-ln_get_jde
 506 0028 AFF30080 		.section	.rodata.delta_t,"a",%progbits
 506      AFF30080 
 507              		.align	3
 508              		.set	.LANCHOR0,. + 0
 509              		.type	delta_t, %object
 510              		.size	delta_t, 1536
ARM GAS  /tmp/ccRqpCax.s 			page 10


 511              	delta_t:
 512 0000 00000000 		.word	0
 513 0004 00005F40 		.word	1079967744
 514 0008 00000000 		.word	0
 515 000c 00C05C40 		.word	1079820288
 516 0010 00000000 		.word	0
 517 0014 00805A40 		.word	1079672832
 518 0018 00000000 		.word	0
 519 001c 00805840 		.word	1079541760
 520 0020 00000000 		.word	0
 521 0024 00C05640 		.word	1079427072
 522 0028 00000000 		.word	0
 523 002c 00405540 		.word	1079328768
 524 0030 00000000 		.word	0
 525 0034 00C05340 		.word	1079230464
 526 0038 00000000 		.word	0
 527 003c 00805240 		.word	1079148544
 528 0040 00000000 		.word	0
 529 0044 00805140 		.word	1079083008
 530 0048 00000000 		.word	0
 531 004c 00405040 		.word	1079001088
 532 0050 00000000 		.word	0
 533 0054 00004F40 		.word	1078919168
 534 0058 00000000 		.word	0
 535 005c 00004D40 		.word	1078788096
 536 0060 00000000 		.word	0
 537 0064 00804B40 		.word	1078689792
 538 0068 00000000 		.word	0
 539 006c 00804A40 		.word	1078624256
 540 0070 00000000 		.word	0
 541 0074 00004940 		.word	1078525952
 542 0078 00000000 		.word	0
 543 007c 00004840 		.word	1078460416
 544 0080 00000000 		.word	0
 545 0084 00004740 		.word	1078394880
 546 0088 00000000 		.word	0
 547 008c 00004640 		.word	1078329344
 548 0090 00000000 		.word	0
 549 0094 00004540 		.word	1078263808
 550 0098 00000000 		.word	0
 551 009c 00004440 		.word	1078198272
 552 00a0 00000000 		.word	0
 553 00a4 00804240 		.word	1078099968
 554 00a8 00000000 		.word	0
 555 00ac 00804140 		.word	1078034432
 556 00b0 00000000 		.word	0
 557 00b4 00804040 		.word	1077968896
 558 00b8 00000000 		.word	0
 559 00bc 00003F40 		.word	1077870592
 560 00c0 00000000 		.word	0
 561 00c4 00003C40 		.word	1077673984
 562 00c8 00000000 		.word	0
 563 00cc 00003A40 		.word	1077542912
 564 00d0 00000000 		.word	0
 565 00d4 00003840 		.word	1077411840
 566 00d8 00000000 		.word	0
 567 00dc 00003640 		.word	1077280768
ARM GAS  /tmp/ccRqpCax.s 			page 11


 568 00e0 00000000 		.word	0
 569 00e4 00003440 		.word	1077149696
 570 00e8 00000000 		.word	0
 571 00ec 00003240 		.word	1077018624
 572 00f0 00000000 		.word	0
 573 00f4 00003040 		.word	1076887552
 574 00f8 00000000 		.word	0
 575 00fc 00002C40 		.word	1076625408
 576 0100 00000000 		.word	0
 577 0104 00002A40 		.word	1076494336
 578 0108 00000000 		.word	0
 579 010c 00002840 		.word	1076363264
 580 0110 00000000 		.word	0
 581 0114 00002640 		.word	1076232192
 582 0118 00000000 		.word	0
 583 011c 00002440 		.word	1076101120
 584 0120 00000000 		.word	0
 585 0124 00002240 		.word	1075970048
 586 0128 00000000 		.word	0
 587 012c 00002240 		.word	1075970048
 588 0130 00000000 		.word	0
 589 0134 00002240 		.word	1075970048
 590 0138 00000000 		.word	0
 591 013c 00002240 		.word	1075970048
 592 0140 00000000 		.word	0
 593 0144 00002240 		.word	1075970048
 594 0148 00000000 		.word	0
 595 014c 00002240 		.word	1075970048
 596 0150 00000000 		.word	0
 597 0154 00002240 		.word	1075970048
 598 0158 00000000 		.word	0
 599 015c 00002240 		.word	1075970048
 600 0160 00000000 		.word	0
 601 0164 00002440 		.word	1076101120
 602 0168 00000000 		.word	0
 603 016c 00002440 		.word	1076101120
 604 0170 00000000 		.word	0
 605 0174 00002440 		.word	1076101120
 606 0178 00000000 		.word	0
 607 017c 00002440 		.word	1076101120
 608 0180 00000000 		.word	0
 609 0184 00002440 		.word	1076101120
 610 0188 00000000 		.word	0
 611 018c 00002640 		.word	1076232192
 612 0190 00000000 		.word	0
 613 0194 00002640 		.word	1076232192
 614 0198 00000000 		.word	0
 615 019c 00002640 		.word	1076232192
 616 01a0 00000000 		.word	0
 617 01a4 00002640 		.word	1076232192
 618 01a8 00000000 		.word	0
 619 01ac 00002640 		.word	1076232192
 620 01b0 00000000 		.word	0
 621 01b4 00002640 		.word	1076232192
 622 01b8 00000000 		.word	0
 623 01bc 00002640 		.word	1076232192
 624 01c0 00000000 		.word	0
ARM GAS  /tmp/ccRqpCax.s 			page 12


 625 01c4 00002840 		.word	1076363264
 626 01c8 00000000 		.word	0
 627 01cc 00002840 		.word	1076363264
 628 01d0 00000000 		.word	0
 629 01d4 00002840 		.word	1076363264
 630 01d8 00000000 		.word	0
 631 01dc 00002840 		.word	1076363264
 632 01e0 00000000 		.word	0
 633 01e4 00002840 		.word	1076363264
 634 01e8 00000000 		.word	0
 635 01ec 00002840 		.word	1076363264
 636 01f0 00000000 		.word	0
 637 01f4 00002A40 		.word	1076494336
 638 01f8 00000000 		.word	0
 639 01fc 00002A40 		.word	1076494336
 640 0200 00000000 		.word	0
 641 0204 00002A40 		.word	1076494336
 642 0208 00000000 		.word	0
 643 020c 00002A40 		.word	1076494336
 644 0210 00000000 		.word	0
 645 0214 00002C40 		.word	1076625408
 646 0218 00000000 		.word	0
 647 021c 00002C40 		.word	1076625408
 648 0220 00000000 		.word	0
 649 0224 00002C40 		.word	1076625408
 650 0228 00000000 		.word	0
 651 022c 00002E40 		.word	1076756480
 652 0230 00000000 		.word	0
 653 0234 00002E40 		.word	1076756480
 654 0238 00000000 		.word	0
 655 023c 00002E40 		.word	1076756480
 656 0240 00000000 		.word	0
 657 0244 00002E40 		.word	1076756480
 658 0248 00000000 		.word	0
 659 024c 00003040 		.word	1076887552
 660 0250 00000000 		.word	0
 661 0254 00003040 		.word	1076887552
 662 0258 00000000 		.word	0
 663 025c 00003040 		.word	1076887552
 664 0260 00000000 		.word	0
 665 0264 00003040 		.word	1076887552
 666 0268 00000000 		.word	0
 667 026c 00003040 		.word	1076887552
 668 0270 00000000 		.word	0
 669 0274 00003140 		.word	1076953088
 670 0278 00000000 		.word	0
 671 027c 00003140 		.word	1076953088
 672 0280 00000000 		.word	0
 673 0284 00003140 		.word	1076953088
 674 0288 00000000 		.word	0
 675 028c 00003140 		.word	1076953088
 676 0290 00000000 		.word	0
 677 0294 00003140 		.word	1076953088
 678 0298 00000000 		.word	0
 679 029c 00003140 		.word	1076953088
 680 02a0 00000000 		.word	0
 681 02a4 00003140 		.word	1076953088
ARM GAS  /tmp/ccRqpCax.s 			page 13


 682 02a8 00000000 		.word	0
 683 02ac 00003140 		.word	1076953088
 684 02b0 00000000 		.word	0
 685 02b4 00003040 		.word	1076887552
 686 02b8 00000000 		.word	0
 687 02bc 00003040 		.word	1076887552
 688 02c0 00000000 		.word	0
 689 02c4 00002E40 		.word	1076756480
 690 02c8 00000000 		.word	0
 691 02cc 00002C40 		.word	1076625408
 692 02d0 66666666 		.word	1717986918
 693 02d4 66662B40 		.word	1076586086
 694 02d8 33333333 		.word	858993459
 695 02dc 33332A40 		.word	1076507443
 696 02e0 66666666 		.word	1717986918
 697 02e4 66662940 		.word	1076455014
 698 02e8 00000000 		.word	0
 699 02ec 00002940 		.word	1076428800
 700 02f0 00000000 		.word	0
 701 02f4 00002940 		.word	1076428800
 702 02f8 00000000 		.word	0
 703 02fc 00002940 		.word	1076428800
 704 0300 00000000 		.word	0
 705 0304 00002940 		.word	1076428800
 706 0308 00000000 		.word	0
 707 030c 00002940 		.word	1076428800
 708 0310 00000000 		.word	0
 709 0314 00002940 		.word	1076428800
 710 0318 9A999999 		.word	2576980378
 711 031c 99992840 		.word	1076402585
 712 0320 00000000 		.word	0
 713 0324 00002840 		.word	1076363264
 714 0328 CDCCCCCC 		.word	3435973837
 715 032c CCCC2640 		.word	1076284620
 716 0330 33333333 		.word	858993459
 717 0334 33332540 		.word	1076179763
 718 0338 33333333 		.word	858993459
 719 033c 33332340 		.word	1076048691
 720 0340 33333333 		.word	858993459
 721 0344 33332140 		.word	1075917619
 722 0348 00000000 		.word	0
 723 034c 00001E40 		.word	1075707904
 724 0350 66666666 		.word	1717986918
 725 0354 66661A40 		.word	1075471974
 726 0358 00000000 		.word	0
 727 035c 00001840 		.word	1075314688
 728 0360 CDCCCCCC 		.word	3435973837
 729 0364 CCCC1640 		.word	1075236044
 730 0368 66666666 		.word	1717986918
 731 036c 66661640 		.word	1075209830
 732 0370 CDCCCCCC 		.word	3435973837
 733 0374 CCCC1640 		.word	1075236044
 734 0378 9A999999 		.word	2576980378
 735 037c 99991740 		.word	1075288473
 736 0380 CDCCCCCC 		.word	3435973837
 737 0384 CCCC1840 		.word	1075367116
 738 0388 00000000 		.word	0
ARM GAS  /tmp/ccRqpCax.s 			page 14


 739 038c 00001A40 		.word	1075445760
 740 0390 33333333 		.word	858993459
 741 0394 33331B40 		.word	1075524403
 742 0398 66666666 		.word	1717986918
 743 039c 66661C40 		.word	1075603046
 744 03a0 33333333 		.word	858993459
 745 03a4 33331D40 		.word	1075655475
 746 03a8 00000000 		.word	0
 747 03ac 00001E40 		.word	1075707904
 748 03b0 CDCCCCCC 		.word	3435973837
 749 03b4 CCCC1E40 		.word	1075760332
 750 03b8 33333333 		.word	858993459
 751 03bc 33331F40 		.word	1075786547
 752 03c0 9A999999 		.word	2576980378
 753 03c4 99991F40 		.word	1075812761
 754 03c8 00000000 		.word	0
 755 03cc 00001E40 		.word	1075707904
 756 03d0 9A999999 		.word	2576980378
 757 03d4 99991940 		.word	1075419545
 758 03d8 9A999999 		.word	2576980378
 759 03dc 99991540 		.word	1075157401
 760 03e0 33333333 		.word	858993459
 761 03e4 33330740 		.word	1074213683
 762 03e8 9A999999 		.word	2576980378
 763 03ec 9999F93F 		.word	1073322393
 764 03f0 00000000 		.word	0
 765 03f4 0000F0BF 		.word	-1074790400
 766 03f8 9A999999 		.word	2576980378
 767 03fc 999905C0 		.word	-1073374823
 768 0400 CDCCCCCC 		.word	3435973837
 769 0404 CCCC0CC0 		.word	-1072902964
 770 0408 CDCCCCCC 		.word	3435973837
 771 040c CCCC12C0 		.word	-1072509748
 772 0410 9A999999 		.word	2576980378
 773 0414 999915C0 		.word	-1072326247
 774 0418 CDCCCCCC 		.word	3435973837
 775 041c CCCC14C0 		.word	-1072378676
 776 0420 00000000 		.word	0
 777 0424 000016C0 		.word	-1072300032
 778 0428 66666666 		.word	1717986918
 779 042c 666616C0 		.word	-1072273818
 780 0430 33333333 		.word	858993459
 781 0434 333317C0 		.word	-1072221389
 782 0438 9A999999 		.word	2576980378
 783 043c 999917C0 		.word	-1072195175
 784 0440 CDCCCCCC 		.word	3435973837
 785 0444 CCCC18C0 		.word	-1072116532
 786 0448 9A999999 		.word	2576980378
 787 044c 999919C0 		.word	-1072064103
 788 0450 66666666 		.word	1717986918
 789 0454 666618C0 		.word	-1072142746
 790 0458 CDCCCCCC 		.word	3435973837
 791 045c CCCC12C0 		.word	-1072509748
 792 0460 9A999999 		.word	2576980378
 793 0464 999905C0 		.word	-1073374823
 794 0468 00000000 		.word	0
 795 046c 00000000 		.word	0
ARM GAS  /tmp/ccRqpCax.s 			page 15


 796 0470 CDCCCCCC 		.word	3435973837
 797 0474 CCCC0440 		.word	1074056396
 798 0478 9A999999 		.word	2576980378
 799 047c 99991540 		.word	1075157401
 800 0480 CDCCCCCC 		.word	3435973837
 801 0484 CCCC1E40 		.word	1075760332
 802 0488 00000000 		.word	0
 803 048c 00002540 		.word	1076166656
 804 0490 CDCCCCCC 		.word	3435973837
 805 0494 CCCC2A40 		.word	1076546764
 806 0498 00000000 		.word	0
 807 049c 00003040 		.word	1076887552
 808 04a0 33333333 		.word	858993459
 809 04a4 33333240 		.word	1077031731
 810 04a8 33333333 		.word	858993459
 811 04ac 33333440 		.word	1077162803
 812 04b0 33333333 		.word	858993459
 813 04b4 33333540 		.word	1077228339
 814 04b8 66666666 		.word	1717986918
 815 04bc 66663640 		.word	1077306982
 816 04c0 00000000 		.word	0
 817 04c4 00803740 		.word	1077379072
 818 04c8 66666666 		.word	1717986918
 819 04cc 66E63740 		.word	1077405286
 820 04d0 CDCCCCCC 		.word	3435973837
 821 04d4 CC4C3840 		.word	1077431500
 822 04d8 00000000 		.word	0
 823 04dc 00003840 		.word	1077411840
 824 04e0 66666666 		.word	1717986918
 825 04e4 66E63740 		.word	1077405286
 826 04e8 66666666 		.word	1717986918
 827 04ec 66E63740 		.word	1077405286
 828 04f0 33333333 		.word	858993459
 829 04f4 33B33740 		.word	1077392179
 830 04f8 00000000 		.word	0
 831 04fc 00003840 		.word	1077411840
 832 0500 CDCCCCCC 		.word	3435973837
 833 0504 CC4C3840 		.word	1077431500
 834 0508 CDCCCCCC 		.word	3435973837
 835 050c CC4C3940 		.word	1077497036
 836 0510 33333333 		.word	858993459
 837 0514 33333A40 		.word	1077556019
 838 0518 CDCCCCCC 		.word	3435973837
 839 051c CC4C3B40 		.word	1077628108
 840 0520 33333333 		.word	858993459
 841 0524 33333C40 		.word	1077687091
 842 0528 9A999999 		.word	2576980378
 843 052c 99193D40 		.word	1077746073
 844 0530 00000000 		.word	0
 845 0534 00003E40 		.word	1077805056
 846 0538 33333333 		.word	858993459
 847 053c 33B33E40 		.word	1077850931
 848 0540 66666666 		.word	1717986918
 849 0544 66663F40 		.word	1077896806
 850 0548 9A999999 		.word	2576980378
 851 054c 99194040 		.word	1077942681
 852 0550 CDCCCCCC 		.word	3435973837
ARM GAS  /tmp/ccRqpCax.s 			page 16


 853 0554 CC8C4040 		.word	1077972172
 854 0558 00000000 		.word	0
 855 055c 00004140 		.word	1078001664
 856 0560 00000000 		.word	0
 857 0564 00804140 		.word	1078034432
 858 0568 00000000 		.word	0
 859 056c 00404240 		.word	1078083584
 860 0570 66666666 		.word	1717986918
 861 0574 66264340 		.word	1078142566
 862 0578 9A999999 		.word	2576980378
 863 057c 99194440 		.word	1078204825
 864 0580 9A999999 		.word	2576980378
 865 0584 99194540 		.word	1078270361
 866 0588 00000000 		.word	0
 867 058c 00404640 		.word	1078345728
 868 0590 00000000 		.word	0
 869 0594 00404740 		.word	1078411264
 870 0598 00000000 		.word	0
 871 059c 00404840 		.word	1078476800
 872 05a0 00000000 		.word	0
 873 05a4 00404940 		.word	1078542336
 874 05a8 9A999999 		.word	2576980378
 875 05ac 99194A40 		.word	1078598041
 876 05b0 66666666 		.word	1717986918
 877 05b4 66E64A40 		.word	1078650470
 878 05b8 33333333 		.word	858993459
 879 05bc 33734B40 		.word	1078686515
 880 05c0 66666666 		.word	1717986918
 881 05c4 66E64B40 		.word	1078716006
 882 05c8 33333333 		.word	858993459
 883 05cc 33734C40 		.word	1078752051
 884 05d0 66666666 		.word	1717986918
 885 05d4 66264D40 		.word	1078797926
 886 05d8 00000000 		.space	40
 886      00000000 
 886      00000000 
 886      00000000 
 886      00000000 
 887              		.text
 888              	.Letext0:
 889              		.section	.debug_info,"",%progbits
 890              	.Ldebug_info0:
 891 0000 E6030000 		.4byte	0x3e6
 892 0004 0200     		.2byte	0x2
 893 0006 00000000 		.4byte	.Ldebug_abbrev0
 894 000a 04       		.byte	0x4
 895 000b 01       		.uleb128 0x1
 896 000c 86000000 		.4byte	.LASF18
 897 0010 01       		.byte	0x1
 898 0011 A7010000 		.4byte	.LASF19
 899 0015 30010000 		.4byte	.LASF20
 900 0019 30000000 		.4byte	.Ldebug_ranges0+0x30
 901 001d 00000000 		.4byte	0
 902 0021 00000000 		.4byte	0
 903 0025 00000000 		.4byte	.Ldebug_line0
 904 0029 02       		.uleb128 0x2
 905 002a 08       		.byte	0x8
ARM GAS  /tmp/ccRqpCax.s 			page 17


 906 002b 04       		.byte	0x4
 907 002c CF000000 		.4byte	.LASF0
 908 0030 03       		.uleb128 0x3
 909 0031 04       		.byte	0x4
 910 0032 05       		.byte	0x5
 911 0033 696E7400 		.ascii	"int\000"
 912 0037 02       		.uleb128 0x2
 913 0038 04       		.byte	0x4
 914 0039 05       		.byte	0x5
 915 003a DE010000 		.4byte	.LASF1
 916 003e 02       		.uleb128 0x2
 917 003f 02       		.byte	0x2
 918 0040 07       		.byte	0x7
 919 0041 73000000 		.4byte	.LASF2
 920 0045 02       		.uleb128 0x2
 921 0046 04       		.byte	0x4
 922 0047 07       		.byte	0x7
 923 0048 DE000000 		.4byte	.LASF3
 924 004c 02       		.uleb128 0x2
 925 004d 01       		.byte	0x1
 926 004e 06       		.byte	0x6
 927 004f EC010000 		.4byte	.LASF4
 928 0053 02       		.uleb128 0x2
 929 0054 01       		.byte	0x1
 930 0055 08       		.byte	0x8
 931 0056 3C000000 		.4byte	.LASF5
 932 005a 02       		.uleb128 0x2
 933 005b 02       		.byte	0x2
 934 005c 05       		.byte	0x5
 935 005d 9D010000 		.4byte	.LASF6
 936 0061 02       		.uleb128 0x2
 937 0062 08       		.byte	0x8
 938 0063 05       		.byte	0x5
 939 0064 0B010000 		.4byte	.LASF7
 940 0068 02       		.uleb128 0x2
 941 0069 08       		.byte	0x8
 942 006a 07       		.byte	0x7
 943 006b EB000000 		.4byte	.LASF8
 944 006f 02       		.uleb128 0x2
 945 0070 04       		.byte	0x4
 946 0071 07       		.byte	0x7
 947 0072 02010000 		.4byte	.LASF9
 948 0076 02       		.uleb128 0x2
 949 0077 04       		.byte	0x4
 950 0078 07       		.byte	0x7
 951 0079 61000000 		.4byte	.LASF10
 952 007d 02       		.uleb128 0x2
 953 007e 01       		.byte	0x1
 954 007f 08       		.byte	0x8
 955 0080 E7010000 		.4byte	.LASF11
 956 0084 04       		.uleb128 0x4
 957 0085 19010000 		.4byte	.LASF12
 958 0089 01       		.byte	0x1
 959 008a 59       		.byte	0x59
 960 008b 01       		.byte	0x1
 961 008c 29000000 		.4byte	0x29
 962 0090 01       		.byte	0x1
ARM GAS  /tmp/ccRqpCax.s 			page 18


 963 0091 B3000000 		.4byte	0xb3
 964 0095 05       		.uleb128 0x5
 965 0096 4A4400   		.ascii	"JD\000"
 966 0099 01       		.byte	0x1
 967 009a 59       		.byte	0x59
 968 009b 29000000 		.4byte	0x29
 969 009f 06       		.uleb128 0x6
 970 00a0 544400   		.ascii	"TD\000"
 971 00a3 01       		.byte	0x1
 972 00a4 5B       		.byte	0x5b
 973 00a5 29000000 		.4byte	0x29
 974 00a9 06       		.uleb128 0x6
 975 00aa 4500     		.ascii	"E\000"
 976 00ac 01       		.byte	0x1
 977 00ad 5B       		.byte	0x5b
 978 00ae 29000000 		.4byte	0x29
 979 00b2 00       		.byte	0
 980 00b3 04       		.uleb128 0x4
 981 00b4 4A000000 		.4byte	.LASF13
 982 00b8 01       		.byte	0x1
 983 00b9 65       		.byte	0x65
 984 00ba 01       		.byte	0x1
 985 00bb 29000000 		.4byte	0x29
 986 00bf 01       		.byte	0x1
 987 00c0 E2000000 		.4byte	0xe2
 988 00c4 05       		.uleb128 0x5
 989 00c5 4A4400   		.ascii	"JD\000"
 990 00c8 01       		.byte	0x1
 991 00c9 65       		.byte	0x65
 992 00ca 29000000 		.4byte	0x29
 993 00ce 06       		.uleb128 0x6
 994 00cf 544400   		.ascii	"TD\000"
 995 00d2 01       		.byte	0x1
 996 00d3 67       		.byte	0x67
 997 00d4 29000000 		.4byte	0x29
 998 00d8 06       		.uleb128 0x6
 999 00d9 7400     		.ascii	"t\000"
 1000 00db 01       		.byte	0x1
 1001 00dc 67       		.byte	0x67
 1002 00dd 29000000 		.4byte	0x29
 1003 00e1 00       		.byte	0
 1004 00e2 04       		.uleb128 0x4
 1005 00e3 C6010000 		.4byte	.LASF14
 1006 00e7 01       		.byte	0x1
 1007 00e8 8C       		.byte	0x8c
 1008 00e9 01       		.byte	0x1
 1009 00ea 29000000 		.4byte	0x29
 1010 00ee 01       		.byte	0x1
 1011 00ef 37010000 		.4byte	0x137
 1012 00f3 05       		.uleb128 0x5
 1013 00f4 4A4400   		.ascii	"JD\000"
 1014 00f7 01       		.byte	0x1
 1015 00f8 8C       		.byte	0x8c
 1016 00f9 29000000 		.4byte	0x29
 1017 00fd 06       		.uleb128 0x6
 1018 00fe 544400   		.ascii	"TD\000"
 1019 0101 01       		.byte	0x1
ARM GAS  /tmp/ccRqpCax.s 			page 19


 1020 0102 8E       		.byte	0x8e
 1021 0103 29000000 		.4byte	0x29
 1022 0107 07       		.uleb128 0x7
 1023 0108 34000000 		.4byte	.LASF15
 1024 010c 01       		.byte	0x1
 1025 010d 90       		.byte	0x90
 1026 010e 37010000 		.4byte	0x137
 1027 0112 06       		.uleb128 0x6
 1028 0113 6100     		.ascii	"a\000"
 1029 0115 01       		.byte	0x1
 1030 0116 91       		.byte	0x91
 1031 0117 29000000 		.4byte	0x29
 1032 011b 06       		.uleb128 0x6
 1033 011c 6200     		.ascii	"b\000"
 1034 011e 01       		.byte	0x1
 1035 011f 91       		.byte	0x91
 1036 0120 29000000 		.4byte	0x29
 1037 0124 06       		.uleb128 0x6
 1038 0125 6300     		.ascii	"c\000"
 1039 0127 01       		.byte	0x1
 1040 0128 91       		.byte	0x91
 1041 0129 29000000 		.4byte	0x29
 1042 012d 06       		.uleb128 0x6
 1043 012e 6E00     		.ascii	"n\000"
 1044 0130 01       		.byte	0x1
 1045 0131 91       		.byte	0x91
 1046 0132 29000000 		.4byte	0x29
 1047 0136 00       		.byte	0
 1048 0137 08       		.uleb128 0x8
 1049 0138 29000000 		.4byte	0x29
 1050 013c 47010000 		.4byte	0x147
 1051 0140 09       		.uleb128 0x9
 1052 0141 6F000000 		.4byte	0x6f
 1053 0145 02       		.byte	0x2
 1054 0146 00       		.byte	0
 1055 0147 04       		.uleb128 0x4
 1056 0148 1B000000 		.4byte	.LASF16
 1057 014c 01       		.byte	0x1
 1058 014d A0       		.byte	0xa0
 1059 014e 01       		.byte	0x1
 1060 014f 29000000 		.4byte	0x29
 1061 0153 01       		.byte	0x1
 1062 0154 76010000 		.4byte	0x176
 1063 0158 05       		.uleb128 0x5
 1064 0159 4A4400   		.ascii	"JD\000"
 1065 015c 01       		.byte	0x1
 1066 015d A0       		.byte	0xa0
 1067 015e 29000000 		.4byte	0x29
 1068 0162 06       		.uleb128 0x6
 1069 0163 544400   		.ascii	"TD\000"
 1070 0166 01       		.byte	0x1
 1071 0167 A2       		.byte	0xa2
 1072 0168 29000000 		.4byte	0x29
 1073 016c 06       		.uleb128 0x6
 1074 016d 6100     		.ascii	"a\000"
 1075 016f 01       		.byte	0x1
 1076 0170 A3       		.byte	0xa3
ARM GAS  /tmp/ccRqpCax.s 			page 20


 1077 0171 29000000 		.4byte	0x29
 1078 0175 00       		.byte	0
 1079 0176 04       		.uleb128 0x4
 1080 0177 78010000 		.4byte	.LASF17
 1081 017b 01       		.byte	0x1
 1082 017c 72       		.byte	0x72
 1083 017d 01       		.byte	0x1
 1084 017e 29000000 		.4byte	0x29
 1085 0182 01       		.byte	0x1
 1086 0183 C9010000 		.4byte	0x1c9
 1087 0187 05       		.uleb128 0x5
 1088 0188 4A4400   		.ascii	"JD\000"
 1089 018b 01       		.byte	0x1
 1090 018c 72       		.byte	0x72
 1091 018d 29000000 		.4byte	0x29
 1092 0191 06       		.uleb128 0x6
 1093 0192 544400   		.ascii	"TD\000"
 1094 0195 01       		.byte	0x1
 1095 0196 74       		.byte	0x74
 1096 0197 29000000 		.4byte	0x29
 1097 019b 06       		.uleb128 0x6
 1098 019c 6100     		.ascii	"a\000"
 1099 019e 01       		.byte	0x1
 1100 019f 75       		.byte	0x75
 1101 01a0 29000000 		.4byte	0x29
 1102 01a4 06       		.uleb128 0x6
 1103 01a5 6200     		.ascii	"b\000"
 1104 01a7 01       		.byte	0x1
 1105 01a8 75       		.byte	0x75
 1106 01a9 29000000 		.4byte	0x29
 1107 01ad 06       		.uleb128 0x6
 1108 01ae 6300     		.ascii	"c\000"
 1109 01b0 01       		.byte	0x1
 1110 01b1 75       		.byte	0x75
 1111 01b2 29000000 		.4byte	0x29
 1112 01b6 06       		.uleb128 0x6
 1113 01b7 6E00     		.ascii	"n\000"
 1114 01b9 01       		.byte	0x1
 1115 01ba 75       		.byte	0x75
 1116 01bb 29000000 		.4byte	0x29
 1117 01bf 06       		.uleb128 0x6
 1118 01c0 6900     		.ascii	"i\000"
 1119 01c2 01       		.byte	0x1
 1120 01c3 76       		.byte	0x76
 1121 01c4 30000000 		.4byte	0x30
 1122 01c8 00       		.byte	0
 1123 01c9 0A       		.uleb128 0xa
 1124 01ca 01       		.byte	0x1
 1125 01cb 00000000 		.4byte	.LASF21
 1126 01cf 01       		.byte	0x1
 1127 01d0 B6       		.byte	0xb6
 1128 01d1 01       		.byte	0x1
 1129 01d2 29000000 		.4byte	0x29
 1130 01d6 00000000 		.4byte	.LFB5
 1131 01da 14030000 		.4byte	.LFE5
 1132 01de 00000000 		.4byte	.LLST0
 1133 01e2 01       		.byte	0x1
ARM GAS  /tmp/ccRqpCax.s 			page 21


 1134 01e3 5F030000 		.4byte	0x35f
 1135 01e7 0B       		.uleb128 0xb
 1136 01e8 4A4400   		.ascii	"JD\000"
 1137 01eb 01       		.byte	0x1
 1138 01ec B6       		.byte	0xb6
 1139 01ed 29000000 		.4byte	0x29
 1140 01f1 2C000000 		.4byte	.LLST1
 1141 01f5 0C       		.uleb128 0xc
 1142 01f6 544400   		.ascii	"TD\000"
 1143 01f9 01       		.byte	0x1
 1144 01fa B8       		.byte	0xb8
 1145 01fb 29000000 		.4byte	0x29
 1146 01ff 54000000 		.4byte	.LLST2
 1147 0203 0D       		.uleb128 0xd
 1148 0204 E2000000 		.4byte	0xe2
 1149 0208 74000000 		.4byte	.LBB20
 1150 020c CE000000 		.4byte	.LBE20
 1151 0210 01       		.byte	0x1
 1152 0211 C7       		.byte	0xc7
 1153 0212 5C020000 		.4byte	0x25c
 1154 0216 0E       		.uleb128 0xe
 1155 0217 F3000000 		.4byte	0xf3
 1156 021b 6C000000 		.4byte	.LLST3
 1157 021f 0F       		.uleb128 0xf
 1158 0220 74000000 		.4byte	.LBB21
 1159 0224 CE000000 		.4byte	.LBE21
 1160 0228 10       		.uleb128 0x10
 1161 0229 FD000000 		.4byte	0xfd
 1162 022d 84000000 		.4byte	.LLST4
 1163 0231 11       		.uleb128 0x11
 1164 0232 07010000 		.4byte	0x107
 1165 0236 10       		.uleb128 0x10
 1166 0237 2D010000 		.4byte	0x12d
 1167 023b B0000000 		.4byte	.LLST5
 1168 023f 10       		.uleb128 0x10
 1169 0240 12010000 		.4byte	0x112
 1170 0244 C8000000 		.4byte	.LLST6
 1171 0248 10       		.uleb128 0x10
 1172 0249 1B010000 		.4byte	0x11b
 1173 024d E4000000 		.4byte	.LLST7
 1174 0251 10       		.uleb128 0x10
 1175 0252 24010000 		.4byte	0x124
 1176 0256 00010000 		.4byte	.LLST8
 1177 025a 00       		.byte	0
 1178 025b 00       		.byte	0
 1179 025c 0D       		.uleb128 0xd
 1180 025d B3000000 		.4byte	0xb3
 1181 0261 E2000000 		.4byte	.LBB22
 1182 0265 18010000 		.4byte	.LBE22
 1183 0269 01       		.byte	0x1
 1184 026a C1       		.byte	0xc1
 1185 026b 95020000 		.4byte	0x295
 1186 026f 0E       		.uleb128 0xe
 1187 0270 C4000000 		.4byte	0xc4
 1188 0274 1C010000 		.4byte	.LLST9
 1189 0278 0F       		.uleb128 0xf
 1190 0279 E2000000 		.4byte	.LBB23
ARM GAS  /tmp/ccRqpCax.s 			page 22


 1191 027d 18010000 		.4byte	.LBE23
 1192 0281 10       		.uleb128 0x10
 1193 0282 CE000000 		.4byte	0xce
 1194 0286 34010000 		.4byte	.LLST10
 1195 028a 10       		.uleb128 0x10
 1196 028b D8000000 		.4byte	0xd8
 1197 028f 4C010000 		.4byte	.LLST11
 1198 0293 00       		.byte	0
 1199 0294 00       		.byte	0
 1200 0295 0D       		.uleb128 0xd
 1201 0296 47010000 		.4byte	0x147
 1202 029a 1A010000 		.4byte	.LBB24
 1203 029e 46010000 		.4byte	.LBE24
 1204 02a2 01       		.byte	0x1
 1205 02a3 CA       		.byte	0xca
 1206 02a4 CA020000 		.4byte	0x2ca
 1207 02a8 0E       		.uleb128 0xe
 1208 02a9 58010000 		.4byte	0x158
 1209 02ad 64010000 		.4byte	.LLST12
 1210 02b1 0F       		.uleb128 0xf
 1211 02b2 1A010000 		.4byte	.LBB25
 1212 02b6 46010000 		.4byte	.LBE25
 1213 02ba 11       		.uleb128 0x11
 1214 02bb 62010000 		.4byte	0x162
 1215 02bf 10       		.uleb128 0x10
 1216 02c0 6C010000 		.4byte	0x16c
 1217 02c4 7C010000 		.4byte	.LLST13
 1218 02c8 00       		.byte	0
 1219 02c9 00       		.byte	0
 1220 02ca 0D       		.uleb128 0xd
 1221 02cb 84000000 		.4byte	0x84
 1222 02cf 4C010000 		.4byte	.LBB26
 1223 02d3 9E010000 		.4byte	.LBE26
 1224 02d7 01       		.byte	0x1
 1225 02d8 BE       		.byte	0xbe
 1226 02d9 FF020000 		.4byte	0x2ff
 1227 02dd 0E       		.uleb128 0xe
 1228 02de 95000000 		.4byte	0x95
 1229 02e2 96010000 		.4byte	.LLST14
 1230 02e6 0F       		.uleb128 0xf
 1231 02e7 4C010000 		.4byte	.LBB27
 1232 02eb 9E010000 		.4byte	.LBE27
 1233 02ef 11       		.uleb128 0x11
 1234 02f0 9F000000 		.4byte	0x9f
 1235 02f4 10       		.uleb128 0x10
 1236 02f5 A9000000 		.4byte	0xa9
 1237 02f9 AE010000 		.4byte	.LLST15
 1238 02fd 00       		.byte	0
 1239 02fe 00       		.byte	0
 1240 02ff 12       		.uleb128 0x12
 1241 0300 76010000 		.4byte	0x176
 1242 0304 9E010000 		.4byte	.LBB28
 1243 0308 00000000 		.4byte	.Ldebug_ranges0+0
 1244 030c 01       		.byte	0x1
 1245 030d C4       		.byte	0xc4
 1246 030e 0E       		.uleb128 0xe
 1247 030f 87010000 		.4byte	0x187
ARM GAS  /tmp/ccRqpCax.s 			page 23


 1248 0313 C6010000 		.4byte	.LLST16
 1249 0317 13       		.uleb128 0x13
 1250 0318 18000000 		.4byte	.Ldebug_ranges0+0x18
 1251 031c 10       		.uleb128 0x10
 1252 031d 91010000 		.4byte	0x191
 1253 0321 DE010000 		.4byte	.LLST17
 1254 0325 10       		.uleb128 0x10
 1255 0326 9B010000 		.4byte	0x19b
 1256 032a 0A020000 		.4byte	.LLST18
 1257 032e 14       		.uleb128 0x14
 1258 032f A4010000 		.4byte	0x1a4
 1259 0333 06       		.byte	0x6
 1260 0334 5A       		.byte	0x5a
 1261 0335 93       		.byte	0x93
 1262 0336 04       		.uleb128 0x4
 1263 0337 5B       		.byte	0x5b
 1264 0338 93       		.byte	0x93
 1265 0339 04       		.uleb128 0x4
 1266 033a 14       		.uleb128 0x14
 1267 033b AD010000 		.4byte	0x1ad
 1268 033f 0A       		.byte	0xa
 1269 0340 7D       		.byte	0x7d
 1270 0341 00       		.sleb128 0
 1271 0342 F6       		.byte	0xf6
 1272 0343 08       		.byte	0x8
 1273 0344 29       		.uleb128 0x29
 1274 0345 F5       		.byte	0xf5
 1275 0346 0A       		.uleb128 0xa
 1276 0347 29       		.uleb128 0x29
 1277 0348 1C       		.byte	0x1c
 1278 0349 9F       		.byte	0x9f
 1279 034a 10       		.uleb128 0x10
 1280 034b B6010000 		.4byte	0x1b6
 1281 034f 2E020000 		.4byte	.LLST19
 1282 0353 10       		.uleb128 0x10
 1283 0354 BF010000 		.4byte	0x1bf
 1284 0358 52020000 		.4byte	.LLST20
 1285 035c 00       		.byte	0
 1286 035d 00       		.byte	0
 1287 035e 00       		.byte	0
 1288 035f 0A       		.uleb128 0xa
 1289 0360 01       		.byte	0x1
 1290 0361 F8010000 		.4byte	.LASF22
 1291 0365 01       		.byte	0x1
 1292 0366 D7       		.byte	0xd7
 1293 0367 01       		.byte	0x1
 1294 0368 29000000 		.4byte	0x29
 1295 036c 00000000 		.4byte	.LFB6
 1296 0370 28000000 		.4byte	.LFE6
 1297 0374 70020000 		.4byte	.LLST21
 1298 0378 01       		.byte	0x1
 1299 0379 C3030000 		.4byte	0x3c3
 1300 037d 0B       		.uleb128 0xb
 1301 037e 4A4400   		.ascii	"JD\000"
 1302 0381 01       		.byte	0x1
 1303 0382 D7       		.byte	0xd7
 1304 0383 29000000 		.4byte	0x29
ARM GAS  /tmp/ccRqpCax.s 			page 24


 1305 0387 90020000 		.4byte	.LLST22
 1306 038b 06       		.uleb128 0x6
 1307 038c 4A444500 		.ascii	"JDE\000"
 1308 0390 01       		.byte	0x1
 1309 0391 D9       		.byte	0xd9
 1310 0392 29000000 		.4byte	0x29
 1311 0396 15       		.uleb128 0x15
 1312 0397 91010000 		.4byte	.LASF23
 1313 039b 01       		.byte	0x1
 1314 039c DA       		.byte	0xda
 1315 039d 29000000 		.4byte	0x29
 1316 03a1 08       		.byte	0x8
 1317 03a2 00000000 		.4byte	0
 1318 03a6 0018F540 		.4byte	0x40f51800
 1319 03aa 16       		.uleb128 0x16
 1320 03ab 0A000000 		.4byte	.LVL65
 1321 03af C9010000 		.4byte	0x1c9
 1322 03b3 17       		.uleb128 0x17
 1323 03b4 06       		.byte	0x6
 1324 03b5 50       		.byte	0x50
 1325 03b6 93       		.byte	0x93
 1326 03b7 04       		.uleb128 0x4
 1327 03b8 51       		.byte	0x51
 1328 03b9 93       		.byte	0x93
 1329 03ba 04       		.uleb128 0x4
 1330 03bb 05       		.byte	0x5
 1331 03bc F3       		.byte	0xf3
 1332 03bd 03       		.uleb128 0x3
 1333 03be F5       		.byte	0xf5
 1334 03bf 00       		.uleb128 0
 1335 03c0 29       		.uleb128 0x29
 1336 03c1 00       		.byte	0
 1337 03c2 00       		.byte	0
 1338 03c3 08       		.uleb128 0x8
 1339 03c4 29000000 		.4byte	0x29
 1340 03c8 D3030000 		.4byte	0x3d3
 1341 03cc 09       		.uleb128 0x9
 1342 03cd 6F000000 		.4byte	0x6f
 1343 03d1 BF       		.byte	0xbf
 1344 03d2 00       		.byte	0
 1345 03d3 18       		.uleb128 0x18
 1346 03d4 D6000000 		.4byte	.LASF24
 1347 03d8 01       		.byte	0x1
 1348 03d9 2E       		.byte	0x2e
 1349 03da E4030000 		.4byte	0x3e4
 1350 03de 05       		.byte	0x5
 1351 03df 03       		.byte	0x3
 1352 03e0 00000000 		.4byte	delta_t
 1353 03e4 19       		.uleb128 0x19
 1354 03e5 C3030000 		.4byte	0x3c3
 1355 03e9 00       		.byte	0
 1356              		.section	.debug_abbrev,"",%progbits
 1357              	.Ldebug_abbrev0:
 1358 0000 01       		.uleb128 0x1
 1359 0001 11       		.uleb128 0x11
 1360 0002 01       		.byte	0x1
 1361 0003 25       		.uleb128 0x25
ARM GAS  /tmp/ccRqpCax.s 			page 25


 1362 0004 0E       		.uleb128 0xe
 1363 0005 13       		.uleb128 0x13
 1364 0006 0B       		.uleb128 0xb
 1365 0007 03       		.uleb128 0x3
 1366 0008 0E       		.uleb128 0xe
 1367 0009 1B       		.uleb128 0x1b
 1368 000a 0E       		.uleb128 0xe
 1369 000b 55       		.uleb128 0x55
 1370 000c 06       		.uleb128 0x6
 1371 000d 11       		.uleb128 0x11
 1372 000e 01       		.uleb128 0x1
 1373 000f 52       		.uleb128 0x52
 1374 0010 01       		.uleb128 0x1
 1375 0011 10       		.uleb128 0x10
 1376 0012 06       		.uleb128 0x6
 1377 0013 00       		.byte	0
 1378 0014 00       		.byte	0
 1379 0015 02       		.uleb128 0x2
 1380 0016 24       		.uleb128 0x24
 1381 0017 00       		.byte	0
 1382 0018 0B       		.uleb128 0xb
 1383 0019 0B       		.uleb128 0xb
 1384 001a 3E       		.uleb128 0x3e
 1385 001b 0B       		.uleb128 0xb
 1386 001c 03       		.uleb128 0x3
 1387 001d 0E       		.uleb128 0xe
 1388 001e 00       		.byte	0
 1389 001f 00       		.byte	0
 1390 0020 03       		.uleb128 0x3
 1391 0021 24       		.uleb128 0x24
 1392 0022 00       		.byte	0
 1393 0023 0B       		.uleb128 0xb
 1394 0024 0B       		.uleb128 0xb
 1395 0025 3E       		.uleb128 0x3e
 1396 0026 0B       		.uleb128 0xb
 1397 0027 03       		.uleb128 0x3
 1398 0028 08       		.uleb128 0x8
 1399 0029 00       		.byte	0
 1400 002a 00       		.byte	0
 1401 002b 04       		.uleb128 0x4
 1402 002c 2E       		.uleb128 0x2e
 1403 002d 01       		.byte	0x1
 1404 002e 03       		.uleb128 0x3
 1405 002f 0E       		.uleb128 0xe
 1406 0030 3A       		.uleb128 0x3a
 1407 0031 0B       		.uleb128 0xb
 1408 0032 3B       		.uleb128 0x3b
 1409 0033 0B       		.uleb128 0xb
 1410 0034 27       		.uleb128 0x27
 1411 0035 0C       		.uleb128 0xc
 1412 0036 49       		.uleb128 0x49
 1413 0037 13       		.uleb128 0x13
 1414 0038 20       		.uleb128 0x20
 1415 0039 0B       		.uleb128 0xb
 1416 003a 01       		.uleb128 0x1
 1417 003b 13       		.uleb128 0x13
 1418 003c 00       		.byte	0
ARM GAS  /tmp/ccRqpCax.s 			page 26


 1419 003d 00       		.byte	0
 1420 003e 05       		.uleb128 0x5
 1421 003f 05       		.uleb128 0x5
 1422 0040 00       		.byte	0
 1423 0041 03       		.uleb128 0x3
 1424 0042 08       		.uleb128 0x8
 1425 0043 3A       		.uleb128 0x3a
 1426 0044 0B       		.uleb128 0xb
 1427 0045 3B       		.uleb128 0x3b
 1428 0046 0B       		.uleb128 0xb
 1429 0047 49       		.uleb128 0x49
 1430 0048 13       		.uleb128 0x13
 1431 0049 00       		.byte	0
 1432 004a 00       		.byte	0
 1433 004b 06       		.uleb128 0x6
 1434 004c 34       		.uleb128 0x34
 1435 004d 00       		.byte	0
 1436 004e 03       		.uleb128 0x3
 1437 004f 08       		.uleb128 0x8
 1438 0050 3A       		.uleb128 0x3a
 1439 0051 0B       		.uleb128 0xb
 1440 0052 3B       		.uleb128 0x3b
 1441 0053 0B       		.uleb128 0xb
 1442 0054 49       		.uleb128 0x49
 1443 0055 13       		.uleb128 0x13
 1444 0056 00       		.byte	0
 1445 0057 00       		.byte	0
 1446 0058 07       		.uleb128 0x7
 1447 0059 34       		.uleb128 0x34
 1448 005a 00       		.byte	0
 1449 005b 03       		.uleb128 0x3
 1450 005c 0E       		.uleb128 0xe
 1451 005d 3A       		.uleb128 0x3a
 1452 005e 0B       		.uleb128 0xb
 1453 005f 3B       		.uleb128 0x3b
 1454 0060 0B       		.uleb128 0xb
 1455 0061 49       		.uleb128 0x49
 1456 0062 13       		.uleb128 0x13
 1457 0063 00       		.byte	0
 1458 0064 00       		.byte	0
 1459 0065 08       		.uleb128 0x8
 1460 0066 01       		.uleb128 0x1
 1461 0067 01       		.byte	0x1
 1462 0068 49       		.uleb128 0x49
 1463 0069 13       		.uleb128 0x13
 1464 006a 01       		.uleb128 0x1
 1465 006b 13       		.uleb128 0x13
 1466 006c 00       		.byte	0
 1467 006d 00       		.byte	0
 1468 006e 09       		.uleb128 0x9
 1469 006f 21       		.uleb128 0x21
 1470 0070 00       		.byte	0
 1471 0071 49       		.uleb128 0x49
 1472 0072 13       		.uleb128 0x13
 1473 0073 2F       		.uleb128 0x2f
 1474 0074 0B       		.uleb128 0xb
 1475 0075 00       		.byte	0
ARM GAS  /tmp/ccRqpCax.s 			page 27


 1476 0076 00       		.byte	0
 1477 0077 0A       		.uleb128 0xa
 1478 0078 2E       		.uleb128 0x2e
 1479 0079 01       		.byte	0x1
 1480 007a 3F       		.uleb128 0x3f
 1481 007b 0C       		.uleb128 0xc
 1482 007c 03       		.uleb128 0x3
 1483 007d 0E       		.uleb128 0xe
 1484 007e 3A       		.uleb128 0x3a
 1485 007f 0B       		.uleb128 0xb
 1486 0080 3B       		.uleb128 0x3b
 1487 0081 0B       		.uleb128 0xb
 1488 0082 27       		.uleb128 0x27
 1489 0083 0C       		.uleb128 0xc
 1490 0084 49       		.uleb128 0x49
 1491 0085 13       		.uleb128 0x13
 1492 0086 11       		.uleb128 0x11
 1493 0087 01       		.uleb128 0x1
 1494 0088 12       		.uleb128 0x12
 1495 0089 01       		.uleb128 0x1
 1496 008a 40       		.uleb128 0x40
 1497 008b 06       		.uleb128 0x6
 1498 008c 9642     		.uleb128 0x2116
 1499 008e 0C       		.uleb128 0xc
 1500 008f 01       		.uleb128 0x1
 1501 0090 13       		.uleb128 0x13
 1502 0091 00       		.byte	0
 1503 0092 00       		.byte	0
 1504 0093 0B       		.uleb128 0xb
 1505 0094 05       		.uleb128 0x5
 1506 0095 00       		.byte	0
 1507 0096 03       		.uleb128 0x3
 1508 0097 08       		.uleb128 0x8
 1509 0098 3A       		.uleb128 0x3a
 1510 0099 0B       		.uleb128 0xb
 1511 009a 3B       		.uleb128 0x3b
 1512 009b 0B       		.uleb128 0xb
 1513 009c 49       		.uleb128 0x49
 1514 009d 13       		.uleb128 0x13
 1515 009e 02       		.uleb128 0x2
 1516 009f 06       		.uleb128 0x6
 1517 00a0 00       		.byte	0
 1518 00a1 00       		.byte	0
 1519 00a2 0C       		.uleb128 0xc
 1520 00a3 34       		.uleb128 0x34
 1521 00a4 00       		.byte	0
 1522 00a5 03       		.uleb128 0x3
 1523 00a6 08       		.uleb128 0x8
 1524 00a7 3A       		.uleb128 0x3a
 1525 00a8 0B       		.uleb128 0xb
 1526 00a9 3B       		.uleb128 0x3b
 1527 00aa 0B       		.uleb128 0xb
 1528 00ab 49       		.uleb128 0x49
 1529 00ac 13       		.uleb128 0x13
 1530 00ad 02       		.uleb128 0x2
 1531 00ae 06       		.uleb128 0x6
 1532 00af 00       		.byte	0
ARM GAS  /tmp/ccRqpCax.s 			page 28


 1533 00b0 00       		.byte	0
 1534 00b1 0D       		.uleb128 0xd
 1535 00b2 1D       		.uleb128 0x1d
 1536 00b3 01       		.byte	0x1
 1537 00b4 31       		.uleb128 0x31
 1538 00b5 13       		.uleb128 0x13
 1539 00b6 11       		.uleb128 0x11
 1540 00b7 01       		.uleb128 0x1
 1541 00b8 12       		.uleb128 0x12
 1542 00b9 01       		.uleb128 0x1
 1543 00ba 58       		.uleb128 0x58
 1544 00bb 0B       		.uleb128 0xb
 1545 00bc 59       		.uleb128 0x59
 1546 00bd 0B       		.uleb128 0xb
 1547 00be 01       		.uleb128 0x1
 1548 00bf 13       		.uleb128 0x13
 1549 00c0 00       		.byte	0
 1550 00c1 00       		.byte	0
 1551 00c2 0E       		.uleb128 0xe
 1552 00c3 05       		.uleb128 0x5
 1553 00c4 00       		.byte	0
 1554 00c5 31       		.uleb128 0x31
 1555 00c6 13       		.uleb128 0x13
 1556 00c7 02       		.uleb128 0x2
 1557 00c8 06       		.uleb128 0x6
 1558 00c9 00       		.byte	0
 1559 00ca 00       		.byte	0
 1560 00cb 0F       		.uleb128 0xf
 1561 00cc 0B       		.uleb128 0xb
 1562 00cd 01       		.byte	0x1
 1563 00ce 11       		.uleb128 0x11
 1564 00cf 01       		.uleb128 0x1
 1565 00d0 12       		.uleb128 0x12
 1566 00d1 01       		.uleb128 0x1
 1567 00d2 00       		.byte	0
 1568 00d3 00       		.byte	0
 1569 00d4 10       		.uleb128 0x10
 1570 00d5 34       		.uleb128 0x34
 1571 00d6 00       		.byte	0
 1572 00d7 31       		.uleb128 0x31
 1573 00d8 13       		.uleb128 0x13
 1574 00d9 02       		.uleb128 0x2
 1575 00da 06       		.uleb128 0x6
 1576 00db 00       		.byte	0
 1577 00dc 00       		.byte	0
 1578 00dd 11       		.uleb128 0x11
 1579 00de 34       		.uleb128 0x34
 1580 00df 00       		.byte	0
 1581 00e0 31       		.uleb128 0x31
 1582 00e1 13       		.uleb128 0x13
 1583 00e2 00       		.byte	0
 1584 00e3 00       		.byte	0
 1585 00e4 12       		.uleb128 0x12
 1586 00e5 1D       		.uleb128 0x1d
 1587 00e6 01       		.byte	0x1
 1588 00e7 31       		.uleb128 0x31
 1589 00e8 13       		.uleb128 0x13
ARM GAS  /tmp/ccRqpCax.s 			page 29


 1590 00e9 52       		.uleb128 0x52
 1591 00ea 01       		.uleb128 0x1
 1592 00eb 55       		.uleb128 0x55
 1593 00ec 06       		.uleb128 0x6
 1594 00ed 58       		.uleb128 0x58
 1595 00ee 0B       		.uleb128 0xb
 1596 00ef 59       		.uleb128 0x59
 1597 00f0 0B       		.uleb128 0xb
 1598 00f1 00       		.byte	0
 1599 00f2 00       		.byte	0
 1600 00f3 13       		.uleb128 0x13
 1601 00f4 0B       		.uleb128 0xb
 1602 00f5 01       		.byte	0x1
 1603 00f6 55       		.uleb128 0x55
 1604 00f7 06       		.uleb128 0x6
 1605 00f8 00       		.byte	0
 1606 00f9 00       		.byte	0
 1607 00fa 14       		.uleb128 0x14
 1608 00fb 34       		.uleb128 0x34
 1609 00fc 00       		.byte	0
 1610 00fd 31       		.uleb128 0x31
 1611 00fe 13       		.uleb128 0x13
 1612 00ff 02       		.uleb128 0x2
 1613 0100 0A       		.uleb128 0xa
 1614 0101 00       		.byte	0
 1615 0102 00       		.byte	0
 1616 0103 15       		.uleb128 0x15
 1617 0104 34       		.uleb128 0x34
 1618 0105 00       		.byte	0
 1619 0106 03       		.uleb128 0x3
 1620 0107 0E       		.uleb128 0xe
 1621 0108 3A       		.uleb128 0x3a
 1622 0109 0B       		.uleb128 0xb
 1623 010a 3B       		.uleb128 0x3b
 1624 010b 0B       		.uleb128 0xb
 1625 010c 49       		.uleb128 0x49
 1626 010d 13       		.uleb128 0x13
 1627 010e 1C       		.uleb128 0x1c
 1628 010f 0A       		.uleb128 0xa
 1629 0110 00       		.byte	0
 1630 0111 00       		.byte	0
 1631 0112 16       		.uleb128 0x16
 1632 0113 898201   		.uleb128 0x4109
 1633 0116 01       		.byte	0x1
 1634 0117 11       		.uleb128 0x11
 1635 0118 01       		.uleb128 0x1
 1636 0119 31       		.uleb128 0x31
 1637 011a 13       		.uleb128 0x13
 1638 011b 00       		.byte	0
 1639 011c 00       		.byte	0
 1640 011d 17       		.uleb128 0x17
 1641 011e 8A8201   		.uleb128 0x410a
 1642 0121 00       		.byte	0
 1643 0122 02       		.uleb128 0x2
 1644 0123 0A       		.uleb128 0xa
 1645 0124 9142     		.uleb128 0x2111
 1646 0126 0A       		.uleb128 0xa
ARM GAS  /tmp/ccRqpCax.s 			page 30


 1647 0127 00       		.byte	0
 1648 0128 00       		.byte	0
 1649 0129 18       		.uleb128 0x18
 1650 012a 34       		.uleb128 0x34
 1651 012b 00       		.byte	0
 1652 012c 03       		.uleb128 0x3
 1653 012d 0E       		.uleb128 0xe
 1654 012e 3A       		.uleb128 0x3a
 1655 012f 0B       		.uleb128 0xb
 1656 0130 3B       		.uleb128 0x3b
 1657 0131 0B       		.uleb128 0xb
 1658 0132 49       		.uleb128 0x49
 1659 0133 13       		.uleb128 0x13
 1660 0134 02       		.uleb128 0x2
 1661 0135 0A       		.uleb128 0xa
 1662 0136 00       		.byte	0
 1663 0137 00       		.byte	0
 1664 0138 19       		.uleb128 0x19
 1665 0139 26       		.uleb128 0x26
 1666 013a 00       		.byte	0
 1667 013b 49       		.uleb128 0x49
 1668 013c 13       		.uleb128 0x13
 1669 013d 00       		.byte	0
 1670 013e 00       		.byte	0
 1671 013f 00       		.byte	0
 1672              		.section	.debug_loc,"",%progbits
 1673              	.Ldebug_loc0:
 1674              	.LLST0:
 1675 0000 00000000 		.4byte	.LFB5
 1676 0004 04000000 		.4byte	.LCFI0
 1677 0008 0200     		.2byte	0x2
 1678 000a 7D       		.byte	0x7d
 1679 000b 00       		.sleb128 0
 1680 000c 04000000 		.4byte	.LCFI0
 1681 0010 0C000000 		.4byte	.LCFI1
 1682 0014 0200     		.2byte	0x2
 1683 0016 7D       		.byte	0x7d
 1684 0017 20       		.sleb128 32
 1685 0018 0C000000 		.4byte	.LCFI1
 1686 001c 14030000 		.4byte	.LFE5
 1687 0020 0200     		.2byte	0x2
 1688 0022 7D       		.byte	0x7d
 1689 0023 38       		.sleb128 56
 1690 0024 00000000 		.4byte	0
 1691 0028 00000000 		.4byte	0
 1692              	.LLST1:
 1693 002c 00000000 		.4byte	.LVL0
 1694 0030 13000000 		.4byte	.LVL1-1
 1695 0034 0600     		.2byte	0x6
 1696 0036 50       		.byte	0x50
 1697 0037 93       		.byte	0x93
 1698 0038 04       		.uleb128 0x4
 1699 0039 51       		.byte	0x51
 1700 003a 93       		.byte	0x93
 1701 003b 04       		.uleb128 0x4
 1702 003c 13000000 		.4byte	.LVL1-1
 1703 0040 14030000 		.4byte	.LFE5
ARM GAS  /tmp/ccRqpCax.s 			page 31


 1704 0044 0600     		.2byte	0x6
 1705 0046 F3       		.byte	0xf3
 1706 0047 03       		.uleb128 0x3
 1707 0048 F5       		.byte	0xf5
 1708 0049 00       		.uleb128 0
 1709 004a 29       		.uleb128 0x29
 1710 004b 9F       		.byte	0x9f
 1711 004c 00000000 		.4byte	0
 1712 0050 00000000 		.4byte	0
 1713              	.LLST2:
 1714 0054 46010000 		.4byte	.LVL30
 1715 0058 4C010000 		.4byte	.LVL31
 1716 005c 0600     		.2byte	0x6
 1717 005e 50       		.byte	0x50
 1718 005f 93       		.byte	0x93
 1719 0060 04       		.uleb128 0x4
 1720 0061 51       		.byte	0x51
 1721 0062 93       		.byte	0x93
 1722 0063 04       		.uleb128 0x4
 1723 0064 00000000 		.4byte	0
 1724 0068 00000000 		.4byte	0
 1725              	.LLST3:
 1726 006c 74000000 		.4byte	.LVL7
 1727 0070 A4000000 		.4byte	.LVL12
 1728 0074 0600     		.2byte	0x6
 1729 0076 54       		.byte	0x54
 1730 0077 93       		.byte	0x93
 1731 0078 04       		.uleb128 0x4
 1732 0079 55       		.byte	0x55
 1733 007a 93       		.byte	0x93
 1734 007b 04       		.uleb128 0x4
 1735 007c 00000000 		.4byte	0
 1736 0080 00000000 		.4byte	0
 1737              	.LLST4:
 1738 0084 74000000 		.4byte	.LVL7
 1739 0088 CE000000 		.4byte	.LVL16
 1740 008c 0A00     		.2byte	0xa
 1741 008e 9E       		.byte	0x9e
 1742 008f 08       		.uleb128 0x8
 1743 0090 00000000 		.4byte	0
 1744 0094 00000000 		.4byte	0
 1745 0098 CE000000 		.4byte	.LVL16
 1746 009c D0000000 		.4byte	.LVL17
 1747 00a0 0600     		.2byte	0x6
 1748 00a2 50       		.byte	0x50
 1749 00a3 93       		.byte	0x93
 1750 00a4 04       		.uleb128 0x4
 1751 00a5 51       		.byte	0x51
 1752 00a6 93       		.byte	0x93
 1753 00a7 04       		.uleb128 0x4
 1754 00a8 00000000 		.4byte	0
 1755 00ac 00000000 		.4byte	0
 1756              	.LLST5:
 1757 00b0 98000000 		.4byte	.LVL10
 1758 00b4 D0000000 		.4byte	.LVL17
 1759 00b8 0600     		.2byte	0x6
 1760 00ba 56       		.byte	0x56
ARM GAS  /tmp/ccRqpCax.s 			page 32


 1761 00bb 93       		.byte	0x93
 1762 00bc 04       		.uleb128 0x4
 1763 00bd 57       		.byte	0x57
 1764 00be 93       		.byte	0x93
 1765 00bf 04       		.uleb128 0x4
 1766 00c0 00000000 		.4byte	0
 1767 00c4 00000000 		.4byte	0
 1768              	.LLST6:
 1769 00c8 74000000 		.4byte	.LVL7
 1770 00cc D0000000 		.4byte	.LVL17
 1771 00d0 0A00     		.2byte	0xa
 1772 00d2 9E       		.byte	0x9e
 1773 00d3 08       		.uleb128 0x8
 1774 00d4 E07A14AE 		.4byte	0xae147ae0
 1775 00d8 47E11B40 		.4byte	0x401be147
 1776 00dc 00000000 		.4byte	0
 1777 00e0 00000000 		.4byte	0
 1778              	.LLST7:
 1779 00e4 74000000 		.4byte	.LVL7
 1780 00e8 D0000000 		.4byte	.LVL17
 1781 00ec 0A00     		.2byte	0xa
 1782 00ee 9E       		.byte	0x9e
 1783 00ef 08       		.uleb128 0x8
 1784 00f0 B047E17A 		.4byte	0x7ae147b0
 1785 00f4 14AE1840 		.4byte	0x4018ae14
 1786 00f8 00000000 		.4byte	0
 1787 00fc 00000000 		.4byte	0
 1788              	.LLST8:
 1789 0100 74000000 		.4byte	.LVL7
 1790 0104 D0000000 		.4byte	.LVL17
 1791 0108 0A00     		.2byte	0xa
 1792 010a 9E       		.byte	0x9e
 1793 010b 08       		.uleb128 0x8
 1794 010c 80999999 		.4byte	0x99999980
 1795 0110 9999E9BF 		.4byte	0xbfe99999
 1796 0114 00000000 		.4byte	0
 1797 0118 00000000 		.4byte	0
 1798              	.LLST9:
 1799 011c E2000000 		.4byte	.LVL19
 1800 0120 06010000 		.4byte	.LVL22
 1801 0124 0600     		.2byte	0x6
 1802 0126 54       		.byte	0x54
 1803 0127 93       		.byte	0x93
 1804 0128 04       		.uleb128 0x4
 1805 0129 55       		.byte	0x55
 1806 012a 93       		.byte	0x93
 1807 012b 04       		.uleb128 0x4
 1808 012c 00000000 		.4byte	0
 1809 0130 00000000 		.4byte	0
 1810              	.LLST10:
 1811 0134 18010000 		.4byte	.LVL25
 1812 0138 1A010000 		.4byte	.LVL26
 1813 013c 0600     		.2byte	0x6
 1814 013e 50       		.byte	0x50
 1815 013f 93       		.byte	0x93
 1816 0140 04       		.uleb128 0x4
 1817 0141 51       		.byte	0x51
ARM GAS  /tmp/ccRqpCax.s 			page 33


 1818 0142 93       		.byte	0x93
 1819 0143 04       		.uleb128 0x4
 1820 0144 00000000 		.4byte	0
 1821 0148 00000000 		.4byte	0
 1822              	.LLST11:
 1823 014c 08010000 		.4byte	.LVL23
 1824 0150 1A010000 		.4byte	.LVL26
 1825 0154 0600     		.2byte	0x6
 1826 0156 54       		.byte	0x54
 1827 0157 93       		.byte	0x93
 1828 0158 04       		.uleb128 0x4
 1829 0159 55       		.byte	0x55
 1830 015a 93       		.byte	0x93
 1831 015b 04       		.uleb128 0x4
 1832 015c 00000000 		.4byte	0
 1833 0160 00000000 		.4byte	0
 1834              	.LLST12:
 1835 0164 1A010000 		.4byte	.LVL26
 1836 0168 46010000 		.4byte	.LVL30
 1837 016c 0600     		.2byte	0x6
 1838 016e 54       		.byte	0x54
 1839 016f 93       		.byte	0x93
 1840 0170 04       		.uleb128 0x4
 1841 0171 55       		.byte	0x55
 1842 0172 93       		.byte	0x93
 1843 0173 04       		.uleb128 0x4
 1844 0174 00000000 		.4byte	0
 1845 0178 00000000 		.4byte	0
 1846              	.LLST13:
 1847 017c 28010000 		.4byte	.LVL27
 1848 0180 2F010000 		.4byte	.LVL28-1
 1849 0184 0800     		.2byte	0x8
 1850 0186 F5       		.byte	0xf5
 1851 0187 00       		.uleb128 0
 1852 0188 29       		.uleb128 0x29
 1853 0189 F5       		.byte	0xf5
 1854 018a 00       		.uleb128 0
 1855 018b 29       		.uleb128 0x29
 1856 018c 1E       		.byte	0x1e
 1857 018d 9F       		.byte	0x9f
 1858 018e 00000000 		.4byte	0
 1859 0192 00000000 		.4byte	0
 1860              	.LLST14:
 1861 0196 4C010000 		.4byte	.LVL31
 1862 019a 6C010000 		.4byte	.LVL34
 1863 019e 0600     		.2byte	0x6
 1864 01a0 54       		.byte	0x54
 1865 01a1 93       		.byte	0x93
 1866 01a2 04       		.uleb128 0x4
 1867 01a3 55       		.byte	0x55
 1868 01a4 93       		.byte	0x93
 1869 01a5 04       		.uleb128 0x4
 1870 01a6 00000000 		.4byte	0
 1871 01aa 00000000 		.4byte	0
 1872              	.LLST15:
 1873 01ae 6E010000 		.4byte	.LVL35
 1874 01b2 9E010000 		.4byte	.LVL39
ARM GAS  /tmp/ccRqpCax.s 			page 34


 1875 01b6 0600     		.2byte	0x6
 1876 01b8 54       		.byte	0x54
 1877 01b9 93       		.byte	0x93
 1878 01ba 04       		.uleb128 0x4
 1879 01bb 55       		.byte	0x55
 1880 01bc 93       		.byte	0x93
 1881 01bd 04       		.uleb128 0x4
 1882 01be 00000000 		.4byte	0
 1883 01c2 00000000 		.4byte	0
 1884              	.LLST16:
 1885 01c6 B0010000 		.4byte	.LVL42
 1886 01ca 5A020000 		.4byte	.LVL60
 1887 01ce 0600     		.2byte	0x6
 1888 01d0 54       		.byte	0x54
 1889 01d1 93       		.byte	0x93
 1890 01d2 04       		.uleb128 0x4
 1891 01d3 55       		.byte	0x55
 1892 01d4 93       		.byte	0x93
 1893 01d5 04       		.uleb128 0x4
 1894 01d6 00000000 		.4byte	0
 1895 01da 00000000 		.4byte	0
 1896              	.LLST17:
 1897 01de AE010000 		.4byte	.LVL41
 1898 01e2 B0010000 		.4byte	.LVL42
 1899 01e6 0600     		.2byte	0x6
 1900 01e8 50       		.byte	0x50
 1901 01e9 93       		.byte	0x93
 1902 01ea 04       		.uleb128 0x4
 1903 01eb 51       		.byte	0x51
 1904 01ec 93       		.byte	0x93
 1905 01ed 04       		.uleb128 0x4
 1906 01ee B0010000 		.4byte	.LVL42
 1907 01f2 14030000 		.4byte	.LFE5
 1908 01f6 0A00     		.2byte	0xa
 1909 01f8 9E       		.byte	0x9e
 1910 01f9 08       		.uleb128 0x8
 1911 01fa 00000000 		.4byte	0
 1912 01fe 00000000 		.4byte	0
 1913 0202 00000000 		.4byte	0
 1914 0206 00000000 		.4byte	0
 1915              	.LLST18:
 1916 020a F2010000 		.4byte	.LVL48
 1917 020e F6010000 		.4byte	.LVL49
 1918 0212 0600     		.2byte	0x6
 1919 0214 50       		.byte	0x50
 1920 0215 93       		.byte	0x93
 1921 0216 04       		.uleb128 0x4
 1922 0217 51       		.byte	0x51
 1923 0218 93       		.byte	0x93
 1924 0219 04       		.uleb128 0x4
 1925 021a F6010000 		.4byte	.LVL49
 1926 021e 14030000 		.4byte	.LFE5
 1927 0222 0200     		.2byte	0x2
 1928 0224 7D       		.byte	0x7d
 1929 0225 00       		.sleb128 0
 1930 0226 00000000 		.4byte	0
 1931 022a 00000000 		.4byte	0
ARM GAS  /tmp/ccRqpCax.s 			page 35


 1932              	.LLST19:
 1933 022e 42020000 		.4byte	.LVL57
 1934 0232 45020000 		.4byte	.LVL58-1
 1935 0236 0600     		.2byte	0x6
 1936 0238 50       		.byte	0x50
 1937 0239 93       		.byte	0x93
 1938 023a 04       		.uleb128 0x4
 1939 023b 51       		.byte	0x51
 1940 023c 93       		.byte	0x93
 1941 023d 04       		.uleb128 0x4
 1942 023e 45020000 		.4byte	.LVL58-1
 1943 0242 14030000 		.4byte	.LFE5
 1944 0246 0200     		.2byte	0x2
 1945 0248 91       		.byte	0x91
 1946 0249 50       		.sleb128 -48
 1947 024a 00000000 		.4byte	0
 1948 024e 00000000 		.4byte	0
 1949              	.LLST20:
 1950 0252 CC010000 		.4byte	.LVL45
 1951 0256 DA010000 		.4byte	.LVL46
 1952 025a 0100     		.2byte	0x1
 1953 025c 50       		.byte	0x50
 1954 025d DA010000 		.4byte	.LVL46
 1955 0261 14030000 		.4byte	.LFE5
 1956 0265 0100     		.2byte	0x1
 1957 0267 58       		.byte	0x58
 1958 0268 00000000 		.4byte	0
 1959 026c 00000000 		.4byte	0
 1960              	.LLST21:
 1961 0270 00000000 		.4byte	.LFB6
 1962 0274 02000000 		.4byte	.LCFI2
 1963 0278 0200     		.2byte	0x2
 1964 027a 7D       		.byte	0x7d
 1965 027b 00       		.sleb128 0
 1966 027c 02000000 		.4byte	.LCFI2
 1967 0280 28000000 		.4byte	.LFE6
 1968 0284 0200     		.2byte	0x2
 1969 0286 7D       		.byte	0x7d
 1970 0287 10       		.sleb128 16
 1971 0288 00000000 		.4byte	0
 1972 028c 00000000 		.4byte	0
 1973              	.LLST22:
 1974 0290 00000000 		.4byte	.LVL64
 1975 0294 09000000 		.4byte	.LVL65-1
 1976 0298 0600     		.2byte	0x6
 1977 029a 50       		.byte	0x50
 1978 029b 93       		.byte	0x93
 1979 029c 04       		.uleb128 0x4
 1980 029d 51       		.byte	0x51
 1981 029e 93       		.byte	0x93
 1982 029f 04       		.uleb128 0x4
 1983 02a0 09000000 		.4byte	.LVL65-1
 1984 02a4 28000000 		.4byte	.LFE6
 1985 02a8 0600     		.2byte	0x6
 1986 02aa F3       		.byte	0xf3
 1987 02ab 03       		.uleb128 0x3
 1988 02ac F5       		.byte	0xf5
ARM GAS  /tmp/ccRqpCax.s 			page 36


 1989 02ad 00       		.uleb128 0
 1990 02ae 29       		.uleb128 0x29
 1991 02af 9F       		.byte	0x9f
 1992 02b0 00000000 		.4byte	0
 1993 02b4 00000000 		.4byte	0
 1994              		.section	.debug_aranges,"",%progbits
 1995 0000 24000000 		.4byte	0x24
 1996 0004 0200     		.2byte	0x2
 1997 0006 00000000 		.4byte	.Ldebug_info0
 1998 000a 04       		.byte	0x4
 1999 000b 00       		.byte	0
 2000 000c 0000     		.2byte	0
 2001 000e 0000     		.2byte	0
 2002 0010 00000000 		.4byte	.LFB5
 2003 0014 14030000 		.4byte	.LFE5-.LFB5
 2004 0018 00000000 		.4byte	.LFB6
 2005 001c 28000000 		.4byte	.LFE6-.LFB6
 2006 0020 00000000 		.4byte	0
 2007 0024 00000000 		.4byte	0
 2008              		.section	.debug_ranges,"",%progbits
 2009              	.Ldebug_ranges0:
 2010 0000 9E010000 		.4byte	.LBB28
 2011 0004 AE010000 		.4byte	.LBE28
 2012 0008 B0010000 		.4byte	.LBB31
 2013 000c 14030000 		.4byte	.LBE31
 2014 0010 00000000 		.4byte	0
 2015 0014 00000000 		.4byte	0
 2016 0018 9E010000 		.4byte	.LBB29
 2017 001c AE010000 		.4byte	.LBE29
 2018 0020 B0010000 		.4byte	.LBB30
 2019 0024 14030000 		.4byte	.LBE30
 2020 0028 00000000 		.4byte	0
 2021 002c 00000000 		.4byte	0
 2022 0030 00000000 		.4byte	.LFB5
 2023 0034 14030000 		.4byte	.LFE5
 2024 0038 00000000 		.4byte	.LFB6
 2025 003c 28000000 		.4byte	.LFE6
 2026 0040 00000000 		.4byte	0
 2027 0044 00000000 		.4byte	0
 2028              		.section	.debug_line,"",%progbits
 2029              	.Ldebug_line0:
 2030 0000 B7000000 		.section	.debug_str,"MS",%progbits,1
 2030      02003500 
 2030      00000201 
 2030      FB0E0D00 
 2030      01010101 
 2031              	.LASF21:
 2032 0000 6C6E5F67 		.ascii	"ln_get_dynamical_time_diff\000"
 2032      65745F64 
 2032      796E616D 
 2032      6963616C 
 2032      5F74696D 
 2033              	.LASF16:
 2034 001b 6765745F 		.ascii	"get_dynamical_diff_other\000"
 2034      64796E61 
 2034      6D696361 
 2034      6C5F6469 
ARM GAS  /tmp/ccRqpCax.s 			page 37


 2034      66665F6F 
 2035              	.LASF15:
 2036 0034 64656C74 		.ascii	"delta_T\000"
 2036      615F5400 
 2037              	.LASF5:
 2038 003c 756E7369 		.ascii	"unsigned char\000"
 2038      676E6564 
 2038      20636861 
 2038      7200
 2039              	.LASF13:
 2040 004a 6765745F 		.ascii	"get_dynamical_diff_sh2\000"
 2040      64796E61 
 2040      6D696361 
 2040      6C5F6469 
 2040      66665F73 
 2041              	.LASF10:
 2042 0061 6C6F6E67 		.ascii	"long unsigned int\000"
 2042      20756E73 
 2042      69676E65 
 2042      6420696E 
 2042      7400
 2043              	.LASF2:
 2044 0073 73686F72 		.ascii	"short unsigned int\000"
 2044      7420756E 
 2044      7369676E 
 2044      65642069 
 2044      6E7400
 2045              	.LASF18:
 2046 0086 474E5520 		.ascii	"GNU C 4.7.4 20130913 (release) [ARM/embedded-4_7-br"
 2046      4320342E 
 2046      372E3420 
 2046      32303133 
 2046      30393133 
 2047 00b9 616E6368 		.ascii	"anch revision 202601]\000"
 2047      20726576 
 2047      6973696F 
 2047      6E203230 
 2047      32363031 
 2048              	.LASF0:
 2049 00cf 646F7562 		.ascii	"double\000"
 2049      6C6500
 2050              	.LASF24:
 2051 00d6 64656C74 		.ascii	"delta_t\000"
 2051      615F7400 
 2052              	.LASF3:
 2053 00de 756E7369 		.ascii	"unsigned int\000"
 2053      676E6564 
 2053      20696E74 
 2053      00
 2054              	.LASF8:
 2055 00eb 6C6F6E67 		.ascii	"long long unsigned int\000"
 2055      206C6F6E 
 2055      6720756E 
 2055      7369676E 
 2055      65642069 
 2056              	.LASF9:
 2057 0102 73697A65 		.ascii	"sizetype\000"
ARM GAS  /tmp/ccRqpCax.s 			page 38


 2057      74797065 
 2057      00
 2058              	.LASF7:
 2059 010b 6C6F6E67 		.ascii	"long long int\000"
 2059      206C6F6E 
 2059      6720696E 
 2059      7400
 2060              	.LASF12:
 2061 0119 6765745F 		.ascii	"get_dynamical_diff_sh1\000"
 2061      64796E61 
 2061      6D696361 
 2061      6C5F6469 
 2061      66665F73 
 2062              	.LASF20:
 2063 0130 2F426967 		.ascii	"/BigDriver/home/nacho/WORKHOME/programacion/chibiOS"
 2063      44726976 
 2063      65722F68 
 2063      6F6D652F 
 2063      6E616368 
 2064 0163 2F636869 		.ascii	"/chibios/nacho/lx200\000"
 2064      62696F73 
 2064      2F6E6163 
 2064      686F2F6C 
 2064      78323030 
 2065              	.LASF17:
 2066 0178 6765745F 		.ascii	"get_dynamical_diff_table\000"
 2066      64796E61 
 2066      6D696361 
 2066      6C5F6469 
 2066      66665F74 
 2067              	.LASF23:
 2068 0191 73656373 		.ascii	"secs_in_day\000"
 2068      5F696E5F 
 2068      64617900 
 2069              	.LASF6:
 2070 019d 73686F72 		.ascii	"short int\000"
 2070      7420696E 
 2070      7400
 2071              	.LASF19:
 2072 01a7 2E2F6C69 		.ascii	"./libnova/src/dynamical_time.c\000"
 2072      626E6F76 
 2072      612F7372 
 2072      632F6479 
 2072      6E616D69 
 2073              	.LASF14:
 2074 01c6 6765745F 		.ascii	"get_dynamical_diff_near\000"
 2074      64796E61 
 2074      6D696361 
 2074      6C5F6469 
 2074      66665F6E 
 2075              	.LASF1:
 2076 01de 6C6F6E67 		.ascii	"long int\000"
 2076      20696E74 
 2076      00
 2077              	.LASF11:
 2078 01e7 63686172 		.ascii	"char\000"
 2078      00
ARM GAS  /tmp/ccRqpCax.s 			page 39


 2079              	.LASF4:
 2080 01ec 7369676E 		.ascii	"signed char\000"
 2080      65642063 
 2080      68617200 
 2081              	.LASF22:
 2082 01f8 6C6E5F67 		.ascii	"ln_get_jde\000"
 2082      65745F6A 
 2082      646500
 2083              		.ident	"GCC: (GNU Tools for ARM Embedded Processors) 4.7.4 20130913 (release) [ARM/embedded-4_7-br
ARM GAS  /tmp/ccRqpCax.s 			page 40


DEFINED SYMBOLS
                            *ABS*:0000000000000000 dynamical_time.c
     /tmp/ccRqpCax.s:28     .text.ln_get_dynamical_time_diff:0000000000000000 $t
     /tmp/ccRqpCax.s:34     .text.ln_get_dynamical_time_diff:0000000000000000 ln_get_dynamical_time_diff
     /tmp/ccRqpCax.s:421    .text.ln_get_dynamical_time_diff:0000000000000288 $d
     /tmp/ccRqpCax.s:462    .text.ln_get_jde:0000000000000000 $t
     /tmp/ccRqpCax.s:468    .text.ln_get_jde:0000000000000000 ln_get_jde
     /tmp/ccRqpCax.s:501    .text.ln_get_jde:0000000000000020 $d
     /tmp/ccRqpCax.s:507    .rodata.delta_t:0000000000000000 $d
     /tmp/ccRqpCax.s:511    .rodata.delta_t:0000000000000000 delta_t
                     .debug_frame:0000000000000010 $d
     /tmp/ccRqpCax.s:461    .text.ln_get_dynamical_time_diff:0000000000000314 $t
     /tmp/ccRqpCax.s:506    .text.ln_get_jde:0000000000000028 $t

UNDEFINED SYMBOLS
__aeabi_dcmplt
__aeabi_dsub
__aeabi_ddiv
__aeabi_dmul
__aeabi_dadd
__aeabi_dcmpge
__aeabi_d2iz
__aeabi_i2d
__aeabi_dcmple
