ARM GAS  /tmp/ccRqpCax.s 			page 1


   1              		.syntax unified
   2              		.cpu cortex-m4
   3              		.fpu softvfp
   4              		.eabi_attribute 20, 1
   5              		.eabi_attribute 21, 1
   6              		.eabi_attribute 23, 3
   7              		.eabi_attribute 24, 1
   8              		.eabi_attribute 25, 1
   9              		.eabi_attribute 26, 1
  10              		.eabi_attribute 30, 2
  11              		.eabi_attribute 34, 1
  12              		.eabi_attribute 18, 4
  13              		.thumb
  14              		.file	"dynamical_time.c"
  15              		.text
  16              	.Ltext0:
  17              		.cfi_sections	.debug_frame
  18              		.global	__aeabi_dcmplt
  19              		.global	__aeabi_dsub
  20              		.global	__aeabi_ddiv
  21              		.global	__aeabi_dmul
  22              		.global	__aeabi_dadd
  23              		.global	__aeabi_dcmpge
  24              		.global	__aeabi_d2iz
  25              		.global	__aeabi_i2d
  26              		.global	__aeabi_dcmple
  27              		.section	.text.ln_get_dynamical_time_diff,"ax",%progbits
  28              		.align	2
  29              		.p2align 4,,15
  30              		.global	ln_get_dynamical_time_diff
  31              		.thumb
  32              		.thumb_func
  33              		.type	ln_get_dynamical_time_diff, %function
  34              	ln_get_dynamical_time_diff:
  35              	.LFB5:
  36              		.file 1 "./libnova/src/dynamical_time.c"
  37              		.loc 1 183 0
  38              		.cfi_startproc
  39              		@ args = 0, pretend = 0, frame = 24
  40              		@ frame_needed = 0, uses_anonymous_args = 0
  41              	.LVL0:
  42 0000 2DE9F04D 		push	{r4, r5, r6, r7, r8, sl, fp, lr}
  43              	.LCFI0:
  44              		.cfi_def_cfa_offset 32
  45              		.cfi_offset 4, -32
  46              		.cfi_offset 5, -28
  47              		.cfi_offset 6, -24
  48              		.cfi_offset 7, -20
  49              		.cfi_offset 8, -16
  50              		.cfi_offset 10, -12
  51              		.cfi_offset 11, -8
  52              		.cfi_offset 14, -4
  53              		.loc 1 188 0
  54 0004 A0A3     		adr	r3, .L27
  55 0006 D3E90023 		ldrd	r2, [r3]
  56              		.loc 1 183 0
  57 000a 86B0     		sub	sp, sp, #24
ARM GAS  /tmp/ccRqpCax.s 			page 2


  58              	.LCFI1:
  59              		.cfi_def_cfa_offset 56
  60              		.loc 1 183 0
  61 000c 0446     		mov	r4, r0
  62 000e 0D46     		mov	r5, r1
  63              		.loc 1 188 0
  64 0010 FFF7FEFF 		bl	__aeabi_dcmplt
  65              	.LVL1:
  66 0014 0028     		cmp	r0, #0
  67 0016 40F09980 		bne	.L24
  68              		.loc 1 191 0
  69 001a 2046     		mov	r0, r4
  70 001c 2946     		mov	r1, r5
  71 001e 9AA3     		adr	r3, .L27
  72 0020 D3E90023 		ldrd	r2, [r3]
  73 0024 FFF7FEFF 		bl	__aeabi_dcmpge
  74              	.LVL2:
  75 0028 0028     		cmp	r0, #0
  76 002a 51D1     		bne	.L25
  77              	.L5:
  78              		.loc 1 194 0
  79 002c 2046     		mov	r0, r4
  80 002e 2946     		mov	r1, r5
  81 0030 97A3     		adr	r3, .L27+8
  82 0032 D3E90023 		ldrd	r2, [r3]
  83 0036 FFF7FEFF 		bl	__aeabi_dcmpge
  84              	.LVL3:
  85 003a 48B1     		cbz	r0, .L8
  86              		.loc 1 194 0 is_stmt 0 discriminator 1
  87 003c 2046     		mov	r0, r4
  88 003e 2946     		mov	r1, r5
  89 0040 95A3     		adr	r3, .L27+16
  90 0042 D3E90023 		ldrd	r2, [r3]
  91 0046 FFF7FEFF 		bl	__aeabi_dcmplt
  92              	.LVL4:
  93 004a 0028     		cmp	r0, #0
  94 004c 40F0B080 		bne	.L26
  95              	.L8:
  96              		.loc 1 197 0 is_stmt 1
  97 0050 2046     		mov	r0, r4
  98 0052 2946     		mov	r1, r5
  99 0054 90A3     		adr	r3, .L27+16
 100 0056 D3E90023 		ldrd	r2, [r3]
 101 005a FFF7FEFF 		bl	__aeabi_dcmpge
 102              	.LVL5:
 103 005e 0028     		cmp	r0, #0
 104 0060 5BD0     		beq	.L11
 105              		.loc 1 197 0 is_stmt 0 discriminator 1
 106 0062 2046     		mov	r0, r4
 107 0064 2946     		mov	r1, r5
 108 0066 8EA3     		adr	r3, .L27+24
 109 0068 D3E90023 		ldrd	r2, [r3]
 110 006c FFF7FEFF 		bl	__aeabi_dcmple
 111              	.LVL6:
 112 0070 0028     		cmp	r0, #0
 113 0072 52D0     		beq	.L11
 114              	.LVL7:
ARM GAS  /tmp/ccRqpCax.s 			page 3


 115              	.LBB20:
 116              	.LBB21:
 117              		.loc 1 153 0 is_stmt 1
 118 0074 8CA3     		adr	r3, .L27+32
 119 0076 D3E90023 		ldrd	r2, [r3]
 120 007a 2046     		mov	r0, r4
 121 007c 2946     		mov	r1, r5
 122 007e FFF7FEFF 		bl	__aeabi_dsub
 123              	.LVL8:
 124 0082 8BA3     		adr	r3, .L27+40
 125 0084 D3E90023 		ldrd	r2, [r3]
 126 0088 FFF7FEFF 		bl	__aeabi_ddiv
 127              	.LVL9:
 128              		.loc 1 154 0
 129 008c 0023     		movs	r3, #0
 130 008e 0022     		movs	r2, #0
 131 0090 C3F6E073 		movt	r3, 16352
 132              		.loc 1 153 0
 133 0094 0646     		mov	r6, r0
 134 0096 0F46     		mov	r7, r1
 135              	.LVL10:
 136              		.loc 1 154 0
 137 0098 FFF7FEFF 		bl	__aeabi_dmul
 138              	.LVL11:
 139 009c 86A3     		adr	r3, .L27+48
 140 009e D3E90023 		ldrd	r2, [r3]
 141 00a2 0446     		mov	r4, r0
 142              	.LVL12:
 143 00a4 0D46     		mov	r5, r1
 144 00a6 3046     		mov	r0, r6
 145 00a8 3946     		mov	r1, r7
 146 00aa FFF7FEFF 		bl	__aeabi_dmul
 147              	.LVL13:
 148 00ae 84A3     		adr	r3, .L27+56
 149 00b0 D3E90023 		ldrd	r2, [r3]
 150 00b4 FFF7FEFF 		bl	__aeabi_dadd
 151              	.LVL14:
 152 00b8 0246     		mov	r2, r0
 153 00ba 0B46     		mov	r3, r1
 154 00bc 2046     		mov	r0, r4
 155 00be 2946     		mov	r1, r5
 156 00c0 FFF7FEFF 		bl	__aeabi_dmul
 157              	.LVL15:
 158 00c4 80A3     		adr	r3, .L27+64
 159 00c6 D3E90023 		ldrd	r2, [r3]
 160 00ca FFF7FEFF 		bl	__aeabi_dadd
 161              	.LVL16:
 162              	.LBE21:
 163              	.LBE20:
 164              		.loc 1 199 0
 165 00ce 3AE0     		b	.L4
 166              	.LVL17:
 167              	.L25:
 168              		.loc 1 191 0 discriminator 1
 169 00d0 2046     		mov	r0, r4
 170 00d2 2946     		mov	r1, r5
 171 00d4 7EA3     		adr	r3, .L27+72
ARM GAS  /tmp/ccRqpCax.s 			page 4


 172 00d6 D3E90023 		ldrd	r2, [r3]
 173 00da FFF7FEFF 		bl	__aeabi_dcmplt
 174              	.LVL18:
 175 00de 0028     		cmp	r0, #0
 176 00e0 A4D0     		beq	.L5
 177              	.LVL19:
 178              	.LBB22:
 179              	.LBB23:
 180              		.loc 1 106 0
 181 00e2 7DA3     		adr	r3, .L27+80
 182 00e4 D3E90023 		ldrd	r2, [r3]
 183 00e8 2046     		mov	r0, r4
 184 00ea 2946     		mov	r1, r5
 185 00ec FFF7FEFF 		bl	__aeabi_dsub
 186              	.LVL20:
 187 00f0 7BA3     		adr	r3, .L27+88
 188 00f2 D3E90023 		ldrd	r2, [r3]
 189 00f6 FFF7FEFF 		bl	__aeabi_ddiv
 190              	.LVL21:
 191              		.loc 1 108 0
 192 00fa 4FF40043 		mov	r3, #32768
 193 00fe 0022     		movs	r2, #0
 194 0100 C4F23603 		movt	r3, 16438
 195              		.loc 1 106 0
 196 0104 0446     		mov	r4, r0
 197              	.LVL22:
 198 0106 0D46     		mov	r5, r1
 199              	.LVL23:
 200              		.loc 1 108 0
 201 0108 FFF7FEFF 		bl	__aeabi_dmul
 202              	.LVL24:
 203 010c 0246     		mov	r2, r0
 204 010e 0B46     		mov	r3, r1
 205 0110 2046     		mov	r0, r4
 206 0112 2946     		mov	r1, r5
 207 0114 FFF7FEFF 		bl	__aeabi_dmul
 208              	.LVL25:
 209              	.LBE23:
 210              	.LBE22:
 211              		.loc 1 193 0
 212 0118 15E0     		b	.L4
 213              	.LVL26:
 214              	.L11:
 215              	.LBB24:
 216              	.LBB25:
 217              		.loc 1 165 0
 218 011a 73A3     		adr	r3, .L27+96
 219 011c D3E90023 		ldrd	r2, [r3]
 220 0120 2046     		mov	r0, r4
 221 0122 2946     		mov	r1, r5
 222 0124 FFF7FEFF 		bl	__aeabi_dsub
 223              	.LVL27:
 224              		.loc 1 166 0
 225 0128 0246     		mov	r2, r0
 226 012a 0B46     		mov	r3, r1
 227 012c FFF7FEFF 		bl	__aeabi_dmul
 228              	.LVL28:
ARM GAS  /tmp/ccRqpCax.s 			page 5


 229              		.loc 1 168 0
 230 0130 6FA3     		adr	r3, .L27+104
 231 0132 D3E90023 		ldrd	r2, [r3]
 232 0136 FFF7FEFF 		bl	__aeabi_ddiv
 233              	.LVL29:
 234 013a 0023     		movs	r3, #0
 235 013c 0022     		movs	r2, #0
 236 013e C4F22E03 		movt	r3, 16430
 237 0142 FFF7FEFF 		bl	__aeabi_dsub
 238              	.LVL30:
 239              	.L4:
 240              	.LBE25:
 241              	.LBE24:
 242              		.loc 1 205 0
 243 0146 06B0     		add	sp, sp, #24
 244 0148 BDE8F08D 		pop	{r4, r5, r6, r7, r8, sl, fp, pc}
 245              	.LVL31:
 246              	.L24:
 247              	.LBB26:
 248              	.LBB27:
 249              		.loc 1 94 0
 250 014c 4EA3     		adr	r3, .L27
 251 014e D3E90023 		ldrd	r2, [r3]
 252 0152 2046     		mov	r0, r4
 253 0154 2946     		mov	r1, r5
 254 0156 FFF7FEFF 		bl	__aeabi_dsub
 255              	.LVL32:
 256 015a 61A3     		adr	r3, .L27+88
 257 015c D3E90023 		ldrd	r2, [r3]
 258 0160 FFF7FEFF 		bl	__aeabi_ddiv
 259              	.LVL33:
 260              		.loc 1 96 0
 261 0164 64A3     		adr	r3, .L27+112
 262 0166 D3E90023 		ldrd	r2, [r3]
 263              		.loc 1 94 0
 264 016a 0446     		mov	r4, r0
 265              	.LVL34:
 266 016c 0D46     		mov	r5, r1
 267              	.LVL35:
 268              		.loc 1 96 0
 269 016e FFF7FEFF 		bl	__aeabi_dmul
 270              	.LVL36:
 271 0172 0246     		mov	r2, r0
 272 0174 0B46     		mov	r3, r1
 273 0176 62A1     		adr	r1, .L27+120
 274 0178 D1E90001 		ldrd	r0, [r1]
 275 017c FFF7FEFF 		bl	__aeabi_dsub
 276              	.LVL37:
 277 0180 4FF48043 		mov	r3, #16384
 278 0184 0022     		movs	r2, #0
 279 0186 C4F24703 		movt	r3, 16455
 280 018a 0646     		mov	r6, r0
 281 018c 0F46     		mov	r7, r1
 282 018e 2046     		mov	r0, r4
 283 0190 2946     		mov	r1, r5
 284 0192 FFF7FEFF 		bl	__aeabi_dmul
 285              	.LVL38:
ARM GAS  /tmp/ccRqpCax.s 			page 6


 286 0196 0246     		mov	r2, r0
 287 0198 0B46     		mov	r3, r1
 288 019a 2046     		mov	r0, r4
 289 019c 2946     		mov	r1, r5
 290              	.LVL39:
 291              	.L22:
 292              	.LBE27:
 293              	.LBE26:
 294              	.LBB28:
 295              	.LBB29:
 296              		.loc 1 133 0
 297 019e FFF7FEFF 		bl	__aeabi_dmul
 298              	.LVL40:
 299 01a2 0246     		mov	r2, r0
 300 01a4 0B46     		mov	r3, r1
 301 01a6 3046     		mov	r0, r6
 302 01a8 3946     		mov	r1, r7
 303 01aa FFF7FEFF 		bl	__aeabi_dadd
 304              	.LVL41:
 305              	.LBE29:
 306              	.LBE28:
 307              		.loc 1 196 0
 308 01ae CAE7     		b	.L4
 309              	.LVL42:
 310              	.L26:
 311              	.LBB31:
 312              	.LBB30:
 313              		.loc 1 121 0
 314 01b0 37A3     		adr	r3, .L27+8
 315 01b2 D3E90023 		ldrd	r2, [r3]
 316 01b6 2046     		mov	r0, r4
 317 01b8 2946     		mov	r1, r5
 318 01ba FFF7FEFF 		bl	__aeabi_dsub
 319              	.LVL43:
 320 01be 52A3     		adr	r3, .L27+128
 321 01c0 D3E90023 		ldrd	r2, [r3]
 322 01c4 FFF7FEFF 		bl	__aeabi_ddiv
 323              	.LVL44:
 324 01c8 FFF7FEFF 		bl	__aeabi_d2iz
 325              	.LVL45:
 326              		.loc 1 128 0
 327 01cc DFF840A1 		ldr	sl, .L27+136
 328 01d0 BE28     		cmp	r0, #190
 329 01d2 B4BF     		ite	lt
 330 01d4 8046     		movlt	r8, r0
 331 01d6 4FF0BE08 		movge	r8, #190
 332              	.LVL46:
 333 01da 0AEBC803 		add	r3, sl, r8, lsl #3
 334 01de D3E90267 		ldrd	r6, [r3, #8]
 335 01e2 D3E90023 		ldrd	r2, [r3]
 336 01e6 3046     		mov	r0, r6
 337 01e8 3946     		mov	r1, r7
 338 01ea FFF7FEFF 		bl	__aeabi_dsub
 339              	.LVL47:
 340 01ee CDE90001 		strd	r0, [sp]
 341              	.LVL48:
 342              		.loc 1 129 0
ARM GAS  /tmp/ccRqpCax.s 			page 7


 343 01f2 0AEBC800 		add	r0, sl, r8, lsl #3
 344              	.LVL49:
 345 01f6 3246     		mov	r2, r6
 346 01f8 3B46     		mov	r3, r7
 347 01fa D0E90401 		ldrd	r0, [r0, #16]
 348 01fe FFF7FEFF 		bl	__aeabi_dsub
 349              	.LVL50:
 350 0202 8246     		mov	sl, r0
 351              		.loc 1 131 0
 352 0204 4046     		mov	r0, r8
 353              		.loc 1 129 0
 354 0206 8B46     		mov	fp, r1
 355              	.LVL51:
 356              		.loc 1 131 0
 357 0208 FFF7FEFF 		bl	__aeabi_i2d
 358              	.LVL52:
 359 020c 3EA3     		adr	r3, .L27+128
 360 020e D3E90023 		ldrd	r2, [r3]
 361 0212 FFF7FEFF 		bl	__aeabi_dmul
 362              	.LVL53:
 363 0216 1EA3     		adr	r3, .L27+8
 364 0218 D3E90023 		ldrd	r2, [r3]
 365 021c FFF7FEFF 		bl	__aeabi_dadd
 366              	.LVL54:
 367 0220 0246     		mov	r2, r0
 368 0222 0B46     		mov	r3, r1
 369 0224 2046     		mov	r0, r4
 370 0226 2946     		mov	r1, r5
 371 0228 FFF7FEFF 		bl	__aeabi_dsub
 372              	.LVL55:
 373 022c 36A3     		adr	r3, .L27+128
 374 022e D3E90023 		ldrd	r2, [r3]
 375 0232 FFF7FEFF 		bl	__aeabi_ddiv
 376              	.LVL56:
 377              		.loc 1 133 0
 378 0236 0023     		movs	r3, #0
 379 0238 0022     		movs	r2, #0
 380 023a C3F6E073 		movt	r3, 16352
 381              		.loc 1 131 0
 382 023e CDE90201 		strd	r0, [sp, #8]
 383              	.LVL57:
 384              		.loc 1 133 0
 385 0242 FFF7FEFF 		bl	__aeabi_dmul
 386              	.LVL58:
 387 0246 5246     		mov	r2, sl
 388 0248 CDE90401 		strd	r0, [sp, #16]
 389 024c 5B46     		mov	r3, fp
 390 024e DDE90001 		ldrd	r0, [sp]
 391 0252 FFF7FEFF 		bl	__aeabi_dadd
 392              	.LVL59:
 393              		.loc 1 130 0
 394 0256 5246     		mov	r2, sl
 395              		.loc 1 133 0
 396 0258 0446     		mov	r4, r0
 397              	.LVL60:
 398 025a 0D46     		mov	r5, r1
 399              		.loc 1 130 0
ARM GAS  /tmp/ccRqpCax.s 			page 8


 400 025c 5B46     		mov	r3, fp
 401 025e DDE90001 		ldrd	r0, [sp]
 402 0262 FFF7FEFF 		bl	__aeabi_dsub
 403              	.LVL61:
 404              		.loc 1 133 0
 405 0266 DDE90223 		ldrd	r2, [sp, #8]
 406 026a FFF7FEFF 		bl	__aeabi_dmul
 407              	.LVL62:
 408 026e 0246     		mov	r2, r0
 409 0270 0B46     		mov	r3, r1
 410 0272 2046     		mov	r0, r4
 411 0274 2946     		mov	r1, r5
 412 0276 FFF7FEFF 		bl	__aeabi_dadd
 413              	.LVL63:
 414 027a 0246     		mov	r2, r0
 415 027c 0B46     		mov	r3, r1
 416 027e DDE90401 		ldrd	r0, [sp, #16]
 417 0282 8CE7     		b	.L22
 418              	.L28:
 419 0284 AFF30080 		.align	3
 420              	.L27:
 421 0288 00000080 		.word	2147483648
 422 028c 728B3F41 		.word	1094683506
 423 0290 00000040 		.word	1073741824
 424 0294 18A54141 		.word	1094821144
 425 0298 00000040 		.word	1073741824
 426 029c 77AE4241 		.word	1094889079
 427 02a0 000000C0 		.word	3221225472
 428 02a4 4EBB4241 		.word	1094892366
 429 02a8 00000040 		.word	1073741824
 430 02ac 2CB44241 		.word	1094890540
 431 02b0 00000000 		.word	0
 432 02b4 0089AC40 		.word	1085049088
 433 02b8 80999999 		.word	2576980352
 434 02bc 9999E9BF 		.word	-1075209831
 435 02c0 48E17A14 		.word	343597384
 436 02c4 AE472A40 		.word	1076512686
 437 02c8 0AD7A370 		.word	1889785610
 438 02cc 3DEA4F40 		.word	1078979133
 439 02d0 000000C0 		.word	3221225472
 440 02d4 D3964141 		.word	1094817491
 441 02d8 00000040 		.word	1073741824
 442 02dc 2B494241 		.word	1094863147
 443 02e0 00000000 		.word	0
 444 02e4 A0D5E140 		.word	1088542112
 445 02e8 00000000 		.word	0
 446 02ec A22C4241 		.word	1094855842
 447 02f0 00000000 		.word	0
 448 02f4 CD928341 		.word	1099141837
 449 02f8 00000000 		.word	0
 450 02fc 00507940 		.word	1081692160
 451 0300 00000000 		.word	0
 452 0304 00989C40 		.word	1084004352
 453 0308 00000000 		.word	0
 454 030c 00D48640 		.word	1082577920
 455 0310 00000000 		.word	.LANCHOR0
 456              	.LBE30:
ARM GAS  /tmp/ccRqpCax.s 			page 9


 457              	.LBE31:
 458              		.cfi_endproc
 459              	.LFE5:
 460              		.size	ln_get_dynamical_time_diff, .-ln_get_dynamical_time_diff
 461 0314 AFF30080 		.section	.text.ln_get_jde,"ax",%progbits
 461      AFF30080 
 461      AFF30080 
 462              		.align	2
 463              		.p2align 4,,15
 464              		.global	ln_get_jde
 465              		.thumb
 466              		.thumb_func
 467              		.type	ln_get_jde, %function
 468              	ln_get_jde:
 469              	.LFB6:
 470              		.loc 1 216 0
 471              		.cfi_startproc
 472              		@ args = 0, pretend = 0, frame = 0
 473              		@ frame_needed = 0, uses_anonymous_args = 0
 474              	.LVL64:
 475 0000 38B5     		push	{r3, r4, r5, lr}
 476              	.LCFI2:
 477              		.cfi_def_cfa_offset 16
 478              		.cfi_offset 3, -16
 479              		.cfi_offset 4, -12
 480              		.cfi_offset 5, -8
 481              		.cfi_offset 14, -4
 482              		.loc 1 216 0
 483 0002 0446     		mov	r4, r0
 484 0004 0D46     		mov	r5, r1
 485              		.loc 1 220 0
 486 0006 FFF7FEFF 		bl	ln_get_dynamical_time_diff
 487              	.LVL65:
 488 000a 05A3     		adr	r3, .L30
 489 000c D3E90023 		ldrd	r2, [r3]
 490 0010 FFF7FEFF 		bl	__aeabi_ddiv
 491              	.LVL66:
 492 0014 2246     		mov	r2, r4
 493 0016 2B46     		mov	r3, r5
 494 0018 FFF7FEFF 		bl	__aeabi_dadd
 495              	.LVL67:
 496              		.loc 1 223 0
 497 001c 38BD     		pop	{r3, r4, r5, pc}
 498              	.L31:
 499 001e 00BF     		.align	3
 500              	.L30:
 501 0020 00000000 		.word	0
 502 0024 0018F540 		.word	1089804288
 503              		.cfi_endproc
 504              	.LFE6:
 505              		.size	ln_get_jde, .-ln_get_jde
 506 0028 AFF30080 		.section	.rodata.delta_t,"a",%progbits
 506      AFF30080 
 507              		.align	3
 508              		.set	.LANCHOR0,. + 0
 509              		.type	delta_t, %object
 510              		.size	delta_t, 1536
ARM GAS  /tmp/ccRqpCax.s 			page 10


 511              	delta_t:
 512 0000 00000000 		.word	0
 513 0004 00005F40 		.word	1079967744
 514 0008 00000000 		.word	0
 515 000c 00C05C40 		.word	1079820288
 516 0010 00000000 		.word	0
 517 0014 00805A40 		.word	1079672832
 518 0018 00000000 		.word	0
 519 001c 00805840 		.word	1079541760
 520 0020 00000000 		.word	0
 521 0024 00C05640 		.word	1079427072
 522 0028 00000000 		.word	0
 523 002c 00405540 		.word	1079328768
 524 0030 00000000 		.word	0
 525 0034 00C05340 		.word	1079230464
 526 0038 00000000 		.word	0
 527 003c 00805240 		.word	1079148544
 528 0040 00000000 		.word	0
 529 0044 00805140 		.word	1079083008
 530 0048 00000000 		.word	0
 531 004c 00405040 		.word	1079001088
 532 0050 00000000 		.word	0
 533 0054 00004F40 		.word	1078919168
 534 0058 00000000 		.word	0
 535 005c 00004D40 		.word	1078788096
 536 0060 00000000 		.word	0
 537 0064 00804B40 		.word	1078689792
 538 0068 00000000 		.word	0
 539 006c 00804A40 		.word	1078624256
 540 0070 00000000 		.word	0
 541 0074 00004940 		.word	1078525952
 542 0078 00000000 		.word	0
 543 007c 00004840 		.word	1078460416
 544 0080 00000000 		.word	0
 545 0084 00004740 		.word	1078394880
 546 0088 00000000 		.word	0
 547 008c 00004640 		.word	1078329344
 548 0090 00000000 		.word	0
 549 0094 00004540 		.word	1078263808
 550 0098 00000000 		.word	0
 551 009c 00004440 		.word	1078198272
 552 00a0 00000000 		.word	0
 553 00a4 00804240 		.word	1078099968
 554 00a8 00000000 		.word	0
 555 00ac 00804140 		.word	1078034432
 556 00b0 00000000 		.word	0
 557 00b4 00804040 		.word	1077968896
 558 00b8 00000000 		.word	0
 559 00bc 00003F40 		.word	1077870592
 560 00c0 00000000 		.word	0
 561 00c4 00003C40 		.word	1077673984
 562 00c8 00000000 		.word	0
 563 00cc 00003A40 		.word	1077542912
 564 00d0 00000000 		.word	0
 565 00d4 00003840 		.word	1077411840
 566 00d8 00000000 		.word	0
 567 00dc 00003640 		.word	1077280768
ARM GAS  /tmp/ccRqpCax.s 			page 11


 568 00e0 00000000 		.word	0
 569 00e4 00003440 		.word	1077149696
 570 00e8 00000000 		.word	0
 571 00ec 00003240 		.word	1077018624
 572 00f0 00000000 		.word	0
 573 00f4 00003040 		.word	1076887552
 574 00f8 00000000 		.word	0
 575 00fc 00002C40 		.word	1076625408
 576 0100 00000000 		.word	0
 577 0104 00002A40 		.word	1076494336
 578 0108 00000000 		.word	0
 579 010c 00002840 		.word	1076363264
 580 0110 00000000 		.word	0
 581 0114 00002640 		.word	1076232192
 582 0118 00000000 		.word	0
 583 011c 00002440 		.word	1076101120
 584 0120 00000000 		.word	0
 585 0124 00002240 		.word	1075970048
 586 0128 00000000 		.word	0
 587 012c 00002240 		.word	1075970048
 588 0130 00000000 		.word	0
 589 0134 00002240 		.word	1075970048
 590 0138 00000000 		.word	0
 591 013c 00002240 		.word	1075970048
 592 0140 00000000 		.word	0
 593 0144 00002240 		.word	1075970048
 594 0148 00000000 		.word	0
 595 014c 00002240 		.word	1075970048
 596 0150 00000000 		.word	0
 597 0154 00002240 		.word	1075970048
 598 0158 00000000 		.word	0
 599 015c 00002240 		.word	1075970048
 600 0160 00000000 		.word	0
 601 0164 00002440 		.word	1076101120
 602 0168 00000000 		.word	0
 603 016c 00002440 		.word	1076101120
 604 0170 00000000 		.word	0
 605 0174 00002440 		.word	1076101120
 606 0178 00000000 		.word	0
 607 017c 00002440 		.word	1076101120
 608 0180 00000000 		.word	0
 609 0184 00002440 		.word	1076101120
 610 0188 00000000 		.word	0
 611 018c 00002640 		.word	1076232192
 612 0190 00000000 		.word	0
 613 0194 00002640 		.word	1076232192
 614 0198 00000000 		.word	0
 615 019c 00002640 		.word	1076232192
 616 01a0 00000000 		.word	0
 617 01a4 00002640 		.word	1076232192
 618 01a8 00000000 		.word	0
 619 01ac 00002640 		.word	1076232192
 620 01b0 00000000 		.word	0
 621 01b4 00002640 		.word	1076232192
 622 01b8 00000000 		.word	0
 623 01bc 00002640 		.word	1076232192
 624 01c0 00000000 		.word	0
ARM GAS  /tmp/ccRqpCax.s 			page 12


 625 01c4 00002840 		.word	1076363264
 626 01c8 00000000 		.word	0
 627 01cc 00002840 		.word	1076363264
 628 01d0 00000000 		.word	0
 629 01d4 00002840 		.word	1076363264
 630 01d8 00000000 		.word	0
 631 01dc 00002840 		.word	1076363264
 632 01e0 00000000 		.word	0
 633 01e4 00002840 		.word	1076363264
 634 01e8 00000000 		.word	0
 635 01ec 00002840 		.word	1076363264
 636 01f0 00000000 		.word	0
 637 01f4 00002A40 		.word	1076494336
 638 01f8 00000000 		.word	0
 639 01fc 00002A40 		.word	1076494336
 640 0200 00000000 		.word	0
 641 0204 00002A40 		.word	1076494336
 642 0208 00000000 		.word	0
 643 020c 00002A40 		.word	1076494336
 644 0210 00000000 		.word	0
 645 0214 00002C40 		.word	1076625408
 646 0218 00000000 		.word	0
 647 021c 00002C40 		.word	1076625408
 648 0220 00000000 		.word	0
 649 0224 00002C40 		.word	1076625408
 650 0228 00000000 		.word	0
 651 022c 00002E40 		.word	1076756480
 652 0230 00000000 		.word	0
 653 0234 00002E40 		.word	1076756480
 654 0238 00000000 		.word	0
 655 023c 00002E40 		.word	1076756480
 656 0240 00000000 		.word	0
 657 0244 00002E40 		.word	1076756480
 658 0248 00000000 		.word	0
 659 024c 00003040 		.word	1076887552
 660 0250 00000000 		.word	0
 661 0254 00003040 		.word	1076887552
 662 0258 00000000 		.word	0
 663 025c 00003040 		.word	1076887552
 664 0260 00000000 		.word	0
 665 0264 00003040 		.word	1076887552
 666 0268 00000000 		.word	0
 667 026c 00003040 		.word	1076887552
 668 0270 00000000 		.word	0
 669 0274 00003140 		.word	1076953088
 670 0278 00000000 		.word	0
 671 027c 00003140 		.word	1076953088
 672 0280 00000000 		.word	0
 673 0284 00003140 		.word	1076953088
 674 0288 00000000 		.word	0
 675 028c 00003140 		.word	1076953088
 676 0290 00000000 		.word	0
 677 0294 00003140 		.word	1076953088
 678 0298 00000000 		.word	0
 679 029c 00003140 		.word	1076953088
 680 02a0 00000000 		.word	0
 681 02a4 00003140 		.word	1076953088
ARM GAS  /tmp/ccRqpCax.s 			page 13


 682 02a8 00000000 		.word	0
 683 02ac 00003140 		.word	1076953088
 684 02b0 00000000 		.word	0
 685 02b4 00003040 		.word	1076887552
 686 02b8 00000000 		.word	0
 687 02bc 00003040 		.word	1076887552
 688 02c0 00000000 		.word	0
 689 02c4 00002E40 		.word	1076756480
 690 02c8 00000000 		.word	0
 691 02cc 00002C40 		.word	1076625408
 692 02d0 66666666 		.word	1717986918
 693 02d4 66662B40 		.word	1076586086
 694 02d8 33333333 		.word	858993459
 695 02dc 33332A40 		.word	1076507443
 696 02e0 66666666 		.word	1717986918
 697 02e4 66662940 		.word	1076455014
 698 02e8 00000000 		.word	0
 699 02ec 00002940 		.word	1076428800
 700 02f0 00000000 		.word	0
 701 02f4 00002940 		.word	1076428800
 702 02f8 00000000 		.word	0
 703 02fc 00002940 		.word	1076428800
 704 0300 00000000 		.word	0
 705 0304 00002940 		.word	1076428800
 706 0308 00000000 		.word	0
 707 030c 00002940 		.word	1076428800
 708 0310 00000000 		.word	0
 709 0314 00002940 		.word	1076428800
 710 0318 9A999999 		.word	2576980378
 711 031c 99992840 		.word	1076402585
 712 0320 00000000 		.word	0
 713 0324 00002840 		.word	1076363264
 714 0328 CDCCCCCC 		.word	3435973837
 715 032c CCCC2640 		.word	1076284620
 716 0330 33333333 		.word	858993459
 717 0334 33332540 		.word	1076179763
 718 0338 33333333 		.word	858993459
 719 033c 33332340 		.word	1076048691
 720 0340 33333333 		.word	858993459
 721 0344 33332140 		.word	1075917619
 722 0348 00000000 		.word	0
 723 034c 00001E40 		.word	1075707904
 724 0350 66666666 		.word	1717986918
 725 0354 66661A40 		.word	1075471974
 726 0358 00000000 		.word	0
 727 035c 00001840 		.word	1075314688
 728 0360 CDCCCCCC 		.word	3435973837
 729 0364 CCCC1640 		.word	1075236044
 730 0368 66666666 		.word	1717986918
 731 036c 66661640 		.word	1075209830
 732 0370 CDCCCCCC 		.word	3435973837
 733 0374 CCCC1640 		.word	1075236044
 734 0378 9A999999 		.word	2576980378
 735 037c 99991740 		.word	1075288473
 736 0380 CDCCCCCC 		.word	3435973837
 737 0384 CCCC1840 		.word	1075367116
 738 0388 00000000 		.word	0
ARM GAS  /tmp/ccRqpCax.s 			page 14


 739 038c 00001A40 		.word	1075445760
 740 0390 33333333 		.word	858993459
 741 0394 33331B40 		.word	1075524403
 742 0398 66666666 		.word	1717986918
 743 039c 66661C40 		.word	1075603046
 744 03a0 33333333 		.word	858993459
 745 03a4 33331D40 		.word	1075655475
 746 03a8 00000000 		.word	0
 747 03ac 00001E40 		.word	1075707904
 748 03b0 CDCCCCCC 		.word	3435973837
 749 03b4 CCCC1E40 		.word	1075760332
 750 03b8 33333333 		.word	858993459
 751 03bc 33331F40 		.word	1075786547
 752 03c0 9A999999 		.word	2576980378
 753 03c4 99991F40 		.word	1075812761
 754 03c8 00000000 		.word	0
 755 03cc 00001E40 		.word	1075707904
 756 03d0 9A999999 		.word	2576980378
 757 03d4 99991940 		.word	1075419545
 758 03d8 9A999999 		.word	2576980378
 759 03dc 99991540 		.word	1075157401
 760 03e0 33333333 		.word	858993459
 761 03e4 33330740 		.word	1074213683
 762 03e8 9A999999 		.word	2576980378
 763 03ec 9999F93F 		.word	1073322393
 764 03f0 00000000 		.word	0
 765 03f4 0000F0BF 		.word	-1074790400
 766 03f8 9A999999 		.word	2576980378
 767 03fc 999905C0 		.word	-1073374823
 768 0400 CDCCCCCC 		.word	3435973837
 769 0404 CCCC0CC0 		.word	-1072902964
 770 0408 CDCCCCCC 		.word	3435973837
 771 040c CCCC12C0 		.word	-1072509748
 772 0410 9A999999 		.word	2576980378
 773 0414 999915C0 		.word	-1072326247
 774 0418 CDCCCCCC 		.word	3435973837
 775 041c CCCC14C0 		.word	-1072378676
 776 0420 00000000 		.word	0
 777 0424 000016C0 		.word	-1072300032
 778 0428 66666666 		.word	1717986918
 779 042c 666616C0 		.word	-1072273818
 780 0430 33333333 		.word	858993459
 781 0434 333317C0 		.word	-1072221389
 782 0438 9A999999 		.word	2576980378
 783 043c 999917C0 		.word	-1072195175
 784 0440 CDCCCCCC 		.word	3435973837
 785 0444 CCCC18C0 		.word	-1072116532
 786 0448 9A999999 		.word	2576980378
 787 044c 999919C0 		.word	-1072064103
 788 0450 66666666 		.word	1717986918
 789 0454 666618C0 		.word	-1072142746
 790 0458 CDCCCCCC 		.word	3435973837
 791 045c CCCC12C0 		.word	-1072509748
 792 0460 9A999999 		.word	2576980378
 793 0464 999905C0 		.word	-1073374823
 794 0468 00000000 		.word	0
 795 046c 00000000 		.word	0
ARM GAS  /tmp/ccRqpCax.s 			page 15


 796 0470 CDCCCCCC 		.word	3435973837
 797 0474 CCCC0440 		.word	1074056396
 798 0478 9A999999 		.word	2576980378
 799 047c 99991540 		.word	1075157401
 800 0480 CDCCCCCC 		.word	3435973837
 801 0484 CCCC1E40 		.word	1075760332
 802 0488 00000000 		.word	0
 803 048c 00002540 		.word	1076166656
 804 0490 CDCCCCCC 		.word	3435973837
 805 0494 CCCC2A40 		.word	1076546764
 806 0498 00000000 		.word	0
 807 049c 00003040 		.word	1076887552
 808 04a0 33333333 		.word	858993459
 809 04a4 33333240 		.word	1077031731
 810 04a8 33333333 		.word	858993459
 811 04ac 33333440 		.word	1077162803
 812 04b0 33333333 		.word	858993459
 813 04b4 33333540 		.word	1077228339
 814 04b8 66666666 		.word	1717986918
 815 04bc 66663640 		.word	1077306982
 816 04c0 00000000 		.word	0
 817 04c4 00803740 		.word	1077379072
 818 04c8 66666666 		.word	1717986918
 819 04cc 66E63740 		.word	1077405286
 820 04d0 CDCCCCCC 		.word	3435973837
 821 04d4 CC4C3840 		.word	1077431500
 822 04d8 00000000 		.word	0
 823 04dc 00003840 		.word	1077411840
 824 04e0 66666666 		.word	1717986918
 825 04e4 66E63740 		.word	1077405286
 826 04e8 66666666 		.word	1717986918
 827 04ec 66E63740 		.word	1077405286
 828 04f0 33333333 		.word	858993459
 829 04f4 33B33740 		.word	1077392179
 830 04f8 00000000 		.word	0
 831 04fc 00003840 		.word	1077411840
 832 0500 CDCCCCCC 		.word	3435973837
 833 0504 CC4C3840 		.word	1077431500
 834 0508 CDCCCCCC 		.word	3435973837
 835 050c CC4C3940 		.word	1077497036
 836 0510 33333333 		.word	858993459
 837 0514 33333A40 		.word	1077556019
 838 0518 CDCCCCCC 		.word	3435973837
 839 051c CC4C3B40 		.word	1077628108
 840 0520 33333333 		.word	858993459
 841 0524 33333C40 		.word	1077687091
 842 0528 9A999999 		.word	2576980378
 843 052c 99193D40 		.word	1077746073
 844 0530 00000000 		.word	0
 845 0534 00003E40 		.word	1077805056
 846 0538 33333333 		.word	858993459
 847 053c 33B33E40 		.word	1077850931
 848 0540 66666666 		.word	1717986918
 849 0544 66663F40 		.word	1077896806
 850 0548 9A999999 		.word	2576980378
 851 054c 99194040 		.word	1077942681
 852 0550 CDCCCCCC 		.word	3435973837
ARM GAS  /tmp/ccRqpCax.s 			page 16


 853 0554 CC8C4040 		.word	1077972172
 854 0558 00000000 		.word	0
 855 055c 00004140 		.word	1078001664
 856 0560 00000000 		.word	0
 857 0564 00804140 		.word	1078034432
 858 0568 00000000 		.word	0
 859 056c 00404240 		.word	1078083584
 860 0570 66666666 		.word	1717986918
 861 0574 66264340 		.word	1078142566
 862 0578 9A999999 		.word	2576980378
 863 057c 99194440 		.word	1078204825
 864 0580 9A999999 		.word	2576980378
 865 0584 99194540 		.word	1078270361
 866 0588 00000000 		.word	0
 867 058c 00404640 		.word	1078345728
 868 0590 00000000 		.word	0
 869 0594 00404740 		.word	1078411264
 870 0598 00000000 		.word	0
 871 059c 00404840 		.word	1078476800
 872 05a0 00000000 		.word	0
 873 05a4 00404940 		.word	1078542336
 874 05a8 9A999999 		.word	2576980378
 875 05ac 99194A40 		.word	1078598041
 876 05b0 66666666 		.word	1717986918
 877 05b4 66E64A40 		.word	1078650470
 878 05b8 33333333 		.word	858993459
 879 05bc 33734B40 		.word	1078686515
 880 05c0 66666666 		.word	1717986918
 881 05c4 66E64B40 		.word	1078716006
 882 05c8 33333333 		.word	858993459
 883 05cc 33734C40 		.word	1078752051
 884 05d0 66666666 		.word	1717986918
 885 05d4 66264D40 		.word	1078797926
 886 05d8 00000000 		.space	40
 886      00000000 
 886      00000000 
 886      00000000 
 886      00000000 
 887              		.text
 888              	.Letext0: