ARM GAS  /tmp/cctkbEOJ.s 			page 1


   1              		.syntax unified
   2              		.cpu cortex-m4
   3              		.fpu softvfp
   4              		.eabi_attribute 20, 1
   5              		.eabi_attribute 21, 1
   6              		.eabi_attribute 23, 3
   7              		.eabi_attribute 24, 1
   8              		.eabi_attribute 25, 1
   9              		.eabi_attribute 26, 1
  10              		.eabi_attribute 30, 2
  11              		.eabi_attribute 34, 1
  12              		.eabi_attribute 18, 4
  13              		.thumb
  14              		.file	"elliptic_motion.c"
  15              		.text
  16              	.Ltext0:
  17              		.cfi_sections	.debug_frame
  18              		.global	__aeabi_dcmpeq
  19              		.global	__aeabi_dcmplt
  20              		.global	__aeabi_ddiv
  21              		.global	__aeabi_d2iz
  22              		.global	__aeabi_i2d
  23              		.global	__aeabi_dsub
  24              		.global	__aeabi_dadd
  25              		.global	__aeabi_dmul
  26              		.global	__aeabi_dcmpgt
  27              		.section	.text.ln_solve_kepler,"ax",%progbits
  28              		.align	2
  29              		.p2align 4,,15
  30              		.global	ln_solve_kepler
  31              		.thumb
  32              		.thumb_func
  33              		.type	ln_solve_kepler, %function
  34              	ln_solve_kepler:
  35              	.LFB1:
  36              		.file 1 "./libnova/src/elliptic_motion.c"
  37              		.loc 1 54 0
  38              		.cfi_startproc
  39              		@ args = 0, pretend = 0, frame = 24
  40              		@ frame_needed = 0, uses_anonymous_args = 0
  41              	.LVL0:
  42 0000 2DE9F047 		push	{r4, r5, r6, r7, r8, r9, sl, lr}
  43              	.LCFI0:
  44              		.cfi_def_cfa_offset 32
  45              		.cfi_offset 4, -32
  46              		.cfi_offset 5, -28
  47              		.cfi_offset 6, -24
  48              		.cfi_offset 7, -20
  49              		.cfi_offset 8, -16
  50              		.cfi_offset 9, -12
  51              		.cfi_offset 10, -8
  52              		.cfi_offset 14, -4
  53 0004 86B0     		sub	sp, sp, #24
  54              	.LCFI1:
  55              		.cfi_def_cfa_offset 56
  56              		.loc 1 54 0
  57 0006 CDE90201 		strd	r0, [sp, #8]
ARM GAS  /tmp/cctkbEOJ.s 			page 2


  58              		.loc 1 61 0
  59 000a 1046     		mov	r0, r2
  60              	.LVL1:
  61 000c 1946     		mov	r1, r3
  62 000e FFF7FEFF 		bl	ln_deg_to_rad
  63              	.LVL2:
  64              	.LBB12:
  65              	.LBB13:
  66              		.loc 1 36 0
  67 0012 0022     		movs	r2, #0
  68 0014 0023     		movs	r3, #0
  69              	.LBE13:
  70              	.LBE12:
  71              		.loc 1 61 0
  72 0016 8146     		mov	r9, r0
  73 0018 0E46     		mov	r6, r1
  74              	.LVL3:
  75              	.LBB16:
  76              	.LBB14:
  77              		.loc 1 36 0
  78 001a FFF7FEFF 		bl	__aeabi_dcmpeq
  79              	.LVL4:
  80 001e 0446     		mov	r4, r0
  81 0020 0028     		cmp	r0, #0
  82 0022 40F00281 		bne	.L13
  83              		.loc 1 39 0
  84 0026 3146     		mov	r1, r6
  85 0028 4846     		mov	r0, r9
  86 002a 0022     		movs	r2, #0
  87 002c 0023     		movs	r3, #0
  88 002e FFF7FEFF 		bl	__aeabi_dcmplt
  89              	.LVL5:
  90              		.loc 1 42 0
  91 0032 0027     		movs	r7, #0
  92 0034 3946     		mov	r1, r7
  93 0036 C3F6F071 		movt	r1, 16368
  94 003a CBF6F077 		movt	r7, 49136
  95 003e A046     		mov	r8, r4
  96 0040 0028     		cmp	r0, #0
  97 0042 08BF     		it	eq
  98 0044 0F46     		moveq	r7, r1
  99              	.L2:
 100              	.LBE14:
 101              	.LBE16:
 102              		.loc 1 64 0
 103 0046 80A3     		adr	r3, .L30
 104 0048 D3E90023 		ldrd	r2, [r3]
 105 004c 26F00041 		bic	r1, r6, #-2147483648
 106 0050 4846     		mov	r0, r9
 107 0052 FFF7FEFF 		bl	__aeabi_ddiv
 108              	.LVL6:
 109 0056 0D46     		mov	r5, r1
 110              	.LVL7:
 111 0058 0646     		mov	r6, r0
 112              	.LVL8:
 113              		.loc 1 65 0
 114 005a FFF7FEFF 		bl	__aeabi_d2iz
ARM GAS  /tmp/cctkbEOJ.s 			page 3


 115              	.LVL9:
 116 005e FFF7FEFF 		bl	__aeabi_i2d
 117              	.LVL10:
 118 0062 0246     		mov	r2, r0
 119 0064 0B46     		mov	r3, r1
 120 0066 3046     		mov	r0, r6
 121 0068 2946     		mov	r1, r5
 122 006a FFF7FEFF 		bl	__aeabi_dsub
 123              	.LVL11:
 124 006e 0246     		mov	r2, r0
 125 0070 0B46     		mov	r3, r1
 126 0072 FFF7FEFF 		bl	__aeabi_dadd
 127              	.LVL12:
 128 0076 76A3     		adr	r3, .L30+8
 129 0078 D3E90023 		ldrd	r2, [r3]
 130 007c FFF7FEFF 		bl	__aeabi_dmul
 131              	.LVL13:
 132 0080 4246     		mov	r2, r8
 133 0082 3B46     		mov	r3, r7
 134 0084 FFF7FEFF 		bl	__aeabi_dmul
 135              	.LVL14:
 136              		.loc 1 67 0
 137 0088 0022     		movs	r2, #0
 138 008a 0023     		movs	r3, #0
 139              		.loc 1 65 0
 140 008c CDE90001 		strd	r0, [sp]
 141              	.LVL15:
 142              		.loc 1 67 0
 143 0090 FFF7FEFF 		bl	__aeabi_dcmplt
 144              	.LVL16:
 145 0094 0028     		cmp	r0, #0
 146 0096 40F0CB80 		bne	.L29
 147              	.L4:
 148              	.LVL17:
 149              		.loc 1 71 0
 150 009a DDE90001 		ldrd	r0, [sp]
 151 009e 6CA3     		adr	r3, .L30+8
 152 00a0 D3E90023 		ldrd	r2, [r3]
 153 00a4 FFF7FEFF 		bl	__aeabi_dcmpgt
 154              	.LVL18:
 155 00a8 0028     		cmp	r0, #0
 156 00aa 40F0AE80 		bne	.L15
 157              		.loc 1 69 0
 158 00ae 0023     		movs	r3, #0
 159 00b0 0022     		movs	r2, #0
 160 00b2 C3F6F073 		movt	r3, 16368
 161 00b6 CDE90423 		strd	r2, [sp, #16]
 162              	.L7:
 163              	.LVL19:
 164 00ba 0023     		movs	r3, #0
 165              		.loc 1 57 0
 166 00bc 0FF29819 		adr	r9, .L30+16
 167 00c0 D9E90089 		ldrd	r8, [r9]
 168              		.loc 1 55 0
 169 00c4 66A5     		adr	r5, .L30+24
 170 00c6 D5E90045 		ldrd	r4, [r5]
 171              		.loc 1 69 0
ARM GAS  /tmp/cctkbEOJ.s 			page 4


 172 00ca 4FF0350A 		mov	sl, #53
 173 00ce 0022     		movs	r2, #0
 174 00d0 C3F6F073 		movt	r3, 16368
 175 00d4 65E0     		b	.L12
 176              	.LVL20:
 177              	.L26:
 178              	.LBB17:
 179              	.LBB18:
 180              		.loc 1 42 0
 181 00d6 C3F6F077 		movt	r7, 16368
 182              	.L9:
 183              	.LBE18:
 184              	.LBE17:
 185              		.loc 1 79 0
 186 00da 4046     		mov	r0, r8
 187 00dc 4946     		mov	r1, r9
 188 00de 3246     		mov	r2, r6
 189 00e0 3B46     		mov	r3, r7
 190 00e2 FFF7FEFF 		bl	__aeabi_dmul
 191              	.LVL21:
 192 00e6 0246     		mov	r2, r0
 193 00e8 0B46     		mov	r3, r1
 194 00ea 2046     		mov	r0, r4
 195 00ec 2946     		mov	r1, r5
 196 00ee FFF7FEFF 		bl	__aeabi_dadd
 197              	.LVL22:
 198              		.loc 1 80 0
 199 00f2 0023     		movs	r3, #0
 200 00f4 0022     		movs	r2, #0
 201              		.loc 1 79 0
 202 00f6 0446     		mov	r4, r0
 203 00f8 0D46     		mov	r5, r1
 204              		.loc 1 80 0
 205 00fa 4046     		mov	r0, r8
 206 00fc 4946     		mov	r1, r9
 207 00fe C3F6E073 		movt	r3, 16352
 208 0102 FFF7FEFF 		bl	__aeabi_dmul
 209              	.LVL23:
 210              		.loc 1 77 0
 211 0106 BAF1010A 		subs	sl, sl, #1
 212              		.loc 1 80 0
 213 010a 8046     		mov	r8, r0
 214 010c 8946     		mov	r9, r1
 215              		.loc 1 77 0
 216 010e 71D0     		beq	.L11
 217              		.loc 1 53 0
 218 0110 2046     		mov	r0, r4
 219 0112 2946     		mov	r1, r5
 220 0114 FFF7FEFF 		bl	sin
 221              	.LVL24:
 222 0118 0246     		mov	r2, r0
 223 011a 0B46     		mov	r3, r1
 224              		.loc 1 78 0
 225 011c DDE90201 		ldrd	r0, [sp, #8]
 226 0120 FFF7FEFF 		bl	__aeabi_dmul
 227              	.LVL25:
 228 0124 0246     		mov	r2, r0
ARM GAS  /tmp/cctkbEOJ.s 			page 5


 229 0126 0B46     		mov	r3, r1
 230 0128 2046     		mov	r0, r4
 231 012a 2946     		mov	r1, r5
 232 012c FFF7FEFF 		bl	__aeabi_dsub
 233              	.LVL26:
 234 0130 0246     		mov	r2, r0
 235 0132 0B46     		mov	r3, r1
 236              		.loc 1 79 0
 237 0134 DDE90001 		ldrd	r0, [sp]
 238 0138 FFF7FEFF 		bl	__aeabi_dsub
 239              	.LVL27:
 240              	.LBB23:
 241              	.LBB19:
 242              		.loc 1 36 0
 243 013c 0022     		movs	r2, #0
 244 013e 0023     		movs	r3, #0
 245              	.LBE19:
 246              	.LBE23:
 247              		.loc 1 79 0
 248 0140 0646     		mov	r6, r0
 249 0142 0F46     		mov	r7, r1
 250              	.LBB24:
 251              	.LBB20:
 252              		.loc 1 36 0
 253 0144 FFF7FEFF 		bl	__aeabi_dcmpeq
 254              	.LVL28:
 255 0148 58B9     		cbnz	r0, .L23
 256              		.loc 1 39 0
 257 014a 3046     		mov	r0, r6
 258 014c 3946     		mov	r1, r7
 259 014e 0022     		movs	r2, #0
 260 0150 0023     		movs	r3, #0
 261 0152 FFF7FEFF 		bl	__aeabi_dcmplt
 262              	.LVL29:
 263              		.loc 1 40 0
 264 0156 0026     		movs	r6, #0
 265 0158 0027     		movs	r7, #0
 266              		.loc 1 39 0
 267 015a 0028     		cmp	r0, #0
 268 015c 47D1     		bne	.L24
 269              		.loc 1 42 0
 270 015e C3F6F077 		movt	r7, 16368
 271              	.L23:
 272              	.LBE20:
 273              	.LBE24:
 274              		.loc 1 79 0
 275 0162 4046     		mov	r0, r8
 276 0164 4946     		mov	r1, r9
 277 0166 3246     		mov	r2, r6
 278 0168 3B46     		mov	r3, r7
 279 016a FFF7FEFF 		bl	__aeabi_dmul
 280              	.LVL30:
 281 016e 0246     		mov	r2, r0
 282 0170 0B46     		mov	r3, r1
 283 0172 2046     		mov	r0, r4
 284 0174 2946     		mov	r1, r5
 285 0176 FFF7FEFF 		bl	__aeabi_dadd
ARM GAS  /tmp/cctkbEOJ.s 			page 6


 286              	.LVL31:
 287              		.loc 1 80 0
 288 017a 0023     		movs	r3, #0
 289 017c 0022     		movs	r2, #0
 290 017e C3F6E073 		movt	r3, 16352
 291              		.loc 1 79 0
 292 0182 0446     		mov	r4, r0
 293 0184 0D46     		mov	r5, r1
 294              	.LVL32:
 295              		.loc 1 80 0
 296 0186 4046     		mov	r0, r8
 297 0188 4946     		mov	r1, r9
 298 018a FFF7FEFF 		bl	__aeabi_dmul
 299              	.LVL33:
 300 018e 8046     		mov	r8, r0
 301 0190 8946     		mov	r9, r1
 302              	.LVL34:
 303              		.loc 1 53 0
 304 0192 2046     		mov	r0, r4
 305 0194 2946     		mov	r1, r5
 306 0196 FFF7FEFF 		bl	sin
 307              	.LVL35:
 308 019a 0AF1FF3A 		add	sl, sl, #-1
 309 019e 0246     		mov	r2, r0
 310 01a0 0B46     		mov	r3, r1
 311              	.LVL36:
 312              	.L12:
 313              		.loc 1 78 0 discriminator 2
 314 01a2 DDE90201 		ldrd	r0, [sp, #8]
 315 01a6 FFF7FEFF 		bl	__aeabi_dmul
 316              	.LVL37:
 317 01aa 0246     		mov	r2, r0
 318 01ac 0B46     		mov	r3, r1
 319 01ae 2046     		mov	r0, r4
 320 01b0 2946     		mov	r1, r5
 321 01b2 FFF7FEFF 		bl	__aeabi_dsub
 322              	.LVL38:
 323 01b6 0246     		mov	r2, r0
 324 01b8 0B46     		mov	r3, r1
 325              		.loc 1 79 0 discriminator 2
 326 01ba DDE90001 		ldrd	r0, [sp]
 327 01be FFF7FEFF 		bl	__aeabi_dsub
 328              	.LVL39:
 329              	.LBB25:
 330              	.LBB21:
 331              		.loc 1 36 0 discriminator 2
 332 01c2 0022     		movs	r2, #0
 333 01c4 0023     		movs	r3, #0
 334              	.LBE21:
 335              	.LBE25:
 336              		.loc 1 79 0 discriminator 2
 337 01c6 0646     		mov	r6, r0
 338 01c8 0F46     		mov	r7, r1
 339              	.LVL40:
 340              	.LBB26:
 341              	.LBB22:
 342              		.loc 1 36 0 discriminator 2
ARM GAS  /tmp/cctkbEOJ.s 			page 7


 343 01ca FFF7FEFF 		bl	__aeabi_dcmpeq
 344              	.LVL41:
 345 01ce 0028     		cmp	r0, #0
 346 01d0 83D1     		bne	.L9
 347              		.loc 1 39 0
 348 01d2 3046     		mov	r0, r6
 349 01d4 3946     		mov	r1, r7
 350 01d6 0022     		movs	r2, #0
 351 01d8 0023     		movs	r3, #0
 352 01da FFF7FEFF 		bl	__aeabi_dcmplt
 353              	.LVL42:
 354              		.loc 1 40 0
 355 01de 0026     		movs	r6, #0
 356              	.LVL43:
 357 01e0 0027     		movs	r7, #0
 358              		.loc 1 39 0
 359 01e2 0028     		cmp	r0, #0
 360 01e4 3FF477AF 		beq	.L26
 361              		.loc 1 40 0
 362 01e8 CBF6F077 		movt	r7, 49136
 363 01ec 75E7     		b	.L9
 364              	.L24:
 365 01ee CBF6F077 		movt	r7, 49136
 366 01f2 B6E7     		b	.L23
 367              	.L11:
 368              	.LBE22:
 369              	.LBE26:
 370              		.loc 1 82 0
 371 01f4 DDE90401 		ldrd	r0, [sp, #16]
 372 01f8 2246     		mov	r2, r4
 373 01fa 2B46     		mov	r3, r5
 374 01fc FFF7FEFF 		bl	__aeabi_dmul
 375              	.LVL44:
 376              		.loc 1 87 0
 377 0200 06B0     		add	sp, sp, #24
 378 0202 BDE8F047 		pop	{r4, r5, r6, r7, r8, r9, sl, lr}
 379              		.loc 1 85 0
 380 0206 FFF7FEBF 		b	ln_rad_to_deg
 381              	.LVL45:
 382              	.L15:
 383              		.loc 1 75 0
 384 020a DDE90023 		ldrd	r2, [sp]
 385 020e 0EA1     		adr	r1, .L30
 386 0210 D1E90001 		ldrd	r0, [r1]
 387 0214 FFF7FEFF 		bl	__aeabi_dsub
 388              	.LVL46:
 389              		.loc 1 72 0
 390 0218 0023     		movs	r3, #0
 391 021a 0022     		movs	r2, #0
 392 021c CBF6F073 		movt	r3, 49136
 393              		.loc 1 75 0
 394 0220 CDE90001 		strd	r0, [sp]
 395              	.LVL47:
 396              		.loc 1 72 0
 397 0224 CDE90423 		strd	r2, [sp, #16]
 398 0228 47E7     		b	.L7
 399              	.LVL48:
ARM GAS  /tmp/cctkbEOJ.s 			page 8


 400              	.L13:
 401              	.LBB27:
 402              	.LBB15:
 403              		.loc 1 37 0
 404 022a C846     		mov	r8, r9
 405 022c 3746     		mov	r7, r6
 406 022e 0AE7     		b	.L2
 407              	.LVL49:
 408              	.L29:
 409              	.LBE15:
 410              	.LBE27:
 411              		.loc 1 68 0
 412 0230 DDE90001 		ldrd	r0, [sp]
 413 0234 04A3     		adr	r3, .L30
 414 0236 D3E90023 		ldrd	r2, [r3]
 415 023a FFF7FEFF 		bl	__aeabi_dadd
 416              	.LVL50:
 417 023e CDE90001 		strd	r0, [sp]
 418              	.LVL51:
 419 0242 2AE7     		b	.L4
 420              	.L31:
 421 0244 AFF30080 		.align	3
 422              	.L30:
 423 0248 182D4454 		.word	1413754136
 424 024c FB211940 		.word	1075388923
 425 0250 182D4454 		.word	1413754136
 426 0254 FB210940 		.word	1074340347
 427 0258 182D4454 		.word	1413754136
 428 025c FB21E93F 		.word	1072243195
 429 0260 182D4454 		.word	1413754136
 430 0264 FB21F93F 		.word	1073291771
 431              		.cfi_endproc
 432              	.LFE1:
 433              		.size	ln_solve_kepler, .-ln_solve_kepler
 434 0268 AFF30080 		.section	.text.ln_get_ell_mean_anomaly,"ax",%progbits
 434      AFF30080 
 435              		.align	2
 436              		.p2align 4,,15
 437              		.global	ln_get_ell_mean_anomaly
 438              		.thumb
 439              		.thumb_func
 440              		.type	ln_get_ell_mean_anomaly, %function
 441              	ln_get_ell_mean_anomaly:
 442              	.LFB2:
 443              		.loc 1 97 0
 444              		.cfi_startproc
 445              		@ args = 0, pretend = 0, frame = 0
 446              		@ frame_needed = 0, uses_anonymous_args = 0
 447              	.LVL52:
 448 0000 38B5     		push	{r3, r4, r5, lr}
 449              	.LCFI2:
 450              		.cfi_def_cfa_offset 16
 451              		.cfi_offset 3, -16
 452              		.cfi_offset 4, -12
 453              		.cfi_offset 5, -8
 454              		.cfi_offset 14, -4
 455              		.loc 1 97 0
ARM GAS  /tmp/cctkbEOJ.s 			page 9


 456 0002 0446     		mov	r4, r0
 457 0004 0D46     		mov	r5, r1
 458              		.loc 1 98 0
 459 0006 1046     		mov	r0, r2
 460              	.LVL53:
 461 0008 1946     		mov	r1, r3
 462 000a 2246     		mov	r2, r4
 463              	.LVL54:
 464 000c 2B46     		mov	r3, r5
 465 000e FFF7FEFF 		bl	__aeabi_dmul
 466              	.LVL55:
 467              		.loc 1 99 0
 468 0012 38BD     		pop	{r3, r4, r5, pc}
 469              		.cfi_endproc
 470              	.LFE2:
 471              		.size	ln_get_ell_mean_anomaly, .-ln_get_ell_mean_anomaly
 472 0014 AFF30080 		.section	.text.ln_get_ell_true_anomaly,"ax",%progbits
 472      AFF30080 
 472      AFF30080 
 473              		.align	2
 474              		.p2align 4,,15
 475              		.global	ln_get_ell_true_anomaly
 476              		.thumb
 477              		.thumb_func
 478              		.type	ln_get_ell_true_anomaly, %function
 479              	ln_get_ell_true_anomaly:
 480              	.LFB3:
 481              		.loc 1 110 0
 482              		.cfi_startproc
 483              		@ args = 0, pretend = 0, frame = 0
 484              		@ frame_needed = 0, uses_anonymous_args = 0
 485              	.LVL56:
 486 0000 2DE9F843 		push	{r3, r4, r5, r6, r7, r8, r9, lr}
 487              	.LCFI3:
 488              		.cfi_def_cfa_offset 32
 489              		.cfi_offset 3, -32
 490              		.cfi_offset 4, -28
 491              		.cfi_offset 5, -24
 492              		.cfi_offset 6, -20
 493              		.cfi_offset 7, -16
 494              		.cfi_offset 8, -12
 495              		.cfi_offset 9, -8
 496              		.cfi_offset 14, -4
 497              		.loc 1 110 0
 498 0004 0446     		mov	r4, r0
 499 0006 0D46     		mov	r5, r1
 500              		.loc 1 113 0
 501 0008 1046     		mov	r0, r2
 502              	.LVL57:
 503 000a 1946     		mov	r1, r3
 504 000c FFF7FEFF 		bl	ln_deg_to_rad
 505              	.LVL58:
 506              		.loc 1 114 0
 507 0010 0023     		movs	r3, #0
 508              		.loc 1 113 0
 509 0012 0646     		mov	r6, r0
 510 0014 0F46     		mov	r7, r1
ARM GAS  /tmp/cctkbEOJ.s 			page 10


 511              	.LVL59:
 512              		.loc 1 114 0
 513 0016 0022     		movs	r2, #0
 514 0018 2046     		mov	r0, r4
 515 001a 2946     		mov	r1, r5
 516 001c C3F6F073 		movt	r3, 16368
 517 0020 FFF7FEFF 		bl	__aeabi_dadd
 518              	.LVL60:
 519 0024 8946     		mov	r9, r1
 520 0026 0021     		movs	r1, #0
 521 0028 8046     		mov	r8, r0
 522 002a 2246     		mov	r2, r4
 523 002c 2B46     		mov	r3, r5
 524 002e 0020     		movs	r0, #0
 525 0030 C3F6F071 		movt	r1, 16368
 526 0034 FFF7FEFF 		bl	__aeabi_dsub
 527              	.LVL61:
 528 0038 0246     		mov	r2, r0
 529 003a 0B46     		mov	r3, r1
 530 003c 4046     		mov	r0, r8
 531 003e 4946     		mov	r1, r9
 532 0040 FFF7FEFF 		bl	__aeabi_ddiv
 533              	.LVL62:
 534 0044 FFF7FEFF 		bl	sqrt
 535              	.LVL63:
 536 0048 0023     		movs	r3, #0
 537 004a 0022     		movs	r2, #0
 538 004c 0446     		mov	r4, r0
 539 004e 0D46     		mov	r5, r1
 540 0050 C3F6E073 		movt	r3, 16352
 541 0054 3046     		mov	r0, r6
 542 0056 3946     		mov	r1, r7
 543 0058 FFF7FEFF 		bl	__aeabi_dmul
 544              	.LVL64:
 545 005c FFF7FEFF 		bl	tan
 546              	.LVL65:
 547 0060 0246     		mov	r2, r0
 548 0062 0B46     		mov	r3, r1
 549              	.LVL66:
 550 0064 2046     		mov	r0, r4
 551 0066 2946     		mov	r1, r5
 552 0068 FFF7FEFF 		bl	__aeabi_dmul
 553              	.LVL67:
 554              		.loc 1 115 0
 555 006c FFF7FEFF 		bl	atan
 556              	.LVL68:
 557 0070 0246     		mov	r2, r0
 558 0072 0B46     		mov	r3, r1
 559 0074 FFF7FEFF 		bl	__aeabi_dadd
 560              	.LVL69:
 561              		.loc 1 116 0
 562 0078 FFF7FEFF 		bl	ln_rad_to_deg
 563              	.LVL70:
 564              		.loc 1 118 0
 565 007c BDE8F843 		pop	{r3, r4, r5, r6, r7, r8, r9, lr}
 566              		.loc 1 116 0
 567 0080 FFF7FEBF 		b	ln_range_degrees
ARM GAS  /tmp/cctkbEOJ.s 			page 11


 568              	.LVL71:
 569              		.cfi_endproc
 570              	.LFE3:
 571              		.size	ln_get_ell_true_anomaly, .-ln_get_ell_true_anomaly
 572 0084 AFF30080 		.section	.text.ln_get_ell_radius_vector,"ax",%progbits
 572      AFF30080 
 572      AFF30080 
 573              		.align	2
 574              		.p2align 4,,15
 575              		.global	ln_get_ell_radius_vector
 576              		.thumb
 577              		.thumb_func
 578              		.type	ln_get_ell_radius_vector, %function
 579              	ln_get_ell_radius_vector:
 580              	.LFB4:
 581              		.loc 1 130 0
 582              		.cfi_startproc
 583              		@ args = 8, pretend = 0, frame = 0
 584              		@ frame_needed = 0, uses_anonymous_args = 0
 585              	.LVL72:
 586 0000 F8B5     		push	{r3, r4, r5, r6, r7, lr}
 587              	.LCFI4:
 588              		.cfi_def_cfa_offset 24
 589              		.cfi_offset 3, -24
 590              		.cfi_offset 4, -20
 591              		.cfi_offset 5, -16
 592              		.cfi_offset 6, -12
 593              		.cfi_offset 7, -8
 594              		.cfi_offset 14, -4
 595              		.loc 1 130 0
 596 0002 0446     		mov	r4, r0
 597 0004 0D46     		mov	r5, r1
 598              		.loc 1 131 0
 599 0006 DDE90601 		ldrd	r0, [sp, #24]
 600              	.LVL73:
 601              		.loc 1 130 0
 602 000a 1646     		mov	r6, r2
 603 000c 1F46     		mov	r7, r3
 604              		.loc 1 131 0
 605 000e FFF7FEFF 		bl	ln_deg_to_rad
 606              	.LVL74:
 607 0012 FFF7FEFF 		bl	cos
 608              	.LVL75:
 609 0016 3246     		mov	r2, r6
 610 0018 3B46     		mov	r3, r7
 611 001a FFF7FEFF 		bl	__aeabi_dmul
 612              	.LVL76:
 613 001e 0B46     		mov	r3, r1
 614 0020 0021     		movs	r1, #0
 615 0022 0246     		mov	r2, r0
 616 0024 C3F6F071 		movt	r1, 16368
 617 0028 0020     		movs	r0, #0
 618 002a FFF7FEFF 		bl	__aeabi_dsub
 619              	.LVL77:
 620 002e 2246     		mov	r2, r4
 621 0030 2B46     		mov	r3, r5
 622 0032 FFF7FEFF 		bl	__aeabi_dmul
ARM GAS  /tmp/cctkbEOJ.s 			page 12


 623              	.LVL78:
 624              		.loc 1 132 0
 625 0036 F8BD     		pop	{r3, r4, r5, r6, r7, pc}
 626              		.cfi_endproc
 627              	.LFE4:
 628              		.size	ln_get_ell_radius_vector, .-ln_get_ell_radius_vector
 629 0038 AFF30080 		.section	.text.ln_get_ell_smajor_diam,"ax",%progbits
 629      AFF30080 
 630              		.align	2
 631              		.p2align 4,,15
 632              		.global	ln_get_ell_smajor_diam
 633              		.thumb
 634              		.thumb_func
 635              		.type	ln_get_ell_smajor_diam, %function
 636              	ln_get_ell_smajor_diam:
 637              	.LFB5:
 638              		.loc 1 143 0
 639              		.cfi_startproc
 640              		@ args = 0, pretend = 0, frame = 0
 641              		@ frame_needed = 0, uses_anonymous_args = 0
 642              	.LVL79:
 643 0000 F8B5     		push	{r3, r4, r5, r6, r7, lr}
 644              	.LCFI5:
 645              		.cfi_def_cfa_offset 24
 646              		.cfi_offset 3, -24
 647              		.cfi_offset 4, -20
 648              		.cfi_offset 5, -16
 649              		.cfi_offset 6, -12
 650              		.cfi_offset 7, -8
 651              		.cfi_offset 14, -4
 652              		.loc 1 143 0
 653 0002 0646     		mov	r6, r0
 654 0004 0F46     		mov	r7, r1
 655              		.loc 1 144 0
 656 0006 0021     		movs	r1, #0
 657              		.loc 1 143 0
 658 0008 1446     		mov	r4, r2
 659 000a 1D46     		mov	r5, r3
 660              		.loc 1 144 0
 661 000c 3246     		mov	r2, r6
 662              	.LVL80:
 663 000e 3B46     		mov	r3, r7
 664 0010 0020     		movs	r0, #0
 665              	.LVL81:
 666 0012 C3F6F071 		movt	r1, 16368
 667 0016 FFF7FEFF 		bl	__aeabi_dsub
 668              	.LVL82:
 669 001a 0246     		mov	r2, r0
 670 001c 0B46     		mov	r3, r1
 671 001e 2046     		mov	r0, r4
 672 0020 2946     		mov	r1, r5
 673 0022 FFF7FEFF 		bl	__aeabi_ddiv
 674              	.LVL83:
 675              		.loc 1 145 0
 676 0026 F8BD     		pop	{r3, r4, r5, r6, r7, pc}
 677              		.cfi_endproc
 678              	.LFE5:
ARM GAS  /tmp/cctkbEOJ.s 			page 13


 679              		.size	ln_get_ell_smajor_diam, .-ln_get_ell_smajor_diam
 680 0028 AFF30080 		.section	.text.ln_get_ell_sminor_diam,"ax",%progbits
 680      AFF30080 
 681              		.align	2
 682              		.p2align 4,,15
 683              		.global	ln_get_ell_sminor_diam
 684              		.thumb
 685              		.thumb_func
 686              		.type	ln_get_ell_sminor_diam, %function
 687              	ln_get_ell_sminor_diam:
 688              	.LFB6:
 689              		.loc 1 155 0
 690              		.cfi_startproc
 691              		@ args = 0, pretend = 0, frame = 0
 692              		@ frame_needed = 0, uses_anonymous_args = 0
 693              	.LVL84:
 694 0000 38B5     		push	{r3, r4, r5, lr}
 695              	.LCFI6:
 696              		.cfi_def_cfa_offset 16
 697              		.cfi_offset 3, -16
 698              		.cfi_offset 4, -12
 699              		.cfi_offset 5, -8
 700              		.cfi_offset 14, -4
 701              		.loc 1 155 0
 702 0002 1446     		mov	r4, r2
 703 0004 1D46     		mov	r5, r3
 704              		.loc 1 156 0
 705 0006 0246     		mov	r2, r0
 706              	.LVL85:
 707 0008 0B46     		mov	r3, r1
 708 000a FFF7FEFF 		bl	__aeabi_dmul
 709              	.LVL86:
 710 000e 0B46     		mov	r3, r1
 711 0010 0021     		movs	r1, #0
 712 0012 0246     		mov	r2, r0
 713 0014 C3F6F071 		movt	r1, 16368
 714 0018 0020     		movs	r0, #0
 715 001a FFF7FEFF 		bl	__aeabi_dsub
 716              	.LVL87:
 717 001e FFF7FEFF 		bl	sqrt
 718              	.LVL88:
 719 0022 2246     		mov	r2, r4
 720 0024 2B46     		mov	r3, r5
 721 0026 FFF7FEFF 		bl	__aeabi_dmul
 722              	.LVL89:
 723              		.loc 1 157 0
 724 002a 38BD     		pop	{r3, r4, r5, pc}
 725              		.cfi_endproc
 726              	.LFE6:
 727              		.size	ln_get_ell_sminor_diam, .-ln_get_ell_sminor_diam
 728 002c AFF30080 		.section	.text.ln_get_ell_mean_motion,"ax",%progbits
 729              		.align	2
 730              		.p2align 4,,15
 731              		.global	ln_get_ell_mean_motion
 732              		.thumb
 733              		.thumb_func
 734              		.type	ln_get_ell_mean_motion, %function
ARM GAS  /tmp/cctkbEOJ.s 			page 14


 735              	ln_get_ell_mean_motion:
 736              	.LFB7:
 737              		.loc 1 166 0
 738              		.cfi_startproc
 739              		@ args = 0, pretend = 0, frame = 0
 740              		@ frame_needed = 0, uses_anonymous_args = 0
 741              	.LVL90:
 742 0000 38B5     		push	{r3, r4, r5, lr}
 743              	.LCFI7:
 744              		.cfi_def_cfa_offset 16
 745              		.cfi_offset 3, -16
 746              		.cfi_offset 4, -12
 747              		.cfi_offset 5, -8
 748              		.cfi_offset 14, -4
 749              		.loc 1 166 0
 750 0002 0446     		mov	r4, r0
 751 0004 0D46     		mov	r5, r1
 752              		.loc 1 168 0
 753 0006 FFF7FEFF 		bl	sqrt
 754              	.LVL91:
 755 000a 2246     		mov	r2, r4
 756 000c 2B46     		mov	r3, r5
 757 000e FFF7FEFF 		bl	__aeabi_dmul
 758              	.LVL92:
 759 0012 0246     		mov	r2, r0
 760 0014 0B46     		mov	r3, r1
 761 0016 04A1     		adr	r1, .L38
 762 0018 D1E90001 		ldrd	r0, [r1]
 763 001c FFF7FEFF 		bl	__aeabi_ddiv
 764              	.LVL93:
 765              		.loc 1 169 0
 766 0020 38BD     		pop	{r3, r4, r5, pc}
 767              	.L39:
 768 0022 00BFAFF3 		.align	3
 768      0080
 769              	.L38:
 770 0028 9F5CEA17 		.word	401235103
 771 002c 198AEF3F 		.word	1072663065
 772              		.cfi_endproc
 773              	.LFE7:
 774              		.size	ln_get_ell_mean_motion, .-ln_get_ell_mean_motion
 775              		.section	.text.ln_get_ell_helio_rect_posn,"ax",%progbits
 776              		.align	2
 777              		.p2align 4,,15
 778              		.global	ln_get_ell_helio_rect_posn
 779              		.thumb
 780              		.thumb_func
 781              		.type	ln_get_ell_helio_rect_posn, %function
 782              	ln_get_ell_helio_rect_posn:
 783              	.LFB8:
 784              		.loc 1 180 0
 785              		.cfi_startproc
 786              		@ args = 4, pretend = 0, frame = 64
 787              		@ frame_needed = 0, uses_anonymous_args = 0
 788              	.LVL94:
 789 0000 2DE9F04F 		push	{r4, r5, r6, r7, r8, r9, sl, fp, lr}
 790              	.LCFI8:
ARM GAS  /tmp/cctkbEOJ.s 			page 15


 791              		.cfi_def_cfa_offset 36
 792              		.cfi_offset 4, -36
 793              		.cfi_offset 5, -32
 794              		.cfi_offset 6, -28
 795              		.cfi_offset 7, -24
 796              		.cfi_offset 8, -20
 797              		.cfi_offset 9, -16
 798              		.cfi_offset 10, -12
 799              		.cfi_offset 11, -8
 800              		.cfi_offset 14, -4
 801 0004 0646     		mov	r6, r0
 802 0006 93B0     		sub	sp, sp, #76
 803              	.LCFI9:
 804              		.cfi_def_cfa_offset 112
 805              		.loc 1 194 0
 806 0008 D0E90801 		ldrd	r0, [r0, #32]
 807              	.LVL95:
 808              		.loc 1 180 0
 809 000c CDE91023 		strd	r2, [sp, #64]
 810              		.loc 1 194 0
 811 0010 FFF7FEFF 		bl	ln_deg_to_rad
 812              	.LVL96:
 813 0014 FFF7FEFF 		bl	sin
 814              	.LVL97:
 815 0018 8046     		mov	r8, r0
 816 001a 0F46     		mov	r7, r1
 817              	.LVL98:
 818              		.loc 1 195 0
 819 001c D6E90801 		ldrd	r0, [r6, #32]
 820              	.LVL99:
 821 0020 FFF7FEFF 		bl	ln_deg_to_rad
 822              	.LVL100:
 823 0024 FFF7FEFF 		bl	cos
 824              	.LVL101:
 825 0028 CDE90201 		strd	r0, [sp, #8]
 826              	.LVL102:
 827              		.loc 1 196 0
 828 002c D6E90401 		ldrd	r0, [r6, #16]
 829              	.LVL103:
 830 0030 FFF7FEFF 		bl	ln_deg_to_rad
 831              	.LVL104:
 832 0034 FFF7FEFF 		bl	sin
 833              	.LVL105:
 834 0038 CDE90401 		strd	r0, [sp, #16]
 835              	.LVL106:
 836              		.loc 1 197 0
 837 003c D6E90401 		ldrd	r0, [r6, #16]
 838              	.LVL107:
 839 0040 FFF7FEFF 		bl	ln_deg_to_rad
 840              	.LVL108:
 841 0044 FFF7FEFF 		bl	cos
 842              	.LVL109:
 843              		.loc 1 199 0
 844 0048 63A3     		adr	r3, .L44
 845 004a D3E90023 		ldrd	r2, [r3]
 846              		.loc 1 197 0
 847 004e 8246     		mov	sl, r0
ARM GAS  /tmp/cctkbEOJ.s 			page 16


 848 0050 8B46     		mov	fp, r1
 849              	.LVL110:
 850              		.loc 1 199 0
 851 0052 4046     		mov	r0, r8
 852 0054 3946     		mov	r1, r7
 853 0056 FFF7FEFF 		bl	__aeabi_dmul
 854              	.LVL111:
 855              		.loc 1 200 0
 856 005a 61A3     		adr	r3, .L44+8
 857 005c D3E90023 		ldrd	r2, [r3]
 858              		.loc 1 199 0
 859 0060 CDE90601 		strd	r0, [sp, #24]
 860              	.LVL112:
 861              		.loc 1 200 0
 862 0064 4046     		mov	r0, r8
 863              	.LVL113:
 864 0066 3946     		mov	r1, r7
 865 0068 FFF7FEFF 		bl	__aeabi_dmul
 866              	.LVL114:
 867              		.loc 1 199 0
 868 006c 4446     		mov	r4, r8
 869              		.loc 1 201 0
 870 006e 07F10043 		add	r3, r7, #-2147483648
 871              		.loc 1 200 0
 872 0072 CDE90801 		strd	r0, [sp, #32]
 873              	.LVL115:
 874              		.loc 1 201 0
 875 0076 5246     		mov	r2, sl
 876 0078 2046     		mov	r0, r4
 877              	.LVL116:
 878 007a 1946     		mov	r1, r3
 879 007c 5B46     		mov	r3, fp
 880 007e FFF7FEFF 		bl	__aeabi_dmul
 881              	.LVL117:
 882              		.loc 1 202 0
 883 0082 5246     		mov	r2, sl
 884 0084 5B46     		mov	r3, fp
 885              		.loc 1 201 0
 886 0086 CDE90A01 		strd	r0, [sp, #40]
 887              	.LVL118:
 888              		.loc 1 202 0
 889 008a DDE90201 		ldrd	r0, [sp, #8]
 890              	.LVL119:
 891 008e FFF7FEFF 		bl	__aeabi_dmul
 892              	.LVL120:
 893 0092 51A3     		adr	r3, .L44
 894 0094 D3E90023 		ldrd	r2, [r3]
 895 0098 0746     		mov	r7, r0
 896              	.LVL121:
 897 009a 0C46     		mov	r4, r1
 898 009c FFF7FEFF 		bl	__aeabi_dmul
 899              	.LVL122:
 900 00a0 4FA3     		adr	r3, .L44+8
 901 00a2 D3E90023 		ldrd	r2, [r3]
 902 00a6 8046     		mov	r8, r0
 903 00a8 8946     		mov	r9, r1
 904 00aa DDE90401 		ldrd	r0, [sp, #16]
ARM GAS  /tmp/cctkbEOJ.s 			page 17


 905 00ae FFF7FEFF 		bl	__aeabi_dmul
 906              	.LVL123:
 907 00b2 0246     		mov	r2, r0
 908 00b4 0B46     		mov	r3, r1
 909 00b6 4046     		mov	r0, r8
 910 00b8 4946     		mov	r1, r9
 911 00ba FFF7FEFF 		bl	__aeabi_dsub
 912              	.LVL124:
 913              		.loc 1 203 0
 914 00be 48A3     		adr	r3, .L44+8
 915 00c0 D3E90023 		ldrd	r2, [r3]
 916              		.loc 1 202 0
 917 00c4 8046     		mov	r8, r0
 918 00c6 8946     		mov	r9, r1
 919              	.LVL125:
 920              		.loc 1 203 0
 921 00c8 3846     		mov	r0, r7
 922 00ca 2146     		mov	r1, r4
 923 00cc FFF7FEFF 		bl	__aeabi_dmul
 924              	.LVL126:
 925 00d0 41A3     		adr	r3, .L44
 926 00d2 D3E90023 		ldrd	r2, [r3]
 927 00d6 0746     		mov	r7, r0
 928 00d8 0D46     		mov	r5, r1
 929 00da DDE90401 		ldrd	r0, [sp, #16]
 930 00de FFF7FEFF 		bl	__aeabi_dmul
 931              	.LVL127:
 932 00e2 0246     		mov	r2, r0
 933 00e4 0B46     		mov	r3, r1
 934 00e6 3846     		mov	r0, r7
 935 00e8 2946     		mov	r1, r5
 936 00ea FFF7FEFF 		bl	__aeabi_dadd
 937              	.LVL128:
 938              		.loc 1 206 0
 939 00ee DDE90A23 		ldrd	r2, [sp, #40]
 940              		.loc 1 203 0
 941 00f2 8246     		mov	sl, r0
 942              	.LVL129:
 943 00f4 8B46     		mov	fp, r1
 944              	.LVL130:
 945              		.loc 1 206 0
 946 00f6 DDE90201 		ldrd	r0, [sp, #8]
 947 00fa FFF7FEFF 		bl	atan2
 948              	.LVL131:
 949              		.loc 1 207 0
 950 00fe 4246     		mov	r2, r8
 951              		.loc 1 206 0
 952 0100 CDE90401 		strd	r0, [sp, #16]
 953              	.LVL132:
 954              		.loc 1 207 0
 955 0104 4B46     		mov	r3, r9
 956 0106 DDE90601 		ldrd	r0, [sp, #24]
 957              	.LVL133:
 958 010a FFF7FEFF 		bl	atan2
 959              	.LVL134:
 960              		.loc 1 208 0
 961 010e 5246     		mov	r2, sl
ARM GAS  /tmp/cctkbEOJ.s 			page 18


 962              		.loc 1 207 0
 963 0110 CDE90C01 		strd	r0, [sp, #48]
 964              	.LVL135:
 965              		.loc 1 208 0
 966 0114 5B46     		mov	r3, fp
 967 0116 DDE90801 		ldrd	r0, [sp, #32]
 968              	.LVL136:
 969 011a FFF7FEFF 		bl	atan2
 970              	.LVL137:
 971 011e CDE90E01 		strd	r0, [sp, #56]
 972              	.LVL138:
 973              		.loc 1 209 0
 974 0122 DDE90201 		ldrd	r0, [sp, #8]
 975              	.LVL139:
 976 0126 0246     		mov	r2, r0
 977 0128 0B46     		mov	r3, r1
 978 012a FFF7FEFF 		bl	__aeabi_dmul
 979              	.LVL140:
 980 012e 0446     		mov	r4, r0
 981 0130 0F46     		mov	r7, r1
 982 0132 DDE90A01 		ldrd	r0, [sp, #40]
 983 0136 0246     		mov	r2, r0
 984 0138 0B46     		mov	r3, r1
 985 013a FFF7FEFF 		bl	__aeabi_dmul
 986              	.LVL141:
 987 013e 0246     		mov	r2, r0
 988 0140 0B46     		mov	r3, r1
 989 0142 2046     		mov	r0, r4
 990 0144 3946     		mov	r1, r7
 991 0146 FFF7FEFF 		bl	__aeabi_dadd
 992              	.LVL142:
 993 014a FFF7FEFF 		bl	sqrt
 994              	.LVL143:
 995 014e CDE90201 		strd	r0, [sp, #8]
 996              	.LVL144:
 997              		.loc 1 210 0
 998 0152 DDE90601 		ldrd	r0, [sp, #24]
 999              	.LVL145:
 1000 0156 0246     		mov	r2, r0
 1001 0158 0B46     		mov	r3, r1
 1002 015a FFF7FEFF 		bl	__aeabi_dmul
 1003              	.LVL146:
 1004 015e 4246     		mov	r2, r8
 1005 0160 0446     		mov	r4, r0
 1006 0162 0D46     		mov	r5, r1
 1007 0164 4B46     		mov	r3, r9
 1008 0166 4046     		mov	r0, r8
 1009 0168 4946     		mov	r1, r9
 1010 016a FFF7FEFF 		bl	__aeabi_dmul
 1011              	.LVL147:
 1012 016e 0246     		mov	r2, r0
 1013 0170 0B46     		mov	r3, r1
 1014 0172 2046     		mov	r0, r4
 1015 0174 2946     		mov	r1, r5
 1016 0176 FFF7FEFF 		bl	__aeabi_dadd
 1017              	.LVL148:
 1018 017a FFF7FEFF 		bl	sqrt
ARM GAS  /tmp/cctkbEOJ.s 			page 19


 1019              	.LVL149:
 1020 017e CDE90601 		strd	r0, [sp, #24]
 1021              	.LVL150:
 1022              		.loc 1 211 0
 1023 0182 DDE90801 		ldrd	r0, [sp, #32]
 1024              	.LVL151:
 1025 0186 0246     		mov	r2, r0
 1026 0188 0B46     		mov	r3, r1
 1027 018a FFF7FEFF 		bl	__aeabi_dmul
 1028              	.LVL152:
 1029 018e 5246     		mov	r2, sl
 1030 0190 0C46     		mov	r4, r1
 1031 0192 0746     		mov	r7, r0
 1032 0194 5B46     		mov	r3, fp
 1033 0196 5046     		mov	r0, sl
 1034 0198 5946     		mov	r1, fp
 1035 019a FFF7FEFF 		bl	__aeabi_dmul
 1036              	.LVL153:
 1037 019e 0246     		mov	r2, r0
 1038 01a0 0B46     		mov	r3, r1
 1039 01a2 3846     		mov	r0, r7
 1040 01a4 2146     		mov	r1, r4
 1041 01a6 FFF7FEFF 		bl	__aeabi_dadd
 1042              	.LVL154:
 1043 01aa FFF7FEFF 		bl	sqrt
 1044              	.LVL155:
 1045              		.loc 1 214 0
 1046 01ae D6E90A45 		ldrd	r4, [r6, #40]
 1047              		.loc 1 211 0
 1048 01b2 CDE90801 		strd	r0, [sp, #32]
 1049              	.LVL156:
 1050              		.loc 1 214 0
 1051 01b6 0022     		movs	r2, #0
 1052 01b8 2046     		mov	r0, r4
 1053              	.LVL157:
 1054 01ba 0023     		movs	r3, #0
 1055 01bc 2946     		mov	r1, r5
 1056 01be FFF7FEFF 		bl	__aeabi_dcmpeq
 1057              	.LVL158:
 1058 01c2 88B1     		cbz	r0, .L41
 1059              		.loc 1 215 0
 1060 01c4 D6E90001 		ldrd	r0, [r6]
 1061 01c8 FFF7FEFF 		bl	ln_get_ell_mean_motion
 1062              	.LVL159:
 1063 01cc 0446     		mov	r4, r0
 1064 01ce 0D46     		mov	r5, r1
 1065 01d0 C6E90A45 		strd	r4, [r6, #40]
 1066 01d4 08E0     		b	.L45
 1067              	.L46:
 1068 01d6 00BF     		.align	3
 1069              	.L44:
 1070 01d8 D59C5E57 		.word	1465818325
 1071 01dc 035CED3F 		.word	1072520195
 1072 01e0 BF6A0751 		.word	1359440575
 1073 01e4 2E75D93F 		.word	1071215918
 1074              	.L45:
 1075              	.L41:
ARM GAS  /tmp/cctkbEOJ.s 			page 20


 1076              	.LVL160:
 1077              		.loc 1 218 0
 1078 01e8 D6E90C23 		ldrd	r2, [r6, #48]
 1079 01ec DDE91001 		ldrd	r0, [sp, #64]
 1080 01f0 FFF7FEFF 		bl	__aeabi_dsub
 1081              	.LVL161:
 1082              	.LBB28:
 1083              	.LBB29:
 1084              		.loc 1 98 0
 1085 01f4 2246     		mov	r2, r4
 1086 01f6 2B46     		mov	r3, r5
 1087 01f8 FFF7FEFF 		bl	__aeabi_dmul
 1088              	.LVL162:
 1089              	.LBE29:
 1090              	.LBE28:
 1091              		.loc 1 221 0
 1092 01fc D6E90245 		ldrd	r4, [r6, #8]
 1093              	.LVL163:
 1094              	.LBB31:
 1095              	.LBB30:
 1096              		.loc 1 98 0
 1097 0200 0246     		mov	r2, r0
 1098 0202 0B46     		mov	r3, r1
 1099              	.LBE30:
 1100              	.LBE31:
 1101              		.loc 1 221 0
 1102 0204 2046     		mov	r0, r4
 1103 0206 2946     		mov	r1, r5
 1104 0208 FFF7FEFF 		bl	ln_solve_kepler
 1105              	.LVL164:
 1106 020c 8046     		mov	r8, r0
 1107              	.LVL165:
 1108 020e 8946     		mov	r9, r1
 1109              	.LVL166:
 1110              		.loc 1 224 0
 1111 0210 0246     		mov	r2, r0
 1112 0212 0B46     		mov	r3, r1
 1113 0214 D6E90201 		ldrd	r0, [r6, #8]
 1114 0218 FFF7FEFF 		bl	ln_get_ell_true_anomaly
 1115              	.LVL167:
 1116              		.loc 1 227 0
 1117 021c D6E90223 		ldrd	r2, [r6, #8]
 1118              		.loc 1 224 0
 1119 0220 0446     		mov	r4, r0
 1120 0222 0D46     		mov	r5, r1
 1121              	.LVL168:
 1122              		.loc 1 227 0
 1123 0224 D6E90001 		ldrd	r0, [r6]
 1124 0228 CDE90089 		strd	r8, [sp]
 1125 022c FFF7FEFF 		bl	ln_get_ell_radius_vector
 1126              	.LVL169:
 1127              		.loc 1 230 0
 1128 0230 DDE90223 		ldrd	r2, [sp, #8]
 1129              		.loc 1 227 0
 1130 0234 8246     		mov	sl, r0
 1131              	.LVL170:
 1132 0236 8B46     		mov	fp, r1
ARM GAS  /tmp/cctkbEOJ.s 			page 21


 1133              	.LVL171:
 1134              		.loc 1 230 0
 1135 0238 FFF7FEFF 		bl	__aeabi_dmul
 1136              	.LVL172:
 1137 023c D6E90623 		ldrd	r2, [r6, #24]
 1138 0240 8046     		mov	r8, r0
 1139              	.LVL173:
 1140 0242 8946     		mov	r9, r1
 1141 0244 2046     		mov	r0, r4
 1142 0246 2946     		mov	r1, r5
 1143 0248 FFF7FEFF 		bl	__aeabi_dadd
 1144              	.LVL174:
 1145 024c FFF7FEFF 		bl	ln_deg_to_rad
 1146              	.LVL175:
 1147 0250 DDE90423 		ldrd	r2, [sp, #16]
 1148 0254 FFF7FEFF 		bl	__aeabi_dadd
 1149              	.LVL176:
 1150 0258 FFF7FEFF 		bl	sin
 1151              	.LVL177:
 1152 025c 0246     		mov	r2, r0
 1153 025e 0B46     		mov	r3, r1
 1154 0260 4046     		mov	r0, r8
 1155 0262 4946     		mov	r1, r9
 1156 0264 FFF7FEFF 		bl	__aeabi_dmul
 1157              	.LVL178:
 1158 0268 1C9F     		ldr	r7, [sp, #112]
 1159              		.loc 1 231 0
 1160 026a DDE90623 		ldrd	r2, [sp, #24]
 1161              		.loc 1 230 0
 1162 026e C7E90001 		strd	r0, [r7]
 1163              		.loc 1 231 0
 1164 0272 5046     		mov	r0, sl
 1165 0274 5946     		mov	r1, fp
 1166 0276 FFF7FEFF 		bl	__aeabi_dmul
 1167              	.LVL179:
 1168 027a D6E90623 		ldrd	r2, [r6, #24]
 1169 027e 8046     		mov	r8, r0
 1170 0280 8946     		mov	r9, r1
 1171 0282 2046     		mov	r0, r4
 1172 0284 2946     		mov	r1, r5
 1173 0286 FFF7FEFF 		bl	__aeabi_dadd
 1174              	.LVL180:
 1175 028a FFF7FEFF 		bl	ln_deg_to_rad
 1176              	.LVL181:
 1177 028e DDE90C23 		ldrd	r2, [sp, #48]
 1178 0292 FFF7FEFF 		bl	__aeabi_dadd
 1179              	.LVL182:
 1180 0296 FFF7FEFF 		bl	sin
 1181              	.LVL183:
 1182 029a 0246     		mov	r2, r0
 1183 029c 0B46     		mov	r3, r1
 1184 029e 4046     		mov	r0, r8
 1185 02a0 4946     		mov	r1, r9
 1186 02a2 FFF7FEFF 		bl	__aeabi_dmul
 1187              	.LVL184:
 1188              		.loc 1 232 0
 1189 02a6 DDE90823 		ldrd	r2, [sp, #32]
ARM GAS  /tmp/cctkbEOJ.s 			page 22


 1190              		.loc 1 231 0
 1191 02aa C7E90201 		strd	r0, [r7, #8]
 1192              		.loc 1 232 0
 1193 02ae 5046     		mov	r0, sl
 1194 02b0 5946     		mov	r1, fp
 1195 02b2 FFF7FEFF 		bl	__aeabi_dmul
 1196              	.LVL185:
 1197 02b6 D6E90623 		ldrd	r2, [r6, #24]
 1198 02ba 8046     		mov	r8, r0
 1199 02bc 8946     		mov	r9, r1
 1200 02be 2046     		mov	r0, r4
 1201 02c0 2946     		mov	r1, r5
 1202 02c2 FFF7FEFF 		bl	__aeabi_dadd
 1203              	.LVL186:
 1204 02c6 FFF7FEFF 		bl	ln_deg_to_rad
 1205              	.LVL187:
 1206 02ca DDE90E23 		ldrd	r2, [sp, #56]
 1207 02ce FFF7FEFF 		bl	__aeabi_dadd
 1208              	.LVL188:
 1209 02d2 FFF7FEFF 		bl	sin
 1210              	.LVL189:
 1211 02d6 0246     		mov	r2, r0
 1212 02d8 0B46     		mov	r3, r1
 1213 02da 4046     		mov	r0, r8
 1214 02dc 4946     		mov	r1, r9
 1215 02de FFF7FEFF 		bl	__aeabi_dmul
 1216              	.LVL190:
 1217 02e2 C7E90401 		strd	r0, [r7, #16]
 1218              		.loc 1 233 0
 1219 02e6 13B0     		add	sp, sp, #76
 1220 02e8 BDE8F08F 		pop	{r4, r5, r6, r7, r8, r9, sl, fp, pc}
 1221              		.cfi_endproc
 1222              	.LFE8:
 1223              		.size	ln_get_ell_helio_rect_posn, .-ln_get_ell_helio_rect_posn
 1224 02ec AFF30080 		.section	.text.ln_get_ell_body_equ_coords,"ax",%progbits
 1225              		.align	2
 1226              		.p2align 4,,15
 1227              		.global	ln_get_ell_body_equ_coords
 1228              		.thumb
 1229              		.thumb_func
 1230              		.type	ln_get_ell_body_equ_coords, %function
 1231              	ln_get_ell_body_equ_coords:
 1232              	.LFB10:
 1233              		.loc 1 270 0
 1234              		.cfi_startproc
 1235              		@ args = 0, pretend = 0, frame = 48
 1236              		@ frame_needed = 0, uses_anonymous_args = 0
 1237              	.LVL191:
 1238 0000 2DE9F047 		push	{r4, r5, r6, r7, r8, r9, sl, lr}
 1239              	.LCFI10:
 1240              		.cfi_def_cfa_offset 32
 1241              		.cfi_offset 4, -32
 1242              		.cfi_offset 5, -28
 1243              		.cfi_offset 6, -24
 1244              		.cfi_offset 7, -20
 1245              		.cfi_offset 8, -16
 1246              		.cfi_offset 9, -12
ARM GAS  /tmp/cctkbEOJ.s 			page 23


 1247              		.cfi_offset 10, -8
 1248              		.cfi_offset 14, -4
 1249 0004 8EB0     		sub	sp, sp, #56
 1250              	.LCFI11:
 1251              		.cfi_def_cfa_offset 88
 1252              		.loc 1 270 0
 1253 0006 0446     		mov	r4, r0
 1254              		.loc 1 276 0
 1255 0008 02AE     		add	r6, sp, #8
 1256              		.loc 1 270 0
 1257 000a 0D46     		mov	r5, r1
 1258 000c 1746     		mov	r7, r2
 1259 000e 9A46     		mov	sl, r3
 1260              		.loc 1 276 0
 1261 0010 1046     		mov	r0, r2
 1262              	.LVL192:
 1263 0012 0B46     		mov	r3, r1
 1264              	.LVL193:
 1265 0014 2246     		mov	r2, r4
 1266              	.LVL194:
 1267 0016 0096     		str	r6, [sp, #0]
 1268 0018 FFF7FEFF 		bl	ln_get_ell_helio_rect_posn
 1269              	.LVL195:
 1270              		.loc 1 277 0
 1271 001c 08AA     		add	r2, sp, #32
 1272 001e 2046     		mov	r0, r4
 1273 0020 2946     		mov	r1, r5
 1274 0022 FFF7FEFF 		bl	ln_get_solar_geo_coords
 1275              	.LVL196:
 1276              		.loc 1 280 0
 1277 0026 3046     		mov	r0, r6
 1278 0028 08A9     		add	r1, sp, #32
 1279 002a FFF7FEFF 		bl	ln_get_rect_distance
 1280              	.LVL197:
 1281              		.loc 1 281 0
 1282 002e FFF7FEFF 		bl	ln_get_light_time
 1283              	.LVL198:
 1284 0032 0246     		mov	r2, r0
 1285 0034 0B46     		mov	r3, r1
 1286              	.LVL199:
 1287              		.loc 1 284 0
 1288 0036 2046     		mov	r0, r4
 1289 0038 2946     		mov	r1, r5
 1290 003a FFF7FEFF 		bl	__aeabi_dsub
 1291              	.LVL200:
 1292 003e 0096     		str	r6, [sp, #0]
 1293 0040 0246     		mov	r2, r0
 1294 0042 0B46     		mov	r3, r1
 1295 0044 3846     		mov	r0, r7
 1296 0046 FFF7FEFF 		bl	ln_get_ell_helio_rect_posn
 1297              	.LVL201:
 1298              		.loc 1 287 0
 1299 004a DDE90223 		ldrd	r2, [sp, #8]
 1300 004e DDE90801 		ldrd	r0, [sp, #32]
 1301 0052 FFF7FEFF 		bl	__aeabi_dadd
 1302              	.LVL202:
 1303              		.loc 1 288 0
ARM GAS  /tmp/cctkbEOJ.s 			page 24


 1304 0056 DDE90423 		ldrd	r2, [sp, #16]
 1305              		.loc 1 287 0
 1306 005a 8046     		mov	r8, r0
 1307 005c 8946     		mov	r9, r1
 1308              	.LVL203:
 1309              		.loc 1 288 0
 1310 005e DDE90A01 		ldrd	r0, [sp, #40]
 1311 0062 FFF7FEFF 		bl	__aeabi_dadd
 1312              	.LVL204:
 1313              		.loc 1 289 0
 1314 0066 DDE90623 		ldrd	r2, [sp, #24]
 1315              		.loc 1 288 0
 1316 006a 0646     		mov	r6, r0
 1317 006c 0F46     		mov	r7, r1
 1318              	.LVL205:
 1319              		.loc 1 289 0
 1320 006e DDE90C01 		ldrd	r0, [sp, #48]
 1321 0072 FFF7FEFF 		bl	__aeabi_dadd
 1322              	.LVL206:
 1323              		.loc 1 291 0
 1324 0076 4246     		mov	r2, r8
 1325 0078 4B46     		mov	r3, r9
 1326              		.loc 1 289 0
 1327 007a 0446     		mov	r4, r0
 1328 007c 0D46     		mov	r5, r1
 1329              	.LVL207:
 1330              		.loc 1 291 0
 1331 007e 3046     		mov	r0, r6
 1332 0080 3946     		mov	r1, r7
 1333 0082 FFF7FEFF 		bl	atan2
 1334              	.LVL208:
 1335 0086 FFF7FEFF 		bl	ln_rad_to_deg
 1336              	.LVL209:
 1337 008a FFF7FEFF 		bl	ln_range_degrees
 1338              	.LVL210:
 1339              		.loc 1 292 0
 1340 008e 4246     		mov	r2, r8
 1341              		.loc 1 291 0
 1342 0090 CAE90001 		strd	r0, [sl]
 1343              		.loc 1 292 0
 1344 0094 4B46     		mov	r3, r9
 1345 0096 4046     		mov	r0, r8
 1346 0098 4946     		mov	r1, r9
 1347 009a FFF7FEFF 		bl	__aeabi_dmul
 1348              	.LVL211:
 1349 009e 3246     		mov	r2, r6
 1350 00a0 3B46     		mov	r3, r7
 1351 00a2 8046     		mov	r8, r0
 1352              	.LVL212:
 1353 00a4 8946     		mov	r9, r1
 1354 00a6 3046     		mov	r0, r6
 1355 00a8 3946     		mov	r1, r7
 1356 00aa FFF7FEFF 		bl	__aeabi_dmul
 1357              	.LVL213:
 1358 00ae 0246     		mov	r2, r0
 1359 00b0 0B46     		mov	r3, r1
 1360 00b2 4046     		mov	r0, r8
ARM GAS  /tmp/cctkbEOJ.s 			page 25


 1361 00b4 4946     		mov	r1, r9
 1362 00b6 FFF7FEFF 		bl	__aeabi_dadd
 1363              	.LVL214:
 1364 00ba 2246     		mov	r2, r4
 1365 00bc 0646     		mov	r6, r0
 1366              	.LVL215:
 1367 00be 0F46     		mov	r7, r1
 1368 00c0 2B46     		mov	r3, r5
 1369 00c2 2046     		mov	r0, r4
 1370 00c4 2946     		mov	r1, r5
 1371 00c6 FFF7FEFF 		bl	__aeabi_dmul
 1372              	.LVL216:
 1373 00ca 0246     		mov	r2, r0
 1374 00cc 0B46     		mov	r3, r1
 1375 00ce 3046     		mov	r0, r6
 1376 00d0 3946     		mov	r1, r7
 1377 00d2 FFF7FEFF 		bl	__aeabi_dadd
 1378              	.LVL217:
 1379 00d6 FFF7FEFF 		bl	sqrt
 1380              	.LVL218:
 1381 00da 0246     		mov	r2, r0
 1382 00dc 0B46     		mov	r3, r1
 1383 00de 2046     		mov	r0, r4
 1384 00e0 2946     		mov	r1, r5
 1385 00e2 FFF7FEFF 		bl	__aeabi_ddiv
 1386              	.LVL219:
 1387 00e6 FFF7FEFF 		bl	asin
 1388              	.LVL220:
 1389 00ea FFF7FEFF 		bl	ln_rad_to_deg
 1390              	.LVL221:
 1391 00ee CAE90201 		strd	r0, [sl, #8]
 1392              		.loc 1 293 0
 1393 00f2 0EB0     		add	sp, sp, #56
 1394 00f4 BDE8F087 		pop	{r4, r5, r6, r7, r8, r9, sl, pc}
 1395              		.cfi_endproc
 1396              	.LFE10:
 1397              		.size	ln_get_ell_body_equ_coords, .-ln_get_ell_body_equ_coords
 1398 00f8 AFF30080 		.section	.text.ln_get_ell_geo_rect_posn,"ax",%progbits
 1398      AFF30080 
 1399              		.align	2
 1400              		.p2align 4,,15
 1401              		.global	ln_get_ell_geo_rect_posn
 1402              		.thumb
 1403              		.thumb_func
 1404              		.type	ln_get_ell_geo_rect_posn, %function
 1405              	ln_get_ell_geo_rect_posn:
 1406              	.LFB9:
 1407              		.loc 1 244 0
 1408              		.cfi_startproc
 1409              		@ args = 4, pretend = 0, frame = 72
 1410              		@ frame_needed = 0, uses_anonymous_args = 0
 1411              	.LVL222:
 1412 0000 70B5     		push	{r4, r5, r6, lr}
 1413              	.LCFI12:
 1414              		.cfi_def_cfa_offset 16
 1415              		.cfi_offset 4, -16
 1416              		.cfi_offset 5, -12
ARM GAS  /tmp/cctkbEOJ.s 			page 26


 1417              		.cfi_offset 6, -8
 1418              		.cfi_offset 14, -4
 1419 0002 94B0     		sub	sp, sp, #80
 1420              	.LCFI13:
 1421              		.cfi_def_cfa_offset 96
 1422              		.loc 1 249 0
 1423 0004 02A9     		add	r1, sp, #8
 1424              		.loc 1 244 0
 1425 0006 1D46     		mov	r5, r3
 1426 0008 1446     		mov	r4, r2
 1427              		.loc 1 249 0
 1428 000a 0091     		str	r1, [sp, #0]
 1429              		.loc 1 244 0
 1430 000c 189E     		ldr	r6, [sp, #96]
 1431              		.loc 1 249 0
 1432 000e FFF7FEFF 		bl	ln_get_ell_helio_rect_posn
 1433              	.LVL223:
 1434              		.loc 1 252 0
 1435 0012 0EAA     		add	r2, sp, #56
 1436 0014 2046     		mov	r0, r4
 1437 0016 2946     		mov	r1, r5
 1438 0018 FFF7FEFF 		bl	ln_get_earth_helio_coords
 1439              	.LVL224:
 1440              		.loc 1 253 0
 1441 001c 0EA8     		add	r0, sp, #56
 1442 001e 08A9     		add	r1, sp, #32
 1443 0020 FFF7FEFF 		bl	ln_get_rect_from_helio
 1444              	.LVL225:
 1445              		.loc 1 255 0
 1446 0024 DDE90223 		ldrd	r2, [sp, #8]
 1447 0028 DDE90801 		ldrd	r0, [sp, #32]
 1448 002c FFF7FEFF 		bl	__aeabi_dsub
 1449              	.LVL226:
 1450              		.loc 1 256 0
 1451 0030 DDE90423 		ldrd	r2, [sp, #16]
 1452              		.loc 1 255 0
 1453 0034 C6E90001 		strd	r0, [r6]
 1454              		.loc 1 256 0
 1455 0038 DDE90A01 		ldrd	r0, [sp, #40]
 1456 003c FFF7FEFF 		bl	__aeabi_dsub
 1457              	.LVL227:
 1458              		.loc 1 257 0
 1459 0040 DDE90623 		ldrd	r2, [sp, #24]
 1460              		.loc 1 256 0
 1461 0044 C6E90201 		strd	r0, [r6, #8]
 1462              		.loc 1 257 0
 1463 0048 DDE90C01 		ldrd	r0, [sp, #48]
 1464 004c FFF7FEFF 		bl	__aeabi_dsub
 1465              	.LVL228:
 1466 0050 C6E90401 		strd	r0, [r6, #16]
 1467              		.loc 1 258 0
 1468 0054 14B0     		add	sp, sp, #80
 1469 0056 70BD     		pop	{r4, r5, r6, pc}
 1470              		.cfi_endproc
 1471              	.LFE9:
 1472              		.size	ln_get_ell_geo_rect_posn, .-ln_get_ell_geo_rect_posn
 1473 0058 AFF30080 		.section	.text.ln_get_ell_orbit_len,"ax",%progbits
ARM GAS  /tmp/cctkbEOJ.s 			page 27


 1473      AFF30080 
 1474              		.align	2
 1475              		.p2align 4,,15
 1476              		.global	ln_get_ell_orbit_len
 1477              		.thumb
 1478              		.thumb_func
 1479              		.type	ln_get_ell_orbit_len, %function
 1480              	ln_get_ell_orbit_len:
 1481              	.LFB11:
 1482              		.loc 1 309 0
 1483              		.cfi_startproc
 1484              		@ args = 0, pretend = 0, frame = 0
 1485              		@ frame_needed = 0, uses_anonymous_args = 0
 1486              	.LVL229:
 1487 0000 2DE9F843 		push	{r3, r4, r5, r6, r7, r8, r9, lr}
 1488              	.LCFI14:
 1489              		.cfi_def_cfa_offset 32
 1490              		.cfi_offset 3, -32
 1491              		.cfi_offset 4, -28
 1492              		.cfi_offset 5, -24
 1493              		.cfi_offset 6, -20
 1494              		.cfi_offset 7, -16
 1495              		.cfi_offset 8, -12
 1496              		.cfi_offset 9, -8
 1497              		.cfi_offset 14, -4
 1498              		.loc 1 313 0
 1499 0004 D0E90023 		ldrd	r2, [r0]
 1500              		.loc 1 309 0
 1501 0008 0446     		mov	r4, r0
 1502              		.loc 1 313 0
 1503 000a D0E90201 		ldrd	r0, [r0, #8]
 1504              	.LVL230:
 1505 000e FFF7FEFF 		bl	ln_get_ell_sminor_diam
 1506              	.LVL231:
 1507              		.loc 1 315 0
 1508 0012 D4E90067 		ldrd	r6, [r4]
 1509              		.loc 1 316 0
 1510 0016 3246     		mov	r2, r6
 1511 0018 3B46     		mov	r3, r7
 1512              		.loc 1 313 0
 1513 001a 8046     		mov	r8, r0
 1514 001c 8946     		mov	r9, r1
 1515              	.LVL232:
 1516              		.loc 1 316 0
 1517 001e FFF7FEFF 		bl	__aeabi_dmul
 1518              	.LVL233:
 1519 0022 FFF7FEFF 		bl	sqrt
 1520              	.LVL234:
 1521              		.loc 1 315 0
 1522 0026 4246     		mov	r2, r8
 1523              		.loc 1 316 0
 1524 0028 0446     		mov	r4, r0
 1525              	.LVL235:
 1526 002a 0D46     		mov	r5, r1
 1527              	.LVL236:
 1528              		.loc 1 315 0
 1529 002c 4B46     		mov	r3, r9
ARM GAS  /tmp/cctkbEOJ.s 			page 28


 1530 002e 3046     		mov	r0, r6
 1531 0030 3946     		mov	r1, r7
 1532 0032 FFF7FEFF 		bl	__aeabi_dadd
 1533              	.LVL237:
 1534 0036 0023     		movs	r3, #0
 1535 0038 0022     		movs	r2, #0
 1536 003a C3F6E073 		movt	r3, 16352
 1537 003e FFF7FEFF 		bl	__aeabi_dmul
 1538              	.LVL238:
 1539              		.loc 1 319 0
 1540 0042 0023     		movs	r3, #0
 1541 0044 0022     		movs	r2, #0
 1542 0046 C4F23503 		movt	r3, 16437
 1543 004a FFF7FEFF 		bl	__aeabi_dmul
 1544              	.LVL239:
 1545 004e 2246     		mov	r2, r4
 1546 0050 0646     		mov	r6, r0
 1547              	.LVL240:
 1548 0052 0F46     		mov	r7, r1
 1549 0054 2B46     		mov	r3, r5
 1550 0056 2046     		mov	r0, r4
 1551 0058 2946     		mov	r1, r5
 1552 005a FFF7FEFF 		bl	__aeabi_dadd
 1553              	.LVL241:
 1554 005e 0246     		mov	r2, r0
 1555 0060 0B46     		mov	r3, r1
 1556 0062 3046     		mov	r0, r6
 1557 0064 3946     		mov	r1, r7
 1558 0066 FFF7FEFF 		bl	__aeabi_dsub
 1559              	.LVL242:
 1560 006a 0023     		movs	r3, #0
 1561 006c 0646     		mov	r6, r0
 1562 006e 0F46     		mov	r7, r1
 1563 0070 0022     		movs	r2, #0
 1564 0072 2046     		mov	r0, r4
 1565 0074 2946     		mov	r1, r5
 1566 0076 C4F20803 		movt	r3, 16392
 1567 007a FFF7FEFF 		bl	__aeabi_dmul
 1568              	.LVL243:
 1569 007e 0246     		mov	r2, r0
 1570 0080 0B46     		mov	r3, r1
 1571 0082 3046     		mov	r0, r6
 1572 0084 3946     		mov	r1, r7
 1573 0086 FFF7FEFF 		bl	__aeabi_dsub
 1574              	.LVL244:
 1575 008a 0022     		movs	r2, #0
 1576 008c 4FF07F53 		mov	r3, #1069547520
 1577 0090 FFF7FEFF 		bl	__aeabi_dmul
 1578              	.LVL245:
 1579 0094 04A3     		adr	r3, .L50
 1580 0096 D3E90023 		ldrd	r2, [r3]
 1581 009a FFF7FEFF 		bl	__aeabi_dmul
 1582              	.LVL246:
 1583              		.loc 1 320 0
 1584 009e BDE8F883 		pop	{r3, r4, r5, r6, r7, r8, r9, pc}
 1585              	.L51:
 1586 00a2 00BFAFF3 		.align	3
ARM GAS  /tmp/cctkbEOJ.s 			page 29


 1586      0080
 1587              	.L50:
 1588 00a8 182D4454 		.word	1413754136
 1589 00ac FB210940 		.word	1074340347
 1590              		.cfi_endproc
 1591              	.LFE11:
 1592              		.size	ln_get_ell_orbit_len, .-ln_get_ell_orbit_len
 1593              		.section	.text.ln_get_ell_orbit_pvel,"ax",%progbits
 1594              		.align	2
 1595              		.p2align 4,,15
 1596              		.global	ln_get_ell_orbit_pvel
 1597              		.thumb
 1598              		.thumb_func
 1599              		.type	ln_get_ell_orbit_pvel, %function
 1600              	ln_get_ell_orbit_pvel:
 1601              	.LFB13:
 1602              		.loc 1 347 0
 1603              		.cfi_startproc
 1604              		@ args = 0, pretend = 0, frame = 0
 1605              		@ frame_needed = 0, uses_anonymous_args = 0
 1606              	.LVL247:
 1607 0000 2DE9F843 		push	{r3, r4, r5, r6, r7, r8, r9, lr}
 1608              	.LCFI15:
 1609              		.cfi_def_cfa_offset 32
 1610              		.cfi_offset 3, -32
 1611              		.cfi_offset 4, -28
 1612              		.cfi_offset 5, -24
 1613              		.cfi_offset 6, -20
 1614              		.cfi_offset 7, -16
 1615              		.cfi_offset 8, -12
 1616              		.cfi_offset 9, -8
 1617              		.cfi_offset 14, -4
 1618              		.loc 1 347 0
 1619 0004 0446     		mov	r4, r0
 1620              		.loc 1 350 0
 1621 0006 D0E90001 		ldrd	r0, [r0]
 1622              	.LVL248:
 1623 000a FFF7FEFF 		bl	sqrt
 1624              	.LVL249:
 1625 000e 0246     		mov	r2, r0
 1626 0010 0B46     		mov	r3, r1
 1627 0012 15A1     		adr	r1, .L53
 1628 0014 D1E90001 		ldrd	r0, [r1]
 1629 0018 FFF7FEFF 		bl	__aeabi_ddiv
 1630              	.LVL250:
 1631              		.loc 1 351 0
 1632 001c D4E90245 		ldrd	r4, [r4, #8]
 1633              	.LVL251:
 1634 0020 0023     		movs	r3, #0
 1635              		.loc 1 350 0
 1636 0022 0646     		mov	r6, r0
 1637 0024 0F46     		mov	r7, r1
 1638              	.LVL252:
 1639              		.loc 1 351 0
 1640 0026 0022     		movs	r2, #0
 1641 0028 C3F6F073 		movt	r3, 16368
 1642 002c 2046     		mov	r0, r4
ARM GAS  /tmp/cctkbEOJ.s 			page 30


 1643 002e 2946     		mov	r1, r5
 1644 0030 FFF7FEFF 		bl	__aeabi_dadd
 1645              	.LVL253:
 1646 0034 8946     		mov	r9, r1
 1647 0036 0021     		movs	r1, #0
 1648 0038 8046     		mov	r8, r0
 1649 003a 2246     		mov	r2, r4
 1650 003c 2B46     		mov	r3, r5
 1651 003e 0020     		movs	r0, #0
 1652 0040 C3F6F071 		movt	r1, 16368
 1653 0044 FFF7FEFF 		bl	__aeabi_dsub
 1654              	.LVL254:
 1655 0048 0246     		mov	r2, r0
 1656 004a 0B46     		mov	r3, r1
 1657 004c 4046     		mov	r0, r8
 1658 004e 4946     		mov	r1, r9
 1659 0050 FFF7FEFF 		bl	__aeabi_ddiv
 1660              	.LVL255:
 1661 0054 FFF7FEFF 		bl	sqrt
 1662              	.LVL256:
 1663 0058 3246     		mov	r2, r6
 1664 005a 3B46     		mov	r3, r7
 1665 005c FFF7FEFF 		bl	__aeabi_dmul
 1666              	.LVL257:
 1667              		.loc 1 353 0
 1668 0060 BDE8F883 		pop	{r3, r4, r5, r6, r7, r8, r9, pc}
 1669              	.L54:
 1670 0064 AFF30080 		.align	3
 1671              	.L53:
 1672 0068 D42B6519 		.word	426060756
 1673 006c E2C83D40 		.word	1077790946
 1674              		.cfi_endproc
 1675              	.LFE13:
 1676              		.size	ln_get_ell_orbit_pvel, .-ln_get_ell_orbit_pvel
 1677              		.section	.text.ln_get_ell_orbit_avel,"ax",%progbits
 1678              		.align	2
 1679              		.p2align 4,,15
 1680              		.global	ln_get_ell_orbit_avel
 1681              		.thumb
 1682              		.thumb_func
 1683              		.type	ln_get_ell_orbit_avel, %function
 1684              	ln_get_ell_orbit_avel:
 1685              	.LFB14:
 1686              		.loc 1 362 0
 1687              		.cfi_startproc
 1688              		@ args = 0, pretend = 0, frame = 0
 1689              		@ frame_needed = 0, uses_anonymous_args = 0
 1690              	.LVL258:
 1691 0000 2DE9F843 		push	{r3, r4, r5, r6, r7, r8, r9, lr}
 1692              	.LCFI16:
 1693              		.cfi_def_cfa_offset 32
 1694              		.cfi_offset 3, -32
 1695              		.cfi_offset 4, -28
 1696              		.cfi_offset 5, -24
 1697              		.cfi_offset 6, -20
 1698              		.cfi_offset 7, -16
 1699              		.cfi_offset 8, -12
ARM GAS  /tmp/cctkbEOJ.s 			page 31


 1700              		.cfi_offset 9, -8
 1701              		.cfi_offset 14, -4
 1702              		.loc 1 362 0
 1703 0004 0446     		mov	r4, r0
 1704              		.loc 1 365 0
 1705 0006 D0E90001 		ldrd	r0, [r0]
 1706              	.LVL259:
 1707 000a FFF7FEFF 		bl	sqrt
 1708              	.LVL260:
 1709 000e 0246     		mov	r2, r0
 1710 0010 0B46     		mov	r3, r1
 1711 0012 15A1     		adr	r1, .L56
 1712 0014 D1E90001 		ldrd	r0, [r1]
 1713 0018 FFF7FEFF 		bl	__aeabi_ddiv
 1714              	.LVL261:
 1715              		.loc 1 366 0
 1716 001c D4E90245 		ldrd	r4, [r4, #8]
 1717              	.LVL262:
 1718              		.loc 1 365 0
 1719 0020 0F46     		mov	r7, r1
 1720              		.loc 1 366 0
 1721 0022 0021     		movs	r1, #0
 1722              		.loc 1 365 0
 1723 0024 0646     		mov	r6, r0
 1724              	.LVL263:
 1725              		.loc 1 366 0
 1726 0026 2246     		mov	r2, r4
 1727 0028 2B46     		mov	r3, r5
 1728 002a 0020     		movs	r0, #0
 1729 002c C3F6F071 		movt	r1, 16368
 1730 0030 FFF7FEFF 		bl	__aeabi_dsub
 1731              	.LVL264:
 1732 0034 0023     		movs	r3, #0
 1733 0036 8046     		mov	r8, r0
 1734 0038 8946     		mov	r9, r1
 1735 003a 0022     		movs	r2, #0
 1736 003c 2046     		mov	r0, r4
 1737 003e 2946     		mov	r1, r5
 1738 0040 C3F6F073 		movt	r3, 16368
 1739 0044 FFF7FEFF 		bl	__aeabi_dadd
 1740              	.LVL265:
 1741 0048 0246     		mov	r2, r0
 1742 004a 0B46     		mov	r3, r1
 1743 004c 4046     		mov	r0, r8
 1744 004e 4946     		mov	r1, r9
 1745 0050 FFF7FEFF 		bl	__aeabi_ddiv
 1746              	.LVL266:
 1747 0054 FFF7FEFF 		bl	sqrt
 1748              	.LVL267:
 1749 0058 3246     		mov	r2, r6
 1750 005a 3B46     		mov	r3, r7
 1751 005c FFF7FEFF 		bl	__aeabi_dmul
 1752              	.LVL268:
 1753              		.loc 1 368 0
 1754 0060 BDE8F883 		pop	{r3, r4, r5, r6, r7, r8, r9, pc}
 1755              	.L57:
 1756 0064 AFF30080 		.align	3
ARM GAS  /tmp/cctkbEOJ.s 			page 32


 1757              	.L56:
 1758 0068 D42B6519 		.word	426060756
 1759 006c E2C83D40 		.word	1077790946
 1760              		.cfi_endproc
 1761              	.LFE14:
 1762              		.size	ln_get_ell_orbit_avel, .-ln_get_ell_orbit_avel
 1763              		.section	.text.ln_get_ell_body_solar_dist,"ax",%progbits
 1764              		.align	2
 1765              		.p2align 4,,15
 1766              		.global	ln_get_ell_body_solar_dist
 1767              		.thumb
 1768              		.thumb_func
 1769              		.type	ln_get_ell_body_solar_dist, %function
 1770              	ln_get_ell_body_solar_dist:
 1771              	.LFB15:
 1772              		.loc 1 379 0
 1773              		.cfi_startproc
 1774              		@ args = 0, pretend = 0, frame = 48
 1775              		@ frame_needed = 0, uses_anonymous_args = 0
 1776              	.LVL269:
 1777 0000 70B5     		push	{r4, r5, r6, lr}
 1778              	.LCFI17:
 1779              		.cfi_def_cfa_offset 16
 1780              		.cfi_offset 4, -16
 1781              		.cfi_offset 5, -12
 1782              		.cfi_offset 6, -8
 1783              		.cfi_offset 14, -4
 1784 0002 8EB0     		sub	sp, sp, #56
 1785              	.LCFI18:
 1786              		.cfi_def_cfa_offset 72
 1787              		.loc 1 379 0
 1788 0004 0446     		mov	r4, r0
 1789              		.loc 1 383 0
 1790 0006 02AE     		add	r6, sp, #8
 1791 0008 1046     		mov	r0, r2
 1792              	.LVL270:
 1793 000a 0B46     		mov	r3, r1
 1794 000c 2246     		mov	r2, r4
 1795              	.LVL271:
 1796 000e 0096     		str	r6, [sp, #0]
 1797              		.loc 1 379 0
 1798 0010 0D46     		mov	r5, r1
 1799              		.loc 1 383 0
 1800 0012 FFF7FEFF 		bl	ln_get_ell_helio_rect_posn
 1801              	.LVL272:
 1802              		.loc 1 384 0
 1803 0016 0022     		movs	r2, #0
 1804 0018 0023     		movs	r3, #0
 1805              		.loc 1 389 0
 1806 001a 3046     		mov	r0, r6
 1807 001c 08A9     		add	r1, sp, #32
 1808              		.loc 1 384 0
 1809 001e CDE90823 		strd	r2, [sp, #32]
 1810              		.loc 1 385 0
 1811 0022 CDE90A23 		strd	r2, [sp, #40]
 1812              		.loc 1 386 0
 1813 0026 CDE90C23 		strd	r2, [sp, #48]
ARM GAS  /tmp/cctkbEOJ.s 			page 33


 1814              		.loc 1 389 0
 1815 002a FFF7FEFF 		bl	ln_get_rect_distance
 1816              	.LVL273:
 1817              		.loc 1 390 0
 1818 002e 0EB0     		add	sp, sp, #56
 1819 0030 70BD     		pop	{r4, r5, r6, pc}
 1820              		.cfi_endproc
 1821              	.LFE15:
 1822              		.size	ln_get_ell_body_solar_dist, .-ln_get_ell_body_solar_dist
 1823              		.section	.text.ln_get_ell_orbit_vel,"ax",%progbits
 1824              		.align	2
 1825              		.p2align 4,,15
 1826              		.global	ln_get_ell_orbit_vel
 1827              		.thumb
 1828              		.thumb_func
 1829              		.type	ln_get_ell_orbit_vel, %function
 1830              	ln_get_ell_orbit_vel:
 1831              	.LFB12:
 1832              		.loc 1 330 0
 1833              		.cfi_startproc
 1834              		@ args = 0, pretend = 0, frame = 0
 1835              		@ frame_needed = 0, uses_anonymous_args = 0
 1836              	.LVL274:
 1837 0000 70B5     		push	{r4, r5, r6, lr}
 1838              	.LCFI19:
 1839              		.cfi_def_cfa_offset 16
 1840              		.cfi_offset 4, -16
 1841              		.cfi_offset 5, -12
 1842              		.cfi_offset 6, -8
 1843              		.cfi_offset 14, -4
 1844              		.loc 1 330 0
 1845 0002 1646     		mov	r6, r2
 1846              		.loc 1 334 0
 1847 0004 FFF7FEFF 		bl	ln_get_ell_body_solar_dist
 1848              	.LVL275:
 1849              		.loc 1 335 0
 1850 0008 0B46     		mov	r3, r1
 1851 000a 0021     		movs	r1, #0
 1852 000c 0246     		mov	r2, r0
 1853 000e C3F6F071 		movt	r1, 16368
 1854 0012 0020     		movs	r0, #0
 1855              	.LVL276:
 1856 0014 FFF7FEFF 		bl	__aeabi_ddiv
 1857              	.LVL277:
 1858 0018 0446     		mov	r4, r0
 1859 001a 0D46     		mov	r5, r1
 1860 001c D6E90001 		ldrd	r0, [r6]
 1861 0020 0246     		mov	r2, r0
 1862 0022 0B46     		mov	r3, r1
 1863 0024 FFF7FEFF 		bl	__aeabi_dadd
 1864              	.LVL278:
 1865 0028 0B46     		mov	r3, r1
 1866 002a 0021     		movs	r1, #0
 1867 002c 0246     		mov	r2, r0
 1868 002e C3F6F071 		movt	r1, 16368
 1869 0032 0020     		movs	r0, #0
 1870 0034 FFF7FEFF 		bl	__aeabi_ddiv
ARM GAS  /tmp/cctkbEOJ.s 			page 34


 1871              	.LVL279:
 1872 0038 0246     		mov	r2, r0
 1873 003a 0B46     		mov	r3, r1
 1874 003c 2046     		mov	r0, r4
 1875 003e 2946     		mov	r1, r5
 1876 0040 FFF7FEFF 		bl	__aeabi_dsub
 1877              	.LVL280:
 1878              		.loc 1 336 0
 1879 0044 FFF7FEFF 		bl	sqrt
 1880              	.LVL281:
 1881 0048 03A3     		adr	r3, .L60
 1882 004a D3E90023 		ldrd	r2, [r3]
 1883 004e FFF7FEFF 		bl	__aeabi_dmul
 1884              	.LVL282:
 1885              		.loc 1 338 0
 1886 0052 70BD     		pop	{r4, r5, r6, pc}
 1887              	.L61:
 1888 0054 AFF30080 		.align	3
 1889              	.L60:
 1890 0058 F2B0506B 		.word	1800450290
 1891 005c 9A0F4540 		.word	1078267802
 1892              		.cfi_endproc
 1893              	.LFE12:
 1894              		.size	ln_get_ell_orbit_vel, .-ln_get_ell_orbit_vel
 1895              		.section	.text.ln_get_ell_body_earth_dist,"ax",%progbits
 1896              		.align	2
 1897              		.p2align 4,,15
 1898              		.global	ln_get_ell_body_earth_dist
 1899              		.thumb
 1900              		.thumb_func
 1901              		.type	ln_get_ell_body_earth_dist, %function
 1902              	ln_get_ell_body_earth_dist:
 1903              	.LFB16:
 1904              		.loc 1 402 0
 1905              		.cfi_startproc
 1906              		@ args = 0, pretend = 0, frame = 48
 1907              		@ frame_needed = 0, uses_anonymous_args = 0
 1908              	.LVL283:
 1909 0000 70B5     		push	{r4, r5, r6, lr}
 1910              	.LCFI20:
 1911              		.cfi_def_cfa_offset 16
 1912              		.cfi_offset 4, -16
 1913              		.cfi_offset 5, -12
 1914              		.cfi_offset 6, -8
 1915              		.cfi_offset 14, -4
 1916 0002 8EB0     		sub	sp, sp, #56
 1917              	.LCFI21:
 1918              		.cfi_def_cfa_offset 72
 1919              		.loc 1 402 0
 1920 0004 0446     		mov	r4, r0
 1921              		.loc 1 406 0
 1922 0006 02AE     		add	r6, sp, #8
 1923 0008 1046     		mov	r0, r2
 1924              	.LVL284:
 1925 000a 0B46     		mov	r3, r1
 1926 000c 2246     		mov	r2, r4
 1927              	.LVL285:
ARM GAS  /tmp/cctkbEOJ.s 			page 35


 1928 000e 0096     		str	r6, [sp, #0]
 1929              		.loc 1 402 0
 1930 0010 0D46     		mov	r5, r1
 1931              		.loc 1 406 0
 1932 0012 FFF7FEFF 		bl	ln_get_ell_geo_rect_posn
 1933              	.LVL286:
 1934              		.loc 1 407 0
 1935 0016 0022     		movs	r2, #0
 1936 0018 0023     		movs	r3, #0
 1937              		.loc 1 412 0
 1938 001a 3046     		mov	r0, r6
 1939 001c 08A9     		add	r1, sp, #32
 1940              		.loc 1 407 0
 1941 001e CDE90823 		strd	r2, [sp, #32]
 1942              		.loc 1 408 0
 1943 0022 CDE90A23 		strd	r2, [sp, #40]
 1944              		.loc 1 409 0
 1945 0026 CDE90C23 		strd	r2, [sp, #48]
 1946              		.loc 1 412 0
 1947 002a FFF7FEFF 		bl	ln_get_rect_distance
 1948              	.LVL287:
 1949              		.loc 1 413 0
 1950 002e 0EB0     		add	sp, sp, #56
 1951 0030 70BD     		pop	{r4, r5, r6, pc}
 1952              		.cfi_endproc
 1953              	.LFE16:
 1954              		.size	ln_get_ell_body_earth_dist, .-ln_get_ell_body_earth_dist
 1955              		.section	.text.ln_get_ell_body_phase_angle,"ax",%progbits
 1956              		.align	2
 1957              		.p2align 4,,15
 1958              		.global	ln_get_ell_body_phase_angle
 1959              		.thumb
 1960              		.thumb_func
 1961              		.type	ln_get_ell_body_phase_angle, %function
 1962              	ln_get_ell_body_phase_angle:
 1963              	.LFB17:
 1964              		.loc 1 424 0
 1965              		.cfi_startproc
 1966              		@ args = 0, pretend = 0, frame = 0
 1967              		@ frame_needed = 0, uses_anonymous_args = 0
 1968              	.LVL288:
 1969 0000 2DE9F04F 		push	{r4, r5, r6, r7, r8, r9, sl, fp, lr}
 1970              	.LCFI22:
 1971              		.cfi_def_cfa_offset 36
 1972              		.cfi_offset 4, -36
 1973              		.cfi_offset 5, -32
 1974              		.cfi_offset 6, -28
 1975              		.cfi_offset 7, -24
 1976              		.cfi_offset 8, -20
 1977              		.cfi_offset 9, -16
 1978              		.cfi_offset 10, -12
 1979              		.cfi_offset 11, -8
 1980              		.cfi_offset 14, -4
 1981              		.loc 1 430 0
 1982 0004 D2E90A67 		ldrd	r6, [r2, #40]
 1983              		.loc 1 424 0
 1984 0008 83B0     		sub	sp, sp, #12
ARM GAS  /tmp/cctkbEOJ.s 			page 36


 1985              	.LCFI23:
 1986              		.cfi_def_cfa_offset 48
 1987              		.loc 1 424 0
 1988 000a 9046     		mov	r8, r2
 1989 000c 0446     		mov	r4, r0
 1990 000e 0D46     		mov	r5, r1
 1991              		.loc 1 430 0
 1992 0010 0022     		movs	r2, #0
 1993              	.LVL289:
 1994 0012 0023     		movs	r3, #0
 1995 0014 3046     		mov	r0, r6
 1996              	.LVL290:
 1997 0016 3946     		mov	r1, r7
 1998 0018 FFF7FEFF 		bl	__aeabi_dcmpeq
 1999              	.LVL291:
 2000 001c 38B1     		cbz	r0, .L64
 2001              		.loc 1 431 0
 2002 001e D8E90001 		ldrd	r0, [r8]
 2003 0022 FFF7FEFF 		bl	ln_get_ell_mean_motion
 2004              	.LVL292:
 2005 0026 0646     		mov	r6, r0
 2006 0028 0F46     		mov	r7, r1
 2007 002a C8E90A67 		strd	r6, [r8, #40]
 2008              	.L64:
 2009              	.LVL293:
 2010              		.loc 1 432 0
 2011 002e D8E90C23 		ldrd	r2, [r8, #48]
 2012 0032 2046     		mov	r0, r4
 2013 0034 2946     		mov	r1, r5
 2014 0036 FFF7FEFF 		bl	__aeabi_dsub
 2015              	.LVL294:
 2016              	.LBB32:
 2017              	.LBB33:
 2018              		.loc 1 98 0
 2019 003a 3246     		mov	r2, r6
 2020 003c 3B46     		mov	r3, r7
 2021 003e FFF7FEFF 		bl	__aeabi_dmul
 2022              	.LVL295:
 2023              	.LBE33:
 2024              	.LBE32:
 2025              		.loc 1 435 0
 2026 0042 D8E90267 		ldrd	r6, [r8, #8]
 2027              	.LVL296:
 2028              	.LBB35:
 2029              	.LBB34:
 2030              		.loc 1 98 0
 2031 0046 0246     		mov	r2, r0
 2032 0048 0B46     		mov	r3, r1
 2033              	.LBE34:
 2034              	.LBE35:
 2035              		.loc 1 435 0
 2036 004a 3046     		mov	r0, r6
 2037 004c 3946     		mov	r1, r7
 2038 004e FFF7FEFF 		bl	ln_solve_kepler
 2039              	.LVL297:
 2040              		.loc 1 438 0
 2041 0052 D8E90067 		ldrd	r6, [r8]
ARM GAS  /tmp/cctkbEOJ.s 			page 37


 2042 0056 D8E90223 		ldrd	r2, [r8, #8]
 2043 005a CDE90001 		strd	r0, [sp]
 2044 005e 3046     		mov	r0, r6
 2045              	.LVL298:
 2046 0060 3946     		mov	r1, r7
 2047 0062 FFF7FEFF 		bl	ln_get_ell_radius_vector
 2048              	.LVL299:
 2049              		.loc 1 441 0
 2050 0066 4246     		mov	r2, r8
 2051              		.loc 1 438 0
 2052 0068 0646     		mov	r6, r0
 2053 006a 0F46     		mov	r7, r1
 2054              	.LVL300:
 2055              		.loc 1 441 0
 2056 006c 2046     		mov	r0, r4
 2057 006e 2946     		mov	r1, r5
 2058 0070 FFF7FEFF 		bl	ln_get_ell_body_earth_dist
 2059              	.LVL301:
 2060              		.loc 1 442 0
 2061 0074 4246     		mov	r2, r8
 2062              		.loc 1 441 0
 2063 0076 8246     		mov	sl, r0
 2064 0078 8B46     		mov	fp, r1
 2065              	.LVL302:
 2066              		.loc 1 442 0
 2067 007a 2046     		mov	r0, r4
 2068 007c 2946     		mov	r1, r5
 2069 007e FFF7FEFF 		bl	ln_get_ell_body_solar_dist
 2070              	.LVL303:
 2071              		.loc 1 444 0
 2072 0082 3246     		mov	r2, r6
 2073              		.loc 1 442 0
 2074 0084 0446     		mov	r4, r0
 2075 0086 0D46     		mov	r5, r1
 2076              	.LVL304:
 2077              		.loc 1 444 0
 2078 0088 3B46     		mov	r3, r7
 2079 008a 3046     		mov	r0, r6
 2080 008c 3946     		mov	r1, r7
 2081 008e FFF7FEFF 		bl	__aeabi_dmul
 2082              	.LVL305:
 2083 0092 2246     		mov	r2, r4
 2084 0094 8046     		mov	r8, r0
 2085              	.LVL306:
 2086 0096 8946     		mov	r9, r1
 2087 0098 2B46     		mov	r3, r5
 2088 009a 2046     		mov	r0, r4
 2089 009c 2946     		mov	r1, r5
 2090 009e FFF7FEFF 		bl	__aeabi_dmul
 2091              	.LVL307:
 2092 00a2 0246     		mov	r2, r0
 2093 00a4 0B46     		mov	r3, r1
 2094 00a6 4046     		mov	r0, r8
 2095 00a8 4946     		mov	r1, r9
 2096 00aa FFF7FEFF 		bl	__aeabi_dadd
 2097              	.LVL308:
 2098 00ae 5246     		mov	r2, sl
ARM GAS  /tmp/cctkbEOJ.s 			page 38


 2099 00b0 8046     		mov	r8, r0
 2100 00b2 8946     		mov	r9, r1
 2101 00b4 5B46     		mov	r3, fp
 2102 00b6 5046     		mov	r0, sl
 2103 00b8 5946     		mov	r1, fp
 2104 00ba FFF7FEFF 		bl	__aeabi_dmul
 2105              	.LVL309:
 2106 00be 0246     		mov	r2, r0
 2107 00c0 0B46     		mov	r3, r1
 2108 00c2 4046     		mov	r0, r8
 2109 00c4 4946     		mov	r1, r9
 2110 00c6 FFF7FEFF 		bl	__aeabi_dsub
 2111              	.LVL310:
 2112 00ca 3246     		mov	r2, r6
 2113 00cc 8046     		mov	r8, r0
 2114 00ce 8946     		mov	r9, r1
 2115 00d0 3B46     		mov	r3, r7
 2116 00d2 3046     		mov	r0, r6
 2117 00d4 3946     		mov	r1, r7
 2118 00d6 FFF7FEFF 		bl	__aeabi_dadd
 2119              	.LVL311:
 2120 00da 2246     		mov	r2, r4
 2121 00dc 2B46     		mov	r3, r5
 2122 00de FFF7FEFF 		bl	__aeabi_dmul
 2123              	.LVL312:
 2124 00e2 0246     		mov	r2, r0
 2125 00e4 0B46     		mov	r3, r1
 2126 00e6 4046     		mov	r0, r8
 2127 00e8 4946     		mov	r1, r9
 2128 00ea FFF7FEFF 		bl	__aeabi_ddiv
 2129              	.LVL313:
 2130              		.loc 1 445 0
 2131 00ee FFF7FEFF 		bl	ln_deg_to_rad
 2132              	.LVL314:
 2133 00f2 FFF7FEFF 		bl	acos
 2134              	.LVL315:
 2135              		.loc 1 446 0
 2136 00f6 03B0     		add	sp, sp, #12
 2137 00f8 BDE8F04F 		pop	{r4, r5, r6, r7, r8, r9, sl, fp, lr}
 2138              		.loc 1 445 0
 2139 00fc FFF7FEBF 		b	ln_range_degrees
 2140              	.LVL316:
 2141              		.cfi_endproc
 2142              	.LFE17:
 2143              		.size	ln_get_ell_body_phase_angle, .-ln_get_ell_body_phase_angle
 2144              		.section	.text.ln_get_ell_body_elong,"ax",%progbits
 2145              		.align	2
 2146              		.p2align 4,,15
 2147              		.global	ln_get_ell_body_elong
 2148              		.thumb
 2149              		.thumb_func
 2150              		.type	ln_get_ell_body_elong, %function
 2151              	ln_get_ell_body_elong:
 2152              	.LFB18:
 2153              		.loc 1 457 0
 2154              		.cfi_startproc
 2155              		@ args = 0, pretend = 0, frame = 8
ARM GAS  /tmp/cctkbEOJ.s 			page 39


 2156              		@ frame_needed = 0, uses_anonymous_args = 0
 2157              	.LVL317:
 2158 0000 2DE9F047 		push	{r4, r5, r6, r7, r8, r9, sl, lr}
 2159              	.LCFI24:
 2160              		.cfi_def_cfa_offset 32
 2161              		.cfi_offset 4, -32
 2162              		.cfi_offset 5, -28
 2163              		.cfi_offset 6, -24
 2164              		.cfi_offset 7, -20
 2165              		.cfi_offset 8, -16
 2166              		.cfi_offset 9, -12
 2167              		.cfi_offset 10, -8
 2168              		.cfi_offset 14, -4
 2169 0004 9246     		mov	sl, r2
 2170 0006 84B0     		sub	sp, sp, #16
 2171              	.LCFI25:
 2172              		.cfi_def_cfa_offset 48
 2173              		.loc 1 464 0
 2174 0008 D2E90C23 		ldrd	r2, [r2, #48]
 2175              	.LVL318:
 2176              		.loc 1 457 0
 2177 000c 0646     		mov	r6, r0
 2178 000e 0F46     		mov	r7, r1
 2179              		.loc 1 464 0
 2180 0010 FFF7FEFF 		bl	__aeabi_dsub
 2181              	.LVL319:
 2182              		.loc 1 467 0
 2183 0014 DAE90A45 		ldrd	r4, [sl, #40]
 2184              		.loc 1 464 0
 2185 0018 8046     		mov	r8, r0
 2186 001a 8946     		mov	r9, r1
 2187              	.LVL320:
 2188              		.loc 1 467 0
 2189 001c 0022     		movs	r2, #0
 2190 001e 0023     		movs	r3, #0
 2191 0020 2046     		mov	r0, r4
 2192 0022 2946     		mov	r1, r5
 2193 0024 FFF7FEFF 		bl	__aeabi_dcmpeq
 2194              	.LVL321:
 2195 0028 38B1     		cbz	r0, .L68
 2196              		.loc 1 468 0
 2197 002a DAE90001 		ldrd	r0, [sl]
 2198 002e FFF7FEFF 		bl	ln_get_ell_mean_motion
 2199              	.LVL322:
 2200 0032 0446     		mov	r4, r0
 2201 0034 0D46     		mov	r5, r1
 2202 0036 CAE90A45 		strd	r4, [sl, #40]
 2203              	.L68:
 2204              	.LVL323:
 2205              		.loc 1 472 0
 2206 003a DAE90223 		ldrd	r2, [sl, #8]
 2207              	.LBB36:
 2208              	.LBB37:
 2209              		.loc 1 98 0
 2210 003e 4046     		mov	r0, r8
 2211              	.LBE37:
 2212              	.LBE36:
ARM GAS  /tmp/cctkbEOJ.s 			page 40


 2213              		.loc 1 472 0
 2214 0040 CDE90223 		strd	r2, [sp, #8]
 2215              	.LBB39:
 2216              	.LBB38:
 2217              		.loc 1 98 0
 2218 0044 4946     		mov	r1, r9
 2219 0046 2246     		mov	r2, r4
 2220 0048 2B46     		mov	r3, r5
 2221 004a FFF7FEFF 		bl	__aeabi_dmul
 2222              	.LVL324:
 2223 004e 0246     		mov	r2, r0
 2224 0050 0B46     		mov	r3, r1
 2225              	.LBE38:
 2226              	.LBE39:
 2227              		.loc 1 472 0
 2228 0052 DDE90201 		ldrd	r0, [sp, #8]
 2229 0056 FFF7FEFF 		bl	ln_solve_kepler
 2230              	.LVL325:
 2231              		.loc 1 475 0
 2232 005a DAE90045 		ldrd	r4, [sl]
 2233              	.LVL326:
 2234 005e DAE90223 		ldrd	r2, [sl, #8]
 2235 0062 CDE90001 		strd	r0, [sp]
 2236 0066 2046     		mov	r0, r4
 2237              	.LVL327:
 2238 0068 2946     		mov	r1, r5
 2239 006a FFF7FEFF 		bl	ln_get_ell_radius_vector
 2240              	.LVL328:
 2241 006e CDE90201 		strd	r0, [sp, #8]
 2242              	.LVL329:
 2243              		.loc 1 478 0
 2244 0072 3046     		mov	r0, r6
 2245              	.LVL330:
 2246 0074 3946     		mov	r1, r7
 2247 0076 FFF7FEFF 		bl	ln_get_earth_solar_dist
 2248              	.LVL331:
 2249              		.loc 1 479 0
 2250 007a 5246     		mov	r2, sl
 2251              		.loc 1 478 0
 2252 007c 0446     		mov	r4, r0
 2253 007e 0D46     		mov	r5, r1
 2254              	.LVL332:
 2255              		.loc 1 479 0
 2256 0080 3046     		mov	r0, r6
 2257 0082 3946     		mov	r1, r7
 2258 0084 FFF7FEFF 		bl	ln_get_ell_body_solar_dist
 2259              	.LVL333:
 2260              		.loc 1 481 0
 2261 0088 2246     		mov	r2, r4
 2262              		.loc 1 479 0
 2263 008a 0646     		mov	r6, r0
 2264 008c 0F46     		mov	r7, r1
 2265              	.LVL334:
 2266              		.loc 1 481 0
 2267 008e 2B46     		mov	r3, r5
 2268 0090 2046     		mov	r0, r4
 2269 0092 2946     		mov	r1, r5
ARM GAS  /tmp/cctkbEOJ.s 			page 41


 2270 0094 FFF7FEFF 		bl	__aeabi_dmul
 2271              	.LVL335:
 2272 0098 3246     		mov	r2, r6
 2273 009a 8046     		mov	r8, r0
 2274              	.LVL336:
 2275 009c 8946     		mov	r9, r1
 2276 009e 3B46     		mov	r3, r7
 2277 00a0 3046     		mov	r0, r6
 2278 00a2 3946     		mov	r1, r7
 2279 00a4 FFF7FEFF 		bl	__aeabi_dmul
 2280              	.LVL337:
 2281 00a8 0246     		mov	r2, r0
 2282 00aa 0B46     		mov	r3, r1
 2283 00ac 4046     		mov	r0, r8
 2284 00ae 4946     		mov	r1, r9
 2285 00b0 FFF7FEFF 		bl	__aeabi_dadd
 2286              	.LVL338:
 2287 00b4 8046     		mov	r8, r0
 2288 00b6 8946     		mov	r9, r1
 2289 00b8 DDE90201 		ldrd	r0, [sp, #8]
 2290 00bc 0246     		mov	r2, r0
 2291 00be 0B46     		mov	r3, r1
 2292 00c0 FFF7FEFF 		bl	__aeabi_dmul
 2293              	.LVL339:
 2294 00c4 0246     		mov	r2, r0
 2295 00c6 0B46     		mov	r3, r1
 2296 00c8 4046     		mov	r0, r8
 2297 00ca 4946     		mov	r1, r9
 2298 00cc FFF7FEFF 		bl	__aeabi_dsub
 2299              	.LVL340:
 2300 00d0 2246     		mov	r2, r4
 2301 00d2 8046     		mov	r8, r0
 2302 00d4 8946     		mov	r9, r1
 2303 00d6 2B46     		mov	r3, r5
 2304 00d8 2046     		mov	r0, r4
 2305 00da 2946     		mov	r1, r5
 2306 00dc FFF7FEFF 		bl	__aeabi_dadd
 2307              	.LVL341:
 2308 00e0 3246     		mov	r2, r6
 2309 00e2 3B46     		mov	r3, r7
 2310 00e4 FFF7FEFF 		bl	__aeabi_dmul
 2311              	.LVL342:
 2312 00e8 0246     		mov	r2, r0
 2313 00ea 0B46     		mov	r3, r1
 2314 00ec 4046     		mov	r0, r8
 2315 00ee 4946     		mov	r1, r9
 2316 00f0 FFF7FEFF 		bl	__aeabi_ddiv
 2317              	.LVL343:
 2318              		.loc 1 482 0
 2319 00f4 FFF7FEFF 		bl	acos
 2320              	.LVL344:
 2321 00f8 FFF7FEFF 		bl	ln_rad_to_deg
 2322              	.LVL345:
 2323              		.loc 1 483 0
 2324 00fc 04B0     		add	sp, sp, #16
 2325 00fe BDE8F047 		pop	{r4, r5, r6, r7, r8, r9, sl, lr}
 2326              		.loc 1 482 0
ARM GAS  /tmp/cctkbEOJ.s 			page 42


 2327 0102 FFF7FEBF 		b	ln_range_degrees
 2328              	.LVL346:
 2329              		.cfi_endproc
 2330              	.LFE18:
 2331              		.size	ln_get_ell_body_elong, .-ln_get_ell_body_elong
 2332 0106 00BFAFF3 		.section	.text.ln_get_ell_body_rst_horizon,"ax",%progbits
 2332      0080AFF3 
 2332      0080
 2333              		.align	2
 2334              		.p2align 4,,15
 2335              		.global	ln_get_ell_body_rst_horizon
 2336              		.thumb
 2337              		.thumb_func
 2338              		.type	ln_get_ell_body_rst_horizon, %function
 2339              	ln_get_ell_body_rst_horizon:
 2340              	.LFB20:
 2341              		.loc 1 518 0
 2342              		.cfi_startproc
 2343              		@ args = 12, pretend = 0, frame = 0
 2344              		@ frame_needed = 0, uses_anonymous_args = 0
 2345              	.LVL347:
 2346 0000 30B5     		push	{r4, r5, lr}
 2347              	.LCFI26:
 2348              		.cfi_def_cfa_offset 12
 2349              		.cfi_offset 4, -12
 2350              		.cfi_offset 5, -8
 2351              		.cfi_offset 14, -4
 2352 0002 87B0     		sub	sp, sp, #28
 2353              	.LCFI27:
 2354              		.cfi_def_cfa_offset 40
 2355              		.loc 1 519 0
 2356 0004 DDE90A45 		ldrd	r4, [sp, #40]
 2357 0008 0093     		str	r3, [sp, #0]
 2358 000a 0C9B     		ldr	r3, [sp, #48]
 2359              	.LVL348:
 2360 000c 0493     		str	r3, [sp, #16]
 2361 000e 40F20003 		movw	r3, #:lower16:ln_get_ell_body_equ_coords
 2362 0012 CDE90245 		strd	r4, [sp, #8]
 2363 0016 C0F20003 		movt	r3, #:upper16:ln_get_ell_body_equ_coords
 2364 001a FFF7FEFF 		bl	ln_get_motion_body_rst_horizon
 2365              	.LVL349:
 2366              		.loc 1 520 0
 2367 001e 07B0     		add	sp, sp, #28
 2368 0020 30BD     		pop	{r4, r5, pc}
 2369              		.cfi_endproc
 2370              	.LFE20:
 2371              		.size	ln_get_ell_body_rst_horizon, .-ln_get_ell_body_rst_horizon
 2372 0022 00BFAFF3 		.section	.text.ln_get_ell_body_rst,"ax",%progbits
 2372      0080AFF3 
 2372      0080AFF3 
 2372      0080
 2373              		.align	2
 2374              		.p2align 4,,15
 2375              		.global	ln_get_ell_body_rst
 2376              		.thumb
 2377              		.thumb_func
 2378              		.type	ln_get_ell_body_rst, %function
ARM GAS  /tmp/cctkbEOJ.s 			page 43


 2379              	ln_get_ell_body_rst:
 2380              	.LFB19:
 2381              		.loc 1 499 0
 2382              		.cfi_startproc
 2383              		@ args = 4, pretend = 0, frame = 0
 2384              		@ frame_needed = 0, uses_anonymous_args = 0
 2385              	.LVL350:
 2386 0000 30B5     		push	{r4, r5, lr}
 2387              	.LCFI28:
 2388              		.cfi_def_cfa_offset 12
 2389              		.cfi_offset 4, -12
 2390              		.cfi_offset 5, -8
 2391              		.cfi_offset 14, -4
 2392              		.loc 1 500 0
 2393 0002 07A5     		adr	r5, .L73
 2394 0004 D5E90045 		ldrd	r4, [r5]
 2395              		.loc 1 499 0
 2396 0008 85B0     		sub	sp, sp, #20
 2397              	.LCFI29:
 2398              		.cfi_def_cfa_offset 32
 2399              		.loc 1 500 0
 2400 000a CDE90045 		strd	r4, [sp]
 2401 000e 089C     		ldr	r4, [sp, #32]
 2402 0010 0294     		str	r4, [sp, #8]
 2403 0012 FFF7FEFF 		bl	ln_get_ell_body_rst_horizon
 2404              	.LVL351:
 2405              		.loc 1 501 0
 2406 0016 05B0     		add	sp, sp, #20
 2407 0018 30BD     		pop	{r4, r5, pc}
 2408              	.L74:
 2409 001a 00BFAFF3 		.align	3
 2409      0080
 2410              	.L73:
 2411 0020 1895D409 		.word	164926744
 2412 0024 6822E2BF 		.word	-1075699096
 2413              		.cfi_endproc
 2414              	.LFE19:
 2415              		.size	ln_get_ell_body_rst, .-ln_get_ell_body_rst
 2416 0028 AFF30080 		.section	.text.ln_get_ell_body_next_rst_horizon,"ax",%progbits
 2416      AFF30080 
 2417              		.align	2
 2418              		.p2align 4,,15
 2419              		.global	ln_get_ell_body_next_rst_horizon
 2420              		.thumb
 2421              		.thumb_func
 2422              		.type	ln_get_ell_body_next_rst_horizon, %function
 2423              	ln_get_ell_body_next_rst_horizon:
 2424              	.LFB22:
 2425              		.loc 1 559 0
 2426              		.cfi_startproc
 2427              		@ args = 12, pretend = 0, frame = 0
 2428              		@ frame_needed = 0, uses_anonymous_args = 0
 2429              	.LVL352:
 2430 0000 30B5     		push	{r4, r5, lr}
 2431              	.LCFI30:
 2432              		.cfi_def_cfa_offset 12
 2433              		.cfi_offset 4, -12
ARM GAS  /tmp/cctkbEOJ.s 			page 44


 2434              		.cfi_offset 5, -8
 2435              		.cfi_offset 14, -4
 2436 0002 87B0     		sub	sp, sp, #28
 2437              	.LCFI31:
 2438              		.cfi_def_cfa_offset 40
 2439              		.loc 1 560 0
 2440 0004 DDE90A45 		ldrd	r4, [sp, #40]
 2441 0008 0093     		str	r3, [sp, #0]
 2442 000a 0C9B     		ldr	r3, [sp, #48]
 2443              	.LVL353:
 2444 000c 0493     		str	r3, [sp, #16]
 2445 000e 40F20003 		movw	r3, #:lower16:ln_get_ell_body_equ_coords
 2446 0012 CDE90245 		strd	r4, [sp, #8]
 2447 0016 C0F20003 		movt	r3, #:upper16:ln_get_ell_body_equ_coords
 2448 001a FFF7FEFF 		bl	ln_get_motion_body_next_rst_horizon
 2449              	.LVL354:
 2450              		.loc 1 561 0
 2451 001e 07B0     		add	sp, sp, #28
 2452 0020 30BD     		pop	{r4, r5, pc}
 2453              		.cfi_endproc
 2454              	.LFE22:
 2455              		.size	ln_get_ell_body_next_rst_horizon, .-ln_get_ell_body_next_rst_horizon
 2456 0022 00BFAFF3 		.section	.text.ln_get_ell_body_next_rst,"ax",%progbits
 2456      0080AFF3 
 2456      0080AFF3 
 2456      0080
 2457              		.align	2
 2458              		.p2align 4,,15
 2459              		.global	ln_get_ell_body_next_rst
 2460              		.thumb
 2461              		.thumb_func
 2462              		.type	ln_get_ell_body_next_rst, %function
 2463              	ln_get_ell_body_next_rst:
 2464              	.LFB21:
 2465              		.loc 1 538 0
 2466              		.cfi_startproc
 2467              		@ args = 4, pretend = 0, frame = 0
 2468              		@ frame_needed = 0, uses_anonymous_args = 0
 2469              	.LVL355:
 2470 0000 30B5     		push	{r4, r5, lr}
 2471              	.LCFI32:
 2472              		.cfi_def_cfa_offset 12
 2473              		.cfi_offset 4, -12
 2474              		.cfi_offset 5, -8
 2475              		.cfi_offset 14, -4
 2476              		.loc 1 539 0
 2477 0002 07A5     		adr	r5, .L77
 2478 0004 D5E90045 		ldrd	r4, [r5]
 2479              		.loc 1 538 0
 2480 0008 85B0     		sub	sp, sp, #20
 2481              	.LCFI33:
 2482              		.cfi_def_cfa_offset 32
 2483              		.loc 1 539 0
 2484 000a CDE90045 		strd	r4, [sp]
 2485 000e 089C     		ldr	r4, [sp, #32]
 2486 0010 0294     		str	r4, [sp, #8]
 2487 0012 FFF7FEFF 		bl	ln_get_ell_body_next_rst_horizon
ARM GAS  /tmp/cctkbEOJ.s 			page 45


 2488              	.LVL356:
 2489              		.loc 1 540 0
 2490 0016 05B0     		add	sp, sp, #20
 2491 0018 30BD     		pop	{r4, r5, pc}
 2492              	.L78:
 2493 001a 00BFAFF3 		.align	3
 2493      0080
 2494              	.L77:
 2495 0020 1895D409 		.word	164926744
 2496 0024 6822E2BF 		.word	-1075699096
 2497              		.cfi_endproc
 2498              	.LFE21:
 2499              		.size	ln_get_ell_body_next_rst, .-ln_get_ell_body_next_rst
 2500 0028 AFF30080 		.section	.text.ln_get_ell_body_next_rst_horizon_future,"ax",%progbits
 2500      AFF30080 
 2501              		.align	2
 2502              		.p2align 4,,15
 2503              		.global	ln_get_ell_body_next_rst_horizon_future
 2504              		.thumb
 2505              		.thumb_func
 2506              		.type	ln_get_ell_body_next_rst_horizon_future, %function
 2507              	ln_get_ell_body_next_rst_horizon_future:
 2508              	.LFB23:
 2509              		.loc 1 581 0
 2510              		.cfi_startproc
 2511              		@ args = 16, pretend = 0, frame = 0
 2512              		@ frame_needed = 0, uses_anonymous_args = 0
 2513              	.LVL357:
 2514 0000 30B5     		push	{r4, r5, lr}
 2515              	.LCFI34:
 2516              		.cfi_def_cfa_offset 12
 2517              		.cfi_offset 4, -12
 2518              		.cfi_offset 5, -8
 2519              		.cfi_offset 14, -4
 2520 0002 87B0     		sub	sp, sp, #28
 2521              	.LCFI35:
 2522              		.cfi_def_cfa_offset 40
 2523              		.loc 1 582 0
 2524 0004 DDE90A45 		ldrd	r4, [sp, #40]
 2525 0008 0093     		str	r3, [sp, #0]
 2526 000a 0C9B     		ldr	r3, [sp, #48]
 2527              	.LVL358:
 2528 000c 0493     		str	r3, [sp, #16]
 2529 000e 0D9B     		ldr	r3, [sp, #52]
 2530 0010 0593     		str	r3, [sp, #20]
 2531 0012 40F20003 		movw	r3, #:lower16:ln_get_ell_body_equ_coords
 2532 0016 CDE90245 		strd	r4, [sp, #8]
 2533 001a C0F20003 		movt	r3, #:upper16:ln_get_ell_body_equ_coords
 2534 001e FFF7FEFF 		bl	ln_get_motion_body_next_rst_horizon_future
 2535              	.LVL359:
 2536              		.loc 1 583 0
 2537 0022 07B0     		add	sp, sp, #28
 2538 0024 30BD     		pop	{r4, r5, pc}
 2539              		.cfi_endproc
 2540              	.LFE23:
 2541              		.size	ln_get_ell_body_next_rst_horizon_future, .-ln_get_ell_body_next_rst_horizon_future
 2542 0026 00BFAFF3 		.section	.text.ln_get_ell_last_perihelion,"ax",%progbits
ARM GAS  /tmp/cctkbEOJ.s 			page 46


 2542      0080AFF3 
 2542      0080
 2543              		.align	2
 2544              		.p2align 4,,15
 2545              		.global	ln_get_ell_last_perihelion
 2546              		.thumb
 2547              		.thumb_func
 2548              		.type	ln_get_ell_last_perihelion, %function
 2549              	ln_get_ell_last_perihelion:
 2550              	.LFB24:
 2551              		.loc 1 593 0
 2552              		.cfi_startproc
 2553              		@ args = 8, pretend = 0, frame = 0
 2554              		@ frame_needed = 0, uses_anonymous_args = 0
 2555              	.LVL360:
 2556 0000 38B5     		push	{r3, r4, r5, lr}
 2557              	.LCFI36:
 2558              		.cfi_def_cfa_offset 16
 2559              		.cfi_offset 3, -16
 2560              		.cfi_offset 4, -12
 2561              		.cfi_offset 5, -8
 2562              		.cfi_offset 14, -4
 2563              		.loc 1 593 0
 2564 0002 0446     		mov	r4, r0
 2565 0004 0D46     		mov	r5, r1
 2566              		.loc 1 594 0
 2567 0006 1046     		mov	r0, r2
 2568              	.LVL361:
 2569 0008 1946     		mov	r1, r3
 2570 000a DDE90423 		ldrd	r2, [sp, #16]
 2571              	.LVL362:
 2572 000e FFF7FEFF 		bl	__aeabi_ddiv
 2573              	.LVL363:
 2574 0012 0246     		mov	r2, r0
 2575 0014 0B46     		mov	r3, r1
 2576 0016 2046     		mov	r0, r4
 2577 0018 2946     		mov	r1, r5
 2578 001a FFF7FEFF 		bl	__aeabi_dsub
 2579              	.LVL364:
 2580              		.loc 1 595 0
 2581 001e 38BD     		pop	{r3, r4, r5, pc}
 2582              		.cfi_endproc
 2583              	.LFE24:
 2584              		.size	ln_get_ell_last_perihelion, .-ln_get_ell_last_perihelion
 2585              		.text
 2586              	.Letext0:
 2587              		.file 2 "./libnova/src/libnova/ln_types.h"
 2588              		.file 3 "./libnova/src/libnova/utility.h"
 2589              		.file 4 "/usr/bin/../lib/gcc/arm-none-eabi/4.7.4/../../../../arm-none-eabi/include/math.h"
 2590              		.file 5 "./libnova/src/libnova/solar.h"
 2591              		.file 6 "./libnova/src/libnova/earth.h"
 2592              		.file 7 "./libnova/src/libnova/transform.h"
 2593              		.file 8 "./libnova/src/libnova/rise_set.h"