ARM GAS  /tmp/cctkbEOJ.s 			page 1


   1              		.syntax unified
   2              		.cpu cortex-m4
   3              		.fpu softvfp
   4              		.eabi_attribute 20, 1
   5              		.eabi_attribute 21, 1
   6              		.eabi_attribute 23, 3
   7              		.eabi_attribute 24, 1
   8              		.eabi_attribute 25, 1
   9              		.eabi_attribute 26, 1
  10              		.eabi_attribute 30, 2
  11              		.eabi_attribute 34, 1
  12              		.eabi_attribute 18, 4
  13              		.thumb
  14              		.file	"elliptic_motion.c"
  15              		.text
  16              	.Ltext0:
  17              		.cfi_sections	.debug_frame
  18              		.global	__aeabi_dcmpeq
  19              		.global	__aeabi_dcmplt
  20              		.global	__aeabi_ddiv
  21              		.global	__aeabi_d2iz
  22              		.global	__aeabi_i2d
  23              		.global	__aeabi_dsub
  24              		.global	__aeabi_dadd
  25              		.global	__aeabi_dmul
  26              		.global	__aeabi_dcmpgt
  27              		.section	.text.ln_solve_kepler,"ax",%progbits
  28              		.align	2
  29              		.p2align 4,,15
  30              		.global	ln_solve_kepler
  31              		.thumb
  32              		.thumb_func
  33              		.type	ln_solve_kepler, %function
  34              	ln_solve_kepler:
  35              	.LFB1:
  36              		.file 1 "./libnova/src/elliptic_motion.c"
  37              		.loc 1 54 0
  38              		.cfi_startproc
  39              		@ args = 0, pretend = 0, frame = 24
  40              		@ frame_needed = 0, uses_anonymous_args = 0
  41              	.LVL0:
  42 0000 2DE9F047 		push	{r4, r5, r6, r7, r8, r9, sl, lr}
  43              	.LCFI0:
  44              		.cfi_def_cfa_offset 32
  45              		.cfi_offset 4, -32
  46              		.cfi_offset 5, -28
  47              		.cfi_offset 6, -24
  48              		.cfi_offset 7, -20
  49              		.cfi_offset 8, -16
  50              		.cfi_offset 9, -12
  51              		.cfi_offset 10, -8
  52              		.cfi_offset 14, -4
  53 0004 86B0     		sub	sp, sp, #24
  54              	.LCFI1:
  55              		.cfi_def_cfa_offset 56
  56              		.loc 1 54 0
  57 0006 CDE90201 		strd	r0, [sp, #8]
ARM GAS  /tmp/cctkbEOJ.s 			page 2


  58              		.loc 1 61 0
  59 000a 1046     		mov	r0, r2
  60              	.LVL1:
  61 000c 1946     		mov	r1, r3
  62 000e FFF7FEFF 		bl	ln_deg_to_rad
  63              	.LVL2:
  64              	.LBB12:
  65              	.LBB13:
  66              		.loc 1 36 0
  67 0012 0022     		movs	r2, #0
  68 0014 0023     		movs	r3, #0
  69              	.LBE13:
  70              	.LBE12:
  71              		.loc 1 61 0
  72 0016 8146     		mov	r9, r0
  73 0018 0E46     		mov	r6, r1
  74              	.LVL3:
  75              	.LBB16:
  76              	.LBB14:
  77              		.loc 1 36 0
  78 001a FFF7FEFF 		bl	__aeabi_dcmpeq
  79              	.LVL4:
  80 001e 0446     		mov	r4, r0
  81 0020 0028     		cmp	r0, #0
  82 0022 40F00281 		bne	.L13
  83              		.loc 1 39 0
  84 0026 3146     		mov	r1, r6
  85 0028 4846     		mov	r0, r9
  86 002a 0022     		movs	r2, #0
  87 002c 0023     		movs	r3, #0
  88 002e FFF7FEFF 		bl	__aeabi_dcmplt
  89              	.LVL5:
  90              		.loc 1 42 0
  91 0032 0027     		movs	r7, #0
  92 0034 3946     		mov	r1, r7
  93 0036 C3F6F071 		movt	r1, 16368
  94 003a CBF6F077 		movt	r7, 49136
  95 003e A046     		mov	r8, r4
  96 0040 0028     		cmp	r0, #0
  97 0042 08BF     		it	eq
  98 0044 0F46     		moveq	r7, r1
  99              	.L2:
 100              	.LBE14:
 101              	.LBE16:
 102              		.loc 1 64 0
 103 0046 80A3     		adr	r3, .L30
 104 0048 D3E90023 		ldrd	r2, [r3]
 105 004c 26F00041 		bic	r1, r6, #-2147483648
 106 0050 4846     		mov	r0, r9
 107 0052 FFF7FEFF 		bl	__aeabi_ddiv
 108              	.LVL6:
 109 0056 0D46     		mov	r5, r1
 110              	.LVL7:
 111 0058 0646     		mov	r6, r0
 112              	.LVL8:
 113              		.loc 1 65 0
 114 005a FFF7FEFF 		bl	__aeabi_d2iz
ARM GAS  /tmp/cctkbEOJ.s 			page 3


 115              	.LVL9:
 116 005e FFF7FEFF 		bl	__aeabi_i2d
 117              	.LVL10:
 118 0062 0246     		mov	r2, r0
 119 0064 0B46     		mov	r3, r1
 120 0066 3046     		mov	r0, r6
 121 0068 2946     		mov	r1, r5
 122 006a FFF7FEFF 		bl	__aeabi_dsub
 123              	.LVL11:
 124 006e 0246     		mov	r2, r0
 125 0070 0B46     		mov	r3, r1
 126 0072 FFF7FEFF 		bl	__aeabi_dadd
 127              	.LVL12:
 128 0076 76A3     		adr	r3, .L30+8
 129 0078 D3E90023 		ldrd	r2, [r3]
 130 007c FFF7FEFF 		bl	__aeabi_dmul
 131              	.LVL13:
 132 0080 4246     		mov	r2, r8
 133 0082 3B46     		mov	r3, r7
 134 0084 FFF7FEFF 		bl	__aeabi_dmul
 135              	.LVL14:
 136              		.loc 1 67 0
 137 0088 0022     		movs	r2, #0
 138 008a 0023     		movs	r3, #0
 139              		.loc 1 65 0
 140 008c CDE90001 		strd	r0, [sp]
 141              	.LVL15:
 142              		.loc 1 67 0
 143 0090 FFF7FEFF 		bl	__aeabi_dcmplt
 144              	.LVL16:
 145 0094 0028     		cmp	r0, #0
 146 0096 40F0CB80 		bne	.L29
 147              	.L4:
 148              	.LVL17:
 149              		.loc 1 71 0
 150 009a DDE90001 		ldrd	r0, [sp]
 151 009e 6CA3     		adr	r3, .L30+8
 152 00a0 D3E90023 		ldrd	r2, [r3]
 153 00a4 FFF7FEFF 		bl	__aeabi_dcmpgt
 154              	.LVL18:
 155 00a8 0028     		cmp	r0, #0
 156 00aa 40F0AE80 		bne	.L15
 157              		.loc 1 69 0
 158 00ae 0023     		movs	r3, #0
 159 00b0 0022     		movs	r2, #0
 160 00b2 C3F6F073 		movt	r3, 16368
 161 00b6 CDE90423 		strd	r2, [sp, #16]
 162              	.L7:
 163              	.LVL19:
 164 00ba 0023     		movs	r3, #0
 165              		.loc 1 57 0
 166 00bc 0FF29819 		adr	r9, .L30+16
 167 00c0 D9E90089 		ldrd	r8, [r9]
 168              		.loc 1 55 0
 169 00c4 66A5     		adr	r5, .L30+24
 170 00c6 D5E90045 		ldrd	r4, [r5]
 171              		.loc 1 69 0
ARM GAS  /tmp/cctkbEOJ.s 			page 4


 172 00ca 4FF0350A 		mov	sl, #53
 173 00ce 0022     		movs	r2, #0
 174 00d0 C3F6F073 		movt	r3, 16368
 175 00d4 65E0     		b	.L12
 176              	.LVL20:
 177              	.L26:
 178              	.LBB17:
 179              	.LBB18:
 180              		.loc 1 42 0
 181 00d6 C3F6F077 		movt	r7, 16368
 182              	.L9:
 183              	.LBE18:
 184              	.LBE17:
 185              		.loc 1 79 0
 186 00da 4046     		mov	r0, r8
 187 00dc 4946     		mov	r1, r9
 188 00de 3246     		mov	r2, r6
 189 00e0 3B46     		mov	r3, r7
 190 00e2 FFF7FEFF 		bl	__aeabi_dmul
 191              	.LVL21:
 192 00e6 0246     		mov	r2, r0
 193 00e8 0B46     		mov	r3, r1
 194 00ea 2046     		mov	r0, r4
 195 00ec 2946     		mov	r1, r5
 196 00ee FFF7FEFF 		bl	__aeabi_dadd
 197              	.LVL22:
 198              		.loc 1 80 0
 199 00f2 0023     		movs	r3, #0
 200 00f4 0022     		movs	r2, #0
 201              		.loc 1 79 0
 202 00f6 0446     		mov	r4, r0
 203 00f8 0D46     		mov	r5, r1
 204              		.loc 1 80 0
 205 00fa 4046     		mov	r0, r8
 206 00fc 4946     		mov	r1, r9
 207 00fe C3F6E073 		movt	r3, 16352
 208 0102 FFF7FEFF 		bl	__aeabi_dmul
 209              	.LVL23:
 210              		.loc 1 77 0
 211 0106 BAF1010A 		subs	sl, sl, #1
 212              		.loc 1 80 0
 213 010a 8046     		mov	r8, r0
 214 010c 8946     		mov	r9, r1
 215              		.loc 1 77 0
 216 010e 71D0     		beq	.L11
 217              		.loc 1 53 0
 218 0110 2046     		mov	r0, r4
 219 0112 2946     		mov	r1, r5
 220 0114 FFF7FEFF 		bl	sin
 221              	.LVL24:
 222 0118 0246     		mov	r2, r0
 223 011a 0B46     		mov	r3, r1
 224              		.loc 1 78 0
 225 011c DDE90201 		ldrd	r0, [sp, #8]
 226 0120 FFF7FEFF 		bl	__aeabi_dmul
 227              	.LVL25:
 228 0124 0246     		mov	r2, r0
ARM GAS  /tmp/cctkbEOJ.s 			page 5


 229 0126 0B46     		mov	r3, r1
 230 0128 2046     		mov	r0, r4
 231 012a 2946     		mov	r1, r5
 232 012c FFF7FEFF 		bl	__aeabi_dsub
 233              	.LVL26:
 234 0130 0246     		mov	r2, r0
 235 0132 0B46     		mov	r3, r1
 236              		.loc 1 79 0
 237 0134 DDE90001 		ldrd	r0, [sp]
 238 0138 FFF7FEFF 		bl	__aeabi_dsub
 239              	.LVL27:
 240              	.LBB23:
 241              	.LBB19:
 242              		.loc 1 36 0
 243 013c 0022     		movs	r2, #0
 244 013e 0023     		movs	r3, #0
 245              	.LBE19:
 246              	.LBE23:
 247              		.loc 1 79 0
 248 0140 0646     		mov	r6, r0
 249 0142 0F46     		mov	r7, r1
 250              	.LBB24:
 251              	.LBB20:
 252              		.loc 1 36 0
 253 0144 FFF7FEFF 		bl	__aeabi_dcmpeq
 254              	.LVL28:
 255 0148 58B9     		cbnz	r0, .L23
 256              		.loc 1 39 0
 257 014a 3046     		mov	r0, r6
 258 014c 3946     		mov	r1, r7
 259 014e 0022     		movs	r2, #0
 260 0150 0023     		movs	r3, #0
 261 0152 FFF7FEFF 		bl	__aeabi_dcmplt
 262              	.LVL29:
 263              		.loc 1 40 0
 264 0156 0026     		movs	r6, #0
 265 0158 0027     		movs	r7, #0
 266              		.loc 1 39 0
 267 015a 0028     		cmp	r0, #0
 268 015c 47D1     		bne	.L24
 269              		.loc 1 42 0
 270 015e C3F6F077 		movt	r7, 16368
 271              	.L23:
 272              	.LBE20:
 273              	.LBE24:
 274              		.loc 1 79 0
 275 0162 4046     		mov	r0, r8
 276 0164 4946     		mov	r1, r9
 277 0166 3246     		mov	r2, r6
 278 0168 3B46     		mov	r3, r7
 279 016a FFF7FEFF 		bl	__aeabi_dmul
 280              	.LVL30:
 281 016e 0246     		mov	r2, r0
 282 0170 0B46     		mov	r3, r1
 283 0172 2046     		mov	r0, r4
 284 0174 2946     		mov	r1, r5
 285 0176 FFF7FEFF 		bl	__aeabi_dadd
ARM GAS  /tmp/cctkbEOJ.s 			page 6


 286              	.LVL31:
 287              		.loc 1 80 0
 288 017a 0023     		movs	r3, #0
 289 017c 0022     		movs	r2, #0
 290 017e C3F6E073 		movt	r3, 16352
 291              		.loc 1 79 0
 292 0182 0446     		mov	r4, r0
 293 0184 0D46     		mov	r5, r1
 294              	.LVL32:
 295              		.loc 1 80 0
 296 0186 4046     		mov	r0, r8
 297 0188 4946     		mov	r1, r9
 298 018a FFF7FEFF 		bl	__aeabi_dmul
 299              	.LVL33:
 300 018e 8046     		mov	r8, r0
 301 0190 8946     		mov	r9, r1
 302              	.LVL34:
 303              		.loc 1 53 0
 304 0192 2046     		mov	r0, r4
 305 0194 2946     		mov	r1, r5
 306 0196 FFF7FEFF 		bl	sin
 307              	.LVL35:
 308 019a 0AF1FF3A 		add	sl, sl, #-1
 309 019e 0246     		mov	r2, r0
 310 01a0 0B46     		mov	r3, r1
 311              	.LVL36:
 312              	.L12:
 313              		.loc 1 78 0 discriminator 2
 314 01a2 DDE90201 		ldrd	r0, [sp, #8]
 315 01a6 FFF7FEFF 		bl	__aeabi_dmul
 316              	.LVL37:
 317 01aa 0246     		mov	r2, r0
 318 01ac 0B46     		mov	r3, r1
 319 01ae 2046     		mov	r0, r4
 320 01b0 2946     		mov	r1, r5
 321 01b2 FFF7FEFF 		bl	__aeabi_dsub
 322              	.LVL38:
 323 01b6 0246     		mov	r2, r0
 324 01b8 0B46     		mov	r3, r1
 325              		.loc 1 79 0 discriminator 2
 326 01ba DDE90001 		ldrd	r0, [sp]
 327 01be FFF7FEFF 		bl	__aeabi_dsub
 328              	.LVL39:
 329              	.LBB25:
 330              	.LBB21:
 331              		.loc 1 36 0 discriminator 2
 332 01c2 0022     		movs	r2, #0
 333 01c4 0023     		movs	r3, #0
 334              	.LBE21:
 335              	.LBE25:
 336              		.loc 1 79 0 discriminator 2
 337 01c6 0646     		mov	r6, r0
 338 01c8 0F46     		mov	r7, r1
 339              	.LVL40:
 340              	.LBB26:
 341              	.LBB22:
 342              		.loc 1 36 0 discriminator 2
ARM GAS  /tmp/cctkbEOJ.s 			page 7


 343 01ca FFF7FEFF 		bl	__aeabi_dcmpeq
 344              	.LVL41:
 345 01ce 0028     		cmp	r0, #0
 346 01d0 83D1     		bne	.L9
 347              		.loc 1 39 0
 348 01d2 3046     		mov	r0, r6
 349 01d4 3946     		mov	r1, r7
 350 01d6 0022     		movs	r2, #0
 351 01d8 0023     		movs	r3, #0
 352 01da FFF7FEFF 		bl	__aeabi_dcmplt
 353              	.LVL42:
 354              		.loc 1 40 0
 355 01de 0026     		movs	r6, #0
 356              	.LVL43:
 357 01e0 0027     		movs	r7, #0
 358              		.loc 1 39 0
 359 01e2 0028     		cmp	r0, #0
 360 01e4 3FF477AF 		beq	.L26
 361              		.loc 1 40 0
 362 01e8 CBF6F077 		movt	r7, 49136
 363 01ec 75E7     		b	.L9
 364              	.L24:
 365 01ee CBF6F077 		movt	r7, 49136
 366 01f2 B6E7     		b	.L23
 367              	.L11:
 368              	.LBE22:
 369              	.LBE26:
 370              		.loc 1 82 0
 371 01f4 DDE90401 		ldrd	r0, [sp, #16]
 372 01f8 2246     		mov	r2, r4
 373 01fa 2B46     		mov	r3, r5
 374 01fc FFF7FEFF 		bl	__aeabi_dmul
 375              	.LVL44:
 376              		.loc 1 87 0
 377 0200 06B0     		add	sp, sp, #24
 378 0202 BDE8F047 		pop	{r4, r5, r6, r7, r8, r9, sl, lr}
 379              		.loc 1 85 0
 380 0206 FFF7FEBF 		b	ln_rad_to_deg
 381              	.LVL45:
 382              	.L15:
 383              		.loc 1 75 0
 384 020a DDE90023 		ldrd	r2, [sp]
 385 020e 0EA1     		adr	r1, .L30
 386 0210 D1E90001 		ldrd	r0, [r1]
 387 0214 FFF7FEFF 		bl	__aeabi_dsub
 388              	.LVL46:
 389              		.loc 1 72 0
 390 0218 0023     		movs	r3, #0
 391 021a 0022     		movs	r2, #0
 392 021c CBF6F073 		movt	r3, 49136
 393              		.loc 1 75 0
 394 0220 CDE90001 		strd	r0, [sp]
 395              	.LVL47:
 396              		.loc 1 72 0
 397 0224 CDE90423 		strd	r2, [sp, #16]
 398 0228 47E7     		b	.L7
 399              	.LVL48:
ARM GAS  /tmp/cctkbEOJ.s 			page 8


 400              	.L13:
 401              	.LBB27:
 402              	.LBB15:
 403              		.loc 1 37 0
 404 022a C846     		mov	r8, r9
 405 022c 3746     		mov	r7, r6
 406 022e 0AE7     		b	.L2
 407              	.LVL49:
 408              	.L29:
 409              	.LBE15:
 410              	.LBE27:
 411              		.loc 1 68 0
 412 0230 DDE90001 		ldrd	r0, [sp]
 413 0234 04A3     		adr	r3, .L30
 414 0236 D3E90023 		ldrd	r2, [r3]
 415 023a FFF7FEFF 		bl	__aeabi_dadd
 416              	.LVL50:
 417 023e CDE90001 		strd	r0, [sp]
 418              	.LVL51:
 419 0242 2AE7     		b	.L4
 420              	.L31:
 421 0244 AFF30080 		.align	3
 422              	.L30:
 423 0248 182D4454 		.word	1413754136
 424 024c FB211940 		.word	1075388923
 425 0250 182D4454 		.word	1413754136
 426 0254 FB210940 		.word	1074340347
 427 0258 182D4454 		.word	1413754136
 428 025c FB21E93F 		.word	1072243195
 429 0260 182D4454 		.word	1413754136
 430 0264 FB21F93F 		.word	1073291771
 431              		.cfi_endproc
 432              	.LFE1:
 433              		.size	ln_solve_kepler, .-ln_solve_kepler
 434 0268 AFF30080 		.section	.text.ln_get_ell_mean_anomaly,"ax",%progbits
 434      AFF30080 
 435              		.align	2
 436              		.p2align 4,,15
 437              		.global	ln_get_ell_mean_anomaly
 438              		.thumb
 439              		.thumb_func
 440              		.type	ln_get_ell_mean_anomaly, %function
 441              	ln_get_ell_mean_anomaly:
 442              	.LFB2:
 443              		.loc 1 97 0
 444              		.cfi_startproc
 445              		@ args = 0, pretend = 0, frame = 0
 446              		@ frame_needed = 0, uses_anonymous_args = 0
 447              	.LVL52:
 448 0000 38B5     		push	{r3, r4, r5, lr}
 449              	.LCFI2:
 450              		.cfi_def_cfa_offset 16
 451              		.cfi_offset 3, -16
 452              		.cfi_offset 4, -12
 453              		.cfi_offset 5, -8
 454              		.cfi_offset 14, -4
 455              		.loc 1 97 0
ARM GAS  /tmp/cctkbEOJ.s 			page 9


 456 0002 0446     		mov	r4, r0
 457 0004 0D46     		mov	r5, r1
 458              		.loc 1 98 0
 459 0006 1046     		mov	r0, r2
 460              	.LVL53:
 461 0008 1946     		mov	r1, r3
 462 000a 2246     		mov	r2, r4
 463              	.LVL54:
 464 000c 2B46     		mov	r3, r5
 465 000e FFF7FEFF 		bl	__aeabi_dmul
 466              	.LVL55:
 467              		.loc 1 99 0
 468 0012 38BD     		pop	{r3, r4, r5, pc}
 469              		.cfi_endproc
 470              	.LFE2:
 471              		.size	ln_get_ell_mean_anomaly, .-ln_get_ell_mean_anomaly
 472 0014 AFF30080 		.section	.text.ln_get_ell_true_anomaly,"ax",%progbits
 472      AFF30080 
 472      AFF30080 
 473              		.align	2
 474              		.p2align 4,,15
 475              		.global	ln_get_ell_true_anomaly
 476              		.thumb
 477              		.thumb_func
 478              		.type	ln_get_ell_true_anomaly, %function
 479              	ln_get_ell_true_anomaly:
 480              	.LFB3:
 481              		.loc 1 110 0
 482              		.cfi_startproc
 483              		@ args = 0, pretend = 0, frame = 0
 484              		@ frame_needed = 0, uses_anonymous_args = 0
 485              	.LVL56:
 486 0000 2DE9F843 		push	{r3, r4, r5, r6, r7, r8, r9, lr}
 487              	.LCFI3:
 488              		.cfi_def_cfa_offset 32
 489              		.cfi_offset 3, -32
 490              		.cfi_offset 4, -28
 491              		.cfi_offset 5, -24
 492              		.cfi_offset 6, -20
 493              		.cfi_offset 7, -16
 494              		.cfi_offset 8, -12
 495              		.cfi_offset 9, -8
 496              		.cfi_offset 14, -4
 497              		.loc 1 110 0
 498 0004 0446     		mov	r4, r0
 499 0006 0D46     		mov	r5, r1
 500              		.loc 1 113 0
 501 0008 1046     		mov	r0, r2
 502              	.LVL57:
 503 000a 1946     		mov	r1, r3
 504 000c FFF7FEFF 		bl	ln_deg_to_rad
 505              	.LVL58:
 506              		.loc 1 114 0
 507 0010 0023     		movs	r3, #0
 508              		.loc 1 113 0
 509 0012 0646     		mov	r6, r0
 510 0014 0F46     		mov	r7, r1
ARM GAS  /tmp/cctkbEOJ.s 			page 10


 511              	.LVL59:
 512              		.loc 1 114 0
 513 0016 0022     		movs	r2, #0
 514 0018 2046     		mov	r0, r4
 515 001a 2946     		mov	r1, r5
 516 001c C3F6F073 		movt	r3, 16368
 517 0020 FFF7FEFF 		bl	__aeabi_dadd
 518              	.LVL60:
 519 0024 8946     		mov	r9, r1
 520 0026 0021     		movs	r1, #0
 521 0028 8046     		mov	r8, r0
 522 002a 2246     		mov	r2, r4
 523 002c 2B46     		mov	r3, r5
 524 002e 0020     		movs	r0, #0
 525 0030 C3F6F071 		movt	r1, 16368
 526 0034 FFF7FEFF 		bl	__aeabi_dsub
 527              	.LVL61:
 528 0038 0246     		mov	r2, r0
 529 003a 0B46     		mov	r3, r1
 530 003c 4046     		mov	r0, r8
 531 003e 4946     		mov	r1, r9
 532 0040 FFF7FEFF 		bl	__aeabi_ddiv
 533              	.LVL62:
 534 0044 FFF7FEFF 		bl	sqrt
 535              	.LVL63:
 536 0048 0023     		movs	r3, #0
 537 004a 0022     		movs	r2, #0
 538 004c 0446     		mov	r4, r0
 539 004e 0D46     		mov	r5, r1
 540 0050 C3F6E073 		movt	r3, 16352
 541 0054 3046     		mov	r0, r6
 542 0056 3946     		mov	r1, r7
 543 0058 FFF7FEFF 		bl	__aeabi_dmul
 544              	.LVL64:
 545 005c FFF7FEFF 		bl	tan
 546              	.LVL65:
 547 0060 0246     		mov	r2, r0
 548 0062 0B46     		mov	r3, r1
 549              	.LVL66:
 550 0064 2046     		mov	r0, r4
 551 0066 2946     		mov	r1, r5
 552 0068 FFF7FEFF 		bl	__aeabi_dmul
 553              	.LVL67:
 554              		.loc 1 115 0
 555 006c FFF7FEFF 		bl	atan
 556              	.LVL68:
 557 0070 0246     		mov	r2, r0
 558 0072 0B46     		mov	r3, r1
 559 0074 FFF7FEFF 		bl	__aeabi_dadd
 560              	.LVL69:
 561              		.loc 1 116 0
 562 0078 FFF7FEFF 		bl	ln_rad_to_deg
 563              	.LVL70:
 564              		.loc 1 118 0
 565 007c BDE8F843 		pop	{r3, r4, r5, r6, r7, r8, r9, lr}
 566              		.loc 1 116 0
 567 0080 FFF7FEBF 		b	ln_range_degrees
ARM GAS  /tmp/cctkbEOJ.s 			page 11


 568              	.LVL71:
 569              		.cfi_endproc
 570              	.LFE3:
 571              		.size	ln_get_ell_true_anomaly, .-ln_get_ell_true_anomaly
 572 0084 AFF30080 		.section	.text.ln_get_ell_radius_vector,"ax",%progbits
 572      AFF30080 
 572      AFF30080 
 573              		.align	2
 574              		.p2align 4,,15
 575              		.global	ln_get_ell_radius_vector
 576              		.thumb
 577              		.thumb_func
 578              		.type	ln_get_ell_radius_vector, %function
 579              	ln_get_ell_radius_vector:
 580              	.LFB4:
 581              		.loc 1 130 0
 582              		.cfi_startproc
 583              		@ args = 8, pretend = 0, frame = 0
 584              		@ frame_needed = 0, uses_anonymous_args = 0
 585              	.LVL72:
 586 0000 F8B5     		push	{r3, r4, r5, r6, r7, lr}
 587              	.LCFI4:
 588              		.cfi_def_cfa_offset 24
 589              		.cfi_offset 3, -24
 590              		.cfi_offset 4, -20
 591              		.cfi_offset 5, -16
 592              		.cfi_offset 6, -12
 593              		.cfi_offset 7, -8
 594              		.cfi_offset 14, -4
 595              		.loc 1 130 0
 596 0002 0446     		mov	r4, r0
 597 0004 0D46     		mov	r5, r1
 598              		.loc 1 131 0
 599 0006 DDE90601 		ldrd	r0, [sp, #24]
 600              	.LVL73:
 601              		.loc 1 130 0
 602 000a 1646     		mov	r6, r2
 603 000c 1F46     		mov	r7, r3
 604              		.loc 1 131 0
 605 000e FFF7FEFF 		bl	ln_deg_to_rad
 606              	.LVL74:
 607 0012 FFF7FEFF 		bl	cos
 608              	.LVL75:
 609 0016 3246     		mov	r2, r6
 610 0018 3B46     		mov	r3, r7
 611 001a FFF7FEFF 		bl	__aeabi_dmul
 612              	.LVL76:
 613 001e 0B46     		mov	r3, r1
 614 0020 0021     		movs	r1, #0
 615 0022 0246     		mov	r2, r0
 616 0024 C3F6F071 		movt	r1, 16368
 617 0028 0020     		movs	r0, #0
 618 002a FFF7FEFF 		bl	__aeabi_dsub
 619              	.LVL77:
 620 002e 2246     		mov	r2, r4
 621 0030 2B46     		mov	r3, r5
 622 0032 FFF7FEFF 		bl	__aeabi_dmul
ARM GAS  /tmp/cctkbEOJ.s 			page 12


 623              	.LVL78:
 624              		.loc 1 132 0
 625 0036 F8BD     		pop	{r3, r4, r5, r6, r7, pc}
 626              		.cfi_endproc
 627              	.LFE4:
 628              		.size	ln_get_ell_radius_vector, .-ln_get_ell_radius_vector
 629 0038 AFF30080 		.section	.text.ln_get_ell_smajor_diam,"ax",%progbits
 629      AFF30080 
 630              		.align	2
 631              		.p2align 4,,15
 632              		.global	ln_get_ell_smajor_diam
 633              		.thumb
 634              		.thumb_func
 635              		.type	ln_get_ell_smajor_diam, %function
 636              	ln_get_ell_smajor_diam:
 637              	.LFB5:
 638              		.loc 1 143 0
 639              		.cfi_startproc
 640              		@ args = 0, pretend = 0, frame = 0
 641              		@ frame_needed = 0, uses_anonymous_args = 0
 642              	.LVL79:
 643 0000 F8B5     		push	{r3, r4, r5, r6, r7, lr}
 644              	.LCFI5:
 645              		.cfi_def_cfa_offset 24
 646              		.cfi_offset 3, -24
 647              		.cfi_offset 4, -20
 648              		.cfi_offset 5, -16
 649              		.cfi_offset 6, -12
 650              		.cfi_offset 7, -8
 651              		.cfi_offset 14, -4
 652              		.loc 1 143 0
 653 0002 0646     		mov	r6, r0
 654 0004 0F46     		mov	r7, r1
 655              		.loc 1 144 0
 656 0006 0021     		movs	r1, #0
 657              		.loc 1 143 0
 658 0008 1446     		mov	r4, r2
 659 000a 1D46     		mov	r5, r3
 660              		.loc 1 144 0
 661 000c 3246     		mov	r2, r6
 662              	.LVL80:
 663 000e 3B46     		mov	r3, r7
 664 0010 0020     		movs	r0, #0
 665              	.LVL81:
 666 0012 C3F6F071 		movt	r1, 16368
 667 0016 FFF7FEFF 		bl	__aeabi_dsub
 668              	.LVL82:
 669 001a 0246     		mov	r2, r0
 670 001c 0B46     		mov	r3, r1
 671 001e 2046     		mov	r0, r4
 672 0020 2946     		mov	r1, r5
 673 0022 FFF7FEFF 		bl	__aeabi_ddiv
 674              	.LVL83:
 675              		.loc 1 145 0
 676 0026 F8BD     		pop	{r3, r4, r5, r6, r7, pc}
 677              		.cfi_endproc
 678              	.LFE5:
ARM GAS  /tmp/cctkbEOJ.s 			page 13


 679              		.size	ln_get_ell_smajor_diam, .-ln_get_ell_smajor_diam
 680 0028 AFF30080 		.section	.text.ln_get_ell_sminor_diam,"ax",%progbits
 680      AFF30080 
 681              		.align	2
 682              		.p2align 4,,15
 683              		.global	ln_get_ell_sminor_diam
 684              		.thumb
 685              		.thumb_func
 686              		.type	ln_get_ell_sminor_diam, %function
 687              	ln_get_ell_sminor_diam:
 688              	.LFB6:
 689              		.loc 1 155 0
 690              		.cfi_startproc
 691              		@ args = 0, pretend = 0, frame = 0
 692              		@ frame_needed = 0, uses_anonymous_args = 0
 693              	.LVL84:
 694 0000 38B5     		push	{r3, r4, r5, lr}
 695              	.LCFI6:
 696              		.cfi_def_cfa_offset 16
 697              		.cfi_offset 3, -16
 698              		.cfi_offset 4, -12
 699              		.cfi_offset 5, -8
 700              		.cfi_offset 14, -4
 701              		.loc 1 155 0
 702 0002 1446     		mov	r4, r2
 703 0004 1D46     		mov	r5, r3
 704              		.loc 1 156 0
 705 0006 0246     		mov	r2, r0
 706              	.LVL85:
 707 0008 0B46     		mov	r3, r1
 708 000a FFF7FEFF 		bl	__aeabi_dmul
 709              	.LVL86:
 710 000e 0B46     		mov	r3, r1
 711 0010 0021     		movs	r1, #0
 712 0012 0246     		mov	r2, r0
 713 0014 C3F6F071 		movt	r1, 16368
 714 0018 0020     		movs	r0, #0
 715 001a FFF7FEFF 		bl	__aeabi_dsub
 716              	.LVL87:
 717 001e FFF7FEFF 		bl	sqrt
 718              	.LVL88:
 719 0022 2246     		mov	r2, r4
 720 0024 2B46     		mov	r3, r5
 721 0026 FFF7FEFF 		bl	__aeabi_dmul
 722              	.LVL89:
 723              		.loc 1 157 0
 724 002a 38BD     		pop	{r3, r4, r5, pc}
 725              		.cfi_endproc
 726              	.LFE6:
 727              		.size	ln_get_ell_sminor_diam, .-ln_get_ell_sminor_diam
 728 002c AFF30080 		.section	.text.ln_get_ell_mean_motion,"ax",%progbits
 729              		.align	2
 730              		.p2align 4,,15
 731              		.global	ln_get_ell_mean_motion
 732              		.thumb
 733              		.thumb_func
 734              		.type	ln_get_ell_mean_motion, %function
ARM GAS  /tmp/cctkbEOJ.s 			page 14


 735              	ln_get_ell_mean_motion:
 736              	.LFB7:
 737              		.loc 1 166 0
 738              		.cfi_startproc
 739              		@ args = 0, pretend = 0, frame = 0
 740              		@ frame_needed = 0, uses_anonymous_args = 0
 741              	.LVL90:
 742 0000 38B5     		push	{r3, r4, r5, lr}
 743              	.LCFI7:
 744              		.cfi_def_cfa_offset 16
 745              		.cfi_offset 3, -16
 746              		.cfi_offset 4, -12
 747              		.cfi_offset 5, -8
 748              		.cfi_offset 14, -4
 749              		.loc 1 166 0
 750 0002 0446     		mov	r4, r0
 751 0004 0D46     		mov	r5, r1
 752              		.loc 1 168 0
 753 0006 FFF7FEFF 		bl	sqrt
 754              	.LVL91:
 755 000a 2246     		mov	r2, r4
 756 000c 2B46     		mov	r3, r5
 757 000e FFF7FEFF 		bl	__aeabi_dmul
 758              	.LVL92:
 759 0012 0246     		mov	r2, r0
 760 0014 0B46     		mov	r3, r1
 761 0016 04A1     		adr	r1, .L38
 762 0018 D1E90001 		ldrd	r0, [r1]
 763 001c FFF7FEFF 		bl	__aeabi_ddiv
 764              	.LVL93:
 765              		.loc 1 169 0
 766 0020 38BD     		pop	{r3, r4, r5, pc}
 767              	.L39:
 768 0022 00BFAFF3 		.align	3
 768      0080
 769              	.L38:
 770 0028 9F5CEA17 		.word	401235103
 771 002c 198AEF3F 		.word	1072663065
 772              		.cfi_endproc
 773              	.LFE7:
 774              		.size	ln_get_ell_mean_motion, .-ln_get_ell_mean_motion
 775              		.section	.text.ln_get_ell_helio_rect_posn,"ax",%progbits
 776              		.align	2
 777              		.p2align 4,,15
 778              		.global	ln_get_ell_helio_rect_posn
 779              		.thumb
 780              		.thumb_func
 781              		.type	ln_get_ell_helio_rect_posn, %function
 782              	ln_get_ell_helio_rect_posn:
 783              	.LFB8:
 784              		.loc 1 180 0
 785              		.cfi_startproc
 786              		@ args = 4, pretend = 0, frame = 64
 787              		@ frame_needed = 0, uses_anonymous_args = 0
 788              	.LVL94:
 789 0000 2DE9F04F 		push	{r4, r5, r6, r7, r8, r9, sl, fp, lr}
 790              	.LCFI8:
ARM GAS  /tmp/cctkbEOJ.s 			page 15


 791              		.cfi_def_cfa_offset 36
 792              		.cfi_offset 4, -36
 793              		.cfi_offset 5, -32
 794              		.cfi_offset 6, -28
 795              		.cfi_offset 7, -24
 796              		.cfi_offset 8, -20
 797              		.cfi_offset 9, -16
 798              		.cfi_offset 10, -12
 799              		.cfi_offset 11, -8
 800              		.cfi_offset 14, -4
 801 0004 0646     		mov	r6, r0
 802 0006 93B0     		sub	sp, sp, #76
 803              	.LCFI9:
 804              		.cfi_def_cfa_offset 112
 805              		.loc 1 194 0
 806 0008 D0E90801 		ldrd	r0, [r0, #32]
 807              	.LVL95:
 808              		.loc 1 180 0
 809 000c CDE91023 		strd	r2, [sp, #64]
 810              		.loc 1 194 0
 811 0010 FFF7FEFF 		bl	ln_deg_to_rad
 812              	.LVL96:
 813 0014 FFF7FEFF 		bl	sin
 814              	.LVL97:
 815 0018 8046     		mov	r8, r0
 816 001a 0F46     		mov	r7, r1
 817              	.LVL98:
 818              		.loc 1 195 0
 819 001c D6E90801 		ldrd	r0, [r6, #32]
 820              	.LVL99:
 821 0020 FFF7FEFF 		bl	ln_deg_to_rad
 822              	.LVL100:
 823 0024 FFF7FEFF 		bl	cos
 824              	.LVL101:
 825 0028 CDE90201 		strd	r0, [sp, #8]
 826              	.LVL102:
 827              		.loc 1 196 0
 828 002c D6E90401 		ldrd	r0, [r6, #16]
 829              	.LVL103:
 830 0030 FFF7FEFF 		bl	ln_deg_to_rad
 831              	.LVL104:
 832 0034 FFF7FEFF 		bl	sin
 833              	.LVL105:
 834 0038 CDE90401 		strd	r0, [sp, #16]
 835              	.LVL106:
 836              		.loc 1 197 0
 837 003c D6E90401 		ldrd	r0, [r6, #16]
 838              	.LVL107:
 839 0040 FFF7FEFF 		bl	ln_deg_to_rad
 840              	.LVL108:
 841 0044 FFF7FEFF 		bl	cos
 842              	.LVL109:
 843              		.loc 1 199 0
 844 0048 63A3     		adr	r3, .L44
 845 004a D3E90023 		ldrd	r2, [r3]
 846              		.loc 1 197 0
 847 004e 8246     		mov	sl, r0
ARM GAS  /tmp/cctkbEOJ.s 			page 16


 848 0050 8B46     		mov	fp, r1
 849              	.LVL110:
 850              		.loc 1 199 0
 851 0052 4046     		mov	r0, r8
 852 0054 3946     		mov	r1, r7
 853 0056 FFF7FEFF 		bl	__aeabi_dmul
 854              	.LVL111:
 855              		.loc 1 200 0
 856 005a 61A3     		adr	r3, .L44+8
 857 005c D3E90023 		ldrd	r2, [r3]
 858              		.loc 1 199 0
 859 0060 CDE90601 		strd	r0, [sp, #24]
 860              	.LVL112:
 861              		.loc 1 200 0
 862 0064 4046     		mov	r0, r8
 863              	.LVL113:
 864 0066 3946     		mov	r1, r7
 865 0068 FFF7FEFF 		bl	__aeabi_dmul
 866              	.LVL114:
 867              		.loc 1 199 0
 868 006c 4446     		mov	r4, r8
 869              		.loc 1 201 0
 870 006e 07F10043 		add	r3, r7, #-2147483648
 871              		.loc 1 200 0
 872 0072 CDE90801 		strd	r0, [sp, #32]
 873              	.LVL115:
 874              		.loc 1 201 0
 875 0076 5246     		mov	r2, sl
 876 0078 2046     		mov	r0, r4
 877              	.LVL116:
 878 007a 1946     		mov	r1, r3
 879 007c 5B46     		mov	r3, fp
 880 007e FFF7FEFF 		bl	__aeabi_dmul
 881              	.LVL117:
 882              		.loc 1 202 0
 883 0082 5246     		mov	r2, sl
 884 0084 5B46     		mov	r3, fp
 885              		.loc 1 201 0
 886 0086 CDE90A01 		strd	r0, [sp, #40]
 887              	.LVL118:
 888              		.loc 1 202 0
 889 008a DDE90201 		ldrd	r0, [sp, #8]
 890              	.LVL119:
 891 008e FFF7FEFF 		bl	__aeabi_dmul
 892              	.LVL120:
 893 0092 51A3     		adr	r3, .L44
 894 0094 D3E90023 		ldrd	r2, [r3]
 895 0098 0746     		mov	r7, r0
 896              	.LVL121:
 897 009a 0C46     		mov	r4, r1
 898 009c FFF7FEFF 		bl	__aeabi_dmul
 899              	.LVL122:
 900 00a0 4FA3     		adr	r3, .L44+8
 901 00a2 D3E90023 		ldrd	r2, [r3]
 902 00a6 8046     		mov	r8, r0
 903 00a8 8946     		mov	r9, r1
 904 00aa DDE90401 		ldrd	r0, [sp, #16]
ARM GAS  /tmp/cctkbEOJ.s 			page 17


 905 00ae FFF7FEFF 		bl	__aeabi_dmul
 906              	.LVL123:
 907 00b2 0246     		mov	r2, r0
 908 00b4 0B46     		mov	r3, r1
 909 00b6 4046     		mov	r0, r8
 910 00b8 4946     		mov	r1, r9
 911 00ba FFF7FEFF 		bl	__aeabi_dsub
 912              	.LVL124:
 913              		.loc 1 203 0
 914 00be 48A3     		adr	r3, .L44+8
 915 00c0 D3E90023 		ldrd	r2, [r3]
 916              		.loc 1 202 0
 917 00c4 8046     		mov	r8, r0
 918 00c6 8946     		mov	r9, r1
 919              	.LVL125:
 920              		.loc 1 203 0
 921 00c8 3846     		mov	r0, r7
 922 00ca 2146     		mov	r1, r4
 923 00cc FFF7FEFF 		bl	__aeabi_dmul
 924              	.LVL126:
 925 00d0 41A3     		adr	r3, .L44
 926 00d2 D3E90023 		ldrd	r2, [r3]
 927 00d6 0746     		mov	r7, r0
 928 00d8 0D46     		mov	r5, r1
 929 00da DDE90401 		ldrd	r0, [sp, #16]
 930 00de FFF7FEFF 		bl	__aeabi_dmul
 931              	.LVL127:
 932 00e2 0246     		mov	r2, r0
 933 00e4 0B46     		mov	r3, r1
 934 00e6 3846     		mov	r0, r7
 935 00e8 2946     		mov	r1, r5
 936 00ea FFF7FEFF 		bl	__aeabi_dadd
 937              	.LVL128:
 938              		.loc 1 206 0
 939 00ee DDE90A23 		ldrd	r2, [sp, #40]
 940              		.loc 1 203 0
 941 00f2 8246     		mov	sl, r0
 942              	.LVL129:
 943 00f4 8B46     		mov	fp, r1
 944              	.LVL130:
 945              		.loc 1 206 0
 946 00f6 DDE90201 		ldrd	r0, [sp, #8]
 947 00fa FFF7FEFF 		bl	atan2
 948              	.LVL131:
 949              		.loc 1 207 0
 950 00fe 4246     		mov	r2, r8
 951              		.loc 1 206 0
 952 0100 CDE90401 		strd	r0, [sp, #16]
 953              	.LVL132:
 954              		.loc 1 207 0
 955 0104 4B46     		mov	r3, r9
 956 0106 DDE90601 		ldrd	r0, [sp, #24]
 957              	.LVL133:
 958 010a FFF7FEFF 		bl	atan2
 959              	.LVL134:
 960              		.loc 1 208 0
 961 010e 5246     		mov	r2, sl
ARM GAS  /tmp/cctkbEOJ.s 			page 18


 962              		.loc 1 207 0
 963 0110 CDE90C01 		strd	r0, [sp, #48]
 964              	.LVL135:
 965              		.loc 1 208 0
 966 0114 5B46     		mov	r3, fp
 967 0116 DDE90801 		ldrd	r0, [sp, #32]
 968              	.LVL136:
 969 011a FFF7FEFF 		bl	atan2
 970              	.LVL137:
 971 011e CDE90E01 		strd	r0, [sp, #56]
 972              	.LVL138:
 973              		.loc 1 209 0
 974 0122 DDE90201 		ldrd	r0, [sp, #8]
 975              	.LVL139:
 976 0126 0246     		mov	r2, r0
 977 0128 0B46     		mov	r3, r1
 978 012a FFF7FEFF 		bl	__aeabi_dmul
 979              	.LVL140:
 980 012e 0446     		mov	r4, r0
 981 0130 0F46     		mov	r7, r1
 982 0132 DDE90A01 		ldrd	r0, [sp, #40]
 983 0136 0246     		mov	r2, r0
 984 0138 0B46     		mov	r3, r1
 985 013a FFF7FEFF 		bl	__aeabi_dmul
 986              	.LVL141:
 987 013e 0246     		mov	r2, r0
 988 0140 0B46     		mov	r3, r1
 989 0142 2046     		mov	r0, r4
 990 0144 3946     		mov	r1, r7
 991 0146 FFF7FEFF 		bl	__aeabi_dadd
 992              	.LVL142:
 993 014a FFF7FEFF 		bl	sqrt
 994              	.LVL143:
 995 014e CDE90201 		strd	r0, [sp, #8]
 996              	.LVL144:
 997              		.loc 1 210 0
 998 0152 DDE90601 		ldrd	r0, [sp, #24]
 999              	.LVL145:
 1000 0156 0246     		mov	r2, r0
 1001 0158 0B46     		mov	r3, r1
 1002 015a FFF7FEFF 		bl	__aeabi_dmul
 1003              	.LVL146:
 1004 015e 4246     		mov	r2, r8
 1005 0160 0446     		mov	r4, r0
 1006 0162 0D46     		mov	r5, r1
 1007 0164 4B46     		mov	r3, r9
 1008 0166 4046     		mov	r0, r8
 1009 0168 4946     		mov	r1, r9
 1010 016a FFF7FEFF 		bl	__aeabi_dmul
 1011              	.LVL147:
 1012 016e 0246     		mov	r2, r0
 1013 0170 0B46     		mov	r3, r1
 1014 0172 2046     		mov	r0, r4
 1015 0174 2946     		mov	r1, r5
 1016 0176 FFF7FEFF 		bl	__aeabi_dadd
 1017              	.LVL148:
 1018 017a FFF7FEFF 		bl	sqrt
ARM GAS  /tmp/cctkbEOJ.s 			page 19


 1019              	.LVL149:
 1020 017e CDE90601 		strd	r0, [sp, #24]
 1021              	.LVL150:
 1022              		.loc 1 211 0
 1023 0182 DDE90801 		ldrd	r0, [sp, #32]
 1024              	.LVL151:
 1025 0186 0246     		mov	r2, r0
 1026 0188 0B46     		mov	r3, r1
 1027 018a FFF7FEFF 		bl	__aeabi_dmul
 1028              	.LVL152:
 1029 018e 5246     		mov	r2, sl
 1030 0190 0C46     		mov	r4, r1
 1031 0192 0746     		mov	r7, r0
 1032 0194 5B46     		mov	r3, fp
 1033 0196 5046     		mov	r0, sl
 1034 0198 5946     		mov	r1, fp
 1035 019a FFF7FEFF 		bl	__aeabi_dmul
 1036              	.LVL153:
 1037 019e 0246     		mov	r2, r0
 1038 01a0 0B46     		mov	r3, r1
 1039 01a2 3846     		mov	r0, r7
 1040 01a4 2146     		mov	r1, r4
 1041 01a6 FFF7FEFF 		bl	__aeabi_dadd
 1042              	.LVL154:
 1043 01aa FFF7FEFF 		bl	sqrt
 1044              	.LVL155:
 1045              		.loc 1 214 0
 1046 01ae D6E90A45 		ldrd	r4, [r6, #40]
 1047              		.loc 1 211 0
 1048 01b2 CDE90801 		strd	r0, [sp, #32]
 1049              	.LVL156:
 1050              		.loc 1 214 0
 1051 01b6 0022     		movs	r2, #0
 1052 01b8 2046     		mov	r0, r4
 1053              	.LVL157:
 1054 01ba 0023     		movs	r3, #0
 1055 01bc 2946     		mov	r1, r5
 1056 01be FFF7FEFF 		bl	__aeabi_dcmpeq
 1057              	.LVL158:
 1058 01c2 88B1     		cbz	r0, .L41
 1059              		.loc 1 215 0
 1060 01c4 D6E90001 		ldrd	r0, [r6]
 1061 01c8 FFF7FEFF 		bl	ln_get_ell_mean_motion
 1062              	.LVL159:
 1063 01cc 0446     		mov	r4, r0
 1064 01ce 0D46     		mov	r5, r1
 1065 01d0 C6E90A45 		strd	r4, [r6, #40]
 1066 01d4 08E0     		b	.L45
 1067              	.L46:
 1068 01d6 00BF     		.align	3
 1069              	.L44:
 1070 01d8 D59C5E57 		.word	1465818325
 1071 01dc 035CED3F 		.word	1072520195
 1072 01e0 BF6A0751 		.word	1359440575
 1073 01e4 2E75D93F 		.word	1071215918
 1074              	.L45:
 1075              	.L41:
ARM GAS  /tmp/cctkbEOJ.s 			page 20


 1076              	.LVL160:
 1077              		.loc 1 218 0
 1078 01e8 D6E90C23 		ldrd	r2, [r6, #48]
 1079 01ec DDE91001 		ldrd	r0, [sp, #64]
 1080 01f0 FFF7FEFF 		bl	__aeabi_dsub
 1081              	.LVL161:
 1082              	.LBB28:
 1083              	.LBB29:
 1084              		.loc 1 98 0
 1085 01f4 2246     		mov	r2, r4
 1086 01f6 2B46     		mov	r3, r5
 1087 01f8 FFF7FEFF 		bl	__aeabi_dmul
 1088              	.LVL162:
 1089              	.LBE29:
 1090              	.LBE28:
 1091              		.loc 1 221 0
 1092 01fc D6E90245 		ldrd	r4, [r6, #8]
 1093              	.LVL163:
 1094              	.LBB31:
 1095              	.LBB30:
 1096              		.loc 1 98 0
 1097 0200 0246     		mov	r2, r0
 1098 0202 0B46     		mov	r3, r1
 1099              	.LBE30:
 1100              	.LBE31:
 1101              		.loc 1 221 0
 1102 0204 2046     		mov	r0, r4
 1103 0206 2946     		mov	r1, r5
 1104 0208 FFF7FEFF 		bl	ln_solve_kepler
 1105              	.LVL164:
 1106 020c 8046     		mov	r8, r0
 1107              	.LVL165:
 1108 020e 8946     		mov	r9, r1
 1109              	.LVL166:
 1110              		.loc 1 224 0
 1111 0210 0246     		mov	r2, r0
 1112 0212 0B46     		mov	r3, r1
 1113 0214 D6E90201 		ldrd	r0, [r6, #8]
 1114 0218 FFF7FEFF 		bl	ln_get_ell_true_anomaly
 1115              	.LVL167:
 1116              		.loc 1 227 0
 1117 021c D6E90223 		ldrd	r2, [r6, #8]
 1118              		.loc 1 224 0
 1119 0220 0446     		mov	r4, r0
 1120 0222 0D46     		mov	r5, r1
 1121              	.LVL168:
 1122              		.loc 1 227 0
 1123 0224 D6E90001 		ldrd	r0, [r6]
 1124 0228 CDE90089 		strd	r8, [sp]
 1125 022c FFF7FEFF 		bl	ln_get_ell_radius_vector
 1126              	.LVL169:
 1127              		.loc 1 230 0
 1128 0230 DDE90223 		ldrd	r2, [sp, #8]
 1129              		.loc 1 227 0
 1130 0234 8246     		mov	sl, r0
 1131              	.LVL170:
 1132 0236 8B46     		mov	fp, r1
ARM GAS  /tmp/cctkbEOJ.s 			page 21


 1133              	.LVL171:
 1134              		.loc 1 230 0
 1135 0238 FFF7FEFF 		bl	__aeabi_dmul
 1136              	.LVL172:
 1137 023c D6E90623 		ldrd	r2, [r6, #24]
 1138 0240 8046     		mov	r8, r0
 1139              	.LVL173:
 1140 0242 8946     		mov	r9, r1
 1141 0244 2046     		mov	r0, r4
 1142 0246 2946     		mov	r1, r5
 1143 0248 FFF7FEFF 		bl	__aeabi_dadd
 1144              	.LVL174:
 1145 024c FFF7FEFF 		bl	ln_deg_to_rad
 1146              	.LVL175:
 1147 0250 DDE90423 		ldrd	r2, [sp, #16]
 1148 0254 FFF7FEFF 		bl	__aeabi_dadd
 1149              	.LVL176:
 1150 0258 FFF7FEFF 		bl	sin
 1151              	.LVL177:
 1152 025c 0246     		mov	r2, r0
 1153 025e 0B46     		mov	r3, r1
 1154 0260 4046     		mov	r0, r8
 1155 0262 4946     		mov	r1, r9
 1156 0264 FFF7FEFF 		bl	__aeabi_dmul
 1157              	.LVL178:
 1158 0268 1C9F     		ldr	r7, [sp, #112]
 1159              		.loc 1 231 0
 1160 026a DDE90623 		ldrd	r2, [sp, #24]
 1161              		.loc 1 230 0
 1162 026e C7E90001 		strd	r0, [r7]
 1163              		.loc 1 231 0
 1164 0272 5046     		mov	r0, sl
 1165 0274 5946     		mov	r1, fp
 1166 0276 FFF7FEFF 		bl	__aeabi_dmul
 1167              	.LVL179:
 1168 027a D6E90623 		ldrd	r2, [r6, #24]
 1169 027e 8046     		mov	r8, r0
 1170 0280 8946     		mov	r9, r1
 1171 0282 2046     		mov	r0, r4
 1172 0284 2946     		mov	r1, r5
 1173 0286 FFF7FEFF 		bl	__aeabi_dadd
 1174              	.LVL180:
 1175 028a FFF7FEFF 		bl	ln_deg_to_rad
 1176              	.LVL181:
 1177 028e DDE90C23 		ldrd	r2, [sp, #48]
 1178 0292 FFF7FEFF 		bl	__aeabi_dadd
 1179              	.LVL182:
 1180 0296 FFF7FEFF 		bl	sin
 1181              	.LVL183:
 1182 029a 0246     		mov	r2, r0
 1183 029c 0B46     		mov	r3, r1
 1184 029e 4046     		mov	r0, r8
 1185 02a0 4946     		mov	r1, r9
 1186 02a2 FFF7FEFF 		bl	__aeabi_dmul
 1187              	.LVL184:
 1188              		.loc 1 232 0
 1189 02a6 DDE90823 		ldrd	r2, [sp, #32]
ARM GAS  /tmp/cctkbEOJ.s 			page 22


 1190              		.loc 1 231 0
 1191 02aa C7E90201 		strd	r0, [r7, #8]
 1192              		.loc 1 232 0
 1193 02ae 5046     		mov	r0, sl
 1194 02b0 5946     		mov	r1, fp
 1195 02b2 FFF7FEFF 		bl	__aeabi_dmul
 1196              	.LVL185:
 1197 02b6 D6E90623 		ldrd	r2, [r6, #24]
 1198 02ba 8046     		mov	r8, r0
 1199 02bc 8946     		mov	r9, r1
 1200 02be 2046     		mov	r0, r4
 1201 02c0 2946     		mov	r1, r5
 1202 02c2 FFF7FEFF 		bl	__aeabi_dadd
 1203              	.LVL186:
 1204 02c6 FFF7FEFF 		bl	ln_deg_to_rad
 1205              	.LVL187:
 1206 02ca DDE90E23 		ldrd	r2, [sp, #56]
 1207 02ce FFF7FEFF 		bl	__aeabi_dadd
 1208              	.LVL188:
 1209 02d2 FFF7FEFF 		bl	sin
 1210              	.LVL189:
 1211 02d6 0246     		mov	r2, r0
 1212 02d8 0B46     		mov	r3, r1
 1213 02da 4046     		mov	r0, r8
 1214 02dc 4946     		mov	r1, r9
 1215 02de FFF7FEFF 		bl	__aeabi_dmul
 1216              	.LVL190:
 1217 02e2 C7E90401 		strd	r0, [r7, #16]
 1218              		.loc 1 233 0
 1219 02e6 13B0     		add	sp, sp, #76
 1220 02e8 BDE8F08F 		pop	{r4, r5, r6, r7, r8, r9, sl, fp, pc}
 1221              		.cfi_endproc
 1222              	.LFE8:
 1223              		.size	ln_get_ell_helio_rect_posn, .-ln_get_ell_helio_rect_posn
 1224 02ec AFF30080 		.section	.text.ln_get_ell_body_equ_coords,"ax",%progbits
 1225              		.align	2
 1226              		.p2align 4,,15
 1227              		.global	ln_get_ell_body_equ_coords
 1228              		.thumb
 1229              		.thumb_func
 1230              		.type	ln_get_ell_body_equ_coords, %function
 1231              	ln_get_ell_body_equ_coords:
 1232              	.LFB10:
 1233              		.loc 1 270 0
 1234              		.cfi_startproc
 1235              		@ args = 0, pretend = 0, frame = 48
 1236              		@ frame_needed = 0, uses_anonymous_args = 0
 1237              	.LVL191:
 1238 0000 2DE9F047 		push	{r4, r5, r6, r7, r8, r9, sl, lr}
 1239              	.LCFI10:
 1240              		.cfi_def_cfa_offset 32
 1241              		.cfi_offset 4, -32
 1242              		.cfi_offset 5, -28
 1243              		.cfi_offset 6, -24
 1244              		.cfi_offset 7, -20
 1245              		.cfi_offset 8, -16
 1246              		.cfi_offset 9, -12
ARM GAS  /tmp/cctkbEOJ.s 			page 23


 1247              		.cfi_offset 10, -8
 1248              		.cfi_offset 14, -4
 1249 0004 8EB0     		sub	sp, sp, #56
 1250              	.LCFI11:
 1251              		.cfi_def_cfa_offset 88
 1252              		.loc 1 270 0
 1253 0006 0446     		mov	r4, r0
 1254              		.loc 1 276 0
 1255 0008 02AE     		add	r6, sp, #8
 1256              		.loc 1 270 0
 1257 000a 0D46     		mov	r5, r1
 1258 000c 1746     		mov	r7, r2
 1259 000e 9A46     		mov	sl, r3
 1260              		.loc 1 276 0
 1261 0010 1046     		mov	r0, r2
 1262              	.LVL192:
 1263 0012 0B46     		mov	r3, r1
 1264              	.LVL193:
 1265 0014 2246     		mov	r2, r4
 1266              	.LVL194:
 1267 0016 0096     		str	r6, [sp, #0]
 1268 0018 FFF7FEFF 		bl	ln_get_ell_helio_rect_posn
 1269              	.LVL195:
 1270              		.loc 1 277 0
 1271 001c 08AA     		add	r2, sp, #32
 1272 001e 2046     		mov	r0, r4
 1273 0020 2946     		mov	r1, r5
 1274 0022 FFF7FEFF 		bl	ln_get_solar_geo_coords
 1275              	.LVL196:
 1276              		.loc 1 280 0
 1277 0026 3046     		mov	r0, r6
 1278 0028 08A9     		add	r1, sp, #32
 1279 002a FFF7FEFF 		bl	ln_get_rect_distance
 1280              	.LVL197:
 1281              		.loc 1 281 0
 1282 002e FFF7FEFF 		bl	ln_get_light_time
 1283              	.LVL198:
 1284 0032 0246     		mov	r2, r0
 1285 0034 0B46     		mov	r3, r1
 1286              	.LVL199:
 1287              		.loc 1 284 0
 1288 0036 2046     		mov	r0, r4
 1289 0038 2946     		mov	r1, r5
 1290 003a FFF7FEFF 		bl	__aeabi_dsub
 1291              	.LVL200:
 1292 003e 0096     		str	r6, [sp, #0]
 1293 0040 0246     		mov	r2, r0
 1294 0042 0B46     		mov	r3, r1
 1295 0044 3846     		mov	r0, r7
 1296 0046 FFF7FEFF 		bl	ln_get_ell_helio_rect_posn
 1297              	.LVL201:
 1298              		.loc 1 287 0
 1299 004a DDE90223 		ldrd	r2, [sp, #8]
 1300 004e DDE90801 		ldrd	r0, [sp, #32]
 1301 0052 FFF7FEFF 		bl	__aeabi_dadd
 1302              	.LVL202:
 1303              		.loc 1 288 0
ARM GAS  /tmp/cctkbEOJ.s 			page 24


 1304 0056 DDE90423 		ldrd	r2, [sp, #16]
 1305              		.loc 1 287 0
 1306 005a 8046     		mov	r8, r0
 1307 005c 8946     		mov	r9, r1
 1308              	.LVL203:
 1309              		.loc 1 288 0
 1310 005e DDE90A01 		ldrd	r0, [sp, #40]
 1311 0062 FFF7FEFF 		bl	__aeabi_dadd
 1312              	.LVL204:
 1313              		.loc 1 289 0
 1314 0066 DDE90623 		ldrd	r2, [sp, #24]
 1315              		.loc 1 288 0
 1316 006a 0646     		mov	r6, r0
 1317 006c 0F46     		mov	r7, r1
 1318              	.LVL205:
 1319              		.loc 1 289 0
 1320 006e DDE90C01 		ldrd	r0, [sp, #48]
 1321 0072 FFF7FEFF 		bl	__aeabi_dadd
 1322              	.LVL206:
 1323              		.loc 1 291 0
 1324 0076 4246     		mov	r2, r8
 1325 0078 4B46     		mov	r3, r9
 1326              		.loc 1 289 0
 1327 007a 0446     		mov	r4, r0
 1328 007c 0D46     		mov	r5, r1
 1329              	.LVL207:
 1330              		.loc 1 291 0
 1331 007e 3046     		mov	r0, r6
 1332 0080 3946     		mov	r1, r7
 1333 0082 FFF7FEFF 		bl	atan2
 1334              	.LVL208:
 1335 0086 FFF7FEFF 		bl	ln_rad_to_deg
 1336              	.LVL209:
 1337 008a FFF7FEFF 		bl	ln_range_degrees
 1338              	.LVL210:
 1339              		.loc 1 292 0
 1340 008e 4246     		mov	r2, r8
 1341              		.loc 1 291 0
 1342 0090 CAE90001 		strd	r0, [sl]
 1343              		.loc 1 292 0
 1344 0094 4B46     		mov	r3, r9
 1345 0096 4046     		mov	r0, r8
 1346 0098 4946     		mov	r1, r9
 1347 009a FFF7FEFF 		bl	__aeabi_dmul
 1348              	.LVL211:
 1349 009e 3246     		mov	r2, r6
 1350 00a0 3B46     		mov	r3, r7
 1351 00a2 8046     		mov	r8, r0
 1352              	.LVL212:
 1353 00a4 8946     		mov	r9, r1
 1354 00a6 3046     		mov	r0, r6
 1355 00a8 3946     		mov	r1, r7
 1356 00aa FFF7FEFF 		bl	__aeabi_dmul
 1357              	.LVL213:
 1358 00ae 0246     		mov	r2, r0
 1359 00b0 0B46     		mov	r3, r1
 1360 00b2 4046     		mov	r0, r8
ARM GAS  /tmp/cctkbEOJ.s 			page 25


 1361 00b4 4946     		mov	r1, r9
 1362 00b6 FFF7FEFF 		bl	__aeabi_dadd
 1363              	.LVL214:
 1364 00ba 2246     		mov	r2, r4
 1365 00bc 0646     		mov	r6, r0
 1366              	.LVL215:
 1367 00be 0F46     		mov	r7, r1
 1368 00c0 2B46     		mov	r3, r5
 1369 00c2 2046     		mov	r0, r4
 1370 00c4 2946     		mov	r1, r5
 1371 00c6 FFF7FEFF 		bl	__aeabi_dmul
 1372              	.LVL216:
 1373 00ca 0246     		mov	r2, r0
 1374 00cc 0B46     		mov	r3, r1
 1375 00ce 3046     		mov	r0, r6
 1376 00d0 3946     		mov	r1, r7
 1377 00d2 FFF7FEFF 		bl	__aeabi_dadd
 1378              	.LVL217:
 1379 00d6 FFF7FEFF 		bl	sqrt
 1380              	.LVL218:
 1381 00da 0246     		mov	r2, r0
 1382 00dc 0B46     		mov	r3, r1
 1383 00de 2046     		mov	r0, r4
 1384 00e0 2946     		mov	r1, r5
 1385 00e2 FFF7FEFF 		bl	__aeabi_ddiv
 1386              	.LVL219:
 1387 00e6 FFF7FEFF 		bl	asin
 1388              	.LVL220:
 1389 00ea FFF7FEFF 		bl	ln_rad_to_deg
 1390              	.LVL221:
 1391 00ee CAE90201 		strd	r0, [sl, #8]
 1392              		.loc 1 293 0
 1393 00f2 0EB0     		add	sp, sp, #56
 1394 00f4 BDE8F087 		pop	{r4, r5, r6, r7, r8, r9, sl, pc}
 1395              		.cfi_endproc
 1396              	.LFE10:
 1397              		.size	ln_get_ell_body_equ_coords, .-ln_get_ell_body_equ_coords
 1398 00f8 AFF30080 		.section	.text.ln_get_ell_geo_rect_posn,"ax",%progbits
 1398      AFF30080 
 1399              		.align	2
 1400              		.p2align 4,,15
 1401              		.global	ln_get_ell_geo_rect_posn
 1402              		.thumb
 1403              		.thumb_func
 1404              		.type	ln_get_ell_geo_rect_posn, %function
 1405              	ln_get_ell_geo_rect_posn:
 1406              	.LFB9:
 1407              		.loc 1 244 0
 1408              		.cfi_startproc
 1409              		@ args = 4, pretend = 0, frame = 72
 1410              		@ frame_needed = 0, uses_anonymous_args = 0
 1411              	.LVL222:
 1412 0000 70B5     		push	{r4, r5, r6, lr}
 1413              	.LCFI12:
 1414              		.cfi_def_cfa_offset 16
 1415              		.cfi_offset 4, -16
 1416              		.cfi_offset 5, -12
ARM GAS  /tmp/cctkbEOJ.s 			page 26


 1417              		.cfi_offset 6, -8
 1418              		.cfi_offset 14, -4
 1419 0002 94B0     		sub	sp, sp, #80
 1420              	.LCFI13:
 1421              		.cfi_def_cfa_offset 96
 1422              		.loc 1 249 0
 1423 0004 02A9     		add	r1, sp, #8
 1424              		.loc 1 244 0
 1425 0006 1D46     		mov	r5, r3
 1426 0008 1446     		mov	r4, r2
 1427              		.loc 1 249 0
 1428 000a 0091     		str	r1, [sp, #0]
 1429              		.loc 1 244 0
 1430 000c 189E     		ldr	r6, [sp, #96]
 1431              		.loc 1 249 0
 1432 000e FFF7FEFF 		bl	ln_get_ell_helio_rect_posn
 1433              	.LVL223:
 1434              		.loc 1 252 0
 1435 0012 0EAA     		add	r2, sp, #56
 1436 0014 2046     		mov	r0, r4
 1437 0016 2946     		mov	r1, r5
 1438 0018 FFF7FEFF 		bl	ln_get_earth_helio_coords
 1439              	.LVL224:
 1440              		.loc 1 253 0
 1441 001c 0EA8     		add	r0, sp, #56
 1442 001e 08A9     		add	r1, sp, #32
 1443 0020 FFF7FEFF 		bl	ln_get_rect_from_helio
 1444              	.LVL225:
 1445              		.loc 1 255 0
 1446 0024 DDE90223 		ldrd	r2, [sp, #8]
 1447 0028 DDE90801 		ldrd	r0, [sp, #32]
 1448 002c FFF7FEFF 		bl	__aeabi_dsub
 1449              	.LVL226:
 1450              		.loc 1 256 0
 1451 0030 DDE90423 		ldrd	r2, [sp, #16]
 1452              		.loc 1 255 0
 1453 0034 C6E90001 		strd	r0, [r6]
 1454              		.loc 1 256 0
 1455 0038 DDE90A01 		ldrd	r0, [sp, #40]
 1456 003c FFF7FEFF 		bl	__aeabi_dsub
 1457              	.LVL227:
 1458              		.loc 1 257 0
 1459 0040 DDE90623 		ldrd	r2, [sp, #24]
 1460              		.loc 1 256 0
 1461 0044 C6E90201 		strd	r0, [r6, #8]
 1462              		.loc 1 257 0
 1463 0048 DDE90C01 		ldrd	r0, [sp, #48]
 1464 004c FFF7FEFF 		bl	__aeabi_dsub
 1465              	.LVL228:
 1466 0050 C6E90401 		strd	r0, [r6, #16]
 1467              		.loc 1 258 0
 1468 0054 14B0     		add	sp, sp, #80
 1469 0056 70BD     		pop	{r4, r5, r6, pc}
 1470              		.cfi_endproc
 1471              	.LFE9:
 1472              		.size	ln_get_ell_geo_rect_posn, .-ln_get_ell_geo_rect_posn
 1473 0058 AFF30080 		.section	.text.ln_get_ell_orbit_len,"ax",%progbits
ARM GAS  /tmp/cctkbEOJ.s 			page 27


 1473      AFF30080 
 1474              		.align	2
 1475              		.p2align 4,,15
 1476              		.global	ln_get_ell_orbit_len
 1477              		.thumb
 1478              		.thumb_func
 1479              		.type	ln_get_ell_orbit_len, %function
 1480              	ln_get_ell_orbit_len:
 1481              	.LFB11:
 1482              		.loc 1 309 0
 1483              		.cfi_startproc
 1484              		@ args = 0, pretend = 0, frame = 0
 1485              		@ frame_needed = 0, uses_anonymous_args = 0
 1486              	.LVL229:
 1487 0000 2DE9F843 		push	{r3, r4, r5, r6, r7, r8, r9, lr}
 1488              	.LCFI14:
 1489              		.cfi_def_cfa_offset 32
 1490              		.cfi_offset 3, -32
 1491              		.cfi_offset 4, -28
 1492              		.cfi_offset 5, -24
 1493              		.cfi_offset 6, -20
 1494              		.cfi_offset 7, -16
 1495              		.cfi_offset 8, -12
 1496              		.cfi_offset 9, -8
 1497              		.cfi_offset 14, -4
 1498              		.loc 1 313 0
 1499 0004 D0E90023 		ldrd	r2, [r0]
 1500              		.loc 1 309 0
 1501 0008 0446     		mov	r4, r0
 1502              		.loc 1 313 0
 1503 000a D0E90201 		ldrd	r0, [r0, #8]
 1504              	.LVL230:
 1505 000e FFF7FEFF 		bl	ln_get_ell_sminor_diam
 1506              	.LVL231:
 1507              		.loc 1 315 0
 1508 0012 D4E90067 		ldrd	r6, [r4]
 1509              		.loc 1 316 0
 1510 0016 3246     		mov	r2, r6
 1511 0018 3B46     		mov	r3, r7
 1512              		.loc 1 313 0
 1513 001a 8046     		mov	r8, r0
 1514 001c 8946     		mov	r9, r1
 1515              	.LVL232:
 1516              		.loc 1 316 0
 1517 001e FFF7FEFF 		bl	__aeabi_dmul
 1518              	.LVL233:
 1519 0022 FFF7FEFF 		bl	sqrt
 1520              	.LVL234:
 1521              		.loc 1 315 0
 1522 0026 4246     		mov	r2, r8
 1523              		.loc 1 316 0
 1524 0028 0446     		mov	r4, r0
 1525              	.LVL235:
 1526 002a 0D46     		mov	r5, r1
 1527              	.LVL236:
 1528              		.loc 1 315 0
 1529 002c 4B46     		mov	r3, r9
ARM GAS  /tmp/cctkbEOJ.s 			page 28


 1530 002e 3046     		mov	r0, r6
 1531 0030 3946     		mov	r1, r7
 1532 0032 FFF7FEFF 		bl	__aeabi_dadd
 1533              	.LVL237:
 1534 0036 0023     		movs	r3, #0
 1535 0038 0022     		movs	r2, #0
 1536 003a C3F6E073 		movt	r3, 16352
 1537 003e FFF7FEFF 		bl	__aeabi_dmul
 1538              	.LVL238:
 1539              		.loc 1 319 0
 1540 0042 0023     		movs	r3, #0
 1541 0044 0022     		movs	r2, #0
 1542 0046 C4F23503 		movt	r3, 16437
 1543 004a FFF7FEFF 		bl	__aeabi_dmul
 1544              	.LVL239:
 1545 004e 2246     		mov	r2, r4
 1546 0050 0646     		mov	r6, r0
 1547              	.LVL240:
 1548 0052 0F46     		mov	r7, r1
 1549 0054 2B46     		mov	r3, r5
 1550 0056 2046     		mov	r0, r4
 1551 0058 2946     		mov	r1, r5
 1552 005a FFF7FEFF 		bl	__aeabi_dadd
 1553              	.LVL241:
 1554 005e 0246     		mov	r2, r0
 1555 0060 0B46     		mov	r3, r1
 1556 0062 3046     		mov	r0, r6
 1557 0064 3946     		mov	r1, r7
 1558 0066 FFF7FEFF 		bl	__aeabi_dsub
 1559              	.LVL242:
 1560 006a 0023     		movs	r3, #0
 1561 006c 0646     		mov	r6, r0
 1562 006e 0F46     		mov	r7, r1
 1563 0070 0022     		movs	r2, #0
 1564 0072 2046     		mov	r0, r4
 1565 0074 2946     		mov	r1, r5
 1566 0076 C4F20803 		movt	r3, 16392
 1567 007a FFF7FEFF 		bl	__aeabi_dmul
 1568              	.LVL243:
 1569 007e 0246     		mov	r2, r0
 1570 0080 0B46     		mov	r3, r1
 1571 0082 3046     		mov	r0, r6
 1572 0084 3946     		mov	r1, r7
 1573 0086 FFF7FEFF 		bl	__aeabi_dsub
 1574              	.LVL244:
 1575 008a 0022     		movs	r2, #0
 1576 008c 4FF07F53 		mov	r3, #1069547520
 1577 0090 FFF7FEFF 		bl	__aeabi_dmul
 1578              	.LVL245:
 1579 0094 04A3     		adr	r3, .L50
 1580 0096 D3E90023 		ldrd	r2, [r3]
 1581 009a FFF7FEFF 		bl	__aeabi_dmul
 1582              	.LVL246:
 1583              		.loc 1 320 0
 1584 009e BDE8F883 		pop	{r3, r4, r5, r6, r7, r8, r9, pc}
 1585              	.L51:
 1586 00a2 00BFAFF3 		.align	3
ARM GAS  /tmp/cctkbEOJ.s 			page 29


 1586      0080
 1587              	.L50:
 1588 00a8 182D4454 		.word	1413754136
 1589 00ac FB210940 		.word	1074340347
 1590              		.cfi_endproc
 1591              	.LFE11:
 1592              		.size	ln_get_ell_orbit_len, .-ln_get_ell_orbit_len
 1593              		.section	.text.ln_get_ell_orbit_pvel,"ax",%progbits
 1594              		.align	2
 1595              		.p2align 4,,15
 1596              		.global	ln_get_ell_orbit_pvel
 1597              		.thumb
 1598              		.thumb_func
 1599              		.type	ln_get_ell_orbit_pvel, %function
 1600              	ln_get_ell_orbit_pvel:
 1601              	.LFB13:
 1602              		.loc 1 347 0
 1603              		.cfi_startproc
 1604              		@ args = 0, pretend = 0, frame = 0
 1605              		@ frame_needed = 0, uses_anonymous_args = 0
 1606              	.LVL247:
 1607 0000 2DE9F843 		push	{r3, r4, r5, r6, r7, r8, r9, lr}
 1608              	.LCFI15:
 1609              		.cfi_def_cfa_offset 32
 1610              		.cfi_offset 3, -32
 1611              		.cfi_offset 4, -28
 1612              		.cfi_offset 5, -24
 1613              		.cfi_offset 6, -20
 1614              		.cfi_offset 7, -16
 1615              		.cfi_offset 8, -12
 1616              		.cfi_offset 9, -8
 1617              		.cfi_offset 14, -4
 1618              		.loc 1 347 0
 1619 0004 0446     		mov	r4, r0
 1620              		.loc 1 350 0
 1621 0006 D0E90001 		ldrd	r0, [r0]
 1622              	.LVL248:
 1623 000a FFF7FEFF 		bl	sqrt
 1624              	.LVL249:
 1625 000e 0246     		mov	r2, r0
 1626 0010 0B46     		mov	r3, r1
 1627 0012 15A1     		adr	r1, .L53
 1628 0014 D1E90001 		ldrd	r0, [r1]
 1629 0018 FFF7FEFF 		bl	__aeabi_ddiv
 1630              	.LVL250:
 1631              		.loc 1 351 0
 1632 001c D4E90245 		ldrd	r4, [r4, #8]
 1633              	.LVL251:
 1634 0020 0023     		movs	r3, #0
 1635              		.loc 1 350 0
 1636 0022 0646     		mov	r6, r0
 1637 0024 0F46     		mov	r7, r1
 1638              	.LVL252:
 1639              		.loc 1 351 0
 1640 0026 0022     		movs	r2, #0
 1641 0028 C3F6F073 		movt	r3, 16368
 1642 002c 2046     		mov	r0, r4
ARM GAS  /tmp/cctkbEOJ.s 			page 30


 1643 002e 2946     		mov	r1, r5
 1644 0030 FFF7FEFF 		bl	__aeabi_dadd
 1645              	.LVL253:
 1646 0034 8946     		mov	r9, r1
 1647 0036 0021     		movs	r1, #0
 1648 0038 8046     		mov	r8, r0
 1649 003a 2246     		mov	r2, r4
 1650 003c 2B46     		mov	r3, r5
 1651 003e 0020     		movs	r0, #0
 1652 0040 C3F6F071 		movt	r1, 16368
 1653 0044 FFF7FEFF 		bl	__aeabi_dsub
 1654              	.LVL254:
 1655 0048 0246     		mov	r2, r0
 1656 004a 0B46     		mov	r3, r1
 1657 004c 4046     		mov	r0, r8
 1658 004e 4946     		mov	r1, r9
 1659 0050 FFF7FEFF 		bl	__aeabi_ddiv
 1660              	.LVL255:
 1661 0054 FFF7FEFF 		bl	sqrt
 1662              	.LVL256:
 1663 0058 3246     		mov	r2, r6
 1664 005a 3B46     		mov	r3, r7
 1665 005c FFF7FEFF 		bl	__aeabi_dmul
 1666              	.LVL257:
 1667              		.loc 1 353 0
 1668 0060 BDE8F883 		pop	{r3, r4, r5, r6, r7, r8, r9, pc}
 1669              	.L54:
 1670 0064 AFF30080 		.align	3
 1671              	.L53:
 1672 0068 D42B6519 		.word	426060756
 1673 006c E2C83D40 		.word	1077790946
 1674              		.cfi_endproc
 1675              	.LFE13:
 1676              		.size	ln_get_ell_orbit_pvel, .-ln_get_ell_orbit_pvel
 1677              		.section	.text.ln_get_ell_orbit_avel,"ax",%progbits
 1678              		.align	2
 1679              		.p2align 4,,15
 1680              		.global	ln_get_ell_orbit_avel
 1681              		.thumb
 1682              		.thumb_func
 1683              		.type	ln_get_ell_orbit_avel, %function
 1684              	ln_get_ell_orbit_avel:
 1685              	.LFB14:
 1686              		.loc 1 362 0
 1687              		.cfi_startproc
 1688              		@ args = 0, pretend = 0, frame = 0
 1689              		@ frame_needed = 0, uses_anonymous_args = 0
 1690              	.LVL258:
 1691 0000 2DE9F843 		push	{r3, r4, r5, r6, r7, r8, r9, lr}
 1692              	.LCFI16:
 1693              		.cfi_def_cfa_offset 32
 1694              		.cfi_offset 3, -32
 1695              		.cfi_offset 4, -28
 1696              		.cfi_offset 5, -24
 1697              		.cfi_offset 6, -20
 1698              		.cfi_offset 7, -16
 1699              		.cfi_offset 8, -12
ARM GAS  /tmp/cctkbEOJ.s 			page 31


 1700              		.cfi_offset 9, -8
 1701              		.cfi_offset 14, -4
 1702              		.loc 1 362 0
 1703 0004 0446     		mov	r4, r0
 1704              		.loc 1 365 0
 1705 0006 D0E90001 		ldrd	r0, [r0]
 1706              	.LVL259:
 1707 000a FFF7FEFF 		bl	sqrt
 1708              	.LVL260:
 1709 000e 0246     		mov	r2, r0
 1710 0010 0B46     		mov	r3, r1
 1711 0012 15A1     		adr	r1, .L56
 1712 0014 D1E90001 		ldrd	r0, [r1]
 1713 0018 FFF7FEFF 		bl	__aeabi_ddiv
 1714              	.LVL261:
 1715              		.loc 1 366 0
 1716 001c D4E90245 		ldrd	r4, [r4, #8]
 1717              	.LVL262:
 1718              		.loc 1 365 0
 1719 0020 0F46     		mov	r7, r1
 1720              		.loc 1 366 0
 1721 0022 0021     		movs	r1, #0
 1722              		.loc 1 365 0
 1723 0024 0646     		mov	r6, r0
 1724              	.LVL263:
 1725              		.loc 1 366 0
 1726 0026 2246     		mov	r2, r4
 1727 0028 2B46     		mov	r3, r5
 1728 002a 0020     		movs	r0, #0
 1729 002c C3F6F071 		movt	r1, 16368
 1730 0030 FFF7FEFF 		bl	__aeabi_dsub
 1731              	.LVL264:
 1732 0034 0023     		movs	r3, #0
 1733 0036 8046     		mov	r8, r0
 1734 0038 8946     		mov	r9, r1
 1735 003a 0022     		movs	r2, #0
 1736 003c 2046     		mov	r0, r4
 1737 003e 2946     		mov	r1, r5
 1738 0040 C3F6F073 		movt	r3, 16368
 1739 0044 FFF7FEFF 		bl	__aeabi_dadd
 1740              	.LVL265:
 1741 0048 0246     		mov	r2, r0
 1742 004a 0B46     		mov	r3, r1
 1743 004c 4046     		mov	r0, r8
 1744 004e 4946     		mov	r1, r9
 1745 0050 FFF7FEFF 		bl	__aeabi_ddiv
 1746              	.LVL266:
 1747 0054 FFF7FEFF 		bl	sqrt
 1748              	.LVL267:
 1749 0058 3246     		mov	r2, r6
 1750 005a 3B46     		mov	r3, r7
 1751 005c FFF7FEFF 		bl	__aeabi_dmul
 1752              	.LVL268:
 1753              		.loc 1 368 0
 1754 0060 BDE8F883 		pop	{r3, r4, r5, r6, r7, r8, r9, pc}
 1755              	.L57:
 1756 0064 AFF30080 		.align	3
ARM GAS  /tmp/cctkbEOJ.s 			page 32


 1757              	.L56:
 1758 0068 D42B6519 		.word	426060756
 1759 006c E2C83D40 		.word	1077790946
 1760              		.cfi_endproc
 1761              	.LFE14:
 1762              		.size	ln_get_ell_orbit_avel, .-ln_get_ell_orbit_avel
 1763              		.section	.text.ln_get_ell_body_solar_dist,"ax",%progbits
 1764              		.align	2
 1765              		.p2align 4,,15
 1766              		.global	ln_get_ell_body_solar_dist
 1767              		.thumb
 1768              		.thumb_func
 1769              		.type	ln_get_ell_body_solar_dist, %function
 1770              	ln_get_ell_body_solar_dist:
 1771              	.LFB15:
 1772              		.loc 1 379 0
 1773              		.cfi_startproc
 1774              		@ args = 0, pretend = 0, frame = 48
 1775              		@ frame_needed = 0, uses_anonymous_args = 0
 1776              	.LVL269:
 1777 0000 70B5     		push	{r4, r5, r6, lr}
 1778              	.LCFI17:
 1779              		.cfi_def_cfa_offset 16
 1780              		.cfi_offset 4, -16
 1781              		.cfi_offset 5, -12
 1782              		.cfi_offset 6, -8
 1783              		.cfi_offset 14, -4
 1784 0002 8EB0     		sub	sp, sp, #56
 1785              	.LCFI18:
 1786              		.cfi_def_cfa_offset 72
 1787              		.loc 1 379 0
 1788 0004 0446     		mov	r4, r0
 1789              		.loc 1 383 0
 1790 0006 02AE     		add	r6, sp, #8
 1791 0008 1046     		mov	r0, r2
 1792              	.LVL270:
 1793 000a 0B46     		mov	r3, r1
 1794 000c 2246     		mov	r2, r4
 1795              	.LVL271:
 1796 000e 0096     		str	r6, [sp, #0]
 1797              		.loc 1 379 0
 1798 0010 0D46     		mov	r5, r1
 1799              		.loc 1 383 0
 1800 0012 FFF7FEFF 		bl	ln_get_ell_helio_rect_posn
 1801              	.LVL272:
 1802              		.loc 1 384 0
 1803 0016 0022     		movs	r2, #0
 1804 0018 0023     		movs	r3, #0
 1805              		.loc 1 389 0
 1806 001a 3046     		mov	r0, r6
 1807 001c 08A9     		add	r1, sp, #32
 1808              		.loc 1 384 0
 1809 001e CDE90823 		strd	r2, [sp, #32]
 1810              		.loc 1 385 0
 1811 0022 CDE90A23 		strd	r2, [sp, #40]
 1812              		.loc 1 386 0
 1813 0026 CDE90C23 		strd	r2, [sp, #48]
ARM GAS  /tmp/cctkbEOJ.s 			page 33


 1814              		.loc 1 389 0
 1815 002a FFF7FEFF 		bl	ln_get_rect_distance
 1816              	.LVL273:
 1817              		.loc 1 390 0
 1818 002e 0EB0     		add	sp, sp, #56
 1819 0030 70BD     		pop	{r4, r5, r6, pc}
 1820              		.cfi_endproc
 1821              	.LFE15:
 1822              		.size	ln_get_ell_body_solar_dist, .-ln_get_ell_body_solar_dist
 1823              		.section	.text.ln_get_ell_orbit_vel,"ax",%progbits
 1824              		.align	2
 1825              		.p2align 4,,15
 1826              		.global	ln_get_ell_orbit_vel
 1827              		.thumb
 1828              		.thumb_func
 1829              		.type	ln_get_ell_orbit_vel, %function
 1830              	ln_get_ell_orbit_vel:
 1831              	.LFB12:
 1832              		.loc 1 330 0
 1833              		.cfi_startproc
 1834              		@ args = 0, pretend = 0, frame = 0
 1835              		@ frame_needed = 0, uses_anonymous_args = 0
 1836              	.LVL274:
 1837 0000 70B5     		push	{r4, r5, r6, lr}
 1838              	.LCFI19:
 1839              		.cfi_def_cfa_offset 16
 1840              		.cfi_offset 4, -16
 1841              		.cfi_offset 5, -12
 1842              		.cfi_offset 6, -8
 1843              		.cfi_offset 14, -4
 1844              		.loc 1 330 0
 1845 0002 1646     		mov	r6, r2
 1846              		.loc 1 334 0
 1847 0004 FFF7FEFF 		bl	ln_get_ell_body_solar_dist
 1848              	.LVL275:
 1849              		.loc 1 335 0
 1850 0008 0B46     		mov	r3, r1
 1851 000a 0021     		movs	r1, #0
 1852 000c 0246     		mov	r2, r0
 1853 000e C3F6F071 		movt	r1, 16368
 1854 0012 0020     		movs	r0, #0
 1855              	.LVL276:
 1856 0014 FFF7FEFF 		bl	__aeabi_ddiv
 1857              	.LVL277:
 1858 0018 0446     		mov	r4, r0
 1859 001a 0D46     		mov	r5, r1
 1860 001c D6E90001 		ldrd	r0, [r6]
 1861 0020 0246     		mov	r2, r0
 1862 0022 0B46     		mov	r3, r1
 1863 0024 FFF7FEFF 		bl	__aeabi_dadd
 1864              	.LVL278:
 1865 0028 0B46     		mov	r3, r1
 1866 002a 0021     		movs	r1, #0
 1867 002c 0246     		mov	r2, r0
 1868 002e C3F6F071 		movt	r1, 16368
 1869 0032 0020     		movs	r0, #0
 1870 0034 FFF7FEFF 		bl	__aeabi_ddiv
ARM GAS  /tmp/cctkbEOJ.s 			page 34


 1871              	.LVL279:
 1872 0038 0246     		mov	r2, r0
 1873 003a 0B46     		mov	r3, r1
 1874 003c 2046     		mov	r0, r4
 1875 003e 2946     		mov	r1, r5
 1876 0040 FFF7FEFF 		bl	__aeabi_dsub
 1877              	.LVL280:
 1878              		.loc 1 336 0
 1879 0044 FFF7FEFF 		bl	sqrt
 1880              	.LVL281:
 1881 0048 03A3     		adr	r3, .L60
 1882 004a D3E90023 		ldrd	r2, [r3]
 1883 004e FFF7FEFF 		bl	__aeabi_dmul
 1884              	.LVL282:
 1885              		.loc 1 338 0
 1886 0052 70BD     		pop	{r4, r5, r6, pc}
 1887              	.L61:
 1888 0054 AFF30080 		.align	3
 1889              	.L60:
 1890 0058 F2B0506B 		.word	1800450290
 1891 005c 9A0F4540 		.word	1078267802
 1892              		.cfi_endproc
 1893              	.LFE12:
 1894              		.size	ln_get_ell_orbit_vel, .-ln_get_ell_orbit_vel
 1895              		.section	.text.ln_get_ell_body_earth_dist,"ax",%progbits
 1896              		.align	2
 1897              		.p2align 4,,15
 1898              		.global	ln_get_ell_body_earth_dist
 1899              		.thumb
 1900              		.thumb_func
 1901              		.type	ln_get_ell_body_earth_dist, %function
 1902              	ln_get_ell_body_earth_dist:
 1903              	.LFB16:
 1904              		.loc 1 402 0
 1905              		.cfi_startproc
 1906              		@ args = 0, pretend = 0, frame = 48
 1907              		@ frame_needed = 0, uses_anonymous_args = 0
 1908              	.LVL283:
 1909 0000 70B5     		push	{r4, r5, r6, lr}
 1910              	.LCFI20:
 1911              		.cfi_def_cfa_offset 16
 1912              		.cfi_offset 4, -16
 1913              		.cfi_offset 5, -12
 1914              		.cfi_offset 6, -8
 1915              		.cfi_offset 14, -4
 1916 0002 8EB0     		sub	sp, sp, #56
 1917              	.LCFI21:
 1918              		.cfi_def_cfa_offset 72
 1919              		.loc 1 402 0
 1920 0004 0446     		mov	r4, r0
 1921              		.loc 1 406 0
 1922 0006 02AE     		add	r6, sp, #8
 1923 0008 1046     		mov	r0, r2
 1924              	.LVL284:
 1925 000a 0B46     		mov	r3, r1
 1926 000c 2246     		mov	r2, r4
 1927              	.LVL285:
ARM GAS  /tmp/cctkbEOJ.s 			page 35


 1928 000e 0096     		str	r6, [sp, #0]
 1929              		.loc 1 402 0
 1930 0010 0D46     		mov	r5, r1
 1931              		.loc 1 406 0
 1932 0012 FFF7FEFF 		bl	ln_get_ell_geo_rect_posn
 1933              	.LVL286:
 1934              		.loc 1 407 0
 1935 0016 0022     		movs	r2, #0
 1936 0018 0023     		movs	r3, #0
 1937              		.loc 1 412 0
 1938 001a 3046     		mov	r0, r6
 1939 001c 08A9     		add	r1, sp, #32
 1940              		.loc 1 407 0
 1941 001e CDE90823 		strd	r2, [sp, #32]
 1942              		.loc 1 408 0
 1943 0022 CDE90A23 		strd	r2, [sp, #40]
 1944              		.loc 1 409 0
 1945 0026 CDE90C23 		strd	r2, [sp, #48]
 1946              		.loc 1 412 0
 1947 002a FFF7FEFF 		bl	ln_get_rect_distance
 1948              	.LVL287:
 1949              		.loc 1 413 0
 1950 002e 0EB0     		add	sp, sp, #56
 1951 0030 70BD     		pop	{r4, r5, r6, pc}
 1952              		.cfi_endproc
 1953              	.LFE16:
 1954              		.size	ln_get_ell_body_earth_dist, .-ln_get_ell_body_earth_dist
 1955              		.section	.text.ln_get_ell_body_phase_angle,"ax",%progbits
 1956              		.align	2
 1957              		.p2align 4,,15
 1958              		.global	ln_get_ell_body_phase_angle
 1959              		.thumb
 1960              		.thumb_func
 1961              		.type	ln_get_ell_body_phase_angle, %function
 1962              	ln_get_ell_body_phase_angle:
 1963              	.LFB17:
 1964              		.loc 1 424 0
 1965              		.cfi_startproc
 1966              		@ args = 0, pretend = 0, frame = 0
 1967              		@ frame_needed = 0, uses_anonymous_args = 0
 1968              	.LVL288:
 1969 0000 2DE9F04F 		push	{r4, r5, r6, r7, r8, r9, sl, fp, lr}
 1970              	.LCFI22:
 1971              		.cfi_def_cfa_offset 36
 1972              		.cfi_offset 4, -36
 1973              		.cfi_offset 5, -32
 1974              		.cfi_offset 6, -28
 1975              		.cfi_offset 7, -24
 1976              		.cfi_offset 8, -20
 1977              		.cfi_offset 9, -16
 1978              		.cfi_offset 10, -12
 1979              		.cfi_offset 11, -8
 1980              		.cfi_offset 14, -4
 1981              		.loc 1 430 0
 1982 0004 D2E90A67 		ldrd	r6, [r2, #40]
 1983              		.loc 1 424 0
 1984 0008 83B0     		sub	sp, sp, #12
ARM GAS  /tmp/cctkbEOJ.s 			page 36


 1985              	.LCFI23:
 1986              		.cfi_def_cfa_offset 48
 1987              		.loc 1 424 0
 1988 000a 9046     		mov	r8, r2
 1989 000c 0446     		mov	r4, r0
 1990 000e 0D46     		mov	r5, r1
 1991              		.loc 1 430 0
 1992 0010 0022     		movs	r2, #0
 1993              	.LVL289:
 1994 0012 0023     		movs	r3, #0
 1995 0014 3046     		mov	r0, r6
 1996              	.LVL290:
 1997 0016 3946     		mov	r1, r7
 1998 0018 FFF7FEFF 		bl	__aeabi_dcmpeq
 1999              	.LVL291:
 2000 001c 38B1     		cbz	r0, .L64
 2001              		.loc 1 431 0
 2002 001e D8E90001 		ldrd	r0, [r8]
 2003 0022 FFF7FEFF 		bl	ln_get_ell_mean_motion
 2004              	.LVL292:
 2005 0026 0646     		mov	r6, r0
 2006 0028 0F46     		mov	r7, r1
 2007 002a C8E90A67 		strd	r6, [r8, #40]
 2008              	.L64:
 2009              	.LVL293:
 2010              		.loc 1 432 0
 2011 002e D8E90C23 		ldrd	r2, [r8, #48]
 2012 0032 2046     		mov	r0, r4
 2013 0034 2946     		mov	r1, r5
 2014 0036 FFF7FEFF 		bl	__aeabi_dsub
 2015              	.LVL294:
 2016              	.LBB32:
 2017              	.LBB33:
 2018              		.loc 1 98 0
 2019 003a 3246     		mov	r2, r6
 2020 003c 3B46     		mov	r3, r7
 2021 003e FFF7FEFF 		bl	__aeabi_dmul
 2022              	.LVL295:
 2023              	.LBE33:
 2024              	.LBE32:
 2025              		.loc 1 435 0
 2026 0042 D8E90267 		ldrd	r6, [r8, #8]
 2027              	.LVL296:
 2028              	.LBB35:
 2029              	.LBB34:
 2030              		.loc 1 98 0
 2031 0046 0246     		mov	r2, r0
 2032 0048 0B46     		mov	r3, r1
 2033              	.LBE34:
 2034              	.LBE35:
 2035              		.loc 1 435 0
 2036 004a 3046     		mov	r0, r6
 2037 004c 3946     		mov	r1, r7
 2038 004e FFF7FEFF 		bl	ln_solve_kepler
 2039              	.LVL297:
 2040              		.loc 1 438 0
 2041 0052 D8E90067 		ldrd	r6, [r8]
ARM GAS  /tmp/cctkbEOJ.s 			page 37


 2042 0056 D8E90223 		ldrd	r2, [r8, #8]
 2043 005a CDE90001 		strd	r0, [sp]
 2044 005e 3046     		mov	r0, r6
 2045              	.LVL298:
 2046 0060 3946     		mov	r1, r7
 2047 0062 FFF7FEFF 		bl	ln_get_ell_radius_vector
 2048              	.LVL299:
 2049              		.loc 1 441 0
 2050 0066 4246     		mov	r2, r8
 2051              		.loc 1 438 0
 2052 0068 0646     		mov	r6, r0
 2053 006a 0F46     		mov	r7, r1
 2054              	.LVL300:
 2055              		.loc 1 441 0
 2056 006c 2046     		mov	r0, r4
 2057 006e 2946     		mov	r1, r5
 2058 0070 FFF7FEFF 		bl	ln_get_ell_body_earth_dist
 2059              	.LVL301:
 2060              		.loc 1 442 0
 2061 0074 4246     		mov	r2, r8
 2062              		.loc 1 441 0
 2063 0076 8246     		mov	sl, r0
 2064 0078 8B46     		mov	fp, r1
 2065              	.LVL302:
 2066              		.loc 1 442 0
 2067 007a 2046     		mov	r0, r4
 2068 007c 2946     		mov	r1, r5
 2069 007e FFF7FEFF 		bl	ln_get_ell_body_solar_dist
 2070              	.LVL303:
 2071              		.loc 1 444 0
 2072 0082 3246     		mov	r2, r6
 2073              		.loc 1 442 0
 2074 0084 0446     		mov	r4, r0
 2075 0086 0D46     		mov	r5, r1
 2076              	.LVL304:
 2077              		.loc 1 444 0
 2078 0088 3B46     		mov	r3, r7
 2079 008a 3046     		mov	r0, r6
 2080 008c 3946     		mov	r1, r7
 2081 008e FFF7FEFF 		bl	__aeabi_dmul
 2082              	.LVL305:
 2083 0092 2246     		mov	r2, r4
 2084 0094 8046     		mov	r8, r0
 2085              	.LVL306:
 2086 0096 8946     		mov	r9, r1
 2087 0098 2B46     		mov	r3, r5
 2088 009a 2046     		mov	r0, r4
 2089 009c 2946     		mov	r1, r5
 2090 009e FFF7FEFF 		bl	__aeabi_dmul
 2091              	.LVL307:
 2092 00a2 0246     		mov	r2, r0
 2093 00a4 0B46     		mov	r3, r1
 2094 00a6 4046     		mov	r0, r8
 2095 00a8 4946     		mov	r1, r9
 2096 00aa FFF7FEFF 		bl	__aeabi_dadd
 2097              	.LVL308:
 2098 00ae 5246     		mov	r2, sl
ARM GAS  /tmp/cctkbEOJ.s 			page 38


 2099 00b0 8046     		mov	r8, r0
 2100 00b2 8946     		mov	r9, r1
 2101 00b4 5B46     		mov	r3, fp
 2102 00b6 5046     		mov	r0, sl
 2103 00b8 5946     		mov	r1, fp
 2104 00ba FFF7FEFF 		bl	__aeabi_dmul
 2105              	.LVL309:
 2106 00be 0246     		mov	r2, r0
 2107 00c0 0B46     		mov	r3, r1
 2108 00c2 4046     		mov	r0, r8
 2109 00c4 4946     		mov	r1, r9
 2110 00c6 FFF7FEFF 		bl	__aeabi_dsub
 2111              	.LVL310:
 2112 00ca 3246     		mov	r2, r6
 2113 00cc 8046     		mov	r8, r0
 2114 00ce 8946     		mov	r9, r1
 2115 00d0 3B46     		mov	r3, r7
 2116 00d2 3046     		mov	r0, r6
 2117 00d4 3946     		mov	r1, r7
 2118 00d6 FFF7FEFF 		bl	__aeabi_dadd
 2119              	.LVL311:
 2120 00da 2246     		mov	r2, r4
 2121 00dc 2B46     		mov	r3, r5
 2122 00de FFF7FEFF 		bl	__aeabi_dmul
 2123              	.LVL312:
 2124 00e2 0246     		mov	r2, r0
 2125 00e4 0B46     		mov	r3, r1
 2126 00e6 4046     		mov	r0, r8
 2127 00e8 4946     		mov	r1, r9
 2128 00ea FFF7FEFF 		bl	__aeabi_ddiv
 2129              	.LVL313:
 2130              		.loc 1 445 0
 2131 00ee FFF7FEFF 		bl	ln_deg_to_rad
 2132              	.LVL314:
 2133 00f2 FFF7FEFF 		bl	acos
 2134              	.LVL315:
 2135              		.loc 1 446 0
 2136 00f6 03B0     		add	sp, sp, #12
 2137 00f8 BDE8F04F 		pop	{r4, r5, r6, r7, r8, r9, sl, fp, lr}
 2138              		.loc 1 445 0
 2139 00fc FFF7FEBF 		b	ln_range_degrees
 2140              	.LVL316:
 2141              		.cfi_endproc
 2142              	.LFE17:
 2143              		.size	ln_get_ell_body_phase_angle, .-ln_get_ell_body_phase_angle
 2144              		.section	.text.ln_get_ell_body_elong,"ax",%progbits
 2145              		.align	2
 2146              		.p2align 4,,15
 2147              		.global	ln_get_ell_body_elong
 2148              		.thumb
 2149              		.thumb_func
 2150              		.type	ln_get_ell_body_elong, %function
 2151              	ln_get_ell_body_elong:
 2152              	.LFB18:
 2153              		.loc 1 457 0
 2154              		.cfi_startproc
 2155              		@ args = 0, pretend = 0, frame = 8
ARM GAS  /tmp/cctkbEOJ.s 			page 39


 2156              		@ frame_needed = 0, uses_anonymous_args = 0
 2157              	.LVL317:
 2158 0000 2DE9F047 		push	{r4, r5, r6, r7, r8, r9, sl, lr}
 2159              	.LCFI24:
 2160              		.cfi_def_cfa_offset 32
 2161              		.cfi_offset 4, -32
 2162              		.cfi_offset 5, -28
 2163              		.cfi_offset 6, -24
 2164              		.cfi_offset 7, -20
 2165              		.cfi_offset 8, -16
 2166              		.cfi_offset 9, -12
 2167              		.cfi_offset 10, -8
 2168              		.cfi_offset 14, -4
 2169 0004 9246     		mov	sl, r2
 2170 0006 84B0     		sub	sp, sp, #16
 2171              	.LCFI25:
 2172              		.cfi_def_cfa_offset 48
 2173              		.loc 1 464 0
 2174 0008 D2E90C23 		ldrd	r2, [r2, #48]
 2175              	.LVL318:
 2176              		.loc 1 457 0
 2177 000c 0646     		mov	r6, r0
 2178 000e 0F46     		mov	r7, r1
 2179              		.loc 1 464 0
 2180 0010 FFF7FEFF 		bl	__aeabi_dsub
 2181              	.LVL319:
 2182              		.loc 1 467 0
 2183 0014 DAE90A45 		ldrd	r4, [sl, #40]
 2184              		.loc 1 464 0
 2185 0018 8046     		mov	r8, r0
 2186 001a 8946     		mov	r9, r1
 2187              	.LVL320:
 2188              		.loc 1 467 0
 2189 001c 0022     		movs	r2, #0
 2190 001e 0023     		movs	r3, #0
 2191 0020 2046     		mov	r0, r4
 2192 0022 2946     		mov	r1, r5
 2193 0024 FFF7FEFF 		bl	__aeabi_dcmpeq
 2194              	.LVL321:
 2195 0028 38B1     		cbz	r0, .L68
 2196              		.loc 1 468 0
 2197 002a DAE90001 		ldrd	r0, [sl]
 2198 002e FFF7FEFF 		bl	ln_get_ell_mean_motion
 2199              	.LVL322:
 2200 0032 0446     		mov	r4, r0
 2201 0034 0D46     		mov	r5, r1
 2202 0036 CAE90A45 		strd	r4, [sl, #40]
 2203              	.L68:
 2204              	.LVL323:
 2205              		.loc 1 472 0
 2206 003a DAE90223 		ldrd	r2, [sl, #8]
 2207              	.LBB36:
 2208              	.LBB37:
 2209              		.loc 1 98 0
 2210 003e 4046     		mov	r0, r8
 2211              	.LBE37:
 2212              	.LBE36:
ARM GAS  /tmp/cctkbEOJ.s 			page 40


 2213              		.loc 1 472 0
 2214 0040 CDE90223 		strd	r2, [sp, #8]
 2215              	.LBB39:
 2216              	.LBB38:
 2217              		.loc 1 98 0
 2218 0044 4946     		mov	r1, r9
 2219 0046 2246     		mov	r2, r4
 2220 0048 2B46     		mov	r3, r5
 2221 004a FFF7FEFF 		bl	__aeabi_dmul
 2222              	.LVL324:
 2223 004e 0246     		mov	r2, r0
 2224 0050 0B46     		mov	r3, r1
 2225              	.LBE38:
 2226              	.LBE39:
 2227              		.loc 1 472 0
 2228 0052 DDE90201 		ldrd	r0, [sp, #8]
 2229 0056 FFF7FEFF 		bl	ln_solve_kepler
 2230              	.LVL325:
 2231              		.loc 1 475 0
 2232 005a DAE90045 		ldrd	r4, [sl]
 2233              	.LVL326:
 2234 005e DAE90223 		ldrd	r2, [sl, #8]
 2235 0062 CDE90001 		strd	r0, [sp]
 2236 0066 2046     		mov	r0, r4
 2237              	.LVL327:
 2238 0068 2946     		mov	r1, r5
 2239 006a FFF7FEFF 		bl	ln_get_ell_radius_vector
 2240              	.LVL328:
 2241 006e CDE90201 		strd	r0, [sp, #8]
 2242              	.LVL329:
 2243              		.loc 1 478 0
 2244 0072 3046     		mov	r0, r6
 2245              	.LVL330:
 2246 0074 3946     		mov	r1, r7
 2247 0076 FFF7FEFF 		bl	ln_get_earth_solar_dist
 2248              	.LVL331:
 2249              		.loc 1 479 0
 2250 007a 5246     		mov	r2, sl
 2251              		.loc 1 478 0
 2252 007c 0446     		mov	r4, r0
 2253 007e 0D46     		mov	r5, r1
 2254              	.LVL332:
 2255              		.loc 1 479 0
 2256 0080 3046     		mov	r0, r6
 2257 0082 3946     		mov	r1, r7
 2258 0084 FFF7FEFF 		bl	ln_get_ell_body_solar_dist
 2259              	.LVL333:
 2260              		.loc 1 481 0
 2261 0088 2246     		mov	r2, r4
 2262              		.loc 1 479 0
 2263 008a 0646     		mov	r6, r0
 2264 008c 0F46     		mov	r7, r1
 2265              	.LVL334:
 2266              		.loc 1 481 0
 2267 008e 2B46     		mov	r3, r5
 2268 0090 2046     		mov	r0, r4
 2269 0092 2946     		mov	r1, r5
ARM GAS  /tmp/cctkbEOJ.s 			page 41


 2270 0094 FFF7FEFF 		bl	__aeabi_dmul
 2271              	.LVL335:
 2272 0098 3246     		mov	r2, r6
 2273 009a 8046     		mov	r8, r0
 2274              	.LVL336:
 2275 009c 8946     		mov	r9, r1
 2276 009e 3B46     		mov	r3, r7
 2277 00a0 3046     		mov	r0, r6
 2278 00a2 3946     		mov	r1, r7
 2279 00a4 FFF7FEFF 		bl	__aeabi_dmul
 2280              	.LVL337:
 2281 00a8 0246     		mov	r2, r0
 2282 00aa 0B46     		mov	r3, r1
 2283 00ac 4046     		mov	r0, r8
 2284 00ae 4946     		mov	r1, r9
 2285 00b0 FFF7FEFF 		bl	__aeabi_dadd
 2286              	.LVL338:
 2287 00b4 8046     		mov	r8, r0
 2288 00b6 8946     		mov	r9, r1
 2289 00b8 DDE90201 		ldrd	r0, [sp, #8]
 2290 00bc 0246     		mov	r2, r0
 2291 00be 0B46     		mov	r3, r1
 2292 00c0 FFF7FEFF 		bl	__aeabi_dmul
 2293              	.LVL339:
 2294 00c4 0246     		mov	r2, r0
 2295 00c6 0B46     		mov	r3, r1
 2296 00c8 4046     		mov	r0, r8
 2297 00ca 4946     		mov	r1, r9
 2298 00cc FFF7FEFF 		bl	__aeabi_dsub
 2299              	.LVL340:
 2300 00d0 2246     		mov	r2, r4
 2301 00d2 8046     		mov	r8, r0
 2302 00d4 8946     		mov	r9, r1
 2303 00d6 2B46     		mov	r3, r5
 2304 00d8 2046     		mov	r0, r4
 2305 00da 2946     		mov	r1, r5
 2306 00dc FFF7FEFF 		bl	__aeabi_dadd
 2307              	.LVL341:
 2308 00e0 3246     		mov	r2, r6
 2309 00e2 3B46     		mov	r3, r7
 2310 00e4 FFF7FEFF 		bl	__aeabi_dmul
 2311              	.LVL342:
 2312 00e8 0246     		mov	r2, r0
 2313 00ea 0B46     		mov	r3, r1
 2314 00ec 4046     		mov	r0, r8
 2315 00ee 4946     		mov	r1, r9
 2316 00f0 FFF7FEFF 		bl	__aeabi_ddiv
 2317              	.LVL343:
 2318              		.loc 1 482 0
 2319 00f4 FFF7FEFF 		bl	acos
 2320              	.LVL344:
 2321 00f8 FFF7FEFF 		bl	ln_rad_to_deg
 2322              	.LVL345:
 2323              		.loc 1 483 0
 2324 00fc 04B0     		add	sp, sp, #16
 2325 00fe BDE8F047 		pop	{r4, r5, r6, r7, r8, r9, sl, lr}
 2326              		.loc 1 482 0
ARM GAS  /tmp/cctkbEOJ.s 			page 42


 2327 0102 FFF7FEBF 		b	ln_range_degrees
 2328              	.LVL346:
 2329              		.cfi_endproc
 2330              	.LFE18:
 2331              		.size	ln_get_ell_body_elong, .-ln_get_ell_body_elong
 2332 0106 00BFAFF3 		.section	.text.ln_get_ell_body_rst_horizon,"ax",%progbits
 2332      0080AFF3 
 2332      0080
 2333              		.align	2
 2334              		.p2align 4,,15
 2335              		.global	ln_get_ell_body_rst_horizon
 2336              		.thumb
 2337              		.thumb_func
 2338              		.type	ln_get_ell_body_rst_horizon, %function
 2339              	ln_get_ell_body_rst_horizon:
 2340              	.LFB20:
 2341              		.loc 1 518 0
 2342              		.cfi_startproc
 2343              		@ args = 12, pretend = 0, frame = 0
 2344              		@ frame_needed = 0, uses_anonymous_args = 0
 2345              	.LVL347:
 2346 0000 30B5     		push	{r4, r5, lr}
 2347              	.LCFI26:
 2348              		.cfi_def_cfa_offset 12
 2349              		.cfi_offset 4, -12
 2350              		.cfi_offset 5, -8
 2351              		.cfi_offset 14, -4
 2352 0002 87B0     		sub	sp, sp, #28
 2353              	.LCFI27:
 2354              		.cfi_def_cfa_offset 40
 2355              		.loc 1 519 0
 2356 0004 DDE90A45 		ldrd	r4, [sp, #40]
 2357 0008 0093     		str	r3, [sp, #0]
 2358 000a 0C9B     		ldr	r3, [sp, #48]
 2359              	.LVL348:
 2360 000c 0493     		str	r3, [sp, #16]
 2361 000e 40F20003 		movw	r3, #:lower16:ln_get_ell_body_equ_coords
 2362 0012 CDE90245 		strd	r4, [sp, #8]
 2363 0016 C0F20003 		movt	r3, #:upper16:ln_get_ell_body_equ_coords
 2364 001a FFF7FEFF 		bl	ln_get_motion_body_rst_horizon
 2365              	.LVL349:
 2366              		.loc 1 520 0
 2367 001e 07B0     		add	sp, sp, #28
 2368 0020 30BD     		pop	{r4, r5, pc}
 2369              		.cfi_endproc
 2370              	.LFE20:
 2371              		.size	ln_get_ell_body_rst_horizon, .-ln_get_ell_body_rst_horizon
 2372 0022 00BFAFF3 		.section	.text.ln_get_ell_body_rst,"ax",%progbits
 2372      0080AFF3 
 2372      0080AFF3 
 2372      0080
 2373              		.align	2
 2374              		.p2align 4,,15
 2375              		.global	ln_get_ell_body_rst
 2376              		.thumb
 2377              		.thumb_func
 2378              		.type	ln_get_ell_body_rst, %function
ARM GAS  /tmp/cctkbEOJ.s 			page 43


 2379              	ln_get_ell_body_rst:
 2380              	.LFB19:
 2381              		.loc 1 499 0
 2382              		.cfi_startproc
 2383              		@ args = 4, pretend = 0, frame = 0
 2384              		@ frame_needed = 0, uses_anonymous_args = 0
 2385              	.LVL350:
 2386 0000 30B5     		push	{r4, r5, lr}
 2387              	.LCFI28:
 2388              		.cfi_def_cfa_offset 12
 2389              		.cfi_offset 4, -12
 2390              		.cfi_offset 5, -8
 2391              		.cfi_offset 14, -4
 2392              		.loc 1 500 0
 2393 0002 07A5     		adr	r5, .L73
 2394 0004 D5E90045 		ldrd	r4, [r5]
 2395              		.loc 1 499 0
 2396 0008 85B0     		sub	sp, sp, #20
 2397              	.LCFI29:
 2398              		.cfi_def_cfa_offset 32
 2399              		.loc 1 500 0
 2400 000a CDE90045 		strd	r4, [sp]
 2401 000e 089C     		ldr	r4, [sp, #32]
 2402 0010 0294     		str	r4, [sp, #8]
 2403 0012 FFF7FEFF 		bl	ln_get_ell_body_rst_horizon
 2404              	.LVL351:
 2405              		.loc 1 501 0
 2406 0016 05B0     		add	sp, sp, #20
 2407 0018 30BD     		pop	{r4, r5, pc}
 2408              	.L74:
 2409 001a 00BFAFF3 		.align	3
 2409      0080
 2410              	.L73:
 2411 0020 1895D409 		.word	164926744
 2412 0024 6822E2BF 		.word	-1075699096
 2413              		.cfi_endproc
 2414              	.LFE19:
 2415              		.size	ln_get_ell_body_rst, .-ln_get_ell_body_rst
 2416 0028 AFF30080 		.section	.text.ln_get_ell_body_next_rst_horizon,"ax",%progbits
 2416      AFF30080 
 2417              		.align	2
 2418              		.p2align 4,,15
 2419              		.global	ln_get_ell_body_next_rst_horizon
 2420              		.thumb
 2421              		.thumb_func
 2422              		.type	ln_get_ell_body_next_rst_horizon, %function
 2423              	ln_get_ell_body_next_rst_horizon:
 2424              	.LFB22:
 2425              		.loc 1 559 0
 2426              		.cfi_startproc
 2427              		@ args = 12, pretend = 0, frame = 0
 2428              		@ frame_needed = 0, uses_anonymous_args = 0
 2429              	.LVL352:
 2430 0000 30B5     		push	{r4, r5, lr}
 2431              	.LCFI30:
 2432              		.cfi_def_cfa_offset 12
 2433              		.cfi_offset 4, -12
ARM GAS  /tmp/cctkbEOJ.s 			page 44


 2434              		.cfi_offset 5, -8
 2435              		.cfi_offset 14, -4
 2436 0002 87B0     		sub	sp, sp, #28
 2437              	.LCFI31:
 2438              		.cfi_def_cfa_offset 40
 2439              		.loc 1 560 0
 2440 0004 DDE90A45 		ldrd	r4, [sp, #40]
 2441 0008 0093     		str	r3, [sp, #0]
 2442 000a 0C9B     		ldr	r3, [sp, #48]
 2443              	.LVL353:
 2444 000c 0493     		str	r3, [sp, #16]
 2445 000e 40F20003 		movw	r3, #:lower16:ln_get_ell_body_equ_coords
 2446 0012 CDE90245 		strd	r4, [sp, #8]
 2447 0016 C0F20003 		movt	r3, #:upper16:ln_get_ell_body_equ_coords
 2448 001a FFF7FEFF 		bl	ln_get_motion_body_next_rst_horizon
 2449              	.LVL354:
 2450              		.loc 1 561 0
 2451 001e 07B0     		add	sp, sp, #28
 2452 0020 30BD     		pop	{r4, r5, pc}
 2453              		.cfi_endproc
 2454              	.LFE22:
 2455              		.size	ln_get_ell_body_next_rst_horizon, .-ln_get_ell_body_next_rst_horizon
 2456 0022 00BFAFF3 		.section	.text.ln_get_ell_body_next_rst,"ax",%progbits
 2456      0080AFF3 
 2456      0080AFF3 
 2456      0080
 2457              		.align	2
 2458              		.p2align 4,,15
 2459              		.global	ln_get_ell_body_next_rst
 2460              		.thumb
 2461              		.thumb_func
 2462              		.type	ln_get_ell_body_next_rst, %function
 2463              	ln_get_ell_body_next_rst:
 2464              	.LFB21:
 2465              		.loc 1 538 0
 2466              		.cfi_startproc
 2467              		@ args = 4, pretend = 0, frame = 0
 2468              		@ frame_needed = 0, uses_anonymous_args = 0
 2469              	.LVL355:
 2470 0000 30B5     		push	{r4, r5, lr}
 2471              	.LCFI32:
 2472              		.cfi_def_cfa_offset 12
 2473              		.cfi_offset 4, -12
 2474              		.cfi_offset 5, -8
 2475              		.cfi_offset 14, -4
 2476              		.loc 1 539 0
 2477 0002 07A5     		adr	r5, .L77
 2478 0004 D5E90045 		ldrd	r4, [r5]
 2479              		.loc 1 538 0
 2480 0008 85B0     		sub	sp, sp, #20
 2481              	.LCFI33:
 2482              		.cfi_def_cfa_offset 32
 2483              		.loc 1 539 0
 2484 000a CDE90045 		strd	r4, [sp]
 2485 000e 089C     		ldr	r4, [sp, #32]
 2486 0010 0294     		str	r4, [sp, #8]
 2487 0012 FFF7FEFF 		bl	ln_get_ell_body_next_rst_horizon
ARM GAS  /tmp/cctkbEOJ.s 			page 45


 2488              	.LVL356:
 2489              		.loc 1 540 0
 2490 0016 05B0     		add	sp, sp, #20
 2491 0018 30BD     		pop	{r4, r5, pc}
 2492              	.L78:
 2493 001a 00BFAFF3 		.align	3
 2493      0080
 2494              	.L77:
 2495 0020 1895D409 		.word	164926744
 2496 0024 6822E2BF 		.word	-1075699096
 2497              		.cfi_endproc
 2498              	.LFE21:
 2499              		.size	ln_get_ell_body_next_rst, .-ln_get_ell_body_next_rst
 2500 0028 AFF30080 		.section	.text.ln_get_ell_body_next_rst_horizon_future,"ax",%progbits
 2500      AFF30080 
 2501              		.align	2
 2502              		.p2align 4,,15
 2503              		.global	ln_get_ell_body_next_rst_horizon_future
 2504              		.thumb
 2505              		.thumb_func
 2506              		.type	ln_get_ell_body_next_rst_horizon_future, %function
 2507              	ln_get_ell_body_next_rst_horizon_future:
 2508              	.LFB23:
 2509              		.loc 1 581 0
 2510              		.cfi_startproc
 2511              		@ args = 16, pretend = 0, frame = 0
 2512              		@ frame_needed = 0, uses_anonymous_args = 0
 2513              	.LVL357:
 2514 0000 30B5     		push	{r4, r5, lr}
 2515              	.LCFI34:
 2516              		.cfi_def_cfa_offset 12
 2517              		.cfi_offset 4, -12
 2518              		.cfi_offset 5, -8
 2519              		.cfi_offset 14, -4
 2520 0002 87B0     		sub	sp, sp, #28
 2521              	.LCFI35:
 2522              		.cfi_def_cfa_offset 40
 2523              		.loc 1 582 0
 2524 0004 DDE90A45 		ldrd	r4, [sp, #40]
 2525 0008 0093     		str	r3, [sp, #0]
 2526 000a 0C9B     		ldr	r3, [sp, #48]
 2527              	.LVL358:
 2528 000c 0493     		str	r3, [sp, #16]
 2529 000e 0D9B     		ldr	r3, [sp, #52]
 2530 0010 0593     		str	r3, [sp, #20]
 2531 0012 40F20003 		movw	r3, #:lower16:ln_get_ell_body_equ_coords
 2532 0016 CDE90245 		strd	r4, [sp, #8]
 2533 001a C0F20003 		movt	r3, #:upper16:ln_get_ell_body_equ_coords
 2534 001e FFF7FEFF 		bl	ln_get_motion_body_next_rst_horizon_future
 2535              	.LVL359:
 2536              		.loc 1 583 0
 2537 0022 07B0     		add	sp, sp, #28
 2538 0024 30BD     		pop	{r4, r5, pc}
 2539              		.cfi_endproc
 2540              	.LFE23:
 2541              		.size	ln_get_ell_body_next_rst_horizon_future, .-ln_get_ell_body_next_rst_horizon_future
 2542 0026 00BFAFF3 		.section	.text.ln_get_ell_last_perihelion,"ax",%progbits
ARM GAS  /tmp/cctkbEOJ.s 			page 46


 2542      0080AFF3 
 2542      0080
 2543              		.align	2
 2544              		.p2align 4,,15
 2545              		.global	ln_get_ell_last_perihelion
 2546              		.thumb
 2547              		.thumb_func
 2548              		.type	ln_get_ell_last_perihelion, %function
 2549              	ln_get_ell_last_perihelion:
 2550              	.LFB24:
 2551              		.loc 1 593 0
 2552              		.cfi_startproc
 2553              		@ args = 8, pretend = 0, frame = 0
 2554              		@ frame_needed = 0, uses_anonymous_args = 0
 2555              	.LVL360:
 2556 0000 38B5     		push	{r3, r4, r5, lr}
 2557              	.LCFI36:
 2558              		.cfi_def_cfa_offset 16
 2559              		.cfi_offset 3, -16
 2560              		.cfi_offset 4, -12
 2561              		.cfi_offset 5, -8
 2562              		.cfi_offset 14, -4
 2563              		.loc 1 593 0
 2564 0002 0446     		mov	r4, r0
 2565 0004 0D46     		mov	r5, r1
 2566              		.loc 1 594 0
 2567 0006 1046     		mov	r0, r2
 2568              	.LVL361:
 2569 0008 1946     		mov	r1, r3
 2570 000a DDE90423 		ldrd	r2, [sp, #16]
 2571              	.LVL362:
 2572 000e FFF7FEFF 		bl	__aeabi_ddiv
 2573              	.LVL363:
 2574 0012 0246     		mov	r2, r0
 2575 0014 0B46     		mov	r3, r1
 2576 0016 2046     		mov	r0, r4
 2577 0018 2946     		mov	r1, r5
 2578 001a FFF7FEFF 		bl	__aeabi_dsub
 2579              	.LVL364:
 2580              		.loc 1 595 0
 2581 001e 38BD     		pop	{r3, r4, r5, pc}
 2582              		.cfi_endproc
 2583              	.LFE24:
 2584              		.size	ln_get_ell_last_perihelion, .-ln_get_ell_last_perihelion
 2585              		.text
 2586              	.Letext0:
 2587              		.file 2 "./libnova/src/libnova/ln_types.h"
 2588              		.file 3 "./libnova/src/libnova/utility.h"
 2589              		.file 4 "/usr/bin/../lib/gcc/arm-none-eabi/4.7.4/../../../../arm-none-eabi/include/math.h"
 2590              		.file 5 "./libnova/src/libnova/solar.h"
 2591              		.file 6 "./libnova/src/libnova/earth.h"
 2592              		.file 7 "./libnova/src/libnova/transform.h"
 2593              		.file 8 "./libnova/src/libnova/rise_set.h"
 2594              		.section	.debug_info,"",%progbits
 2595              	.Ldebug_info0:
 2596 0000 55150000 		.4byte	0x1555
 2597 0004 0200     		.2byte	0x2
ARM GAS  /tmp/cctkbEOJ.s 			page 47


 2598 0006 00000000 		.4byte	.Ldebug_abbrev0
 2599 000a 04       		.byte	0x4
 2600 000b 01       		.uleb128 0x1
 2601 000c 58010000 		.4byte	.LASF30
 2602 0010 01       		.byte	0x1
 2603 0011 FF030000 		.4byte	.LASF31
 2604 0015 FC010000 		.4byte	.LASF32
 2605 0019 98000000 		.4byte	.Ldebug_ranges0+0x98
 2606 001d 00000000 		.4byte	0
 2607 0021 00000000 		.4byte	0
 2608 0025 00000000 		.4byte	.Ldebug_line0
 2609 0029 02       		.uleb128 0x2
 2610 002a 08       		.byte	0x8
 2611 002b 04       		.byte	0x4
 2612 002c C8010000 		.4byte	.LASF0
 2613 0030 02       		.uleb128 0x2
 2614 0031 01       		.byte	0x1
 2615 0032 06       		.byte	0x6
 2616 0033 15010000 		.4byte	.LASF1
 2617 0037 02       		.uleb128 0x2
 2618 0038 01       		.byte	0x1
 2619 0039 08       		.byte	0x8
 2620 003a 56040000 		.4byte	.LASF2
 2621 003e 02       		.uleb128 0x2
 2622 003f 02       		.byte	0x2
 2623 0040 05       		.byte	0x5
 2624 0041 83040000 		.4byte	.LASF3
 2625 0045 02       		.uleb128 0x2
 2626 0046 02       		.byte	0x2
 2627 0047 07       		.byte	0x7
 2628 0048 B8020000 		.4byte	.LASF4
 2629 004c 03       		.uleb128 0x3
 2630 004d 04       		.byte	0x4
 2631 004e 05       		.byte	0x5
 2632 004f 696E7400 		.ascii	"int\000"
 2633 0053 02       		.uleb128 0x2
 2634 0054 04       		.byte	0x4
 2635 0055 07       		.byte	0x7
 2636 0056 6B020000 		.4byte	.LASF5
 2637 005a 02       		.uleb128 0x2
 2638 005b 08       		.byte	0x8
 2639 005c 05       		.byte	0x5
 2640 005d 07010000 		.4byte	.LASF6
 2641 0061 02       		.uleb128 0x2
 2642 0062 08       		.byte	0x8
 2643 0063 07       		.byte	0x7
 2644 0064 C2000000 		.4byte	.LASF7
 2645 0068 02       		.uleb128 0x2
 2646 0069 04       		.byte	0x4
 2647 006a 05       		.byte	0x5
 2648 006b A7010000 		.4byte	.LASF8
 2649 006f 02       		.uleb128 0x2
 2650 0070 04       		.byte	0x4
 2651 0071 07       		.byte	0x7
 2652 0072 74030000 		.4byte	.LASF9
 2653 0076 04       		.uleb128 0x4
 2654 0077 04       		.byte	0x4
ARM GAS  /tmp/cctkbEOJ.s 			page 48


 2655 0078 02       		.uleb128 0x2
 2656 0079 04       		.byte	0x4
 2657 007a 07       		.byte	0x7
 2658 007b 9A020000 		.4byte	.LASF10
 2659 007f 02       		.uleb128 0x2
 2660 0080 01       		.byte	0x1
 2661 0081 08       		.byte	0x8
 2662 0082 C7040000 		.4byte	.LASF11
 2663 0086 02       		.uleb128 0x2
 2664 0087 04       		.byte	0x4
 2665 0088 04       		.byte	0x4
 2666 0089 F9030000 		.4byte	.LASF12
 2667 008d 02       		.uleb128 0x2
 2668 008e 08       		.byte	0x8
 2669 008f 04       		.byte	0x4
 2670 0090 7D030000 		.4byte	.LASF13
 2671 0094 05       		.uleb128 0x5
 2672 0095 08060000 		.4byte	.LASF14
 2673 0099 10       		.byte	0x10
 2674 009a 02       		.byte	0x2
 2675 009b AA       		.byte	0xaa
 2676 009c BC000000 		.4byte	0xbc
 2677 00a0 06       		.uleb128 0x6
 2678 00a1 726100   		.ascii	"ra\000"
 2679 00a4 02       		.byte	0x2
 2680 00a5 AC       		.byte	0xac
 2681 00a6 29000000 		.4byte	0x29
 2682 00aa 02       		.byte	0x2
 2683 00ab 23       		.byte	0x23
 2684 00ac 00       		.uleb128 0
 2685 00ad 06       		.uleb128 0x6
 2686 00ae 64656300 		.ascii	"dec\000"
 2687 00b2 02       		.byte	0x2
 2688 00b3 AD       		.byte	0xad
 2689 00b4 29000000 		.4byte	0x29
 2690 00b8 02       		.byte	0x2
 2691 00b9 23       		.byte	0x23
 2692 00ba 08       		.uleb128 0x8
 2693 00bb 00       		.byte	0
 2694 00bc 05       		.uleb128 0x5
 2695 00bd CC040000 		.4byte	.LASF15
 2696 00c1 10       		.byte	0x10
 2697 00c2 02       		.byte	0x2
 2698 00c3 C8       		.byte	0xc8
 2699 00c4 E5000000 		.4byte	0xe5
 2700 00c8 06       		.uleb128 0x6
 2701 00c9 6C6E6700 		.ascii	"lng\000"
 2702 00cd 02       		.byte	0x2
 2703 00ce CA       		.byte	0xca
 2704 00cf 29000000 		.4byte	0x29
 2705 00d3 02       		.byte	0x2
 2706 00d4 23       		.byte	0x23
 2707 00d5 00       		.uleb128 0
 2708 00d6 06       		.uleb128 0x6
 2709 00d7 6C617400 		.ascii	"lat\000"
 2710 00db 02       		.byte	0x2
 2711 00dc CB       		.byte	0xcb
ARM GAS  /tmp/cctkbEOJ.s 			page 49


 2712 00dd 29000000 		.4byte	0x29
 2713 00e1 02       		.byte	0x2
 2714 00e2 23       		.byte	0x23
 2715 00e3 08       		.uleb128 0x8
 2716 00e4 00       		.byte	0
 2717 00e5 05       		.uleb128 0x5
 2718 00e6 EC050000 		.4byte	.LASF16
 2719 00ea 18       		.byte	0x18
 2720 00eb 02       		.byte	0x2
 2721 00ec D8       		.byte	0xd8
 2722 00ed 16010000 		.4byte	0x116
 2723 00f1 06       		.uleb128 0x6
 2724 00f2 4C00     		.ascii	"L\000"
 2725 00f4 02       		.byte	0x2
 2726 00f5 DA       		.byte	0xda
 2727 00f6 29000000 		.4byte	0x29
 2728 00fa 02       		.byte	0x2
 2729 00fb 23       		.byte	0x23
 2730 00fc 00       		.uleb128 0
 2731 00fd 06       		.uleb128 0x6
 2732 00fe 4200     		.ascii	"B\000"
 2733 0100 02       		.byte	0x2
 2734 0101 DB       		.byte	0xdb
 2735 0102 29000000 		.4byte	0x29
 2736 0106 02       		.byte	0x2
 2737 0107 23       		.byte	0x23
 2738 0108 08       		.uleb128 0x8
 2739 0109 06       		.uleb128 0x6
 2740 010a 5200     		.ascii	"R\000"
 2741 010c 02       		.byte	0x2
 2742 010d DC       		.byte	0xdc
 2743 010e 29000000 		.4byte	0x29
 2744 0112 02       		.byte	0x2
 2745 0113 23       		.byte	0x23
 2746 0114 10       		.uleb128 0x10
 2747 0115 00       		.byte	0
 2748 0116 05       		.uleb128 0x5
 2749 0117 D9000000 		.4byte	.LASF17
 2750 011b 18       		.byte	0x18
 2751 011c 02       		.byte	0x2
 2752 011d ED       		.byte	0xed
 2753 011e 47010000 		.4byte	0x147
 2754 0122 06       		.uleb128 0x6
 2755 0123 5800     		.ascii	"X\000"
 2756 0125 02       		.byte	0x2
 2757 0126 EF       		.byte	0xef
 2758 0127 29000000 		.4byte	0x29
 2759 012b 02       		.byte	0x2
 2760 012c 23       		.byte	0x23
 2761 012d 00       		.uleb128 0
 2762 012e 06       		.uleb128 0x6
 2763 012f 5900     		.ascii	"Y\000"
 2764 0131 02       		.byte	0x2
 2765 0132 F0       		.byte	0xf0
 2766 0133 29000000 		.4byte	0x29
 2767 0137 02       		.byte	0x2
 2768 0138 23       		.byte	0x23
ARM GAS  /tmp/cctkbEOJ.s 			page 50


 2769 0139 08       		.uleb128 0x8
 2770 013a 06       		.uleb128 0x6
 2771 013b 5A00     		.ascii	"Z\000"
 2772 013d 02       		.byte	0x2
 2773 013e F1       		.byte	0xf1
 2774 013f 29000000 		.4byte	0x29
 2775 0143 02       		.byte	0x2
 2776 0144 23       		.byte	0x23
 2777 0145 10       		.uleb128 0x10
 2778 0146 00       		.byte	0
 2779 0147 07       		.uleb128 0x7
 2780 0148 67030000 		.4byte	.LASF18
 2781 014c 38       		.byte	0x38
 2782 014d 02       		.byte	0x2
 2783 014e 0901     		.2byte	0x109
 2784 0150 B3010000 		.4byte	0x1b3
 2785 0154 08       		.uleb128 0x8
 2786 0155 6100     		.ascii	"a\000"
 2787 0157 02       		.byte	0x2
 2788 0158 0B01     		.2byte	0x10b
 2789 015a 29000000 		.4byte	0x29
 2790 015e 02       		.byte	0x2
 2791 015f 23       		.byte	0x23
 2792 0160 00       		.uleb128 0
 2793 0161 08       		.uleb128 0x8
 2794 0162 6500     		.ascii	"e\000"
 2795 0164 02       		.byte	0x2
 2796 0165 0C01     		.2byte	0x10c
 2797 0167 29000000 		.4byte	0x29
 2798 016b 02       		.byte	0x2
 2799 016c 23       		.byte	0x23
 2800 016d 08       		.uleb128 0x8
 2801 016e 08       		.uleb128 0x8
 2802 016f 6900     		.ascii	"i\000"
 2803 0171 02       		.byte	0x2
 2804 0172 0D01     		.2byte	0x10d
 2805 0174 29000000 		.4byte	0x29
 2806 0178 02       		.byte	0x2
 2807 0179 23       		.byte	0x23
 2808 017a 10       		.uleb128 0x10
 2809 017b 08       		.uleb128 0x8
 2810 017c 7700     		.ascii	"w\000"
 2811 017e 02       		.byte	0x2
 2812 017f 0E01     		.2byte	0x10e
 2813 0181 29000000 		.4byte	0x29
 2814 0185 02       		.byte	0x2
 2815 0186 23       		.byte	0x23
 2816 0187 18       		.uleb128 0x18
 2817 0188 09       		.uleb128 0x9
 2818 0189 96040000 		.4byte	.LASF19
 2819 018d 02       		.byte	0x2
 2820 018e 0F01     		.2byte	0x10f
 2821 0190 29000000 		.4byte	0x29
 2822 0194 02       		.byte	0x2
 2823 0195 23       		.byte	0x23
 2824 0196 20       		.uleb128 0x20
 2825 0197 08       		.uleb128 0x8
ARM GAS  /tmp/cctkbEOJ.s 			page 51


 2826 0198 6E00     		.ascii	"n\000"
 2827 019a 02       		.byte	0x2
 2828 019b 1001     		.2byte	0x110
 2829 019d 29000000 		.4byte	0x29
 2830 01a1 02       		.byte	0x2
 2831 01a2 23       		.byte	0x23
 2832 01a3 28       		.uleb128 0x28
 2833 01a4 08       		.uleb128 0x8
 2834 01a5 4A4400   		.ascii	"JD\000"
 2835 01a8 02       		.byte	0x2
 2836 01a9 1101     		.2byte	0x111
 2837 01ab 29000000 		.4byte	0x29
 2838 01af 02       		.byte	0x2
 2839 01b0 23       		.byte	0x23
 2840 01b1 30       		.uleb128 0x30
 2841 01b2 00       		.byte	0
 2842 01b3 07       		.uleb128 0x7
 2843 01b4 42050000 		.4byte	.LASF20
 2844 01b8 18       		.byte	0x18
 2845 01b9 02       		.byte	0x2
 2846 01ba 3D01     		.2byte	0x13d
 2847 01bc EE010000 		.4byte	0x1ee
 2848 01c0 09       		.uleb128 0x9
 2849 01c1 D9030000 		.4byte	.LASF21
 2850 01c5 02       		.byte	0x2
 2851 01c6 3F01     		.2byte	0x13f
 2852 01c8 29000000 		.4byte	0x29
 2853 01cc 02       		.byte	0x2
 2854 01cd 23       		.byte	0x23
 2855 01ce 00       		.uleb128 0
 2856 01cf 08       		.uleb128 0x8
 2857 01d0 73657400 		.ascii	"set\000"
 2858 01d4 02       		.byte	0x2
 2859 01d5 4001     		.2byte	0x140
 2860 01d7 29000000 		.4byte	0x29
 2861 01db 02       		.byte	0x2
 2862 01dc 23       		.byte	0x23
 2863 01dd 08       		.uleb128 0x8
 2864 01de 09       		.uleb128 0x9
 2865 01df 9F030000 		.4byte	.LASF22
 2866 01e3 02       		.byte	0x2
 2867 01e4 4101     		.2byte	0x141
 2868 01e6 29000000 		.4byte	0x29
 2869 01ea 02       		.byte	0x2
 2870 01eb 23       		.byte	0x23
 2871 01ec 10       		.uleb128 0x10
 2872 01ed 00       		.byte	0
 2873 01ee 0A       		.uleb128 0xa
 2874 01ef F6020000 		.4byte	.LASF89
 2875 01f3 08       		.byte	0x8
 2876 01f4 58       		.byte	0x58
 2877 01f5 F9010000 		.4byte	0x1f9
 2878 01f9 0B       		.uleb128 0xb
 2879 01fa 04       		.byte	0x4
 2880 01fb FF010000 		.4byte	0x1ff
 2881 01ff 0C       		.uleb128 0xc
 2882 0200 01       		.byte	0x1
ARM GAS  /tmp/cctkbEOJ.s 			page 52


 2883 0201 15020000 		.4byte	0x215
 2884 0205 0D       		.uleb128 0xd
 2885 0206 29000000 		.4byte	0x29
 2886 020a 0D       		.uleb128 0xd
 2887 020b 76000000 		.4byte	0x76
 2888 020f 0D       		.uleb128 0xd
 2889 0210 15020000 		.4byte	0x215
 2890 0214 00       		.byte	0
 2891 0215 0B       		.uleb128 0xb
 2892 0216 04       		.byte	0x4
 2893 0217 94000000 		.4byte	0x94
 2894 021b 0E       		.uleb128 0xe
 2895 021c 73676E00 		.ascii	"sgn\000"
 2896 0220 01       		.byte	0x1
 2897 0221 22       		.byte	0x22
 2898 0222 01       		.byte	0x1
 2899 0223 29000000 		.4byte	0x29
 2900 0227 01       		.byte	0x1
 2901 0228 36020000 		.4byte	0x236
 2902 022c 0F       		.uleb128 0xf
 2903 022d 7800     		.ascii	"x\000"
 2904 022f 01       		.byte	0x1
 2905 0230 22       		.byte	0x22
 2906 0231 29000000 		.4byte	0x29
 2907 0235 00       		.byte	0
 2908 0236 10       		.uleb128 0x10
 2909 0237 01       		.byte	0x1
 2910 0238 2B030000 		.4byte	.LASF71
 2911 023c 01       		.byte	0x1
 2912 023d 60       		.byte	0x60
 2913 023e 01       		.byte	0x1
 2914 023f 29000000 		.4byte	0x29
 2915 0243 01       		.byte	0x1
 2916 0244 5D020000 		.4byte	0x25d
 2917 0248 0F       		.uleb128 0xf
 2918 0249 6E00     		.ascii	"n\000"
 2919 024b 01       		.byte	0x1
 2920 024c 60       		.byte	0x60
 2921 024d 29000000 		.4byte	0x29
 2922 0251 11       		.uleb128 0x11
 2923 0252 1F040000 		.4byte	.LASF23
 2924 0256 01       		.byte	0x1
 2925 0257 60       		.byte	0x60
 2926 0258 29000000 		.4byte	0x29
 2927 025c 00       		.byte	0
 2928 025d 12       		.uleb128 0x12
 2929 025e 01       		.byte	0x1
 2930 025f 78020000 		.4byte	.LASF24
 2931 0263 01       		.byte	0x1
 2932 0264 35       		.byte	0x35
 2933 0265 01       		.byte	0x1
 2934 0266 29000000 		.4byte	0x29
 2935 026a 00000000 		.4byte	.LFB1
 2936 026e 68020000 		.4byte	.LFE1
 2937 0272 00000000 		.4byte	.LLST0
 2938 0276 01       		.byte	0x1
 2939 0277 38030000 		.4byte	0x338
ARM GAS  /tmp/cctkbEOJ.s 			page 53


 2940 027b 13       		.uleb128 0x13
 2941 027c 6500     		.ascii	"e\000"
 2942 027e 01       		.byte	0x1
 2943 027f 35       		.byte	0x35
 2944 0280 29000000 		.4byte	0x29
 2945 0284 2C000000 		.4byte	.LLST1
 2946 0288 13       		.uleb128 0x13
 2947 0289 4D00     		.ascii	"M\000"
 2948 028b 01       		.byte	0x1
 2949 028c 35       		.byte	0x35
 2950 028d 29000000 		.4byte	0x29
 2951 0291 50000000 		.4byte	.LLST2
 2952 0295 14       		.uleb128 0x14
 2953 0296 456F00   		.ascii	"Eo\000"
 2954 0299 01       		.byte	0x1
 2955 029a 37       		.byte	0x37
 2956 029b 29000000 		.4byte	0x29
 2957 029f F0000000 		.4byte	.LLST3
 2958 02a3 14       		.uleb128 0x14
 2959 02a4 4600     		.ascii	"F\000"
 2960 02a6 01       		.byte	0x1
 2961 02a7 38       		.byte	0x38
 2962 02a8 29000000 		.4byte	0x29
 2963 02ac 40010000 		.4byte	.LLST4
 2964 02b0 14       		.uleb128 0x14
 2965 02b1 4D3100   		.ascii	"M1\000"
 2966 02b4 01       		.byte	0x1
 2967 02b5 38       		.byte	0x38
 2968 02b6 29000000 		.4byte	0x29
 2969 02ba 5C010000 		.4byte	.LLST5
 2970 02be 14       		.uleb128 0x14
 2971 02bf 4400     		.ascii	"D\000"
 2972 02c1 01       		.byte	0x1
 2973 02c2 39       		.byte	0x39
 2974 02c3 29000000 		.4byte	0x29
 2975 02c7 7C010000 		.4byte	.LLST6
 2976 02cb 14       		.uleb128 0x14
 2977 02cc 6900     		.ascii	"i\000"
 2978 02ce 01       		.byte	0x1
 2979 02cf 3A       		.byte	0x3a
 2980 02d0 4C000000 		.4byte	0x4c
 2981 02d4 BC010000 		.4byte	.LLST7
 2982 02d8 15       		.uleb128 0x15
 2983 02d9 1B020000 		.4byte	0x21b
 2984 02dd 12000000 		.4byte	.LBB12
 2985 02e1 00000000 		.4byte	.Ldebug_ranges0+0
 2986 02e5 01       		.byte	0x1
 2987 02e6 3F       		.byte	0x3f
 2988 02e7 F5020000 		.4byte	0x2f5
 2989 02eb 16       		.uleb128 0x16
 2990 02ec 2C020000 		.4byte	0x22c
 2991 02f0 D0010000 		.4byte	.LLST8
 2992 02f4 00       		.byte	0
 2993 02f5 15       		.uleb128 0x15
 2994 02f6 1B020000 		.4byte	0x21b
 2995 02fa D6000000 		.4byte	.LBB17
 2996 02fe 20000000 		.4byte	.Ldebug_ranges0+0x20
ARM GAS  /tmp/cctkbEOJ.s 			page 54


 2997 0302 01       		.byte	0x1
 2998 0303 4F       		.byte	0x4f
 2999 0304 12030000 		.4byte	0x312
 3000 0308 16       		.uleb128 0x16
 3001 0309 2C020000 		.4byte	0x22c
 3002 030d 08020000 		.4byte	.LLST9
 3003 0311 00       		.byte	0
 3004 0312 17       		.uleb128 0x17
 3005 0313 12000000 		.4byte	.LVL2
 3006 0317 19130000 		.4byte	0x1319
 3007 031b 17       		.uleb128 0x17
 3008 031c 18010000 		.4byte	.LVL24
 3009 0320 31130000 		.4byte	0x1331
 3010 0324 17       		.uleb128 0x17
 3011 0325 9A010000 		.4byte	.LVL35
 3012 0329 31130000 		.4byte	0x1331
 3013 032d 18       		.uleb128 0x18
 3014 032e 0A020000 		.4byte	.LVL45
 3015 0332 01       		.byte	0x1
 3016 0333 49130000 		.4byte	0x1349
 3017 0337 00       		.byte	0
 3018 0338 19       		.uleb128 0x19
 3019 0339 36020000 		.4byte	0x236
 3020 033d 00000000 		.4byte	.LFB2
 3021 0341 14000000 		.4byte	.LFE2
 3022 0345 20020000 		.4byte	.LLST10
 3023 0349 01       		.byte	0x1
 3024 034a 61030000 		.4byte	0x361
 3025 034e 16       		.uleb128 0x16
 3026 034f 48020000 		.4byte	0x248
 3027 0353 40020000 		.4byte	.LLST11
 3028 0357 16       		.uleb128 0x16
 3029 0358 51020000 		.4byte	0x251
 3030 035c 68020000 		.4byte	.LLST12
 3031 0360 00       		.byte	0
 3032 0361 12       		.uleb128 0x12
 3033 0362 01       		.byte	0x1
 3034 0363 21010000 		.4byte	.LASF25
 3035 0367 01       		.byte	0x1
 3036 0368 6D       		.byte	0x6d
 3037 0369 01       		.byte	0x1
 3038 036a 29000000 		.4byte	0x29
 3039 036e 00000000 		.4byte	.LFB3
 3040 0372 84000000 		.4byte	.LFE3
 3041 0376 90020000 		.4byte	.LLST13
 3042 037a 01       		.byte	0x1
 3043 037b DE030000 		.4byte	0x3de
 3044 037f 13       		.uleb128 0x13
 3045 0380 6500     		.ascii	"e\000"
 3046 0382 01       		.byte	0x1
 3047 0383 6D       		.byte	0x6d
 3048 0384 29000000 		.4byte	0x29
 3049 0388 B0020000 		.4byte	.LLST14
 3050 038c 13       		.uleb128 0x13
 3051 038d 4500     		.ascii	"E\000"
 3052 038f 01       		.byte	0x1
 3053 0390 6D       		.byte	0x6d
ARM GAS  /tmp/cctkbEOJ.s 			page 55


 3054 0391 29000000 		.4byte	0x29
 3055 0395 D8020000 		.4byte	.LLST15
 3056 0399 14       		.uleb128 0x14
 3057 039a 7600     		.ascii	"v\000"
 3058 039c 01       		.byte	0x1
 3059 039d 6F       		.byte	0x6f
 3060 039e 29000000 		.4byte	0x29
 3061 03a2 10030000 		.4byte	.LLST16
 3062 03a6 17       		.uleb128 0x17
 3063 03a7 10000000 		.4byte	.LVL58
 3064 03ab 19130000 		.4byte	0x1319
 3065 03af 17       		.uleb128 0x17
 3066 03b0 48000000 		.4byte	.LVL63
 3067 03b4 61130000 		.4byte	0x1361
 3068 03b8 17       		.uleb128 0x17
 3069 03b9 60000000 		.4byte	.LVL65
 3070 03bd 79130000 		.4byte	0x1379
 3071 03c1 17       		.uleb128 0x17
 3072 03c2 70000000 		.4byte	.LVL68
 3073 03c6 91130000 		.4byte	0x1391
 3074 03ca 17       		.uleb128 0x17
 3075 03cb 7C000000 		.4byte	.LVL70
 3076 03cf 49130000 		.4byte	0x1349
 3077 03d3 18       		.uleb128 0x18
 3078 03d4 84000000 		.4byte	.LVL71
 3079 03d8 01       		.byte	0x1
 3080 03d9 A9130000 		.4byte	0x13a9
 3081 03dd 00       		.byte	0
 3082 03de 12       		.uleb128 0x12
 3083 03df 01       		.byte	0x1
 3084 03e0 E6000000 		.4byte	.LASF26
 3085 03e4 01       		.byte	0x1
 3086 03e5 81       		.byte	0x81
 3087 03e6 01       		.byte	0x1
 3088 03e7 29000000 		.4byte	0x29
 3089 03eb 00000000 		.4byte	.LFB4
 3090 03ef 38000000 		.4byte	.LFE4
 3091 03f3 3C030000 		.4byte	.LLST17
 3092 03f7 01       		.byte	0x1
 3093 03f8 48040000 		.4byte	0x448
 3094 03fc 13       		.uleb128 0x13
 3095 03fd 6100     		.ascii	"a\000"
 3096 03ff 01       		.byte	0x1
 3097 0400 81       		.byte	0x81
 3098 0401 29000000 		.4byte	0x29
 3099 0405 5C030000 		.4byte	.LLST18
 3100 0409 13       		.uleb128 0x13
 3101 040a 6500     		.ascii	"e\000"
 3102 040c 01       		.byte	0x1
 3103 040d 81       		.byte	0x81
 3104 040e 29000000 		.4byte	0x29
 3105 0412 84030000 		.4byte	.LLST19
 3106 0416 1A       		.uleb128 0x1a
 3107 0417 4500     		.ascii	"E\000"
 3108 0419 01       		.byte	0x1
 3109 041a 81       		.byte	0x81
 3110 041b 29000000 		.4byte	0x29
ARM GAS  /tmp/cctkbEOJ.s 			page 56


 3111 041f 02       		.byte	0x2
 3112 0420 91       		.byte	0x91
 3113 0421 00       		.sleb128 0
 3114 0422 1B       		.uleb128 0x1b
 3115 0423 12000000 		.4byte	.LVL74
 3116 0427 19130000 		.4byte	0x1319
 3117 042b 3E040000 		.4byte	0x43e
 3118 042f 1C       		.uleb128 0x1c
 3119 0430 06       		.byte	0x6
 3120 0431 50       		.byte	0x50
 3121 0432 93       		.byte	0x93
 3122 0433 04       		.uleb128 0x4
 3123 0434 51       		.byte	0x51
 3124 0435 93       		.byte	0x93
 3125 0436 04       		.uleb128 0x4
 3126 0437 05       		.byte	0x5
 3127 0438 91       		.byte	0x91
 3128 0439 00       		.sleb128 0
 3129 043a F6       		.byte	0xf6
 3130 043b 08       		.byte	0x8
 3131 043c 29       		.uleb128 0x29
 3132 043d 00       		.byte	0
 3133 043e 17       		.uleb128 0x17
 3134 043f 16000000 		.4byte	.LVL75
 3135 0443 C1130000 		.4byte	0x13c1
 3136 0447 00       		.byte	0
 3137 0448 12       		.uleb128 0x12
 3138 0449 01       		.byte	0x1
 3139 044a DA040000 		.4byte	.LASF27
 3140 044e 01       		.byte	0x1
 3141 044f 8E       		.byte	0x8e
 3142 0450 01       		.byte	0x1
 3143 0451 29000000 		.4byte	0x29
 3144 0455 00000000 		.4byte	.LFB5
 3145 0459 28000000 		.4byte	.LFE5
 3146 045d AC030000 		.4byte	.LLST20
 3147 0461 01       		.byte	0x1
 3148 0462 81040000 		.4byte	0x481
 3149 0466 13       		.uleb128 0x13
 3150 0467 6500     		.ascii	"e\000"
 3151 0469 01       		.byte	0x1
 3152 046a 8E       		.byte	0x8e
 3153 046b 29000000 		.4byte	0x29
 3154 046f CC030000 		.4byte	.LLST21
 3155 0473 13       		.uleb128 0x13
 3156 0474 7100     		.ascii	"q\000"
 3157 0476 01       		.byte	0x1
 3158 0477 8E       		.byte	0x8e
 3159 0478 29000000 		.4byte	0x29
 3160 047c F4030000 		.4byte	.LLST22
 3161 0480 00       		.byte	0
 3162 0481 12       		.uleb128 0x12
 3163 0482 01       		.byte	0x1
 3164 0483 A5000000 		.4byte	.LASF28
 3165 0487 01       		.byte	0x1
 3166 0488 9A       		.byte	0x9a
 3167 0489 01       		.byte	0x1
ARM GAS  /tmp/cctkbEOJ.s 			page 57


 3168 048a 29000000 		.4byte	0x29
 3169 048e 00000000 		.4byte	.LFB6
 3170 0492 2C000000 		.4byte	.LFE6
 3171 0496 1C040000 		.4byte	.LLST23
 3172 049a 01       		.byte	0x1
 3173 049b C3040000 		.4byte	0x4c3
 3174 049f 13       		.uleb128 0x13
 3175 04a0 6500     		.ascii	"e\000"
 3176 04a2 01       		.byte	0x1
 3177 04a3 9A       		.byte	0x9a
 3178 04a4 29000000 		.4byte	0x29
 3179 04a8 3C040000 		.4byte	.LLST24
 3180 04ac 13       		.uleb128 0x13
 3181 04ad 6100     		.ascii	"a\000"
 3182 04af 01       		.byte	0x1
 3183 04b0 9A       		.byte	0x9a
 3184 04b1 29000000 		.4byte	0x29
 3185 04b5 64040000 		.4byte	.LLST25
 3186 04b9 17       		.uleb128 0x17
 3187 04ba 22000000 		.4byte	.LVL88
 3188 04be 61130000 		.4byte	0x1361
 3189 04c2 00       		.byte	0
 3190 04c3 12       		.uleb128 0x12
 3191 04c4 01       		.byte	0x1
 3192 04c5 E5010000 		.4byte	.LASF29
 3193 04c9 01       		.byte	0x1
 3194 04ca A5       		.byte	0xa5
 3195 04cb 01       		.byte	0x1
 3196 04cc 29000000 		.4byte	0x29
 3197 04d0 00000000 		.4byte	.LFB7
 3198 04d4 30000000 		.4byte	.LFE7
 3199 04d8 8C040000 		.4byte	.LLST26
 3200 04dc 01       		.byte	0x1
 3201 04dd 19050000 		.4byte	0x519
 3202 04e1 13       		.uleb128 0x13
 3203 04e2 6100     		.ascii	"a\000"
 3204 04e4 01       		.byte	0x1
 3205 04e5 A5       		.byte	0xa5
 3206 04e6 29000000 		.4byte	0x29
 3207 04ea AC040000 		.4byte	.LLST27
 3208 04ee 1D       		.uleb128 0x1d
 3209 04ef 7100     		.ascii	"q\000"
 3210 04f1 01       		.byte	0x1
 3211 04f2 A7       		.byte	0xa7
 3212 04f3 29000000 		.4byte	0x29
 3213 04f7 08       		.byte	0x8
 3214 04f8 9F5CEA17 		.4byte	0x17ea5c9f
 3215 04fc 198AEF3F 		.4byte	0x3fef8a19
 3216 0500 1E       		.uleb128 0x1e
 3217 0501 0A000000 		.4byte	.LVL91
 3218 0505 61130000 		.4byte	0x1361
 3219 0509 1C       		.uleb128 0x1c
 3220 050a 06       		.byte	0x6
 3221 050b 50       		.byte	0x50
 3222 050c 93       		.byte	0x93
 3223 050d 04       		.uleb128 0x4
 3224 050e 51       		.byte	0x51
ARM GAS  /tmp/cctkbEOJ.s 			page 58


 3225 050f 93       		.byte	0x93
 3226 0510 04       		.uleb128 0x4
 3227 0511 05       		.byte	0x5
 3228 0512 F3       		.byte	0xf3
 3229 0513 03       		.uleb128 0x3
 3230 0514 F5       		.byte	0xf5
 3231 0515 00       		.uleb128 0
 3232 0516 29       		.uleb128 0x29
 3233 0517 00       		.byte	0
 3234 0518 00       		.byte	0
 3235 0519 1F       		.uleb128 0x1f
 3236 051a 01       		.byte	0x1
 3237 051b 9B050000 		.4byte	.LASF41
 3238 051f 01       		.byte	0x1
 3239 0520 B3       		.byte	0xb3
 3240 0521 01       		.byte	0x1
 3241 0522 00000000 		.4byte	.LFB8
 3242 0526 EC020000 		.4byte	.LFE8
 3243 052a D4040000 		.4byte	.LLST28
 3244 052e 01       		.byte	0x1
 3245 052f EB070000 		.4byte	0x7eb
 3246 0533 20       		.uleb128 0x20
 3247 0534 1B060000 		.4byte	.LASF33
 3248 0538 01       		.byte	0x1
 3249 0539 B3       		.byte	0xb3
 3250 053a EB070000 		.4byte	0x7eb
 3251 053e 01050000 		.4byte	.LLST29
 3252 0542 13       		.uleb128 0x13
 3253 0543 4A4400   		.ascii	"JD\000"
 3254 0546 01       		.byte	0x1
 3255 0547 B3       		.byte	0xb3
 3256 0548 29000000 		.4byte	0x29
 3257 054c 1F050000 		.4byte	.LLST30
 3258 0550 21       		.uleb128 0x21
 3259 0551 DC020000 		.4byte	.LASF34
 3260 0555 01       		.byte	0x1
 3261 0556 B3       		.byte	0xb3
 3262 0557 F1070000 		.4byte	0x7f1
 3263 055b 02       		.byte	0x2
 3264 055c 91       		.byte	0x91
 3265 055d 00       		.sleb128 0
 3266 055e 14       		.uleb128 0x14
 3267 055f 4100     		.ascii	"A\000"
 3268 0561 01       		.byte	0x1
 3269 0562 B5       		.byte	0xb5
 3270 0563 29000000 		.4byte	0x29
 3271 0567 43050000 		.4byte	.LLST31
 3272 056b 14       		.uleb128 0x14
 3273 056c 4200     		.ascii	"B\000"
 3274 056e 01       		.byte	0x1
 3275 056f B5       		.byte	0xb5
 3276 0570 29000000 		.4byte	0x29
 3277 0574 68050000 		.4byte	.LLST32
 3278 0578 14       		.uleb128 0x14
 3279 0579 4300     		.ascii	"C\000"
 3280 057b 01       		.byte	0x1
 3281 057c B5       		.byte	0xb5
ARM GAS  /tmp/cctkbEOJ.s 			page 59


 3282 057d 29000000 		.4byte	0x29
 3283 0581 8C050000 		.4byte	.LLST33
 3284 0585 22       		.uleb128 0x22
 3285 0586 4600     		.ascii	"F\000"
 3286 0588 01       		.byte	0x1
 3287 0589 B6       		.byte	0xb6
 3288 058a 29000000 		.4byte	0x29
 3289 058e 03       		.byte	0x3
 3290 058f 91       		.byte	0x91
 3291 0590 987F     		.sleb128 -104
 3292 0592 14       		.uleb128 0x14
 3293 0593 4700     		.ascii	"G\000"
 3294 0595 01       		.byte	0x1
 3295 0596 B6       		.byte	0xb6
 3296 0597 29000000 		.4byte	0x29
 3297 059b B0050000 		.4byte	.LLST34
 3298 059f 14       		.uleb128 0x14
 3299 05a0 4800     		.ascii	"H\000"
 3300 05a2 01       		.byte	0x1
 3301 05a3 B6       		.byte	0xb6
 3302 05a4 29000000 		.4byte	0x29
 3303 05a8 D5050000 		.4byte	.LLST35
 3304 05ac 14       		.uleb128 0x14
 3305 05ad 5000     		.ascii	"P\000"
 3306 05af 01       		.byte	0x1
 3307 05b0 B7       		.byte	0xb7
 3308 05b1 29000000 		.4byte	0x29
 3309 05b5 FA050000 		.4byte	.LLST36
 3310 05b9 14       		.uleb128 0x14
 3311 05ba 5100     		.ascii	"Q\000"
 3312 05bc 01       		.byte	0x1
 3313 05bd B7       		.byte	0xb7
 3314 05be 29000000 		.4byte	0x29
 3315 05c2 1F060000 		.4byte	.LLST37
 3316 05c6 14       		.uleb128 0x14
 3317 05c7 5200     		.ascii	"R\000"
 3318 05c9 01       		.byte	0x1
 3319 05ca B7       		.byte	0xb7
 3320 05cb 29000000 		.4byte	0x29
 3321 05cf 37060000 		.4byte	.LLST38
 3322 05d3 23       		.uleb128 0x23
 3323 05d4 5F020000 		.4byte	.LASF35
 3324 05d8 01       		.byte	0x1
 3325 05d9 B8       		.byte	0xb8
 3326 05da 29000000 		.4byte	0x29
 3327 05de 08       		.byte	0x8
 3328 05df BF6A0751 		.4byte	0x51076abf
 3329 05e3 2E75D93F 		.4byte	0x3fd9752e
 3330 05e7 23       		.uleb128 0x23
 3331 05e8 AC020000 		.4byte	.LASF36
 3332 05ec 01       		.byte	0x1
 3333 05ed B8       		.byte	0xb8
 3334 05ee 29000000 		.4byte	0x29
 3335 05f2 08       		.byte	0x8
 3336 05f3 D59C5E57 		.4byte	0x575e9cd5
 3337 05f7 035CED3F 		.4byte	0x3fed5c03
 3338 05fb 14       		.uleb128 0x14
ARM GAS  /tmp/cctkbEOJ.s 			page 60


 3339 05fc 6100     		.ascii	"a\000"
 3340 05fe 01       		.byte	0x1
 3341 05ff B9       		.byte	0xb9
 3342 0600 29000000 		.4byte	0x29
 3343 0604 4F060000 		.4byte	.LLST39
 3344 0608 14       		.uleb128 0x14
 3345 0609 6200     		.ascii	"b\000"
 3346 060b 01       		.byte	0x1
 3347 060c B9       		.byte	0xb9
 3348 060d 29000000 		.4byte	0x29
 3349 0611 74060000 		.4byte	.LLST40
 3350 0615 14       		.uleb128 0x14
 3351 0616 6300     		.ascii	"c\000"
 3352 0618 01       		.byte	0x1
 3353 0619 B9       		.byte	0xb9
 3354 061a 29000000 		.4byte	0x29
 3355 061e 99060000 		.4byte	.LLST41
 3356 0622 24       		.uleb128 0x24
 3357 0623 68050000 		.4byte	.LASF37
 3358 0627 01       		.byte	0x1
 3359 0628 BA       		.byte	0xba
 3360 0629 29000000 		.4byte	0x29
 3361 062d BE060000 		.4byte	.LLST42
 3362 0631 24       		.uleb128 0x24
 3363 0632 65020000 		.4byte	.LASF38
 3364 0636 01       		.byte	0x1
 3365 0637 BA       		.byte	0xba
 3366 0638 29000000 		.4byte	0x29
 3367 063c F6060000 		.4byte	.LLST43
 3368 0640 24       		.uleb128 0x24
 3369 0641 A7030000 		.4byte	.LASF39
 3370 0645 01       		.byte	0x1
 3371 0646 BA       		.byte	0xba
 3372 0647 29000000 		.4byte	0x29
 3373 064b 1B070000 		.4byte	.LLST44
 3374 064f 24       		.uleb128 0x24
 3375 0650 B2020000 		.4byte	.LASF40
 3376 0654 01       		.byte	0x1
 3377 0655 BA       		.byte	0xba
 3378 0656 29000000 		.4byte	0x29
 3379 065a 40070000 		.4byte	.LLST45
 3380 065e 25       		.uleb128 0x25
 3381 065f 4D00     		.ascii	"M\000"
 3382 0661 01       		.byte	0x1
 3383 0662 BB       		.byte	0xbb
 3384 0663 29000000 		.4byte	0x29
 3385 0667 22       		.uleb128 0x22
 3386 0668 7600     		.ascii	"v\000"
 3387 066a 01       		.byte	0x1
 3388 066b BB       		.byte	0xbb
 3389 066c 29000000 		.4byte	0x29
 3390 0670 06       		.byte	0x6
 3391 0671 54       		.byte	0x54
 3392 0672 93       		.byte	0x93
 3393 0673 04       		.uleb128 0x4
 3394 0674 55       		.byte	0x55
 3395 0675 93       		.byte	0x93
ARM GAS  /tmp/cctkbEOJ.s 			page 61


 3396 0676 04       		.uleb128 0x4
 3397 0677 14       		.uleb128 0x14
 3398 0678 4500     		.ascii	"E\000"
 3399 067a 01       		.byte	0x1
 3400 067b BB       		.byte	0xbb
 3401 067c 29000000 		.4byte	0x29
 3402 0680 58070000 		.4byte	.LLST46
 3403 0684 22       		.uleb128 0x22
 3404 0685 7200     		.ascii	"r\000"
 3405 0687 01       		.byte	0x1
 3406 0688 BB       		.byte	0xbb
 3407 0689 29000000 		.4byte	0x29
 3408 068d 06       		.byte	0x6
 3409 068e 5A       		.byte	0x5a
 3410 068f 93       		.byte	0x93
 3411 0690 04       		.uleb128 0x4
 3412 0691 5B       		.byte	0x5b
 3413 0692 93       		.byte	0x93
 3414 0693 04       		.uleb128 0x4
 3415 0694 15       		.uleb128 0x15
 3416 0695 36020000 		.4byte	0x236
 3417 0699 F4010000 		.4byte	.LBB28
 3418 069d 50000000 		.4byte	.Ldebug_ranges0+0x50
 3419 06a1 01       		.byte	0x1
 3420 06a2 DA       		.byte	0xda
 3421 06a3 BA060000 		.4byte	0x6ba
 3422 06a7 16       		.uleb128 0x16
 3423 06a8 51020000 		.4byte	0x251
 3424 06ac 70070000 		.4byte	.LLST47
 3425 06b0 16       		.uleb128 0x16
 3426 06b1 48020000 		.4byte	0x248
 3427 06b5 8E070000 		.4byte	.LLST48
 3428 06b9 00       		.byte	0
 3429 06ba 17       		.uleb128 0x17
 3430 06bb 14000000 		.4byte	.LVL96
 3431 06bf 19130000 		.4byte	0x1319
 3432 06c3 17       		.uleb128 0x17
 3433 06c4 18000000 		.4byte	.LVL97
 3434 06c8 31130000 		.4byte	0x1331
 3435 06cc 17       		.uleb128 0x17
 3436 06cd 24000000 		.4byte	.LVL100
 3437 06d1 19130000 		.4byte	0x1319
 3438 06d5 17       		.uleb128 0x17
 3439 06d6 28000000 		.4byte	.LVL101
 3440 06da C1130000 		.4byte	0x13c1
 3441 06de 17       		.uleb128 0x17
 3442 06df 34000000 		.4byte	.LVL104
 3443 06e3 19130000 		.4byte	0x1319
 3444 06e7 17       		.uleb128 0x17
 3445 06e8 38000000 		.4byte	.LVL105
 3446 06ec 31130000 		.4byte	0x1331
 3447 06f0 17       		.uleb128 0x17
 3448 06f1 44000000 		.4byte	.LVL108
 3449 06f5 19130000 		.4byte	0x1319
 3450 06f9 17       		.uleb128 0x17
 3451 06fa 48000000 		.4byte	.LVL109
 3452 06fe C1130000 		.4byte	0x13c1
ARM GAS  /tmp/cctkbEOJ.s 			page 62


 3453 0702 1B       		.uleb128 0x1b
 3454 0703 FE000000 		.4byte	.LVL131
 3455 0707 D9130000 		.4byte	0x13d9
 3456 070b 2E070000 		.4byte	0x72e
 3457 070f 1C       		.uleb128 0x1c
 3458 0710 06       		.byte	0x6
 3459 0711 52       		.byte	0x52
 3460 0712 93       		.byte	0x93
 3461 0713 04       		.uleb128 0x4
 3462 0714 53       		.byte	0x53
 3463 0715 93       		.byte	0x93
 3464 0716 04       		.uleb128 0x4
 3465 0717 06       		.byte	0x6
 3466 0718 91       		.byte	0x91
 3467 0719 B87F     		.sleb128 -72
 3468 071b F6       		.byte	0xf6
 3469 071c 08       		.byte	0x8
 3470 071d 29       		.uleb128 0x29
 3471 071e 1C       		.uleb128 0x1c
 3472 071f 06       		.byte	0x6
 3473 0720 50       		.byte	0x50
 3474 0721 93       		.byte	0x93
 3475 0722 04       		.uleb128 0x4
 3476 0723 51       		.byte	0x51
 3477 0724 93       		.byte	0x93
 3478 0725 04       		.uleb128 0x4
 3479 0726 06       		.byte	0x6
 3480 0727 91       		.byte	0x91
 3481 0728 987F     		.sleb128 -104
 3482 072a F6       		.byte	0xf6
 3483 072b 08       		.byte	0x8
 3484 072c 29       		.uleb128 0x29
 3485 072d 00       		.byte	0
 3486 072e 1B       		.uleb128 0x1b
 3487 072f 0E010000 		.4byte	.LVL134
 3488 0733 D9130000 		.4byte	0x13d9
 3489 0737 4B070000 		.4byte	0x74b
 3490 073b 1C       		.uleb128 0x1c
 3491 073c 06       		.byte	0x6
 3492 073d 50       		.byte	0x50
 3493 073e 93       		.byte	0x93
 3494 073f 04       		.uleb128 0x4
 3495 0740 51       		.byte	0x51
 3496 0741 93       		.byte	0x93
 3497 0742 04       		.uleb128 0x4
 3498 0743 06       		.byte	0x6
 3499 0744 91       		.byte	0x91
 3500 0745 A87F     		.sleb128 -88
 3501 0747 F6       		.byte	0xf6
 3502 0748 08       		.byte	0x8
 3503 0749 29       		.uleb128 0x29
 3504 074a 00       		.byte	0
 3505 074b 1B       		.uleb128 0x1b
 3506 074c 1E010000 		.4byte	.LVL137
 3507 0750 D9130000 		.4byte	0x13d9
 3508 0754 68070000 		.4byte	0x768
 3509 0758 1C       		.uleb128 0x1c
ARM GAS  /tmp/cctkbEOJ.s 			page 63


 3510 0759 06       		.byte	0x6
 3511 075a 50       		.byte	0x50
 3512 075b 93       		.byte	0x93
 3513 075c 04       		.uleb128 0x4
 3514 075d 51       		.byte	0x51
 3515 075e 93       		.byte	0x93
 3516 075f 04       		.uleb128 0x4
 3517 0760 06       		.byte	0x6
 3518 0761 91       		.byte	0x91
 3519 0762 B07F     		.sleb128 -80
 3520 0764 F6       		.byte	0xf6
 3521 0765 08       		.byte	0x8
 3522 0766 29       		.uleb128 0x29
 3523 0767 00       		.byte	0
 3524 0768 17       		.uleb128 0x17
 3525 0769 4E010000 		.4byte	.LVL143
 3526 076d 61130000 		.4byte	0x1361
 3527 0771 17       		.uleb128 0x17
 3528 0772 7E010000 		.4byte	.LVL149
 3529 0776 61130000 		.4byte	0x1361
 3530 077a 17       		.uleb128 0x17
 3531 077b AE010000 		.4byte	.LVL155
 3532 077f 61130000 		.4byte	0x1361
 3533 0783 17       		.uleb128 0x17
 3534 0784 CC010000 		.4byte	.LVL159
 3535 0788 C3040000 		.4byte	0x4c3
 3536 078c 17       		.uleb128 0x17
 3537 078d 0C020000 		.4byte	.LVL164
 3538 0791 5D020000 		.4byte	0x25d
 3539 0795 17       		.uleb128 0x17
 3540 0796 1C020000 		.4byte	.LVL167
 3541 079a 61030000 		.4byte	0x361
 3542 079e 1B       		.uleb128 0x1b
 3543 079f 30020000 		.4byte	.LVL169
 3544 07a3 DE030000 		.4byte	0x3de
 3545 07a7 B4070000 		.4byte	0x7b4
 3546 07ab 1C       		.uleb128 0x1c
 3547 07ac 02       		.byte	0x2
 3548 07ad 7D       		.byte	0x7d
 3549 07ae 00       		.sleb128 0
 3550 07af 03       		.byte	0x3
 3551 07b0 F5       		.byte	0xf5
 3552 07b1 08       		.uleb128 0x8
 3553 07b2 29       		.uleb128 0x29
 3554 07b3 00       		.byte	0
 3555 07b4 17       		.uleb128 0x17
 3556 07b5 50020000 		.4byte	.LVL175
 3557 07b9 19130000 		.4byte	0x1319
 3558 07bd 17       		.uleb128 0x17
 3559 07be 5C020000 		.4byte	.LVL177
 3560 07c2 31130000 		.4byte	0x1331
 3561 07c6 17       		.uleb128 0x17
 3562 07c7 8E020000 		.4byte	.LVL181
 3563 07cb 19130000 		.4byte	0x1319
 3564 07cf 17       		.uleb128 0x17
 3565 07d0 9A020000 		.4byte	.LVL183
 3566 07d4 31130000 		.4byte	0x1331
ARM GAS  /tmp/cctkbEOJ.s 			page 64


 3567 07d8 17       		.uleb128 0x17
 3568 07d9 CA020000 		.4byte	.LVL187
 3569 07dd 19130000 		.4byte	0x1319
 3570 07e1 17       		.uleb128 0x17
 3571 07e2 D6020000 		.4byte	.LVL189
 3572 07e6 31130000 		.4byte	0x1331
 3573 07ea 00       		.byte	0
 3574 07eb 0B       		.uleb128 0xb
 3575 07ec 04       		.byte	0x4
 3576 07ed 47010000 		.4byte	0x147
 3577 07f1 0B       		.uleb128 0xb
 3578 07f2 04       		.byte	0x4
 3579 07f3 16010000 		.4byte	0x116
 3580 07f7 26       		.uleb128 0x26
 3581 07f8 01       		.byte	0x1
 3582 07f9 DE030000 		.4byte	.LASF42
 3583 07fd 01       		.byte	0x1
 3584 07fe 0D01     		.2byte	0x10d
 3585 0800 01       		.byte	0x1
 3586 0801 00000000 		.4byte	.LFB10
 3587 0805 F8000000 		.4byte	.LFE10
 3588 0809 A6070000 		.4byte	.LLST49
 3589 080d 01       		.byte	0x1
 3590 080e 4B090000 		.4byte	0x94b
 3591 0812 27       		.uleb128 0x27
 3592 0813 4A4400   		.ascii	"JD\000"
 3593 0816 01       		.byte	0x1
 3594 0817 0D01     		.2byte	0x10d
 3595 0819 29000000 		.4byte	0x29
 3596 081d D3070000 		.4byte	.LLST50
 3597 0821 28       		.uleb128 0x28
 3598 0822 1B060000 		.4byte	.LASF33
 3599 0826 01       		.byte	0x1
 3600 0827 0D01     		.2byte	0x10d
 3601 0829 EB070000 		.4byte	0x7eb
 3602 082d FB070000 		.4byte	.LLST51
 3603 0831 28       		.uleb128 0x28
 3604 0832 DC020000 		.4byte	.LASF34
 3605 0836 01       		.byte	0x1
 3606 0837 0D01     		.2byte	0x10d
 3607 0839 15020000 		.4byte	0x215
 3608 083d 32080000 		.4byte	.LLST52
 3609 0841 29       		.uleb128 0x29
 3610 0842 7D000000 		.4byte	.LASF43
 3611 0846 01       		.byte	0x1
 3612 0847 0F01     		.2byte	0x10f
 3613 0849 16010000 		.4byte	0x116
 3614 084d 03       		.byte	0x3
 3615 084e 91       		.byte	0x91
 3616 084f B07F     		.sleb128 -80
 3617 0851 29       		.uleb128 0x29
 3618 0852 FA050000 		.4byte	.LASF44
 3619 0856 01       		.byte	0x1
 3620 0857 0F01     		.2byte	0x10f
 3621 0859 16010000 		.4byte	0x116
 3622 085d 02       		.byte	0x2
 3623 085e 91       		.byte	0x91
ARM GAS  /tmp/cctkbEOJ.s 			page 65


 3624 085f 48       		.sleb128 -56
 3625 0860 2A       		.uleb128 0x2a
 3626 0861 4E050000 		.4byte	.LASF45
 3627 0865 01       		.byte	0x1
 3628 0866 1001     		.2byte	0x110
 3629 0868 29000000 		.4byte	0x29
 3630 086c 2B       		.uleb128 0x2b
 3631 086d 7400     		.ascii	"t\000"
 3632 086f 01       		.byte	0x1
 3633 0870 1001     		.2byte	0x110
 3634 0872 29000000 		.4byte	0x29
 3635 0876 50080000 		.4byte	.LLST53
 3636 087a 2B       		.uleb128 0x2b
 3637 087b 7800     		.ascii	"x\000"
 3638 087d 01       		.byte	0x1
 3639 087e 1101     		.2byte	0x111
 3640 0880 29000000 		.4byte	0x29
 3641 0884 68080000 		.4byte	.LLST54
 3642 0888 2B       		.uleb128 0x2b
 3643 0889 7900     		.ascii	"y\000"
 3644 088b 01       		.byte	0x1
 3645 088c 1101     		.2byte	0x111
 3646 088e 29000000 		.4byte	0x29
 3647 0892 80080000 		.4byte	.LLST55
 3648 0896 2C       		.uleb128 0x2c
 3649 0897 7A00     		.ascii	"z\000"
 3650 0899 01       		.byte	0x1
 3651 089a 1101     		.2byte	0x111
 3652 089c 29000000 		.4byte	0x29
 3653 08a0 06       		.byte	0x6
 3654 08a1 54       		.byte	0x54
 3655 08a2 93       		.byte	0x93
 3656 08a3 04       		.uleb128 0x4
 3657 08a4 55       		.byte	0x55
 3658 08a5 93       		.byte	0x93
 3659 08a6 04       		.uleb128 0x4
 3660 08a7 1B       		.uleb128 0x1b
 3661 08a8 1C000000 		.4byte	.LVL195
 3662 08ac 19050000 		.4byte	0x519
 3663 08b0 C2080000 		.4byte	0x8c2
 3664 08b4 1C       		.uleb128 0x1c
 3665 08b5 01       		.byte	0x1
 3666 08b6 50       		.byte	0x50
 3667 08b7 02       		.byte	0x2
 3668 08b8 77       		.byte	0x77
 3669 08b9 00       		.sleb128 0
 3670 08ba 1C       		.uleb128 0x1c
 3671 08bb 02       		.byte	0x2
 3672 08bc 7D       		.byte	0x7d
 3673 08bd 00       		.sleb128 0
 3674 08be 02       		.byte	0x2
 3675 08bf 76       		.byte	0x76
 3676 08c0 00       		.sleb128 0
 3677 08c1 00       		.byte	0
 3678 08c2 1B       		.uleb128 0x1b
 3679 08c3 26000000 		.4byte	.LVL196
 3680 08c7 F6130000 		.4byte	0x13f6
ARM GAS  /tmp/cctkbEOJ.s 			page 66


 3681 08cb D6080000 		.4byte	0x8d6
 3682 08cf 1C       		.uleb128 0x1c
 3683 08d0 01       		.byte	0x1
 3684 08d1 52       		.byte	0x52
 3685 08d2 02       		.byte	0x2
 3686 08d3 91       		.byte	0x91
 3687 08d4 48       		.sleb128 -56
 3688 08d5 00       		.byte	0
 3689 08d6 1B       		.uleb128 0x1b
 3690 08d7 2E000000 		.4byte	.LVL197
 3691 08db 0F140000 		.4byte	0x140f
 3692 08df F0080000 		.4byte	0x8f0
 3693 08e3 1C       		.uleb128 0x1c
 3694 08e4 01       		.byte	0x1
 3695 08e5 51       		.byte	0x51
 3696 08e6 02       		.byte	0x2
 3697 08e7 91       		.byte	0x91
 3698 08e8 48       		.sleb128 -56
 3699 08e9 1C       		.uleb128 0x1c
 3700 08ea 01       		.byte	0x1
 3701 08eb 50       		.byte	0x50
 3702 08ec 02       		.byte	0x2
 3703 08ed 76       		.byte	0x76
 3704 08ee 00       		.sleb128 0
 3705 08ef 00       		.byte	0
 3706 08f0 17       		.uleb128 0x17
 3707 08f1 32000000 		.4byte	.LVL198
 3708 08f5 2C140000 		.4byte	0x142c
 3709 08f9 1B       		.uleb128 0x1b
 3710 08fa 4A000000 		.4byte	.LVL201
 3711 08fe 19050000 		.4byte	0x519
 3712 0902 14090000 		.4byte	0x914
 3713 0906 1C       		.uleb128 0x1c
 3714 0907 01       		.byte	0x1
 3715 0908 50       		.byte	0x50
 3716 0909 02       		.byte	0x2
 3717 090a 77       		.byte	0x77
 3718 090b 00       		.sleb128 0
 3719 090c 1C       		.uleb128 0x1c
 3720 090d 02       		.byte	0x2
 3721 090e 7D       		.byte	0x7d
 3722 090f 00       		.sleb128 0
 3723 0910 02       		.byte	0x2
 3724 0911 76       		.byte	0x76
 3725 0912 00       		.sleb128 0
 3726 0913 00       		.byte	0
 3727 0914 17       		.uleb128 0x17
 3728 0915 86000000 		.4byte	.LVL208
 3729 0919 D9130000 		.4byte	0x13d9
 3730 091d 17       		.uleb128 0x17
 3731 091e 8A000000 		.4byte	.LVL209
 3732 0922 49130000 		.4byte	0x1349
 3733 0926 17       		.uleb128 0x17
 3734 0927 8E000000 		.4byte	.LVL210
 3735 092b A9130000 		.4byte	0x13a9
 3736 092f 17       		.uleb128 0x17
 3737 0930 DA000000 		.4byte	.LVL218
ARM GAS  /tmp/cctkbEOJ.s 			page 67


 3738 0934 61130000 		.4byte	0x1361
 3739 0938 17       		.uleb128 0x17
 3740 0939 EA000000 		.4byte	.LVL220
 3741 093d 44140000 		.4byte	0x1444
 3742 0941 17       		.uleb128 0x17
 3743 0942 EE000000 		.4byte	.LVL221
 3744 0946 49130000 		.4byte	0x1349
 3745 094a 00       		.byte	0
 3746 094b 1F       		.uleb128 0x1f
 3747 094c 01       		.byte	0x1
 3748 094d AE040000 		.4byte	.LASF46
 3749 0951 01       		.byte	0x1
 3750 0952 F3       		.byte	0xf3
 3751 0953 01       		.byte	0x1
 3752 0954 00000000 		.4byte	.LFB9
 3753 0958 58000000 		.4byte	.LFE9
 3754 095c 98080000 		.4byte	.LLST56
 3755 0960 01       		.byte	0x1
 3756 0961 110A0000 		.4byte	0xa11
 3757 0965 20       		.uleb128 0x20
 3758 0966 1B060000 		.4byte	.LASF33
 3759 096a 01       		.byte	0x1
 3760 096b F3       		.byte	0xf3
 3761 096c EB070000 		.4byte	0x7eb
 3762 0970 C5080000 		.4byte	.LLST57
 3763 0974 13       		.uleb128 0x13
 3764 0975 4A4400   		.ascii	"JD\000"
 3765 0978 01       		.byte	0x1
 3766 0979 F3       		.byte	0xf3
 3767 097a 29000000 		.4byte	0x29
 3768 097e E6080000 		.4byte	.LLST58
 3769 0982 21       		.uleb128 0x21
 3770 0983 DC020000 		.4byte	.LASF34
 3771 0987 01       		.byte	0x1
 3772 0988 F3       		.byte	0xf3
 3773 0989 F1070000 		.4byte	0x7f1
 3774 098d 02       		.byte	0x2
 3775 098e 91       		.byte	0x91
 3776 098f 00       		.sleb128 0
 3777 0990 2D       		.uleb128 0x2d
 3778 0991 14060000 		.4byte	.LASF47
 3779 0995 01       		.byte	0x1
 3780 0996 F5       		.byte	0xf5
 3781 0997 16010000 		.4byte	0x116
 3782 099b 03       		.byte	0x3
 3783 099c 91       		.byte	0x91
 3784 099d A87F     		.sleb128 -88
 3785 099f 2D       		.uleb128 0x2d
 3786 09a0 A7040000 		.4byte	.LASF48
 3787 09a4 01       		.byte	0x1
 3788 09a5 F5       		.byte	0xf5
 3789 09a6 16010000 		.4byte	0x116
 3790 09aa 02       		.byte	0x2
 3791 09ab 91       		.byte	0x91
 3792 09ac 40       		.sleb128 -64
 3793 09ad 2D       		.uleb128 0x2d
 3794 09ae BC000000 		.4byte	.LASF49
ARM GAS  /tmp/cctkbEOJ.s 			page 68


 3795 09b2 01       		.byte	0x1
 3796 09b3 F6       		.byte	0xf6
 3797 09b4 E5000000 		.4byte	0xe5
 3798 09b8 02       		.byte	0x2
 3799 09b9 91       		.byte	0x91
 3800 09ba 58       		.sleb128 -40
 3801 09bb 1B       		.uleb128 0x1b
 3802 09bc 12000000 		.4byte	.LVL223
 3803 09c0 19050000 		.4byte	0x519
 3804 09c4 E6090000 		.4byte	0x9e6
 3805 09c8 1C       		.uleb128 0x1c
 3806 09c9 06       		.byte	0x6
 3807 09ca 52       		.byte	0x52
 3808 09cb 93       		.byte	0x93
 3809 09cc 04       		.uleb128 0x4
 3810 09cd 53       		.byte	0x53
 3811 09ce 93       		.byte	0x93
 3812 09cf 04       		.uleb128 0x4
 3813 09d0 05       		.byte	0x5
 3814 09d1 F3       		.byte	0xf3
 3815 09d2 03       		.uleb128 0x3
 3816 09d3 F5       		.byte	0xf5
 3817 09d4 02       		.uleb128 0x2
 3818 09d5 29       		.uleb128 0x29
 3819 09d6 1C       		.uleb128 0x1c
 3820 09d7 01       		.byte	0x1
 3821 09d8 50       		.byte	0x50
 3822 09d9 03       		.byte	0x3
 3823 09da F3       		.byte	0xf3
 3824 09db 01       		.uleb128 0x1
 3825 09dc 50       		.byte	0x50
 3826 09dd 1C       		.uleb128 0x1c
 3827 09de 02       		.byte	0x2
 3828 09df 7D       		.byte	0x7d
 3829 09e0 00       		.sleb128 0
 3830 09e1 03       		.byte	0x3
 3831 09e2 91       		.byte	0x91
 3832 09e3 A87F     		.sleb128 -88
 3833 09e5 00       		.byte	0
 3834 09e6 1B       		.uleb128 0x1b
 3835 09e7 1C000000 		.4byte	.LVL224
 3836 09eb 5C140000 		.4byte	0x145c
 3837 09ef FA090000 		.4byte	0x9fa
 3838 09f3 1C       		.uleb128 0x1c
 3839 09f4 01       		.byte	0x1
 3840 09f5 52       		.byte	0x52
 3841 09f6 02       		.byte	0x2
 3842 09f7 91       		.byte	0x91
 3843 09f8 58       		.sleb128 -40
 3844 09f9 00       		.byte	0
 3845 09fa 1E       		.uleb128 0x1e
 3846 09fb 24000000 		.4byte	.LVL225
 3847 09ff 7B140000 		.4byte	0x147b
 3848 0a03 1C       		.uleb128 0x1c
 3849 0a04 01       		.byte	0x1
 3850 0a05 51       		.byte	0x51
 3851 0a06 02       		.byte	0x2
ARM GAS  /tmp/cctkbEOJ.s 			page 69


 3852 0a07 91       		.byte	0x91
 3853 0a08 40       		.sleb128 -64
 3854 0a09 1C       		.uleb128 0x1c
 3855 0a0a 01       		.byte	0x1
 3856 0a0b 50       		.byte	0x50
 3857 0a0c 02       		.byte	0x2
 3858 0a0d 91       		.byte	0x91
 3859 0a0e 58       		.sleb128 -40
 3860 0a0f 00       		.byte	0
 3861 0a10 00       		.byte	0
 3862 0a11 2E       		.uleb128 0x2e
 3863 0a12 01       		.byte	0x1
 3864 0a13 E1020000 		.4byte	.LASF50
 3865 0a17 01       		.byte	0x1
 3866 0a18 3401     		.2byte	0x134
 3867 0a1a 01       		.byte	0x1
 3868 0a1b 29000000 		.4byte	0x29
 3869 0a1f 00000000 		.4byte	.LFB11
 3870 0a23 B0000000 		.4byte	.LFE11
 3871 0a27 0E090000 		.4byte	.LLST59
 3872 0a2b 01       		.byte	0x1
 3873 0a2c 910A0000 		.4byte	0xa91
 3874 0a30 28       		.uleb128 0x28
 3875 0a31 1B060000 		.4byte	.LASF33
 3876 0a35 01       		.byte	0x1
 3877 0a36 3401     		.2byte	0x134
 3878 0a38 EB070000 		.4byte	0x7eb
 3879 0a3c 2E090000 		.4byte	.LLST60
 3880 0a40 2B       		.uleb128 0x2b
 3881 0a41 4100     		.ascii	"A\000"
 3882 0a43 01       		.byte	0x1
 3883 0a44 3601     		.2byte	0x136
 3884 0a46 29000000 		.4byte	0x29
 3885 0a4a 5A090000 		.4byte	.LLST61
 3886 0a4e 2C       		.uleb128 0x2c
 3887 0a4f 4700     		.ascii	"G\000"
 3888 0a51 01       		.byte	0x1
 3889 0a52 3601     		.2byte	0x136
 3890 0a54 29000000 		.4byte	0x29
 3891 0a58 06       		.byte	0x6
 3892 0a59 54       		.byte	0x54
 3893 0a5a 93       		.byte	0x93
 3894 0a5b 04       		.uleb128 0x4
 3895 0a5c 55       		.byte	0x55
 3896 0a5d 93       		.byte	0x93
 3897 0a5e 04       		.uleb128 0x4
 3898 0a5f 2B       		.uleb128 0x2b
 3899 0a60 4800     		.ascii	"H\000"
 3900 0a62 01       		.byte	0x1
 3901 0a63 3601     		.2byte	0x136
 3902 0a65 29000000 		.4byte	0x29
 3903 0a69 80090000 		.4byte	.LLST62
 3904 0a6d 2C       		.uleb128 0x2c
 3905 0a6e 6200     		.ascii	"b\000"
 3906 0a70 01       		.byte	0x1
 3907 0a71 3701     		.2byte	0x137
 3908 0a73 29000000 		.4byte	0x29
ARM GAS  /tmp/cctkbEOJ.s 			page 70


 3909 0a77 06       		.byte	0x6
 3910 0a78 58       		.byte	0x58
 3911 0a79 93       		.byte	0x93
 3912 0a7a 04       		.uleb128 0x4
 3913 0a7b 59       		.byte	0x59
 3914 0a7c 93       		.byte	0x93
 3915 0a7d 04       		.uleb128 0x4
 3916 0a7e 17       		.uleb128 0x17
 3917 0a7f 12000000 		.4byte	.LVL231
 3918 0a83 81040000 		.4byte	0x481
 3919 0a87 17       		.uleb128 0x17
 3920 0a88 26000000 		.4byte	.LVL234
 3921 0a8c 61130000 		.4byte	0x1361
 3922 0a90 00       		.byte	0
 3923 0a91 2E       		.uleb128 0x2e
 3924 0a92 01       		.byte	0x1
 3925 0a93 89030000 		.4byte	.LASF51
 3926 0a97 01       		.byte	0x1
 3927 0a98 5A01     		.2byte	0x15a
 3928 0a9a 01       		.byte	0x1
 3929 0a9b 29000000 		.4byte	0x29
 3930 0a9f 00000000 		.4byte	.LFB13
 3931 0aa3 70000000 		.4byte	.LFE13
 3932 0aa7 AF090000 		.4byte	.LLST63
 3933 0aab 01       		.byte	0x1
 3934 0aac E10A0000 		.4byte	0xae1
 3935 0ab0 28       		.uleb128 0x28
 3936 0ab1 1B060000 		.4byte	.LASF33
 3937 0ab5 01       		.byte	0x1
 3938 0ab6 5A01     		.2byte	0x15a
 3939 0ab8 EB070000 		.4byte	0x7eb
 3940 0abc CF090000 		.4byte	.LLST64
 3941 0ac0 2B       		.uleb128 0x2b
 3942 0ac1 5600     		.ascii	"V\000"
 3943 0ac3 01       		.byte	0x1
 3944 0ac4 5C01     		.2byte	0x15c
 3945 0ac6 29000000 		.4byte	0x29
 3946 0aca FB090000 		.4byte	.LLST65
 3947 0ace 17       		.uleb128 0x17
 3948 0acf 0E000000 		.4byte	.LVL249
 3949 0ad3 61130000 		.4byte	0x1361
 3950 0ad7 17       		.uleb128 0x17
 3951 0ad8 58000000 		.4byte	.LVL256
 3952 0adc 61130000 		.4byte	0x1361
 3953 0ae0 00       		.byte	0
 3954 0ae1 2E       		.uleb128 0x2e
 3955 0ae2 01       		.byte	0x1
 3956 0ae3 39010000 		.4byte	.LASF52
 3957 0ae7 01       		.byte	0x1
 3958 0ae8 6901     		.2byte	0x169
 3959 0aea 01       		.byte	0x1
 3960 0aeb 29000000 		.4byte	0x29
 3961 0aef 00000000 		.4byte	.LFB14
 3962 0af3 70000000 		.4byte	.LFE14
 3963 0af7 130A0000 		.4byte	.LLST66
 3964 0afb 01       		.byte	0x1
 3965 0afc 310B0000 		.4byte	0xb31
ARM GAS  /tmp/cctkbEOJ.s 			page 71


 3966 0b00 28       		.uleb128 0x28
 3967 0b01 1B060000 		.4byte	.LASF33
 3968 0b05 01       		.byte	0x1
 3969 0b06 6901     		.2byte	0x169
 3970 0b08 EB070000 		.4byte	0x7eb
 3971 0b0c 330A0000 		.4byte	.LLST67
 3972 0b10 2B       		.uleb128 0x2b
 3973 0b11 5600     		.ascii	"V\000"
 3974 0b13 01       		.byte	0x1
 3975 0b14 6B01     		.2byte	0x16b
 3976 0b16 29000000 		.4byte	0x29
 3977 0b1a 5F0A0000 		.4byte	.LLST68
 3978 0b1e 17       		.uleb128 0x17
 3979 0b1f 0E000000 		.4byte	.LVL260
 3980 0b23 61130000 		.4byte	0x1361
 3981 0b27 17       		.uleb128 0x17
 3982 0b28 58000000 		.4byte	.LVL267
 3983 0b2c 61130000 		.4byte	0x1361
 3984 0b30 00       		.byte	0
 3985 0b31 2F       		.uleb128 0x2f
 3986 0b32 01       		.byte	0x1
 3987 0b33 44020000 		.4byte	.LASF53
 3988 0b37 01       		.byte	0x1
 3989 0b38 7A01     		.2byte	0x17a
 3990 0b3a 01       		.byte	0x1
 3991 0b3b 29000000 		.4byte	0x29
 3992 0b3f 00000000 		.4byte	.LFB15
 3993 0b43 32000000 		.4byte	.LFE15
 3994 0b47 770A0000 		.4byte	.LLST69
 3995 0b4b 01       		.byte	0x1
 3996 0b4c C00B0000 		.4byte	0xbc0
 3997 0b50 27       		.uleb128 0x27
 3998 0b51 4A4400   		.ascii	"JD\000"
 3999 0b54 01       		.byte	0x1
 4000 0b55 7A01     		.2byte	0x17a
 4001 0b57 29000000 		.4byte	0x29
 4002 0b5b A40A0000 		.4byte	.LLST70
 4003 0b5f 28       		.uleb128 0x28
 4004 0b60 1B060000 		.4byte	.LASF33
 4005 0b64 01       		.byte	0x1
 4006 0b65 7A01     		.2byte	0x17a
 4007 0b67 EB070000 		.4byte	0x7eb
 4008 0b6b CC0A0000 		.4byte	.LLST71
 4009 0b6f 29       		.uleb128 0x29
 4010 0b70 7D000000 		.4byte	.LASF43
 4011 0b74 01       		.byte	0x1
 4012 0b75 7C01     		.2byte	0x17c
 4013 0b77 16010000 		.4byte	0x116
 4014 0b7b 02       		.byte	0x2
 4015 0b7c 91       		.byte	0x91
 4016 0b7d 40       		.sleb128 -64
 4017 0b7e 29       		.uleb128 0x29
 4018 0b7f FA050000 		.4byte	.LASF44
 4019 0b83 01       		.byte	0x1
 4020 0b84 7C01     		.2byte	0x17c
 4021 0b86 16010000 		.4byte	0x116
 4022 0b8a 02       		.byte	0x2
ARM GAS  /tmp/cctkbEOJ.s 			page 72


 4023 0b8b 91       		.byte	0x91
 4024 0b8c 58       		.sleb128 -40
 4025 0b8d 1B       		.uleb128 0x1b
 4026 0b8e 16000000 		.4byte	.LVL272
 4027 0b92 19050000 		.4byte	0x519
 4028 0b96 A90B0000 		.4byte	0xba9
 4029 0b9a 1C       		.uleb128 0x1c
 4030 0b9b 01       		.byte	0x1
 4031 0b9c 50       		.byte	0x50
 4032 0b9d 03       		.byte	0x3
 4033 0b9e F3       		.byte	0xf3
 4034 0b9f 01       		.uleb128 0x1
 4035 0ba0 52       		.byte	0x52
 4036 0ba1 1C       		.uleb128 0x1c
 4037 0ba2 02       		.byte	0x2
 4038 0ba3 7D       		.byte	0x7d
 4039 0ba4 00       		.sleb128 0
 4040 0ba5 02       		.byte	0x2
 4041 0ba6 76       		.byte	0x76
 4042 0ba7 00       		.sleb128 0
 4043 0ba8 00       		.byte	0
 4044 0ba9 1E       		.uleb128 0x1e
 4045 0baa 2E000000 		.4byte	.LVL273
 4046 0bae 0F140000 		.4byte	0x140f
 4047 0bb2 1C       		.uleb128 0x1c
 4048 0bb3 01       		.byte	0x1
 4049 0bb4 51       		.byte	0x51
 4050 0bb5 02       		.byte	0x2
 4051 0bb6 91       		.byte	0x91
 4052 0bb7 58       		.sleb128 -40
 4053 0bb8 1C       		.uleb128 0x1c
 4054 0bb9 01       		.byte	0x1
 4055 0bba 50       		.byte	0x50
 4056 0bbb 02       		.byte	0x2
 4057 0bbc 76       		.byte	0x76
 4058 0bbd 00       		.sleb128 0
 4059 0bbe 00       		.byte	0
 4060 0bbf 00       		.byte	0
 4061 0bc0 2E       		.uleb128 0x2e
 4062 0bc1 01       		.byte	0x1
 4063 0bc2 28040000 		.4byte	.LASF54
 4064 0bc6 01       		.byte	0x1
 4065 0bc7 4901     		.2byte	0x149
 4066 0bc9 01       		.byte	0x1
 4067 0bca 29000000 		.4byte	0x29
 4068 0bce 00000000 		.4byte	.LFB12
 4069 0bd2 60000000 		.4byte	.LFE12
 4070 0bd6 F80A0000 		.4byte	.LLST72
 4071 0bda 01       		.byte	0x1
 4072 0bdb 460C0000 		.4byte	0xc46
 4073 0bdf 27       		.uleb128 0x27
 4074 0be0 4A4400   		.ascii	"JD\000"
 4075 0be3 01       		.byte	0x1
 4076 0be4 4901     		.2byte	0x149
 4077 0be6 29000000 		.4byte	0x29
 4078 0bea 180B0000 		.4byte	.LLST73
 4079 0bee 28       		.uleb128 0x28
ARM GAS  /tmp/cctkbEOJ.s 			page 73


 4080 0bef 1B060000 		.4byte	.LASF33
 4081 0bf3 01       		.byte	0x1
 4082 0bf4 4901     		.2byte	0x149
 4083 0bf6 EB070000 		.4byte	0x7eb
 4084 0bfa 400B0000 		.4byte	.LLST74
 4085 0bfe 2B       		.uleb128 0x2b
 4086 0bff 5600     		.ascii	"V\000"
 4087 0c01 01       		.byte	0x1
 4088 0c02 4B01     		.2byte	0x14b
 4089 0c04 29000000 		.4byte	0x29
 4090 0c08 5E0B0000 		.4byte	.LLST75
 4091 0c0c 2B       		.uleb128 0x2b
 4092 0c0d 7200     		.ascii	"r\000"
 4093 0c0f 01       		.byte	0x1
 4094 0c10 4C01     		.2byte	0x14c
 4095 0c12 29000000 		.4byte	0x29
 4096 0c16 980B0000 		.4byte	.LLST76
 4097 0c1a 1B       		.uleb128 0x1b
 4098 0c1b 08000000 		.4byte	.LVL275
 4099 0c1f 310B0000 		.4byte	0xb31
 4100 0c23 3C0C0000 		.4byte	0xc3c
 4101 0c27 1C       		.uleb128 0x1c
 4102 0c28 01       		.byte	0x1
 4103 0c29 52       		.byte	0x52
 4104 0c2a 02       		.byte	0x2
 4105 0c2b 76       		.byte	0x76
 4106 0c2c 00       		.sleb128 0
 4107 0c2d 1C       		.uleb128 0x1c
 4108 0c2e 06       		.byte	0x6
 4109 0c2f 50       		.byte	0x50
 4110 0c30 93       		.byte	0x93
 4111 0c31 04       		.uleb128 0x4
 4112 0c32 51       		.byte	0x51
 4113 0c33 93       		.byte	0x93
 4114 0c34 04       		.uleb128 0x4
 4115 0c35 05       		.byte	0x5
 4116 0c36 F3       		.byte	0xf3
 4117 0c37 03       		.uleb128 0x3
 4118 0c38 F5       		.byte	0xf5
 4119 0c39 00       		.uleb128 0
 4120 0c3a 29       		.uleb128 0x29
 4121 0c3b 00       		.byte	0
 4122 0c3c 17       		.uleb128 0x17
 4123 0c3d 48000000 		.4byte	.LVL281
 4124 0c41 61130000 		.4byte	0x1361
 4125 0c45 00       		.byte	0
 4126 0c46 2F       		.uleb128 0x2f
 4127 0c47 01       		.byte	0x1
 4128 0c48 80050000 		.4byte	.LASF55
 4129 0c4c 01       		.byte	0x1
 4130 0c4d 9101     		.2byte	0x191
 4131 0c4f 01       		.byte	0x1
 4132 0c50 29000000 		.4byte	0x29
 4133 0c54 00000000 		.4byte	.LFB16
 4134 0c58 32000000 		.4byte	.LFE16
 4135 0c5c B00B0000 		.4byte	.LLST77
 4136 0c60 01       		.byte	0x1
ARM GAS  /tmp/cctkbEOJ.s 			page 74


 4137 0c61 D50C0000 		.4byte	0xcd5
 4138 0c65 27       		.uleb128 0x27
 4139 0c66 4A4400   		.ascii	"JD\000"
 4140 0c69 01       		.byte	0x1
 4141 0c6a 9101     		.2byte	0x191
 4142 0c6c 29000000 		.4byte	0x29
 4143 0c70 DD0B0000 		.4byte	.LLST78
 4144 0c74 28       		.uleb128 0x28
 4145 0c75 1B060000 		.4byte	.LASF33
 4146 0c79 01       		.byte	0x1
 4147 0c7a 9101     		.2byte	0x191
 4148 0c7c EB070000 		.4byte	0x7eb
 4149 0c80 050C0000 		.4byte	.LLST79
 4150 0c84 29       		.uleb128 0x29
 4151 0c85 7D000000 		.4byte	.LASF43
 4152 0c89 01       		.byte	0x1
 4153 0c8a 9301     		.2byte	0x193
 4154 0c8c 16010000 		.4byte	0x116
 4155 0c90 02       		.byte	0x2
 4156 0c91 91       		.byte	0x91
 4157 0c92 40       		.sleb128 -64
 4158 0c93 29       		.uleb128 0x29
 4159 0c94 C9030000 		.4byte	.LASF56
 4160 0c98 01       		.byte	0x1
 4161 0c99 9301     		.2byte	0x193
 4162 0c9b 16010000 		.4byte	0x116
 4163 0c9f 02       		.byte	0x2
 4164 0ca0 91       		.byte	0x91
 4165 0ca1 58       		.sleb128 -40
 4166 0ca2 1B       		.uleb128 0x1b
 4167 0ca3 16000000 		.4byte	.LVL286
 4168 0ca7 4B090000 		.4byte	0x94b
 4169 0cab BE0C0000 		.4byte	0xcbe
 4170 0caf 1C       		.uleb128 0x1c
 4171 0cb0 01       		.byte	0x1
 4172 0cb1 50       		.byte	0x50
 4173 0cb2 03       		.byte	0x3
 4174 0cb3 F3       		.byte	0xf3
 4175 0cb4 01       		.uleb128 0x1
 4176 0cb5 52       		.byte	0x52
 4177 0cb6 1C       		.uleb128 0x1c
 4178 0cb7 02       		.byte	0x2
 4179 0cb8 7D       		.byte	0x7d
 4180 0cb9 00       		.sleb128 0
 4181 0cba 02       		.byte	0x2
 4182 0cbb 76       		.byte	0x76
 4183 0cbc 00       		.sleb128 0
 4184 0cbd 00       		.byte	0
 4185 0cbe 1E       		.uleb128 0x1e
 4186 0cbf 2E000000 		.4byte	.LVL287
 4187 0cc3 0F140000 		.4byte	0x140f
 4188 0cc7 1C       		.uleb128 0x1c
 4189 0cc8 01       		.byte	0x1
 4190 0cc9 51       		.byte	0x51
 4191 0cca 02       		.byte	0x2
 4192 0ccb 91       		.byte	0x91
 4193 0ccc 58       		.sleb128 -40
ARM GAS  /tmp/cctkbEOJ.s 			page 75


 4194 0ccd 1C       		.uleb128 0x1c
 4195 0cce 01       		.byte	0x1
 4196 0ccf 50       		.byte	0x50
 4197 0cd0 02       		.byte	0x2
 4198 0cd1 76       		.byte	0x76
 4199 0cd2 00       		.sleb128 0
 4200 0cd3 00       		.byte	0
 4201 0cd4 00       		.byte	0
 4202 0cd5 2E       		.uleb128 0x2e
 4203 0cd6 01       		.byte	0x1
 4204 0cd7 61000000 		.4byte	.LASF57
 4205 0cdb 01       		.byte	0x1
 4206 0cdc A701     		.2byte	0x1a7
 4207 0cde 01       		.byte	0x1
 4208 0cdf 29000000 		.4byte	0x29
 4209 0ce3 00000000 		.4byte	.LFB17
 4210 0ce7 00010000 		.4byte	.LFE17
 4211 0ceb 310C0000 		.4byte	.LLST80
 4212 0cef 01       		.byte	0x1
 4213 0cf0 160E0000 		.4byte	0xe16
 4214 0cf4 27       		.uleb128 0x27
 4215 0cf5 4A4400   		.ascii	"JD\000"
 4216 0cf8 01       		.byte	0x1
 4217 0cf9 A701     		.2byte	0x1a7
 4218 0cfb 29000000 		.4byte	0x29
 4219 0cff 5D0C0000 		.4byte	.LLST81
 4220 0d03 28       		.uleb128 0x28
 4221 0d04 1B060000 		.4byte	.LASF33
 4222 0d08 01       		.byte	0x1
 4223 0d09 A701     		.2byte	0x1a7
 4224 0d0b EB070000 		.4byte	0x7eb
 4225 0d0f 850C0000 		.4byte	.LLST82
 4226 0d13 2C       		.uleb128 0x2c
 4227 0d14 7200     		.ascii	"r\000"
 4228 0d16 01       		.byte	0x1
 4229 0d17 A901     		.2byte	0x1a9
 4230 0d19 29000000 		.4byte	0x29
 4231 0d1d 06       		.byte	0x6
 4232 0d1e 56       		.byte	0x56
 4233 0d1f 93       		.byte	0x93
 4234 0d20 04       		.uleb128 0x4
 4235 0d21 57       		.byte	0x57
 4236 0d22 93       		.byte	0x93
 4237 0d23 04       		.uleb128 0x4
 4238 0d24 2C       		.uleb128 0x2c
 4239 0d25 5200     		.ascii	"R\000"
 4240 0d27 01       		.byte	0x1
 4241 0d28 A901     		.2byte	0x1a9
 4242 0d2a 29000000 		.4byte	0x29
 4243 0d2e 06       		.byte	0x6
 4244 0d2f 5A       		.byte	0x5a
 4245 0d30 93       		.byte	0x93
 4246 0d31 04       		.uleb128 0x4
 4247 0d32 5B       		.byte	0x5b
 4248 0d33 93       		.byte	0x93
 4249 0d34 04       		.uleb128 0x4
 4250 0d35 2C       		.uleb128 0x2c
ARM GAS  /tmp/cctkbEOJ.s 			page 76


 4251 0d36 6400     		.ascii	"d\000"
 4252 0d38 01       		.byte	0x1
 4253 0d39 A901     		.2byte	0x1a9
 4254 0d3b 29000000 		.4byte	0x29
 4255 0d3f 06       		.byte	0x6
 4256 0d40 54       		.byte	0x54
 4257 0d41 93       		.byte	0x93
 4258 0d42 04       		.uleb128 0x4
 4259 0d43 55       		.byte	0x55
 4260 0d44 93       		.byte	0x93
 4261 0d45 04       		.uleb128 0x4
 4262 0d46 2B       		.uleb128 0x2b
 4263 0d47 4500     		.ascii	"E\000"
 4264 0d49 01       		.byte	0x1
 4265 0d4a AA01     		.2byte	0x1aa
 4266 0d4c 29000000 		.4byte	0x29
 4267 0d50 B10C0000 		.4byte	.LLST83
 4268 0d54 30       		.uleb128 0x30
 4269 0d55 4D00     		.ascii	"M\000"
 4270 0d57 01       		.byte	0x1
 4271 0d58 AA01     		.2byte	0x1aa
 4272 0d5a 29000000 		.4byte	0x29
 4273 0d5e 29       		.uleb128 0x29
 4274 0d5f A1010000 		.4byte	.LASF58
 4275 0d63 01       		.byte	0x1
 4276 0d64 AB01     		.2byte	0x1ab
 4277 0d66 29000000 		.4byte	0x29
 4278 0d6a 24       		.byte	0x24
 4279 0d6b F5       		.byte	0xf5
 4280 0d6c 06       		.uleb128 0x6
 4281 0d6d 29       		.uleb128 0x29
 4282 0d6e F5       		.byte	0xf5
 4283 0d6f 06       		.uleb128 0x6
 4284 0d70 29       		.uleb128 0x29
 4285 0d71 1E       		.byte	0x1e
 4286 0d72 F5       		.byte	0xf5
 4287 0d73 04       		.uleb128 0x4
 4288 0d74 29       		.uleb128 0x29
 4289 0d75 F5       		.byte	0xf5
 4290 0d76 04       		.uleb128 0x4
 4291 0d77 29       		.uleb128 0x29
 4292 0d78 1E       		.byte	0x1e
 4293 0d79 22       		.byte	0x22
 4294 0d7a F5       		.byte	0xf5
 4295 0d7b 0A       		.uleb128 0xa
 4296 0d7c 29       		.uleb128 0x29
 4297 0d7d F5       		.byte	0xf5
 4298 0d7e 0A       		.uleb128 0xa
 4299 0d7f 29       		.uleb128 0x29
 4300 0d80 1E       		.byte	0x1e
 4301 0d81 1C       		.byte	0x1c
 4302 0d82 F5       		.byte	0xf5
 4303 0d83 06       		.uleb128 0x6
 4304 0d84 29       		.uleb128 0x29
 4305 0d85 F5       		.byte	0xf5
 4306 0d86 06       		.uleb128 0x6
 4307 0d87 29       		.uleb128 0x29
ARM GAS  /tmp/cctkbEOJ.s 			page 77


 4308 0d88 22       		.byte	0x22
 4309 0d89 F5       		.byte	0xf5
 4310 0d8a 04       		.uleb128 0x4
 4311 0d8b 29       		.uleb128 0x29
 4312 0d8c 1E       		.byte	0x1e
 4313 0d8d 1B       		.byte	0x1b
 4314 0d8e 9F       		.byte	0x9f
 4315 0d8f 31       		.uleb128 0x31
 4316 0d90 36020000 		.4byte	0x236
 4317 0d94 3A000000 		.4byte	.LBB32
 4318 0d98 68000000 		.4byte	.Ldebug_ranges0+0x68
 4319 0d9c 01       		.byte	0x1
 4320 0d9d B001     		.2byte	0x1b0
 4321 0d9f B60D0000 		.4byte	0xdb6
 4322 0da3 16       		.uleb128 0x16
 4323 0da4 51020000 		.4byte	0x251
 4324 0da8 D50C0000 		.4byte	.LLST84
 4325 0dac 16       		.uleb128 0x16
 4326 0dad 48020000 		.4byte	0x248
 4327 0db1 F10C0000 		.4byte	.LLST85
 4328 0db5 00       		.byte	0
 4329 0db6 17       		.uleb128 0x17
 4330 0db7 26000000 		.4byte	.LVL292
 4331 0dbb C3040000 		.4byte	0x4c3
 4332 0dbf 17       		.uleb128 0x17
 4333 0dc0 52000000 		.4byte	.LVL297
 4334 0dc4 5D020000 		.4byte	0x25d
 4335 0dc8 17       		.uleb128 0x17
 4336 0dc9 66000000 		.4byte	.LVL299
 4337 0dcd DE030000 		.4byte	0x3de
 4338 0dd1 1B       		.uleb128 0x1b
 4339 0dd2 74000000 		.4byte	.LVL301
 4340 0dd6 460C0000 		.4byte	0xc46
 4341 0dda E50D0000 		.4byte	0xde5
 4342 0dde 1C       		.uleb128 0x1c
 4343 0ddf 01       		.byte	0x1
 4344 0de0 52       		.byte	0x52
 4345 0de1 02       		.byte	0x2
 4346 0de2 78       		.byte	0x78
 4347 0de3 00       		.sleb128 0
 4348 0de4 00       		.byte	0
 4349 0de5 1B       		.uleb128 0x1b
 4350 0de6 82000000 		.4byte	.LVL303
 4351 0dea 310B0000 		.4byte	0xb31
 4352 0dee F90D0000 		.4byte	0xdf9
 4353 0df2 1C       		.uleb128 0x1c
 4354 0df3 01       		.byte	0x1
 4355 0df4 52       		.byte	0x52
 4356 0df5 02       		.byte	0x2
 4357 0df6 78       		.byte	0x78
 4358 0df7 00       		.sleb128 0
 4359 0df8 00       		.byte	0
 4360 0df9 17       		.uleb128 0x17
 4361 0dfa F2000000 		.4byte	.LVL314
 4362 0dfe 19130000 		.4byte	0x1319
 4363 0e02 17       		.uleb128 0x17
 4364 0e03 F6000000 		.4byte	.LVL315
ARM GAS  /tmp/cctkbEOJ.s 			page 78


 4365 0e07 94140000 		.4byte	0x1494
 4366 0e0b 18       		.uleb128 0x18
 4367 0e0c 00010000 		.4byte	.LVL316
 4368 0e10 01       		.byte	0x1
 4369 0e11 A9130000 		.4byte	0x13a9
 4370 0e15 00       		.byte	0
 4371 0e16 2E       		.uleb128 0x2e
 4372 0e17 01       		.byte	0x1
 4373 0e18 CF010000 		.4byte	.LASF59
 4374 0e1c 01       		.byte	0x1
 4375 0e1d C801     		.2byte	0x1c8
 4376 0e1f 01       		.byte	0x1
 4377 0e20 29000000 		.4byte	0x29
 4378 0e24 00000000 		.4byte	.LFB18
 4379 0e28 06010000 		.4byte	.LFE18
 4380 0e2c 090D0000 		.4byte	.LLST86
 4381 0e30 01       		.byte	0x1
 4382 0e31 6E0F0000 		.4byte	0xf6e
 4383 0e35 27       		.uleb128 0x27
 4384 0e36 4A4400   		.ascii	"JD\000"
 4385 0e39 01       		.byte	0x1
 4386 0e3a C801     		.2byte	0x1c8
 4387 0e3c 29000000 		.4byte	0x29
 4388 0e40 350D0000 		.4byte	.LLST87
 4389 0e44 28       		.uleb128 0x28
 4390 0e45 1B060000 		.4byte	.LASF33
 4391 0e49 01       		.byte	0x1
 4392 0e4a C801     		.2byte	0x1c8
 4393 0e4c EB070000 		.4byte	0x7eb
 4394 0e50 5D0D0000 		.4byte	.LLST88
 4395 0e54 2B       		.uleb128 0x2b
 4396 0e55 7200     		.ascii	"r\000"
 4397 0e57 01       		.byte	0x1
 4398 0e58 CA01     		.2byte	0x1ca
 4399 0e5a 29000000 		.4byte	0x29
 4400 0e5e 7B0D0000 		.4byte	.LLST89
 4401 0e62 2C       		.uleb128 0x2c
 4402 0e63 5200     		.ascii	"R\000"
 4403 0e65 01       		.byte	0x1
 4404 0e66 CA01     		.2byte	0x1ca
 4405 0e68 29000000 		.4byte	0x29
 4406 0e6c 06       		.byte	0x6
 4407 0e6d 54       		.byte	0x54
 4408 0e6e 93       		.byte	0x93
 4409 0e6f 04       		.uleb128 0x4
 4410 0e70 55       		.byte	0x55
 4411 0e71 93       		.byte	0x93
 4412 0e72 04       		.uleb128 0x4
 4413 0e73 2C       		.uleb128 0x2c
 4414 0e74 6400     		.ascii	"d\000"
 4415 0e76 01       		.byte	0x1
 4416 0e77 CA01     		.2byte	0x1ca
 4417 0e79 29000000 		.4byte	0x29
 4418 0e7d 06       		.byte	0x6
 4419 0e7e 56       		.byte	0x56
 4420 0e7f 93       		.byte	0x93
 4421 0e80 04       		.uleb128 0x4
ARM GAS  /tmp/cctkbEOJ.s 			page 79


 4422 0e81 57       		.byte	0x57
 4423 0e82 93       		.byte	0x93
 4424 0e83 04       		.uleb128 0x4
 4425 0e84 2B       		.uleb128 0x2b
 4426 0e85 7400     		.ascii	"t\000"
 4427 0e87 01       		.byte	0x1
 4428 0e88 CB01     		.2byte	0x1cb
 4429 0e8a 29000000 		.4byte	0x29
 4430 0e8e 9F0D0000 		.4byte	.LLST90
 4431 0e92 29       		.uleb128 0x29
 4432 0e93 9C040000 		.4byte	.LASF60
 4433 0e97 01       		.byte	0x1
 4434 0e98 CC01     		.2byte	0x1cc
 4435 0e9a 29000000 		.4byte	0x29
 4436 0e9e 28       		.byte	0x28
 4437 0e9f F5       		.byte	0xf5
 4438 0ea0 04       		.uleb128 0x4
 4439 0ea1 29       		.uleb128 0x29
 4440 0ea2 F5       		.byte	0xf5
 4441 0ea3 04       		.uleb128 0x4
 4442 0ea4 29       		.uleb128 0x29
 4443 0ea5 1E       		.byte	0x1e
 4444 0ea6 F5       		.byte	0xf5
 4445 0ea7 06       		.uleb128 0x6
 4446 0ea8 29       		.uleb128 0x29
 4447 0ea9 F5       		.byte	0xf5
 4448 0eaa 06       		.uleb128 0x6
 4449 0eab 29       		.uleb128 0x29
 4450 0eac 1E       		.byte	0x1e
 4451 0ead 22       		.byte	0x22
 4452 0eae 91       		.byte	0x91
 4453 0eaf 58       		.sleb128 -40
 4454 0eb0 F6       		.byte	0xf6
 4455 0eb1 08       		.byte	0x8
 4456 0eb2 29       		.uleb128 0x29
 4457 0eb3 91       		.byte	0x91
 4458 0eb4 58       		.sleb128 -40
 4459 0eb5 F6       		.byte	0xf6
 4460 0eb6 08       		.byte	0x8
 4461 0eb7 29       		.uleb128 0x29
 4462 0eb8 1E       		.byte	0x1e
 4463 0eb9 1C       		.byte	0x1c
 4464 0eba F5       		.byte	0xf5
 4465 0ebb 04       		.uleb128 0x4
 4466 0ebc 29       		.uleb128 0x29
 4467 0ebd F5       		.byte	0xf5
 4468 0ebe 04       		.uleb128 0x4
 4469 0ebf 29       		.uleb128 0x29
 4470 0ec0 22       		.byte	0x22
 4471 0ec1 F5       		.byte	0xf5
 4472 0ec2 06       		.uleb128 0x6
 4473 0ec3 29       		.uleb128 0x29
 4474 0ec4 1E       		.byte	0x1e
 4475 0ec5 1B       		.byte	0x1b
 4476 0ec6 9F       		.byte	0x9f
 4477 0ec7 2B       		.uleb128 0x2b
 4478 0ec8 4500     		.ascii	"E\000"
ARM GAS  /tmp/cctkbEOJ.s 			page 80


 4479 0eca 01       		.byte	0x1
 4480 0ecb CD01     		.2byte	0x1cd
 4481 0ecd 29000000 		.4byte	0x29
 4482 0ed1 B70D0000 		.4byte	.LLST91
 4483 0ed5 30       		.uleb128 0x30
 4484 0ed6 4D00     		.ascii	"M\000"
 4485 0ed8 01       		.byte	0x1
 4486 0ed9 CD01     		.2byte	0x1cd
 4487 0edb 29000000 		.4byte	0x29
 4488 0edf 31       		.uleb128 0x31
 4489 0ee0 36020000 		.4byte	0x236
 4490 0ee4 3E000000 		.4byte	.LBB36
 4491 0ee8 80000000 		.4byte	.Ldebug_ranges0+0x80
 4492 0eec 01       		.byte	0x1
 4493 0eed D501     		.2byte	0x1d5
 4494 0eef 060F0000 		.4byte	0xf06
 4495 0ef3 16       		.uleb128 0x16
 4496 0ef4 51020000 		.4byte	0x251
 4497 0ef8 DB0D0000 		.4byte	.LLST92
 4498 0efc 16       		.uleb128 0x16
 4499 0efd 48020000 		.4byte	0x248
 4500 0f01 F30D0000 		.4byte	.LLST93
 4501 0f05 00       		.byte	0
 4502 0f06 17       		.uleb128 0x17
 4503 0f07 32000000 		.4byte	.LVL322
 4504 0f0b C3040000 		.4byte	0x4c3
 4505 0f0f 1B       		.uleb128 0x1b
 4506 0f10 5A000000 		.4byte	.LVL325
 4507 0f14 5D020000 		.4byte	0x25d
 4508 0f18 2B0F0000 		.4byte	0xf2b
 4509 0f1c 1C       		.uleb128 0x1c
 4510 0f1d 06       		.byte	0x6
 4511 0f1e 50       		.byte	0x50
 4512 0f1f 93       		.byte	0x93
 4513 0f20 04       		.uleb128 0x4
 4514 0f21 51       		.byte	0x51
 4515 0f22 93       		.byte	0x93
 4516 0f23 04       		.uleb128 0x4
 4517 0f24 05       		.byte	0x5
 4518 0f25 91       		.byte	0x91
 4519 0f26 58       		.sleb128 -40
 4520 0f27 F6       		.byte	0xf6
 4521 0f28 08       		.byte	0x8
 4522 0f29 29       		.uleb128 0x29
 4523 0f2a 00       		.byte	0
 4524 0f2b 17       		.uleb128 0x17
 4525 0f2c 6E000000 		.4byte	.LVL328
 4526 0f30 DE030000 		.4byte	0x3de
 4527 0f34 17       		.uleb128 0x17
 4528 0f35 7A000000 		.4byte	.LVL331
 4529 0f39 AC140000 		.4byte	0x14ac
 4530 0f3d 1B       		.uleb128 0x1b
 4531 0f3e 88000000 		.4byte	.LVL333
 4532 0f42 310B0000 		.4byte	0xb31
 4533 0f46 510F0000 		.4byte	0xf51
 4534 0f4a 1C       		.uleb128 0x1c
 4535 0f4b 01       		.byte	0x1
ARM GAS  /tmp/cctkbEOJ.s 			page 81


 4536 0f4c 52       		.byte	0x52
 4537 0f4d 02       		.byte	0x2
 4538 0f4e 7A       		.byte	0x7a
 4539 0f4f 00       		.sleb128 0
 4540 0f50 00       		.byte	0
 4541 0f51 17       		.uleb128 0x17
 4542 0f52 F8000000 		.4byte	.LVL344
 4543 0f56 94140000 		.4byte	0x1494
 4544 0f5a 17       		.uleb128 0x17
 4545 0f5b FC000000 		.4byte	.LVL345
 4546 0f5f 49130000 		.4byte	0x1349
 4547 0f63 18       		.uleb128 0x18
 4548 0f64 06010000 		.4byte	.LVL346
 4549 0f68 01       		.byte	0x1
 4550 0f69 A9130000 		.4byte	0x13a9
 4551 0f6d 00       		.byte	0
 4552 0f6e 2F       		.uleb128 0x2f
 4553 0f6f 01       		.byte	0x1
 4554 0f70 0F030000 		.4byte	.LASF61
 4555 0f74 01       		.byte	0x1
 4556 0f75 0502     		.2byte	0x205
 4557 0f77 01       		.byte	0x1
 4558 0f78 4C000000 		.4byte	0x4c
 4559 0f7c 00000000 		.4byte	.LFB20
 4560 0f80 22000000 		.4byte	.LFE20
 4561 0f84 0B0E0000 		.4byte	.LLST94
 4562 0f88 01       		.byte	0x1
 4563 0f89 1B100000 		.4byte	0x101b
 4564 0f8d 27       		.uleb128 0x27
 4565 0f8e 4A4400   		.ascii	"JD\000"
 4566 0f91 01       		.byte	0x1
 4567 0f92 0502     		.2byte	0x205
 4568 0f94 29000000 		.4byte	0x29
 4569 0f98 370E0000 		.4byte	.LLST95
 4570 0f9c 28       		.uleb128 0x28
 4571 0f9d 8D040000 		.4byte	.LASF62
 4572 0fa1 01       		.byte	0x1
 4573 0fa2 0502     		.2byte	0x205
 4574 0fa4 1B100000 		.4byte	0x101b
 4575 0fa8 5F0E0000 		.4byte	.LLST96
 4576 0fac 28       		.uleb128 0x28
 4577 0fad 1B060000 		.4byte	.LASF33
 4578 0fb1 01       		.byte	0x1
 4579 0fb2 0502     		.2byte	0x205
 4580 0fb4 EB070000 		.4byte	0x7eb
 4581 0fb8 800E0000 		.4byte	.LLST97
 4582 0fbc 32       		.uleb128 0x32
 4583 0fbd FF000000 		.4byte	.LASF63
 4584 0fc1 01       		.byte	0x1
 4585 0fc2 0502     		.2byte	0x205
 4586 0fc4 29000000 		.4byte	0x29
 4587 0fc8 02       		.byte	0x2
 4588 0fc9 91       		.byte	0x91
 4589 0fca 00       		.sleb128 0
 4590 0fcb 33       		.uleb128 0x33
 4591 0fcc 72737400 		.ascii	"rst\000"
 4592 0fd0 01       		.byte	0x1
ARM GAS  /tmp/cctkbEOJ.s 			page 82


 4593 0fd1 0502     		.2byte	0x205
 4594 0fd3 21100000 		.4byte	0x1021
 4595 0fd7 02       		.byte	0x2
 4596 0fd8 91       		.byte	0x91
 4597 0fd9 08       		.sleb128 8
 4598 0fda 1E       		.uleb128 0x1e
 4599 0fdb 1E000000 		.4byte	.LVL349
 4600 0fdf C4140000 		.4byte	0x14c4
 4601 0fe3 1C       		.uleb128 0x1c
 4602 0fe4 01       		.byte	0x1
 4603 0fe5 53       		.byte	0x53
 4604 0fe6 05       		.byte	0x5
 4605 0fe7 03       		.byte	0x3
 4606 0fe8 00000000 		.4byte	ln_get_ell_body_equ_coords
 4607 0fec 1C       		.uleb128 0x1c
 4608 0fed 01       		.byte	0x1
 4609 0fee 52       		.byte	0x52
 4610 0fef 03       		.byte	0x3
 4611 0ff0 F3       		.byte	0xf3
 4612 0ff1 01       		.uleb128 0x1
 4613 0ff2 52       		.byte	0x52
 4614 0ff3 1C       		.uleb128 0x1c
 4615 0ff4 06       		.byte	0x6
 4616 0ff5 50       		.byte	0x50
 4617 0ff6 93       		.byte	0x93
 4618 0ff7 04       		.uleb128 0x4
 4619 0ff8 51       		.byte	0x51
 4620 0ff9 93       		.byte	0x93
 4621 0ffa 04       		.uleb128 0x4
 4622 0ffb 05       		.byte	0x5
 4623 0ffc F3       		.byte	0xf3
 4624 0ffd 03       		.uleb128 0x3
 4625 0ffe F5       		.byte	0xf5
 4626 0fff 00       		.uleb128 0
 4627 1000 29       		.uleb128 0x29
 4628 1001 1C       		.uleb128 0x1c
 4629 1002 02       		.byte	0x2
 4630 1003 7D       		.byte	0x7d
 4631 1004 10       		.sleb128 16
 4632 1005 03       		.byte	0x3
 4633 1006 91       		.byte	0x91
 4634 1007 08       		.sleb128 8
 4635 1008 06       		.byte	0x6
 4636 1009 1C       		.uleb128 0x1c
 4637 100a 02       		.byte	0x2
 4638 100b 7D       		.byte	0x7d
 4639 100c 08       		.sleb128 8
 4640 100d 03       		.byte	0x3
 4641 100e F5       		.byte	0xf5
 4642 100f 04       		.uleb128 0x4
 4643 1010 29       		.uleb128 0x29
 4644 1011 1C       		.uleb128 0x1c
 4645 1012 02       		.byte	0x2
 4646 1013 7D       		.byte	0x7d
 4647 1014 00       		.sleb128 0
 4648 1015 03       		.byte	0x3
 4649 1016 F3       		.byte	0xf3
ARM GAS  /tmp/cctkbEOJ.s 			page 83


 4650 1017 01       		.uleb128 0x1
 4651 1018 53       		.byte	0x53
 4652 1019 00       		.byte	0
 4653 101a 00       		.byte	0
 4654 101b 0B       		.uleb128 0xb
 4655 101c 04       		.byte	0x4
 4656 101d BC000000 		.4byte	0xbc
 4657 1021 0B       		.uleb128 0xb
 4658 1022 04       		.byte	0x4
 4659 1023 B3010000 		.4byte	0x1b3
 4660 1027 2F       		.uleb128 0x2f
 4661 1028 01       		.byte	0x1
 4662 1029 91000000 		.4byte	.LASF64
 4663 102d 01       		.byte	0x1
 4664 102e F201     		.2byte	0x1f2
 4665 1030 01       		.byte	0x1
 4666 1031 4C000000 		.4byte	0x4c
 4667 1035 00000000 		.4byte	.LFB19
 4668 1039 28000000 		.4byte	.LFE19
 4669 103d AD0E0000 		.4byte	.LLST98
 4670 1041 01       		.byte	0x1
 4671 1042 C2100000 		.4byte	0x10c2
 4672 1046 27       		.uleb128 0x27
 4673 1047 4A4400   		.ascii	"JD\000"
 4674 104a 01       		.byte	0x1
 4675 104b F201     		.2byte	0x1f2
 4676 104d 29000000 		.4byte	0x29
 4677 1051 D90E0000 		.4byte	.LLST99
 4678 1055 28       		.uleb128 0x28
 4679 1056 8D040000 		.4byte	.LASF62
 4680 105a 01       		.byte	0x1
 4681 105b F201     		.2byte	0x1f2
 4682 105d 1B100000 		.4byte	0x101b
 4683 1061 010F0000 		.4byte	.LLST100
 4684 1065 28       		.uleb128 0x28
 4685 1066 1B060000 		.4byte	.LASF33
 4686 106a 01       		.byte	0x1
 4687 106b F201     		.2byte	0x1f2
 4688 106d EB070000 		.4byte	0x7eb
 4689 1071 220F0000 		.4byte	.LLST101
 4690 1075 33       		.uleb128 0x33
 4691 1076 72737400 		.ascii	"rst\000"
 4692 107a 01       		.byte	0x1
 4693 107b F201     		.2byte	0x1f2
 4694 107d 21100000 		.4byte	0x1021
 4695 1081 02       		.byte	0x2
 4696 1082 91       		.byte	0x91
 4697 1083 00       		.sleb128 0
 4698 1084 1E       		.uleb128 0x1e
 4699 1085 16000000 		.4byte	.LVL351
 4700 1089 6E0F0000 		.4byte	0xf6e
 4701 108d 1C       		.uleb128 0x1c
 4702 108e 01       		.byte	0x1
 4703 108f 53       		.byte	0x53
 4704 1090 03       		.byte	0x3
 4705 1091 F3       		.byte	0xf3
 4706 1092 01       		.uleb128 0x1
ARM GAS  /tmp/cctkbEOJ.s 			page 84


 4707 1093 53       		.byte	0x53
 4708 1094 1C       		.uleb128 0x1c
 4709 1095 01       		.byte	0x1
 4710 1096 52       		.byte	0x52
 4711 1097 03       		.byte	0x3
 4712 1098 F3       		.byte	0xf3
 4713 1099 01       		.uleb128 0x1
 4714 109a 52       		.byte	0x52
 4715 109b 1C       		.uleb128 0x1c
 4716 109c 06       		.byte	0x6
 4717 109d 50       		.byte	0x50
 4718 109e 93       		.byte	0x93
 4719 109f 04       		.uleb128 0x4
 4720 10a0 51       		.byte	0x51
 4721 10a1 93       		.byte	0x93
 4722 10a2 04       		.uleb128 0x4
 4723 10a3 05       		.byte	0x5
 4724 10a4 F3       		.byte	0xf3
 4725 10a5 03       		.uleb128 0x3
 4726 10a6 F5       		.byte	0xf5
 4727 10a7 00       		.uleb128 0
 4728 10a8 29       		.uleb128 0x29
 4729 10a9 1C       		.uleb128 0x1c
 4730 10aa 02       		.byte	0x2
 4731 10ab 7D       		.byte	0x7d
 4732 10ac 08       		.sleb128 8
 4733 10ad 02       		.byte	0x2
 4734 10ae 74       		.byte	0x74
 4735 10af 00       		.sleb128 0
 4736 10b0 1C       		.uleb128 0x1c
 4737 10b1 02       		.byte	0x2
 4738 10b2 7D       		.byte	0x7d
 4739 10b3 00       		.sleb128 0
 4740 10b4 0B       		.byte	0xb
 4741 10b5 F4       		.byte	0xf4
 4742 10b6 29       		.uleb128 0x29
 4743 10b7 08       		.byte	0x8
 4744 10b8 1895D409 		.4byte	0x9d49518
 4745 10bc 6822E2BF 		.4byte	0xbfe22268
 4746 10c0 00       		.byte	0
 4747 10c1 00       		.byte	0
 4748 10c2 2F       		.uleb128 0x2f
 4749 10c3 01       		.byte	0x1
 4750 10c4 21050000 		.4byte	.LASF65
 4751 10c8 01       		.byte	0x1
 4752 10c9 2E02     		.2byte	0x22e
 4753 10cb 01       		.byte	0x1
 4754 10cc 4C000000 		.4byte	0x4c
 4755 10d0 00000000 		.4byte	.LFB22
 4756 10d4 22000000 		.4byte	.LFE22
 4757 10d8 430F0000 		.4byte	.LLST102
 4758 10dc 01       		.byte	0x1
 4759 10dd 6F110000 		.4byte	0x116f
 4760 10e1 27       		.uleb128 0x27
 4761 10e2 4A4400   		.ascii	"JD\000"
 4762 10e5 01       		.byte	0x1
 4763 10e6 2E02     		.2byte	0x22e
ARM GAS  /tmp/cctkbEOJ.s 			page 85


 4764 10e8 29000000 		.4byte	0x29
 4765 10ec 6F0F0000 		.4byte	.LLST103
 4766 10f0 28       		.uleb128 0x28
 4767 10f1 8D040000 		.4byte	.LASF62
 4768 10f5 01       		.byte	0x1
 4769 10f6 2E02     		.2byte	0x22e
 4770 10f8 1B100000 		.4byte	0x101b
 4771 10fc 970F0000 		.4byte	.LLST104
 4772 1100 28       		.uleb128 0x28
 4773 1101 1B060000 		.4byte	.LASF33
 4774 1105 01       		.byte	0x1
 4775 1106 2E02     		.2byte	0x22e
 4776 1108 EB070000 		.4byte	0x7eb
 4777 110c B80F0000 		.4byte	.LLST105
 4778 1110 32       		.uleb128 0x32
 4779 1111 FF000000 		.4byte	.LASF63
 4780 1115 01       		.byte	0x1
 4781 1116 2E02     		.2byte	0x22e
 4782 1118 29000000 		.4byte	0x29
 4783 111c 02       		.byte	0x2
 4784 111d 91       		.byte	0x91
 4785 111e 00       		.sleb128 0
 4786 111f 33       		.uleb128 0x33
 4787 1120 72737400 		.ascii	"rst\000"
 4788 1124 01       		.byte	0x1
 4789 1125 2E02     		.2byte	0x22e
 4790 1127 21100000 		.4byte	0x1021
 4791 112b 02       		.byte	0x2
 4792 112c 91       		.byte	0x91
 4793 112d 08       		.sleb128 8
 4794 112e 1E       		.uleb128 0x1e
 4795 112f 1E000000 		.4byte	.LVL354
 4796 1133 F5140000 		.4byte	0x14f5
 4797 1137 1C       		.uleb128 0x1c
 4798 1138 01       		.byte	0x1
 4799 1139 53       		.byte	0x53
 4800 113a 05       		.byte	0x5
 4801 113b 03       		.byte	0x3
 4802 113c 00000000 		.4byte	ln_get_ell_body_equ_coords
 4803 1140 1C       		.uleb128 0x1c
 4804 1141 01       		.byte	0x1
 4805 1142 52       		.byte	0x52
 4806 1143 03       		.byte	0x3
 4807 1144 F3       		.byte	0xf3
 4808 1145 01       		.uleb128 0x1
 4809 1146 52       		.byte	0x52
 4810 1147 1C       		.uleb128 0x1c
 4811 1148 06       		.byte	0x6
 4812 1149 50       		.byte	0x50
 4813 114a 93       		.byte	0x93
 4814 114b 04       		.uleb128 0x4
 4815 114c 51       		.byte	0x51
 4816 114d 93       		.byte	0x93
 4817 114e 04       		.uleb128 0x4
 4818 114f 05       		.byte	0x5
 4819 1150 F3       		.byte	0xf3
 4820 1151 03       		.uleb128 0x3
ARM GAS  /tmp/cctkbEOJ.s 			page 86


 4821 1152 F5       		.byte	0xf5
 4822 1153 00       		.uleb128 0
 4823 1154 29       		.uleb128 0x29
 4824 1155 1C       		.uleb128 0x1c
 4825 1156 02       		.byte	0x2
 4826 1157 7D       		.byte	0x7d
 4827 1158 10       		.sleb128 16
 4828 1159 03       		.byte	0x3
 4829 115a 91       		.byte	0x91
 4830 115b 08       		.sleb128 8
 4831 115c 06       		.byte	0x6
 4832 115d 1C       		.uleb128 0x1c
 4833 115e 02       		.byte	0x2
 4834 115f 7D       		.byte	0x7d
 4835 1160 08       		.sleb128 8
 4836 1161 03       		.byte	0x3
 4837 1162 F5       		.byte	0xf5
 4838 1163 04       		.uleb128 0x4
 4839 1164 29       		.uleb128 0x29
 4840 1165 1C       		.uleb128 0x1c
 4841 1166 02       		.byte	0x2
 4842 1167 7D       		.byte	0x7d
 4843 1168 00       		.sleb128 0
 4844 1169 03       		.byte	0x3
 4845 116a F3       		.byte	0xf3
 4846 116b 01       		.uleb128 0x1
 4847 116c 53       		.byte	0x53
 4848 116d 00       		.byte	0
 4849 116e 00       		.byte	0
 4850 116f 2F       		.uleb128 0x2f
 4851 1170 01       		.byte	0x1
 4852 1171 3D040000 		.4byte	.LASF66
 4853 1175 01       		.byte	0x1
 4854 1176 1902     		.2byte	0x219
 4855 1178 01       		.byte	0x1
 4856 1179 4C000000 		.4byte	0x4c
 4857 117d 00000000 		.4byte	.LFB21
 4858 1181 28000000 		.4byte	.LFE21
 4859 1185 E50F0000 		.4byte	.LLST106
 4860 1189 01       		.byte	0x1
 4861 118a 0A120000 		.4byte	0x120a
 4862 118e 27       		.uleb128 0x27
 4863 118f 4A4400   		.ascii	"JD\000"
 4864 1192 01       		.byte	0x1
 4865 1193 1902     		.2byte	0x219
 4866 1195 29000000 		.4byte	0x29
 4867 1199 11100000 		.4byte	.LLST107
 4868 119d 28       		.uleb128 0x28
 4869 119e 8D040000 		.4byte	.LASF62
 4870 11a2 01       		.byte	0x1
 4871 11a3 1902     		.2byte	0x219
 4872 11a5 1B100000 		.4byte	0x101b
 4873 11a9 39100000 		.4byte	.LLST108
 4874 11ad 28       		.uleb128 0x28
 4875 11ae 1B060000 		.4byte	.LASF33
 4876 11b2 01       		.byte	0x1
 4877 11b3 1902     		.2byte	0x219
ARM GAS  /tmp/cctkbEOJ.s 			page 87


 4878 11b5 EB070000 		.4byte	0x7eb
 4879 11b9 5A100000 		.4byte	.LLST109
 4880 11bd 33       		.uleb128 0x33
 4881 11be 72737400 		.ascii	"rst\000"
 4882 11c2 01       		.byte	0x1
 4883 11c3 1902     		.2byte	0x219
 4884 11c5 21100000 		.4byte	0x1021
 4885 11c9 02       		.byte	0x2
 4886 11ca 91       		.byte	0x91
 4887 11cb 00       		.sleb128 0
 4888 11cc 1E       		.uleb128 0x1e
 4889 11cd 16000000 		.4byte	.LVL356
 4890 11d1 C2100000 		.4byte	0x10c2
 4891 11d5 1C       		.uleb128 0x1c
 4892 11d6 01       		.byte	0x1
 4893 11d7 53       		.byte	0x53
 4894 11d8 03       		.byte	0x3
 4895 11d9 F3       		.byte	0xf3
 4896 11da 01       		.uleb128 0x1
 4897 11db 53       		.byte	0x53
 4898 11dc 1C       		.uleb128 0x1c
 4899 11dd 01       		.byte	0x1
 4900 11de 52       		.byte	0x52
 4901 11df 03       		.byte	0x3
 4902 11e0 F3       		.byte	0xf3
 4903 11e1 01       		.uleb128 0x1
 4904 11e2 52       		.byte	0x52
 4905 11e3 1C       		.uleb128 0x1c
 4906 11e4 06       		.byte	0x6
 4907 11e5 50       		.byte	0x50
 4908 11e6 93       		.byte	0x93
 4909 11e7 04       		.uleb128 0x4
 4910 11e8 51       		.byte	0x51
 4911 11e9 93       		.byte	0x93
 4912 11ea 04       		.uleb128 0x4
 4913 11eb 05       		.byte	0x5
 4914 11ec F3       		.byte	0xf3
 4915 11ed 03       		.uleb128 0x3
 4916 11ee F5       		.byte	0xf5
 4917 11ef 00       		.uleb128 0
 4918 11f0 29       		.uleb128 0x29
 4919 11f1 1C       		.uleb128 0x1c
 4920 11f2 02       		.byte	0x2
 4921 11f3 7D       		.byte	0x7d
 4922 11f4 08       		.sleb128 8
 4923 11f5 02       		.byte	0x2
 4924 11f6 74       		.byte	0x74
 4925 11f7 00       		.sleb128 0
 4926 11f8 1C       		.uleb128 0x1c
 4927 11f9 02       		.byte	0x2
 4928 11fa 7D       		.byte	0x7d
 4929 11fb 00       		.sleb128 0
 4930 11fc 0B       		.byte	0xb
 4931 11fd F4       		.byte	0xf4
 4932 11fe 29       		.uleb128 0x29
 4933 11ff 08       		.byte	0x8
 4934 1200 1895D409 		.4byte	0x9d49518
ARM GAS  /tmp/cctkbEOJ.s 			page 88


 4935 1204 6822E2BF 		.4byte	0xbfe22268
 4936 1208 00       		.byte	0
 4937 1209 00       		.byte	0
 4938 120a 2F       		.uleb128 0x2f
 4939 120b 01       		.byte	0x1
 4940 120c 39000000 		.4byte	.LASF67
 4941 1210 01       		.byte	0x1
 4942 1211 4402     		.2byte	0x244
 4943 1213 01       		.byte	0x1
 4944 1214 4C000000 		.4byte	0x4c
 4945 1218 00000000 		.4byte	.LFB23
 4946 121c 26000000 		.4byte	.LFE23
 4947 1220 7B100000 		.4byte	.LLST110
 4948 1224 01       		.byte	0x1
 4949 1225 CE120000 		.4byte	0x12ce
 4950 1229 27       		.uleb128 0x27
 4951 122a 4A4400   		.ascii	"JD\000"
 4952 122d 01       		.byte	0x1
 4953 122e 4402     		.2byte	0x244
 4954 1230 29000000 		.4byte	0x29
 4955 1234 A7100000 		.4byte	.LLST111
 4956 1238 28       		.uleb128 0x28
 4957 1239 8D040000 		.4byte	.LASF62
 4958 123d 01       		.byte	0x1
 4959 123e 4402     		.2byte	0x244
 4960 1240 1B100000 		.4byte	0x101b
 4961 1244 CF100000 		.4byte	.LLST112
 4962 1248 28       		.uleb128 0x28
 4963 1249 1B060000 		.4byte	.LASF33
 4964 124d 01       		.byte	0x1
 4965 124e 4402     		.2byte	0x244
 4966 1250 EB070000 		.4byte	0x7eb
 4967 1254 F0100000 		.4byte	.LLST113
 4968 1258 32       		.uleb128 0x32
 4969 1259 FF000000 		.4byte	.LASF63
 4970 125d 01       		.byte	0x1
 4971 125e 4402     		.2byte	0x244
 4972 1260 29000000 		.4byte	0x29
 4973 1264 02       		.byte	0x2
 4974 1265 91       		.byte	0x91
 4975 1266 00       		.sleb128 0
 4976 1267 32       		.uleb128 0x32
 4977 1268 17050000 		.4byte	.LASF68
 4978 126c 01       		.byte	0x1
 4979 126d 4402     		.2byte	0x244
 4980 126f 4C000000 		.4byte	0x4c
 4981 1273 02       		.byte	0x2
 4982 1274 91       		.byte	0x91
 4983 1275 08       		.sleb128 8
 4984 1276 33       		.uleb128 0x33
 4985 1277 72737400 		.ascii	"rst\000"
 4986 127b 01       		.byte	0x1
 4987 127c 4402     		.2byte	0x244
 4988 127e 21100000 		.4byte	0x1021
 4989 1282 02       		.byte	0x2
 4990 1283 91       		.byte	0x91
 4991 1284 0C       		.sleb128 12
ARM GAS  /tmp/cctkbEOJ.s 			page 89


 4992 1285 1E       		.uleb128 0x1e
 4993 1286 22000000 		.4byte	.LVL359
 4994 128a 26150000 		.4byte	0x1526
 4995 128e 1C       		.uleb128 0x1c
 4996 128f 01       		.byte	0x1
 4997 1290 53       		.byte	0x53
 4998 1291 05       		.byte	0x5
 4999 1292 03       		.byte	0x3
 5000 1293 00000000 		.4byte	ln_get_ell_body_equ_coords
 5001 1297 1C       		.uleb128 0x1c
 5002 1298 01       		.byte	0x1
 5003 1299 52       		.byte	0x52
 5004 129a 03       		.byte	0x3
 5005 129b F3       		.byte	0xf3
 5006 129c 01       		.uleb128 0x1
 5007 129d 52       		.byte	0x52
 5008 129e 1C       		.uleb128 0x1c
 5009 129f 06       		.byte	0x6
 5010 12a0 50       		.byte	0x50
 5011 12a1 93       		.byte	0x93
 5012 12a2 04       		.uleb128 0x4
 5013 12a3 51       		.byte	0x51
 5014 12a4 93       		.byte	0x93
 5015 12a5 04       		.uleb128 0x4
 5016 12a6 05       		.byte	0x5
 5017 12a7 F3       		.byte	0xf3
 5018 12a8 03       		.uleb128 0x3
 5019 12a9 F5       		.byte	0xf5
 5020 12aa 00       		.uleb128 0
 5021 12ab 29       		.uleb128 0x29
 5022 12ac 1C       		.uleb128 0x1c
 5023 12ad 02       		.byte	0x2
 5024 12ae 7D       		.byte	0x7d
 5025 12af 14       		.sleb128 20
 5026 12b0 03       		.byte	0x3
 5027 12b1 91       		.byte	0x91
 5028 12b2 0C       		.sleb128 12
 5029 12b3 06       		.byte	0x6
 5030 12b4 1C       		.uleb128 0x1c
 5031 12b5 02       		.byte	0x2
 5032 12b6 7D       		.byte	0x7d
 5033 12b7 10       		.sleb128 16
 5034 12b8 03       		.byte	0x3
 5035 12b9 91       		.byte	0x91
 5036 12ba 08       		.sleb128 8
 5037 12bb 06       		.byte	0x6
 5038 12bc 1C       		.uleb128 0x1c
 5039 12bd 02       		.byte	0x2
 5040 12be 7D       		.byte	0x7d
 5041 12bf 08       		.sleb128 8
 5042 12c0 03       		.byte	0x3
 5043 12c1 F5       		.byte	0xf5
 5044 12c2 04       		.uleb128 0x4
 5045 12c3 29       		.uleb128 0x29
 5046 12c4 1C       		.uleb128 0x1c
 5047 12c5 02       		.byte	0x2
 5048 12c6 7D       		.byte	0x7d
ARM GAS  /tmp/cctkbEOJ.s 			page 90


 5049 12c7 00       		.sleb128 0
 5050 12c8 03       		.byte	0x3
 5051 12c9 F3       		.byte	0xf3
 5052 12ca 01       		.uleb128 0x1
 5053 12cb 53       		.byte	0x53
 5054 12cc 00       		.byte	0
 5055 12cd 00       		.byte	0
 5056 12ce 2E       		.uleb128 0x2e
 5057 12cf 01       		.byte	0x1
 5058 12d0 FC040000 		.4byte	.LASF69
 5059 12d4 01       		.byte	0x1
 5060 12d5 5002     		.2byte	0x250
 5061 12d7 01       		.byte	0x1
 5062 12d8 29000000 		.4byte	0x29
 5063 12dc 00000000 		.4byte	.LFB24
 5064 12e0 20000000 		.4byte	.LFE24
 5065 12e4 1D110000 		.4byte	.LLST114
 5066 12e8 01       		.byte	0x1
 5067 12e9 19130000 		.4byte	0x1319
 5068 12ed 28       		.uleb128 0x28
 5069 12ee 4F010000 		.4byte	.LASF70
 5070 12f2 01       		.byte	0x1
 5071 12f3 5002     		.2byte	0x250
 5072 12f5 29000000 		.4byte	0x29
 5073 12f9 3D110000 		.4byte	.LLST115
 5074 12fd 27       		.uleb128 0x27
 5075 12fe 4D00     		.ascii	"M\000"
 5076 1300 01       		.byte	0x1
 5077 1301 5002     		.2byte	0x250
 5078 1303 29000000 		.4byte	0x29
 5079 1307 65110000 		.4byte	.LLST116
 5080 130b 33       		.uleb128 0x33
 5081 130c 6E00     		.ascii	"n\000"
 5082 130e 01       		.byte	0x1
 5083 130f 5002     		.2byte	0x250
 5084 1311 29000000 		.4byte	0x29
 5085 1315 02       		.byte	0x2
 5086 1316 91       		.byte	0x91
 5087 1317 00       		.sleb128 0
 5088 1318 00       		.byte	0
 5089 1319 34       		.uleb128 0x34
 5090 131a 01       		.byte	0x1
 5091 131b 72050000 		.4byte	.LASF72
 5092 131f 03       		.byte	0x3
 5093 1320 53       		.byte	0x53
 5094 1321 01       		.byte	0x1
 5095 1322 29000000 		.4byte	0x29
 5096 1326 01       		.byte	0x1
 5097 1327 31130000 		.4byte	0x1331
 5098 132b 0D       		.uleb128 0xd
 5099 132c 29000000 		.4byte	0x29
 5100 1330 00       		.byte	0
 5101 1331 35       		.uleb128 0x35
 5102 1332 01       		.byte	0x1
 5103 1333 73696E00 		.ascii	"sin\000"
 5104 1337 04       		.byte	0x4
 5105 1338 6E       		.byte	0x6e
ARM GAS  /tmp/cctkbEOJ.s 			page 91


 5106 1339 01       		.byte	0x1
 5107 133a 29000000 		.4byte	0x29
 5108 133e 01       		.byte	0x1
 5109 133f 49130000 		.4byte	0x1349
 5110 1343 0D       		.uleb128 0xd
 5111 1344 29000000 		.4byte	0x29
 5112 1348 00       		.byte	0
 5113 1349 34       		.uleb128 0x34
 5114 134a 01       		.byte	0x1
 5115 134b 00000000 		.4byte	.LASF73
 5116 134f 03       		.byte	0x3
 5117 1350 4D       		.byte	0x4d
 5118 1351 01       		.byte	0x1
 5119 1352 29000000 		.4byte	0x29
 5120 1356 01       		.byte	0x1
 5121 1357 61130000 		.4byte	0x1361
 5122 135b 0D       		.uleb128 0xd
 5123 135c 29000000 		.4byte	0x29
 5124 1360 00       		.byte	0
 5125 1361 34       		.uleb128 0x34
 5126 1362 01       		.byte	0x1
 5127 1363 E7050000 		.4byte	.LASF74
 5128 1367 04       		.byte	0x4
 5129 1368 86       		.byte	0x86
 5130 1369 01       		.byte	0x1
 5131 136a 29000000 		.4byte	0x29
 5132 136e 01       		.byte	0x1
 5133 136f 79130000 		.4byte	0x1379
 5134 1373 0D       		.uleb128 0xd
 5135 1374 29000000 		.4byte	0x29
 5136 1378 00       		.byte	0
 5137 1379 35       		.uleb128 0x35
 5138 137a 01       		.byte	0x1
 5139 137b 74616E00 		.ascii	"tan\000"
 5140 137f 04       		.byte	0x4
 5141 1380 6F       		.byte	0x6f
 5142 1381 01       		.byte	0x1
 5143 1382 29000000 		.4byte	0x29
 5144 1386 01       		.byte	0x1
 5145 1387 91130000 		.4byte	0x1391
 5146 138b 0D       		.uleb128 0xd
 5147 138c 29000000 		.4byte	0x29
 5148 1390 00       		.byte	0
 5149 1391 34       		.uleb128 0x34
 5150 1392 01       		.byte	0x1
 5151 1393 F7040000 		.4byte	.LASF75
 5152 1397 04       		.byte	0x4
 5153 1398 6C       		.byte	0x6c
 5154 1399 01       		.byte	0x1
 5155 139a 29000000 		.4byte	0x29
 5156 139e 01       		.byte	0x1
 5157 139f A9130000 		.4byte	0x13a9
 5158 13a3 0D       		.uleb128 0xd
 5159 13a4 29000000 		.4byte	0x29
 5160 13a8 00       		.byte	0
 5161 13a9 34       		.uleb128 0x34
 5162 13aa 01       		.byte	0x1
ARM GAS  /tmp/cctkbEOJ.s 			page 92


 5163 13ab CB020000 		.4byte	.LASF76
 5164 13af 03       		.byte	0x3
 5165 13b0 BF       		.byte	0xbf
 5166 13b1 01       		.byte	0x1
 5167 13b2 29000000 		.4byte	0x29
 5168 13b6 01       		.byte	0x1
 5169 13b7 C1130000 		.4byte	0x13c1
 5170 13bb 0D       		.uleb128 0xd
 5171 13bc 29000000 		.4byte	0x29
 5172 13c0 00       		.byte	0
 5173 13c1 35       		.uleb128 0x35
 5174 13c2 01       		.byte	0x1
 5175 13c3 636F7300 		.ascii	"cos\000"
 5176 13c7 04       		.byte	0x4
 5177 13c8 6D       		.byte	0x6d
 5178 13c9 01       		.byte	0x1
 5179 13ca 29000000 		.4byte	0x29
 5180 13ce 01       		.byte	0x1
 5181 13cf D9130000 		.4byte	0x13d9
 5182 13d3 0D       		.uleb128 0xd
 5183 13d4 29000000 		.4byte	0x29
 5184 13d8 00       		.byte	0
 5185 13d9 34       		.uleb128 0x34
 5186 13da 01       		.byte	0x1
 5187 13db F1040000 		.4byte	.LASF77
 5188 13df 04       		.byte	0x4
 5189 13e0 7E       		.byte	0x7e
 5190 13e1 01       		.byte	0x1
 5191 13e2 29000000 		.4byte	0x29
 5192 13e6 01       		.byte	0x1
 5193 13e7 F6130000 		.4byte	0x13f6
 5194 13eb 0D       		.uleb128 0xd
 5195 13ec 29000000 		.4byte	0x29
 5196 13f0 0D       		.uleb128 0xd
 5197 13f1 29000000 		.4byte	0x29
 5198 13f5 00       		.byte	0
 5199 13f6 36       		.uleb128 0x36
 5200 13f7 01       		.byte	0x1
 5201 13f8 B0010000 		.4byte	.LASF81
 5202 13fc 05       		.byte	0x5
 5203 13fd 4B       		.byte	0x4b
 5204 13fe 01       		.byte	0x1
 5205 13ff 01       		.byte	0x1
 5206 1400 0F140000 		.4byte	0x140f
 5207 1404 0D       		.uleb128 0xd
 5208 1405 29000000 		.4byte	0x29
 5209 1409 0D       		.uleb128 0xd
 5210 140a F1070000 		.4byte	0x7f1
 5211 140e 00       		.byte	0
 5212 140f 34       		.uleb128 0x34
 5213 1410 01       		.byte	0x1
 5214 1411 53050000 		.4byte	.LASF78
 5215 1415 03       		.byte	0x3
 5216 1416 42       		.byte	0x42
 5217 1417 01       		.byte	0x1
 5218 1418 29000000 		.4byte	0x29
 5219 141c 01       		.byte	0x1
ARM GAS  /tmp/cctkbEOJ.s 			page 93


 5220 141d 2C140000 		.4byte	0x142c
 5221 1421 0D       		.uleb128 0xd
 5222 1422 F1070000 		.4byte	0x7f1
 5223 1426 0D       		.uleb128 0xd
 5224 1427 F1070000 		.4byte	0x7f1
 5225 142b 00       		.byte	0
 5226 142c 34       		.uleb128 0x34
 5227 142d 01       		.byte	0x1
 5228 142e 88020000 		.4byte	.LASF79
 5229 1432 03       		.byte	0x3
 5230 1433 CD       		.byte	0xcd
 5231 1434 01       		.byte	0x1
 5232 1435 29000000 		.4byte	0x29
 5233 1439 01       		.byte	0x1
 5234 143a 44140000 		.4byte	0x1444
 5235 143e 0D       		.uleb128 0xd
 5236 143f 29000000 		.4byte	0x29
 5237 1443 00       		.byte	0
 5238 1444 34       		.uleb128 0x34
 5239 1445 01       		.byte	0x1
 5240 1446 8C000000 		.4byte	.LASF80
 5241 144a 04       		.byte	0x4
 5242 144b 7D       		.byte	0x7d
 5243 144c 01       		.byte	0x1
 5244 144d 29000000 		.4byte	0x29
 5245 1451 01       		.byte	0x1
 5246 1452 5C140000 		.4byte	0x145c
 5247 1456 0D       		.uleb128 0xd
 5248 1457 29000000 		.4byte	0x29
 5249 145b 00       		.byte	0
 5250 145c 36       		.uleb128 0x36
 5251 145d 01       		.byte	0x1
 5252 145e CD050000 		.4byte	.LASF82
 5253 1462 06       		.byte	0x6
 5254 1463 2D       		.byte	0x2d
 5255 1464 01       		.byte	0x1
 5256 1465 01       		.byte	0x1
 5257 1466 75140000 		.4byte	0x1475
 5258 146a 0D       		.uleb128 0xd
 5259 146b 29000000 		.4byte	0x29
 5260 146f 0D       		.uleb128 0xd
 5261 1470 75140000 		.4byte	0x1475
 5262 1474 00       		.byte	0
 5263 1475 0B       		.uleb128 0xb
 5264 1476 04       		.byte	0x4
 5265 1477 E5000000 		.4byte	0xe5
 5266 147b 36       		.uleb128 0x36
 5267 147c 01       		.byte	0x1
 5268 147d B6050000 		.4byte	.LASF83
 5269 1481 07       		.byte	0x7
 5270 1482 4A       		.byte	0x4a
 5271 1483 01       		.byte	0x1
 5272 1484 01       		.byte	0x1
 5273 1485 94140000 		.4byte	0x1494
 5274 1489 0D       		.uleb128 0xd
 5275 148a 75140000 		.4byte	0x1475
 5276 148e 0D       		.uleb128 0xd
ARM GAS  /tmp/cctkbEOJ.s 			page 94


 5277 148f F1070000 		.4byte	0x7f1
 5278 1493 00       		.byte	0
 5279 1494 34       		.uleb128 0x34
 5280 1495 01       		.byte	0x1
 5281 1496 A2040000 		.4byte	.LASF84
 5282 149a 04       		.byte	0x4
 5283 149b 7C       		.byte	0x7c
 5284 149c 01       		.byte	0x1
 5285 149d 29000000 		.4byte	0x29
 5286 14a1 01       		.byte	0x1
 5287 14a2 AC140000 		.4byte	0x14ac
 5288 14a6 0D       		.uleb128 0xd
 5289 14a7 29000000 		.4byte	0x29
 5290 14ab 00       		.byte	0
 5291 14ac 34       		.uleb128 0x34
 5292 14ad 01       		.byte	0x1
 5293 14ae B1030000 		.4byte	.LASF85
 5294 14b2 06       		.byte	0x6
 5295 14b3 35       		.byte	0x35
 5296 14b4 01       		.byte	0x1
 5297 14b5 29000000 		.4byte	0x29
 5298 14b9 01       		.byte	0x1
 5299 14ba C4140000 		.4byte	0x14c4
 5300 14be 0D       		.uleb128 0xd
 5301 14bf 29000000 		.4byte	0x29
 5302 14c3 00       		.byte	0
 5303 14c4 34       		.uleb128 0x34
 5304 14c5 01       		.byte	0x1
 5305 14c6 64040000 		.4byte	.LASF86
 5306 14ca 08       		.byte	0x8
 5307 14cb 5E       		.byte	0x5e
 5308 14cc 01       		.byte	0x1
 5309 14cd 4C000000 		.4byte	0x4c
 5310 14d1 01       		.byte	0x1
 5311 14d2 F5140000 		.4byte	0x14f5
 5312 14d6 0D       		.uleb128 0xd
 5313 14d7 29000000 		.4byte	0x29
 5314 14db 0D       		.uleb128 0xd
 5315 14dc 1B100000 		.4byte	0x101b
 5316 14e0 0D       		.uleb128 0xd
 5317 14e1 EE010000 		.4byte	0x1ee
 5318 14e5 0D       		.uleb128 0xd
 5319 14e6 76000000 		.4byte	0x76
 5320 14ea 0D       		.uleb128 0xd
 5321 14eb 29000000 		.4byte	0x29
 5322 14ef 0D       		.uleb128 0xd
 5323 14f0 21100000 		.4byte	0x1021
 5324 14f4 00       		.byte	0
 5325 14f5 34       		.uleb128 0x34
 5326 14f6 01       		.byte	0x1
 5327 14f7 43030000 		.4byte	.LASF87
 5328 14fb 08       		.byte	0x8
 5329 14fc 65       		.byte	0x65
 5330 14fd 01       		.byte	0x1
 5331 14fe 4C000000 		.4byte	0x4c
 5332 1502 01       		.byte	0x1
 5333 1503 26150000 		.4byte	0x1526
ARM GAS  /tmp/cctkbEOJ.s 			page 95


 5334 1507 0D       		.uleb128 0xd
 5335 1508 29000000 		.4byte	0x29
 5336 150c 0D       		.uleb128 0xd
 5337 150d 1B100000 		.4byte	0x101b
 5338 1511 0D       		.uleb128 0xd
 5339 1512 EE010000 		.4byte	0x1ee
 5340 1516 0D       		.uleb128 0xd
 5341 1517 76000000 		.4byte	0x76
 5342 151b 0D       		.uleb128 0xd
 5343 151c 29000000 		.4byte	0x29
 5344 1520 0D       		.uleb128 0xd
 5345 1521 21100000 		.4byte	0x1021
 5346 1525 00       		.byte	0
 5347 1526 37       		.uleb128 0x37
 5348 1527 01       		.byte	0x1
 5349 1528 0E000000 		.4byte	.LASF88
 5350 152c 08       		.byte	0x8
 5351 152d 6C       		.byte	0x6c
 5352 152e 01       		.byte	0x1
 5353 152f 4C000000 		.4byte	0x4c
 5354 1533 01       		.byte	0x1
 5355 1534 0D       		.uleb128 0xd
 5356 1535 29000000 		.4byte	0x29
 5357 1539 0D       		.uleb128 0xd
 5358 153a 1B100000 		.4byte	0x101b
 5359 153e 0D       		.uleb128 0xd
 5360 153f EE010000 		.4byte	0x1ee
 5361 1543 0D       		.uleb128 0xd
 5362 1544 76000000 		.4byte	0x76
 5363 1548 0D       		.uleb128 0xd
 5364 1549 29000000 		.4byte	0x29
 5365 154d 0D       		.uleb128 0xd
 5366 154e 4C000000 		.4byte	0x4c
 5367 1552 0D       		.uleb128 0xd
 5368 1553 21100000 		.4byte	0x1021
 5369 1557 00       		.byte	0
 5370 1558 00       		.byte	0
 5371              		.section	.debug_abbrev,"",%progbits
 5372              	.Ldebug_abbrev0:
 5373 0000 01       		.uleb128 0x1
 5374 0001 11       		.uleb128 0x11
 5375 0002 01       		.byte	0x1
 5376 0003 25       		.uleb128 0x25
 5377 0004 0E       		.uleb128 0xe
 5378 0005 13       		.uleb128 0x13
 5379 0006 0B       		.uleb128 0xb
 5380 0007 03       		.uleb128 0x3
 5381 0008 0E       		.uleb128 0xe
 5382 0009 1B       		.uleb128 0x1b
 5383 000a 0E       		.uleb128 0xe
 5384 000b 55       		.uleb128 0x55
 5385 000c 06       		.uleb128 0x6
 5386 000d 11       		.uleb128 0x11
 5387 000e 01       		.uleb128 0x1
 5388 000f 52       		.uleb128 0x52
 5389 0010 01       		.uleb128 0x1
 5390 0011 10       		.uleb128 0x10
ARM GAS  /tmp/cctkbEOJ.s 			page 96


 5391 0012 06       		.uleb128 0x6
 5392 0013 00       		.byte	0
 5393 0014 00       		.byte	0
 5394 0015 02       		.uleb128 0x2
 5395 0016 24       		.uleb128 0x24
 5396 0017 00       		.byte	0
 5397 0018 0B       		.uleb128 0xb
 5398 0019 0B       		.uleb128 0xb
 5399 001a 3E       		.uleb128 0x3e
 5400 001b 0B       		.uleb128 0xb
 5401 001c 03       		.uleb128 0x3
 5402 001d 0E       		.uleb128 0xe
 5403 001e 00       		.byte	0
 5404 001f 00       		.byte	0
 5405 0020 03       		.uleb128 0x3
 5406 0021 24       		.uleb128 0x24
 5407 0022 00       		.byte	0
 5408 0023 0B       		.uleb128 0xb
 5409 0024 0B       		.uleb128 0xb
 5410 0025 3E       		.uleb128 0x3e
 5411 0026 0B       		.uleb128 0xb
 5412 0027 03       		.uleb128 0x3
 5413 0028 08       		.uleb128 0x8
 5414 0029 00       		.byte	0
 5415 002a 00       		.byte	0
 5416 002b 04       		.uleb128 0x4
 5417 002c 0F       		.uleb128 0xf
 5418 002d 00       		.byte	0
 5419 002e 0B       		.uleb128 0xb
 5420 002f 0B       		.uleb128 0xb
 5421 0030 00       		.byte	0
 5422 0031 00       		.byte	0
 5423 0032 05       		.uleb128 0x5
 5424 0033 13       		.uleb128 0x13
 5425 0034 01       		.byte	0x1
 5426 0035 03       		.uleb128 0x3
 5427 0036 0E       		.uleb128 0xe
 5428 0037 0B       		.uleb128 0xb
 5429 0038 0B       		.uleb128 0xb
 5430 0039 3A       		.uleb128 0x3a
 5431 003a 0B       		.uleb128 0xb
 5432 003b 3B       		.uleb128 0x3b
 5433 003c 0B       		.uleb128 0xb
 5434 003d 01       		.uleb128 0x1
 5435 003e 13       		.uleb128 0x13
 5436 003f 00       		.byte	0
 5437 0040 00       		.byte	0
 5438 0041 06       		.uleb128 0x6
 5439 0042 0D       		.uleb128 0xd
 5440 0043 00       		.byte	0
 5441 0044 03       		.uleb128 0x3
 5442 0045 08       		.uleb128 0x8
 5443 0046 3A       		.uleb128 0x3a
 5444 0047 0B       		.uleb128 0xb
 5445 0048 3B       		.uleb128 0x3b
 5446 0049 0B       		.uleb128 0xb
 5447 004a 49       		.uleb128 0x49
ARM GAS  /tmp/cctkbEOJ.s 			page 97


 5448 004b 13       		.uleb128 0x13
 5449 004c 38       		.uleb128 0x38
 5450 004d 0A       		.uleb128 0xa
 5451 004e 00       		.byte	0
 5452 004f 00       		.byte	0
 5453 0050 07       		.uleb128 0x7
 5454 0051 13       		.uleb128 0x13
 5455 0052 01       		.byte	0x1
 5456 0053 03       		.uleb128 0x3
 5457 0054 0E       		.uleb128 0xe
 5458 0055 0B       		.uleb128 0xb
 5459 0056 0B       		.uleb128 0xb
 5460 0057 3A       		.uleb128 0x3a
 5461 0058 0B       		.uleb128 0xb
 5462 0059 3B       		.uleb128 0x3b
 5463 005a 05       		.uleb128 0x5
 5464 005b 01       		.uleb128 0x1
 5465 005c 13       		.uleb128 0x13
 5466 005d 00       		.byte	0
 5467 005e 00       		.byte	0
 5468 005f 08       		.uleb128 0x8
 5469 0060 0D       		.uleb128 0xd
 5470 0061 00       		.byte	0
 5471 0062 03       		.uleb128 0x3
 5472 0063 08       		.uleb128 0x8
 5473 0064 3A       		.uleb128 0x3a
 5474 0065 0B       		.uleb128 0xb
 5475 0066 3B       		.uleb128 0x3b
 5476 0067 05       		.uleb128 0x5
 5477 0068 49       		.uleb128 0x49
 5478 0069 13       		.uleb128 0x13
 5479 006a 38       		.uleb128 0x38
 5480 006b 0A       		.uleb128 0xa
 5481 006c 00       		.byte	0
 5482 006d 00       		.byte	0
 5483 006e 09       		.uleb128 0x9
 5484 006f 0D       		.uleb128 0xd
 5485 0070 00       		.byte	0
 5486 0071 03       		.uleb128 0x3
 5487 0072 0E       		.uleb128 0xe
 5488 0073 3A       		.uleb128 0x3a
 5489 0074 0B       		.uleb128 0xb
 5490 0075 3B       		.uleb128 0x3b
 5491 0076 05       		.uleb128 0x5
 5492 0077 49       		.uleb128 0x49
 5493 0078 13       		.uleb128 0x13
 5494 0079 38       		.uleb128 0x38
 5495 007a 0A       		.uleb128 0xa
 5496 007b 00       		.byte	0
 5497 007c 00       		.byte	0
 5498 007d 0A       		.uleb128 0xa
 5499 007e 16       		.uleb128 0x16
 5500 007f 00       		.byte	0
 5501 0080 03       		.uleb128 0x3
 5502 0081 0E       		.uleb128 0xe
 5503 0082 3A       		.uleb128 0x3a
 5504 0083 0B       		.uleb128 0xb
ARM GAS  /tmp/cctkbEOJ.s 			page 98


 5505 0084 3B       		.uleb128 0x3b
 5506 0085 0B       		.uleb128 0xb
 5507 0086 49       		.uleb128 0x49
 5508 0087 13       		.uleb128 0x13
 5509 0088 00       		.byte	0
 5510 0089 00       		.byte	0
 5511 008a 0B       		.uleb128 0xb
 5512 008b 0F       		.uleb128 0xf
 5513 008c 00       		.byte	0
 5514 008d 0B       		.uleb128 0xb
 5515 008e 0B       		.uleb128 0xb
 5516 008f 49       		.uleb128 0x49
 5517 0090 13       		.uleb128 0x13
 5518 0091 00       		.byte	0
 5519 0092 00       		.byte	0
 5520 0093 0C       		.uleb128 0xc
 5521 0094 15       		.uleb128 0x15
 5522 0095 01       		.byte	0x1
 5523 0096 27       		.uleb128 0x27
 5524 0097 0C       		.uleb128 0xc
 5525 0098 01       		.uleb128 0x1
 5526 0099 13       		.uleb128 0x13
 5527 009a 00       		.byte	0
 5528 009b 00       		.byte	0
 5529 009c 0D       		.uleb128 0xd
 5530 009d 05       		.uleb128 0x5
 5531 009e 00       		.byte	0
 5532 009f 49       		.uleb128 0x49
 5533 00a0 13       		.uleb128 0x13
 5534 00a1 00       		.byte	0
 5535 00a2 00       		.byte	0
 5536 00a3 0E       		.uleb128 0xe
 5537 00a4 2E       		.uleb128 0x2e
 5538 00a5 01       		.byte	0x1
 5539 00a6 03       		.uleb128 0x3
 5540 00a7 08       		.uleb128 0x8
 5541 00a8 3A       		.uleb128 0x3a
 5542 00a9 0B       		.uleb128 0xb
 5543 00aa 3B       		.uleb128 0x3b
 5544 00ab 0B       		.uleb128 0xb
 5545 00ac 27       		.uleb128 0x27
 5546 00ad 0C       		.uleb128 0xc
 5547 00ae 49       		.uleb128 0x49
 5548 00af 13       		.uleb128 0x13
 5549 00b0 20       		.uleb128 0x20
 5550 00b1 0B       		.uleb128 0xb
 5551 00b2 01       		.uleb128 0x1
 5552 00b3 13       		.uleb128 0x13
 5553 00b4 00       		.byte	0
 5554 00b5 00       		.byte	0
 5555 00b6 0F       		.uleb128 0xf
 5556 00b7 05       		.uleb128 0x5
 5557 00b8 00       		.byte	0
 5558 00b9 03       		.uleb128 0x3
 5559 00ba 08       		.uleb128 0x8
 5560 00bb 3A       		.uleb128 0x3a
 5561 00bc 0B       		.uleb128 0xb
ARM GAS  /tmp/cctkbEOJ.s 			page 99


 5562 00bd 3B       		.uleb128 0x3b
 5563 00be 0B       		.uleb128 0xb
 5564 00bf 49       		.uleb128 0x49
 5565 00c0 13       		.uleb128 0x13
 5566 00c1 00       		.byte	0
 5567 00c2 00       		.byte	0
 5568 00c3 10       		.uleb128 0x10
 5569 00c4 2E       		.uleb128 0x2e
 5570 00c5 01       		.byte	0x1
 5571 00c6 3F       		.uleb128 0x3f
 5572 00c7 0C       		.uleb128 0xc
 5573 00c8 03       		.uleb128 0x3
 5574 00c9 0E       		.uleb128 0xe
 5575 00ca 3A       		.uleb128 0x3a
 5576 00cb 0B       		.uleb128 0xb
 5577 00cc 3B       		.uleb128 0x3b
 5578 00cd 0B       		.uleb128 0xb
 5579 00ce 27       		.uleb128 0x27
 5580 00cf 0C       		.uleb128 0xc
 5581 00d0 49       		.uleb128 0x49
 5582 00d1 13       		.uleb128 0x13
 5583 00d2 20       		.uleb128 0x20
 5584 00d3 0B       		.uleb128 0xb
 5585 00d4 01       		.uleb128 0x1
 5586 00d5 13       		.uleb128 0x13
 5587 00d6 00       		.byte	0
 5588 00d7 00       		.byte	0
 5589 00d8 11       		.uleb128 0x11
 5590 00d9 05       		.uleb128 0x5
 5591 00da 00       		.byte	0
 5592 00db 03       		.uleb128 0x3
 5593 00dc 0E       		.uleb128 0xe
 5594 00dd 3A       		.uleb128 0x3a
 5595 00de 0B       		.uleb128 0xb
 5596 00df 3B       		.uleb128 0x3b
 5597 00e0 0B       		.uleb128 0xb
 5598 00e1 49       		.uleb128 0x49
 5599 00e2 13       		.uleb128 0x13
 5600 00e3 00       		.byte	0
 5601 00e4 00       		.byte	0
 5602 00e5 12       		.uleb128 0x12
 5603 00e6 2E       		.uleb128 0x2e
 5604 00e7 01       		.byte	0x1
 5605 00e8 3F       		.uleb128 0x3f
 5606 00e9 0C       		.uleb128 0xc
 5607 00ea 03       		.uleb128 0x3
 5608 00eb 0E       		.uleb128 0xe
 5609 00ec 3A       		.uleb128 0x3a
 5610 00ed 0B       		.uleb128 0xb
 5611 00ee 3B       		.uleb128 0x3b
 5612 00ef 0B       		.uleb128 0xb
 5613 00f0 27       		.uleb128 0x27
 5614 00f1 0C       		.uleb128 0xc
 5615 00f2 49       		.uleb128 0x49
 5616 00f3 13       		.uleb128 0x13
 5617 00f4 11       		.uleb128 0x11
 5618 00f5 01       		.uleb128 0x1
ARM GAS  /tmp/cctkbEOJ.s 			page 100


 5619 00f6 12       		.uleb128 0x12
 5620 00f7 01       		.uleb128 0x1
 5621 00f8 40       		.uleb128 0x40
 5622 00f9 06       		.uleb128 0x6
 5623 00fa 9642     		.uleb128 0x2116
 5624 00fc 0C       		.uleb128 0xc
 5625 00fd 01       		.uleb128 0x1
 5626 00fe 13       		.uleb128 0x13
 5627 00ff 00       		.byte	0
 5628 0100 00       		.byte	0
 5629 0101 13       		.uleb128 0x13
 5630 0102 05       		.uleb128 0x5
 5631 0103 00       		.byte	0
 5632 0104 03       		.uleb128 0x3
 5633 0105 08       		.uleb128 0x8
 5634 0106 3A       		.uleb128 0x3a
 5635 0107 0B       		.uleb128 0xb
 5636 0108 3B       		.uleb128 0x3b
 5637 0109 0B       		.uleb128 0xb
 5638 010a 49       		.uleb128 0x49
 5639 010b 13       		.uleb128 0x13
 5640 010c 02       		.uleb128 0x2
 5641 010d 06       		.uleb128 0x6
 5642 010e 00       		.byte	0
 5643 010f 00       		.byte	0
 5644 0110 14       		.uleb128 0x14
 5645 0111 34       		.uleb128 0x34
 5646 0112 00       		.byte	0
 5647 0113 03       		.uleb128 0x3
 5648 0114 08       		.uleb128 0x8
 5649 0115 3A       		.uleb128 0x3a
 5650 0116 0B       		.uleb128 0xb
 5651 0117 3B       		.uleb128 0x3b
 5652 0118 0B       		.uleb128 0xb
 5653 0119 49       		.uleb128 0x49
 5654 011a 13       		.uleb128 0x13
 5655 011b 02       		.uleb128 0x2
 5656 011c 06       		.uleb128 0x6
 5657 011d 00       		.byte	0
 5658 011e 00       		.byte	0
 5659 011f 15       		.uleb128 0x15
 5660 0120 1D       		.uleb128 0x1d
 5661 0121 01       		.byte	0x1
 5662 0122 31       		.uleb128 0x31
 5663 0123 13       		.uleb128 0x13
 5664 0124 52       		.uleb128 0x52
 5665 0125 01       		.uleb128 0x1
 5666 0126 55       		.uleb128 0x55
 5667 0127 06       		.uleb128 0x6
 5668 0128 58       		.uleb128 0x58
 5669 0129 0B       		.uleb128 0xb
 5670 012a 59       		.uleb128 0x59
 5671 012b 0B       		.uleb128 0xb
 5672 012c 01       		.uleb128 0x1
 5673 012d 13       		.uleb128 0x13
 5674 012e 00       		.byte	0
 5675 012f 00       		.byte	0
ARM GAS  /tmp/cctkbEOJ.s 			page 101


 5676 0130 16       		.uleb128 0x16
 5677 0131 05       		.uleb128 0x5
 5678 0132 00       		.byte	0
 5679 0133 31       		.uleb128 0x31
 5680 0134 13       		.uleb128 0x13
 5681 0135 02       		.uleb128 0x2
 5682 0136 06       		.uleb128 0x6
 5683 0137 00       		.byte	0
 5684 0138 00       		.byte	0
 5685 0139 17       		.uleb128 0x17
 5686 013a 898201   		.uleb128 0x4109
 5687 013d 00       		.byte	0
 5688 013e 11       		.uleb128 0x11
 5689 013f 01       		.uleb128 0x1
 5690 0140 31       		.uleb128 0x31
 5691 0141 13       		.uleb128 0x13
 5692 0142 00       		.byte	0
 5693 0143 00       		.byte	0
 5694 0144 18       		.uleb128 0x18
 5695 0145 898201   		.uleb128 0x4109
 5696 0148 00       		.byte	0
 5697 0149 11       		.uleb128 0x11
 5698 014a 01       		.uleb128 0x1
 5699 014b 9542     		.uleb128 0x2115
 5700 014d 0C       		.uleb128 0xc
 5701 014e 31       		.uleb128 0x31
 5702 014f 13       		.uleb128 0x13
 5703 0150 00       		.byte	0
 5704 0151 00       		.byte	0
 5705 0152 19       		.uleb128 0x19
 5706 0153 2E       		.uleb128 0x2e
 5707 0154 01       		.byte	0x1
 5708 0155 31       		.uleb128 0x31
 5709 0156 13       		.uleb128 0x13
 5710 0157 11       		.uleb128 0x11
 5711 0158 01       		.uleb128 0x1
 5712 0159 12       		.uleb128 0x12
 5713 015a 01       		.uleb128 0x1
 5714 015b 40       		.uleb128 0x40
 5715 015c 06       		.uleb128 0x6
 5716 015d 9642     		.uleb128 0x2116
 5717 015f 0C       		.uleb128 0xc
 5718 0160 01       		.uleb128 0x1
 5719 0161 13       		.uleb128 0x13
 5720 0162 00       		.byte	0
 5721 0163 00       		.byte	0
 5722 0164 1A       		.uleb128 0x1a
 5723 0165 05       		.uleb128 0x5
 5724 0166 00       		.byte	0
 5725 0167 03       		.uleb128 0x3
 5726 0168 08       		.uleb128 0x8
 5727 0169 3A       		.uleb128 0x3a
 5728 016a 0B       		.uleb128 0xb
 5729 016b 3B       		.uleb128 0x3b
 5730 016c 0B       		.uleb128 0xb
 5731 016d 49       		.uleb128 0x49
 5732 016e 13       		.uleb128 0x13
ARM GAS  /tmp/cctkbEOJ.s 			page 102


 5733 016f 02       		.uleb128 0x2
 5734 0170 0A       		.uleb128 0xa
 5735 0171 00       		.byte	0
 5736 0172 00       		.byte	0
 5737 0173 1B       		.uleb128 0x1b
 5738 0174 898201   		.uleb128 0x4109
 5739 0177 01       		.byte	0x1
 5740 0178 11       		.uleb128 0x11
 5741 0179 01       		.uleb128 0x1
 5742 017a 31       		.uleb128 0x31
 5743 017b 13       		.uleb128 0x13
 5744 017c 01       		.uleb128 0x1
 5745 017d 13       		.uleb128 0x13
 5746 017e 00       		.byte	0
 5747 017f 00       		.byte	0
 5748 0180 1C       		.uleb128 0x1c
 5749 0181 8A8201   		.uleb128 0x410a
 5750 0184 00       		.byte	0
 5751 0185 02       		.uleb128 0x2
 5752 0186 0A       		.uleb128 0xa
 5753 0187 9142     		.uleb128 0x2111
 5754 0189 0A       		.uleb128 0xa
 5755 018a 00       		.byte	0
 5756 018b 00       		.byte	0
 5757 018c 1D       		.uleb128 0x1d
 5758 018d 34       		.uleb128 0x34
 5759 018e 00       		.byte	0
 5760 018f 03       		.uleb128 0x3
 5761 0190 08       		.uleb128 0x8
 5762 0191 3A       		.uleb128 0x3a
 5763 0192 0B       		.uleb128 0xb
 5764 0193 3B       		.uleb128 0x3b
 5765 0194 0B       		.uleb128 0xb
 5766 0195 49       		.uleb128 0x49
 5767 0196 13       		.uleb128 0x13
 5768 0197 1C       		.uleb128 0x1c
 5769 0198 0A       		.uleb128 0xa
 5770 0199 00       		.byte	0
 5771 019a 00       		.byte	0
 5772 019b 1E       		.uleb128 0x1e
 5773 019c 898201   		.uleb128 0x4109
 5774 019f 01       		.byte	0x1
 5775 01a0 11       		.uleb128 0x11
 5776 01a1 01       		.uleb128 0x1
 5777 01a2 31       		.uleb128 0x31
 5778 01a3 13       		.uleb128 0x13
 5779 01a4 00       		.byte	0
 5780 01a5 00       		.byte	0
 5781 01a6 1F       		.uleb128 0x1f
 5782 01a7 2E       		.uleb128 0x2e
 5783 01a8 01       		.byte	0x1
 5784 01a9 3F       		.uleb128 0x3f
 5785 01aa 0C       		.uleb128 0xc
 5786 01ab 03       		.uleb128 0x3
 5787 01ac 0E       		.uleb128 0xe
 5788 01ad 3A       		.uleb128 0x3a
 5789 01ae 0B       		.uleb128 0xb
ARM GAS  /tmp/cctkbEOJ.s 			page 103


 5790 01af 3B       		.uleb128 0x3b
 5791 01b0 0B       		.uleb128 0xb
 5792 01b1 27       		.uleb128 0x27
 5793 01b2 0C       		.uleb128 0xc
 5794 01b3 11       		.uleb128 0x11
 5795 01b4 01       		.uleb128 0x1
 5796 01b5 12       		.uleb128 0x12
 5797 01b6 01       		.uleb128 0x1
 5798 01b7 40       		.uleb128 0x40
 5799 01b8 06       		.uleb128 0x6
 5800 01b9 9642     		.uleb128 0x2116
 5801 01bb 0C       		.uleb128 0xc
 5802 01bc 01       		.uleb128 0x1
 5803 01bd 13       		.uleb128 0x13
 5804 01be 00       		.byte	0
 5805 01bf 00       		.byte	0
 5806 01c0 20       		.uleb128 0x20
 5807 01c1 05       		.uleb128 0x5
 5808 01c2 00       		.byte	0
 5809 01c3 03       		.uleb128 0x3
 5810 01c4 0E       		.uleb128 0xe
 5811 01c5 3A       		.uleb128 0x3a
 5812 01c6 0B       		.uleb128 0xb
 5813 01c7 3B       		.uleb128 0x3b
 5814 01c8 0B       		.uleb128 0xb
 5815 01c9 49       		.uleb128 0x49
 5816 01ca 13       		.uleb128 0x13
 5817 01cb 02       		.uleb128 0x2
 5818 01cc 06       		.uleb128 0x6
 5819 01cd 00       		.byte	0
 5820 01ce 00       		.byte	0
 5821 01cf 21       		.uleb128 0x21
 5822 01d0 05       		.uleb128 0x5
 5823 01d1 00       		.byte	0
 5824 01d2 03       		.uleb128 0x3
 5825 01d3 0E       		.uleb128 0xe
 5826 01d4 3A       		.uleb128 0x3a
 5827 01d5 0B       		.uleb128 0xb
 5828 01d6 3B       		.uleb128 0x3b
 5829 01d7 0B       		.uleb128 0xb
 5830 01d8 49       		.uleb128 0x49
 5831 01d9 13       		.uleb128 0x13
 5832 01da 02       		.uleb128 0x2
 5833 01db 0A       		.uleb128 0xa
 5834 01dc 00       		.byte	0
 5835 01dd 00       		.byte	0
 5836 01de 22       		.uleb128 0x22
 5837 01df 34       		.uleb128 0x34
 5838 01e0 00       		.byte	0
 5839 01e1 03       		.uleb128 0x3
 5840 01e2 08       		.uleb128 0x8
 5841 01e3 3A       		.uleb128 0x3a
 5842 01e4 0B       		.uleb128 0xb
 5843 01e5 3B       		.uleb128 0x3b
 5844 01e6 0B       		.uleb128 0xb
 5845 01e7 49       		.uleb128 0x49
 5846 01e8 13       		.uleb128 0x13
ARM GAS  /tmp/cctkbEOJ.s 			page 104


 5847 01e9 02       		.uleb128 0x2
 5848 01ea 0A       		.uleb128 0xa
 5849 01eb 00       		.byte	0
 5850 01ec 00       		.byte	0
 5851 01ed 23       		.uleb128 0x23
 5852 01ee 34       		.uleb128 0x34
 5853 01ef 00       		.byte	0
 5854 01f0 03       		.uleb128 0x3
 5855 01f1 0E       		.uleb128 0xe
 5856 01f2 3A       		.uleb128 0x3a
 5857 01f3 0B       		.uleb128 0xb
 5858 01f4 3B       		.uleb128 0x3b
 5859 01f5 0B       		.uleb128 0xb
 5860 01f6 49       		.uleb128 0x49
 5861 01f7 13       		.uleb128 0x13
 5862 01f8 1C       		.uleb128 0x1c
 5863 01f9 0A       		.uleb128 0xa
 5864 01fa 00       		.byte	0
 5865 01fb 00       		.byte	0
 5866 01fc 24       		.uleb128 0x24
 5867 01fd 34       		.uleb128 0x34
 5868 01fe 00       		.byte	0
 5869 01ff 03       		.uleb128 0x3
 5870 0200 0E       		.uleb128 0xe
 5871 0201 3A       		.uleb128 0x3a
 5872 0202 0B       		.uleb128 0xb
 5873 0203 3B       		.uleb128 0x3b
 5874 0204 0B       		.uleb128 0xb
 5875 0205 49       		.uleb128 0x49
 5876 0206 13       		.uleb128 0x13
 5877 0207 02       		.uleb128 0x2
 5878 0208 06       		.uleb128 0x6
 5879 0209 00       		.byte	0
 5880 020a 00       		.byte	0
 5881 020b 25       		.uleb128 0x25
 5882 020c 34       		.uleb128 0x34
 5883 020d 00       		.byte	0
 5884 020e 03       		.uleb128 0x3
 5885 020f 08       		.uleb128 0x8
 5886 0210 3A       		.uleb128 0x3a
 5887 0211 0B       		.uleb128 0xb
 5888 0212 3B       		.uleb128 0x3b
 5889 0213 0B       		.uleb128 0xb
 5890 0214 49       		.uleb128 0x49
 5891 0215 13       		.uleb128 0x13
 5892 0216 00       		.byte	0
 5893 0217 00       		.byte	0
 5894 0218 26       		.uleb128 0x26
 5895 0219 2E       		.uleb128 0x2e
 5896 021a 01       		.byte	0x1
 5897 021b 3F       		.uleb128 0x3f
 5898 021c 0C       		.uleb128 0xc
 5899 021d 03       		.uleb128 0x3
 5900 021e 0E       		.uleb128 0xe
 5901 021f 3A       		.uleb128 0x3a
 5902 0220 0B       		.uleb128 0xb
 5903 0221 3B       		.uleb128 0x3b
ARM GAS  /tmp/cctkbEOJ.s 			page 105


 5904 0222 05       		.uleb128 0x5
 5905 0223 27       		.uleb128 0x27
 5906 0224 0C       		.uleb128 0xc
 5907 0225 11       		.uleb128 0x11
 5908 0226 01       		.uleb128 0x1
 5909 0227 12       		.uleb128 0x12
 5910 0228 01       		.uleb128 0x1
 5911 0229 40       		.uleb128 0x40
 5912 022a 06       		.uleb128 0x6
 5913 022b 9642     		.uleb128 0x2116
 5914 022d 0C       		.uleb128 0xc
 5915 022e 01       		.uleb128 0x1
 5916 022f 13       		.uleb128 0x13
 5917 0230 00       		.byte	0
 5918 0231 00       		.byte	0
 5919 0232 27       		.uleb128 0x27
 5920 0233 05       		.uleb128 0x5
 5921 0234 00       		.byte	0
 5922 0235 03       		.uleb128 0x3
 5923 0236 08       		.uleb128 0x8
 5924 0237 3A       		.uleb128 0x3a
 5925 0238 0B       		.uleb128 0xb
 5926 0239 3B       		.uleb128 0x3b
 5927 023a 05       		.uleb128 0x5
 5928 023b 49       		.uleb128 0x49
 5929 023c 13       		.uleb128 0x13
 5930 023d 02       		.uleb128 0x2
 5931 023e 06       		.uleb128 0x6
 5932 023f 00       		.byte	0
 5933 0240 00       		.byte	0
 5934 0241 28       		.uleb128 0x28
 5935 0242 05       		.uleb128 0x5
 5936 0243 00       		.byte	0
 5937 0244 03       		.uleb128 0x3
 5938 0245 0E       		.uleb128 0xe
 5939 0246 3A       		.uleb128 0x3a
 5940 0247 0B       		.uleb128 0xb
 5941 0248 3B       		.uleb128 0x3b
 5942 0249 05       		.uleb128 0x5
 5943 024a 49       		.uleb128 0x49
 5944 024b 13       		.uleb128 0x13
 5945 024c 02       		.uleb128 0x2
 5946 024d 06       		.uleb128 0x6
 5947 024e 00       		.byte	0
 5948 024f 00       		.byte	0
 5949 0250 29       		.uleb128 0x29
 5950 0251 34       		.uleb128 0x34
 5951 0252 00       		.byte	0
 5952 0253 03       		.uleb128 0x3
 5953 0254 0E       		.uleb128 0xe
 5954 0255 3A       		.uleb128 0x3a
 5955 0256 0B       		.uleb128 0xb
 5956 0257 3B       		.uleb128 0x3b
 5957 0258 05       		.uleb128 0x5
 5958 0259 49       		.uleb128 0x49
 5959 025a 13       		.uleb128 0x13
 5960 025b 02       		.uleb128 0x2
ARM GAS  /tmp/cctkbEOJ.s 			page 106


 5961 025c 0A       		.uleb128 0xa
 5962 025d 00       		.byte	0
 5963 025e 00       		.byte	0
 5964 025f 2A       		.uleb128 0x2a
 5965 0260 34       		.uleb128 0x34
 5966 0261 00       		.byte	0
 5967 0262 03       		.uleb128 0x3
 5968 0263 0E       		.uleb128 0xe
 5969 0264 3A       		.uleb128 0x3a
 5970 0265 0B       		.uleb128 0xb
 5971 0266 3B       		.uleb128 0x3b
 5972 0267 05       		.uleb128 0x5
 5973 0268 49       		.uleb128 0x49
 5974 0269 13       		.uleb128 0x13
 5975 026a 00       		.byte	0
 5976 026b 00       		.byte	0
 5977 026c 2B       		.uleb128 0x2b
 5978 026d 34       		.uleb128 0x34
 5979 026e 00       		.byte	0
 5980 026f 03       		.uleb128 0x3
 5981 0270 08       		.uleb128 0x8
 5982 0271 3A       		.uleb128 0x3a
 5983 0272 0B       		.uleb128 0xb
 5984 0273 3B       		.uleb128 0x3b
 5985 0274 05       		.uleb128 0x5
 5986 0275 49       		.uleb128 0x49
 5987 0276 13       		.uleb128 0x13
 5988 0277 02       		.uleb128 0x2
 5989 0278 06       		.uleb128 0x6
 5990 0279 00       		.byte	0
 5991 027a 00       		.byte	0
 5992 027b 2C       		.uleb128 0x2c
 5993 027c 34       		.uleb128 0x34
 5994 027d 00       		.byte	0
 5995 027e 03       		.uleb128 0x3
 5996 027f 08       		.uleb128 0x8
 5997 0280 3A       		.uleb128 0x3a
 5998 0281 0B       		.uleb128 0xb
 5999 0282 3B       		.uleb128 0x3b
 6000 0283 05       		.uleb128 0x5
 6001 0284 49       		.uleb128 0x49
 6002 0285 13       		.uleb128 0x13
 6003 0286 02       		.uleb128 0x2
 6004 0287 0A       		.uleb128 0xa
 6005 0288 00       		.byte	0
 6006 0289 00       		.byte	0
 6007 028a 2D       		.uleb128 0x2d
 6008 028b 34       		.uleb128 0x34
 6009 028c 00       		.byte	0
 6010 028d 03       		.uleb128 0x3
 6011 028e 0E       		.uleb128 0xe
 6012 028f 3A       		.uleb128 0x3a
 6013 0290 0B       		.uleb128 0xb
 6014 0291 3B       		.uleb128 0x3b
 6015 0292 0B       		.uleb128 0xb
 6016 0293 49       		.uleb128 0x49
 6017 0294 13       		.uleb128 0x13
ARM GAS  /tmp/cctkbEOJ.s 			page 107


 6018 0295 02       		.uleb128 0x2
 6019 0296 0A       		.uleb128 0xa
 6020 0297 00       		.byte	0
 6021 0298 00       		.byte	0
 6022 0299 2E       		.uleb128 0x2e
 6023 029a 2E       		.uleb128 0x2e
 6024 029b 01       		.byte	0x1
 6025 029c 3F       		.uleb128 0x3f
 6026 029d 0C       		.uleb128 0xc
 6027 029e 03       		.uleb128 0x3
 6028 029f 0E       		.uleb128 0xe
 6029 02a0 3A       		.uleb128 0x3a
 6030 02a1 0B       		.uleb128 0xb
 6031 02a2 3B       		.uleb128 0x3b
 6032 02a3 05       		.uleb128 0x5
 6033 02a4 27       		.uleb128 0x27
 6034 02a5 0C       		.uleb128 0xc
 6035 02a6 49       		.uleb128 0x49
 6036 02a7 13       		.uleb128 0x13
 6037 02a8 11       		.uleb128 0x11
 6038 02a9 01       		.uleb128 0x1
 6039 02aa 12       		.uleb128 0x12
 6040 02ab 01       		.uleb128 0x1
 6041 02ac 40       		.uleb128 0x40
 6042 02ad 06       		.uleb128 0x6
 6043 02ae 9642     		.uleb128 0x2116
 6044 02b0 0C       		.uleb128 0xc
 6045 02b1 01       		.uleb128 0x1
 6046 02b2 13       		.uleb128 0x13
 6047 02b3 00       		.byte	0
 6048 02b4 00       		.byte	0
 6049 02b5 2F       		.uleb128 0x2f
 6050 02b6 2E       		.uleb128 0x2e
 6051 02b7 01       		.byte	0x1
 6052 02b8 3F       		.uleb128 0x3f
 6053 02b9 0C       		.uleb128 0xc
 6054 02ba 03       		.uleb128 0x3
 6055 02bb 0E       		.uleb128 0xe
 6056 02bc 3A       		.uleb128 0x3a
 6057 02bd 0B       		.uleb128 0xb
 6058 02be 3B       		.uleb128 0x3b
 6059 02bf 05       		.uleb128 0x5
 6060 02c0 27       		.uleb128 0x27
 6061 02c1 0C       		.uleb128 0xc
 6062 02c2 49       		.uleb128 0x49
 6063 02c3 13       		.uleb128 0x13
 6064 02c4 11       		.uleb128 0x11
 6065 02c5 01       		.uleb128 0x1
 6066 02c6 12       		.uleb128 0x12
 6067 02c7 01       		.uleb128 0x1
 6068 02c8 40       		.uleb128 0x40
 6069 02c9 06       		.uleb128 0x6
 6070 02ca 9742     		.uleb128 0x2117
 6071 02cc 0C       		.uleb128 0xc
 6072 02cd 01       		.uleb128 0x1
 6073 02ce 13       		.uleb128 0x13
 6074 02cf 00       		.byte	0
ARM GAS  /tmp/cctkbEOJ.s 			page 108


 6075 02d0 00       		.byte	0
 6076 02d1 30       		.uleb128 0x30
 6077 02d2 34       		.uleb128 0x34
 6078 02d3 00       		.byte	0
 6079 02d4 03       		.uleb128 0x3
 6080 02d5 08       		.uleb128 0x8
 6081 02d6 3A       		.uleb128 0x3a
 6082 02d7 0B       		.uleb128 0xb
 6083 02d8 3B       		.uleb128 0x3b
 6084 02d9 05       		.uleb128 0x5
 6085 02da 49       		.uleb128 0x49
 6086 02db 13       		.uleb128 0x13
 6087 02dc 00       		.byte	0
 6088 02dd 00       		.byte	0
 6089 02de 31       		.uleb128 0x31
 6090 02df 1D       		.uleb128 0x1d
 6091 02e0 01       		.byte	0x1
 6092 02e1 31       		.uleb128 0x31
 6093 02e2 13       		.uleb128 0x13
 6094 02e3 52       		.uleb128 0x52
 6095 02e4 01       		.uleb128 0x1
 6096 02e5 55       		.uleb128 0x55
 6097 02e6 06       		.uleb128 0x6
 6098 02e7 58       		.uleb128 0x58
 6099 02e8 0B       		.uleb128 0xb
 6100 02e9 59       		.uleb128 0x59
 6101 02ea 05       		.uleb128 0x5
 6102 02eb 01       		.uleb128 0x1
 6103 02ec 13       		.uleb128 0x13
 6104 02ed 00       		.byte	0
 6105 02ee 00       		.byte	0
 6106 02ef 32       		.uleb128 0x32
 6107 02f0 05       		.uleb128 0x5
 6108 02f1 00       		.byte	0
 6109 02f2 03       		.uleb128 0x3
 6110 02f3 0E       		.uleb128 0xe
 6111 02f4 3A       		.uleb128 0x3a
 6112 02f5 0B       		.uleb128 0xb
 6113 02f6 3B       		.uleb128 0x3b
 6114 02f7 05       		.uleb128 0x5
 6115 02f8 49       		.uleb128 0x49
 6116 02f9 13       		.uleb128 0x13
 6117 02fa 02       		.uleb128 0x2
 6118 02fb 0A       		.uleb128 0xa
 6119 02fc 00       		.byte	0
 6120 02fd 00       		.byte	0
 6121 02fe 33       		.uleb128 0x33
 6122 02ff 05       		.uleb128 0x5
 6123 0300 00       		.byte	0
 6124 0301 03       		.uleb128 0x3
 6125 0302 08       		.uleb128 0x8
 6126 0303 3A       		.uleb128 0x3a
 6127 0304 0B       		.uleb128 0xb
 6128 0305 3B       		.uleb128 0x3b
 6129 0306 05       		.uleb128 0x5
 6130 0307 49       		.uleb128 0x49
 6131 0308 13       		.uleb128 0x13
ARM GAS  /tmp/cctkbEOJ.s 			page 109


 6132 0309 02       		.uleb128 0x2
 6133 030a 0A       		.uleb128 0xa
 6134 030b 00       		.byte	0
 6135 030c 00       		.byte	0
 6136 030d 34       		.uleb128 0x34
 6137 030e 2E       		.uleb128 0x2e
 6138 030f 01       		.byte	0x1
 6139 0310 3F       		.uleb128 0x3f
 6140 0311 0C       		.uleb128 0xc
 6141 0312 03       		.uleb128 0x3
 6142 0313 0E       		.uleb128 0xe
 6143 0314 3A       		.uleb128 0x3a
 6144 0315 0B       		.uleb128 0xb
 6145 0316 3B       		.uleb128 0x3b
 6146 0317 0B       		.uleb128 0xb
 6147 0318 27       		.uleb128 0x27
 6148 0319 0C       		.uleb128 0xc
 6149 031a 49       		.uleb128 0x49
 6150 031b 13       		.uleb128 0x13
 6151 031c 3C       		.uleb128 0x3c
 6152 031d 0C       		.uleb128 0xc
 6153 031e 01       		.uleb128 0x1
 6154 031f 13       		.uleb128 0x13
 6155 0320 00       		.byte	0
 6156 0321 00       		.byte	0
 6157 0322 35       		.uleb128 0x35
 6158 0323 2E       		.uleb128 0x2e
 6159 0324 01       		.byte	0x1
 6160 0325 3F       		.uleb128 0x3f
 6161 0326 0C       		.uleb128 0xc
 6162 0327 03       		.uleb128 0x3
 6163 0328 08       		.uleb128 0x8
 6164 0329 3A       		.uleb128 0x3a
 6165 032a 0B       		.uleb128 0xb
 6166 032b 3B       		.uleb128 0x3b
 6167 032c 0B       		.uleb128 0xb
 6168 032d 27       		.uleb128 0x27
 6169 032e 0C       		.uleb128 0xc
 6170 032f 49       		.uleb128 0x49
 6171 0330 13       		.uleb128 0x13
 6172 0331 3C       		.uleb128 0x3c
 6173 0332 0C       		.uleb128 0xc
 6174 0333 01       		.uleb128 0x1
 6175 0334 13       		.uleb128 0x13
 6176 0335 00       		.byte	0
 6177 0336 00       		.byte	0
 6178 0337 36       		.uleb128 0x36
 6179 0338 2E       		.uleb128 0x2e
 6180 0339 01       		.byte	0x1
 6181 033a 3F       		.uleb128 0x3f
 6182 033b 0C       		.uleb128 0xc
 6183 033c 03       		.uleb128 0x3
 6184 033d 0E       		.uleb128 0xe
 6185 033e 3A       		.uleb128 0x3a
 6186 033f 0B       		.uleb128 0xb
 6187 0340 3B       		.uleb128 0x3b
 6188 0341 0B       		.uleb128 0xb
ARM GAS  /tmp/cctkbEOJ.s 			page 110


 6189 0342 27       		.uleb128 0x27
 6190 0343 0C       		.uleb128 0xc
 6191 0344 3C       		.uleb128 0x3c
 6192 0345 0C       		.uleb128 0xc
 6193 0346 01       		.uleb128 0x1
 6194 0347 13       		.uleb128 0x13
 6195 0348 00       		.byte	0
 6196 0349 00       		.byte	0
 6197 034a 37       		.uleb128 0x37
 6198 034b 2E       		.uleb128 0x2e
 6199 034c 01       		.byte	0x1
 6200 034d 3F       		.uleb128 0x3f
 6201 034e 0C       		.uleb128 0xc
 6202 034f 03       		.uleb128 0x3
 6203 0350 0E       		.uleb128 0xe
 6204 0351 3A       		.uleb128 0x3a
 6205 0352 0B       		.uleb128 0xb
 6206 0353 3B       		.uleb128 0x3b
 6207 0354 0B       		.uleb128 0xb
 6208 0355 27       		.uleb128 0x27
 6209 0356 0C       		.uleb128 0xc
 6210 0357 49       		.uleb128 0x49
 6211 0358 13       		.uleb128 0x13
 6212 0359 3C       		.uleb128 0x3c
 6213 035a 0C       		.uleb128 0xc
 6214 035b 00       		.byte	0
 6215 035c 00       		.byte	0
 6216 035d 00       		.byte	0
 6217              		.section	.debug_loc,"",%progbits
 6218              	.Ldebug_loc0:
 6219              	.LLST0:
 6220 0000 00000000 		.4byte	.LFB1
 6221 0004 04000000 		.4byte	.LCFI0
 6222 0008 0200     		.2byte	0x2
 6223 000a 7D       		.byte	0x7d
 6224 000b 00       		.sleb128 0
 6225 000c 04000000 		.4byte	.LCFI0
 6226 0010 06000000 		.4byte	.LCFI1
 6227 0014 0200     		.2byte	0x2
 6228 0016 7D       		.byte	0x7d
 6229 0017 20       		.sleb128 32
 6230 0018 06000000 		.4byte	.LCFI1
 6231 001c 68020000 		.4byte	.LFE1
 6232 0020 0200     		.2byte	0x2
 6233 0022 7D       		.byte	0x7d
 6234 0023 38       		.sleb128 56
 6235 0024 00000000 		.4byte	0
 6236 0028 00000000 		.4byte	0
 6237              	.LLST1:
 6238 002c 00000000 		.4byte	.LVL0
 6239 0030 0C000000 		.4byte	.LVL1
 6240 0034 0600     		.2byte	0x6
 6241 0036 50       		.byte	0x50
 6242 0037 93       		.byte	0x93
 6243 0038 04       		.uleb128 0x4
 6244 0039 51       		.byte	0x51
 6245 003a 93       		.byte	0x93
ARM GAS  /tmp/cctkbEOJ.s 			page 111


 6246 003b 04       		.uleb128 0x4
 6247 003c 0C000000 		.4byte	.LVL1
 6248 0040 68020000 		.4byte	.LFE1
 6249 0044 0200     		.2byte	0x2
 6250 0046 91       		.byte	0x91
 6251 0047 50       		.sleb128 -48
 6252 0048 00000000 		.4byte	0
 6253 004c 00000000 		.4byte	0
 6254              	.LLST2:
 6255 0050 00000000 		.4byte	.LVL0
 6256 0054 11000000 		.4byte	.LVL2-1
 6257 0058 0600     		.2byte	0x6
 6258 005a 52       		.byte	0x52
 6259 005b 93       		.byte	0x93
 6260 005c 04       		.uleb128 0x4
 6261 005d 53       		.byte	0x53
 6262 005e 93       		.byte	0x93
 6263 005f 04       		.uleb128 0x4
 6264 0060 11000000 		.4byte	.LVL2-1
 6265 0064 1A000000 		.4byte	.LVL3
 6266 0068 0600     		.2byte	0x6
 6267 006a F3       		.byte	0xf3
 6268 006b 03       		.uleb128 0x3
 6269 006c F5       		.byte	0xf5
 6270 006d 02       		.uleb128 0x2
 6271 006e 29       		.uleb128 0x29
 6272 006f 9F       		.byte	0x9f
 6273 0070 1A000000 		.4byte	.LVL3
 6274 0074 1D000000 		.4byte	.LVL4-1
 6275 0078 0600     		.2byte	0x6
 6276 007a 50       		.byte	0x50
 6277 007b 93       		.byte	0x93
 6278 007c 04       		.uleb128 0x4
 6279 007d 51       		.byte	0x51
 6280 007e 93       		.byte	0x93
 6281 007f 04       		.uleb128 0x4
 6282 0080 1D000000 		.4byte	.LVL4-1
 6283 0084 58000000 		.4byte	.LVL7
 6284 0088 0600     		.2byte	0x6
 6285 008a 59       		.byte	0x59
 6286 008b 93       		.byte	0x93
 6287 008c 04       		.uleb128 0x4
 6288 008d 56       		.byte	0x56
 6289 008e 93       		.byte	0x93
 6290 008f 04       		.uleb128 0x4
 6291 0090 90000000 		.4byte	.LVL15
 6292 0094 93000000 		.4byte	.LVL16-1
 6293 0098 0600     		.2byte	0x6
 6294 009a 50       		.byte	0x50
 6295 009b 93       		.byte	0x93
 6296 009c 04       		.uleb128 0x4
 6297 009d 51       		.byte	0x51
 6298 009e 93       		.byte	0x93
 6299 009f 04       		.uleb128 0x4
 6300 00a0 93000000 		.4byte	.LVL16-1
 6301 00a4 24020000 		.4byte	.LVL47
 6302 00a8 0200     		.2byte	0x2
ARM GAS  /tmp/cctkbEOJ.s 			page 112


 6303 00aa 7D       		.byte	0x7d
 6304 00ab 00       		.sleb128 0
 6305 00ac 24020000 		.4byte	.LVL47
 6306 00b0 2A020000 		.4byte	.LVL48
 6307 00b4 0600     		.2byte	0x6
 6308 00b6 50       		.byte	0x50
 6309 00b7 93       		.byte	0x93
 6310 00b8 04       		.uleb128 0x4
 6311 00b9 51       		.byte	0x51
 6312 00ba 93       		.byte	0x93
 6313 00bb 04       		.uleb128 0x4
 6314 00bc 2A020000 		.4byte	.LVL48
 6315 00c0 30020000 		.4byte	.LVL49
 6316 00c4 0600     		.2byte	0x6
 6317 00c6 59       		.byte	0x59
 6318 00c7 93       		.byte	0x93
 6319 00c8 04       		.uleb128 0x4
 6320 00c9 56       		.byte	0x56
 6321 00ca 93       		.byte	0x93
 6322 00cb 04       		.uleb128 0x4
 6323 00cc 30020000 		.4byte	.LVL49
 6324 00d0 42020000 		.4byte	.LVL51
 6325 00d4 0200     		.2byte	0x2
 6326 00d6 7D       		.byte	0x7d
 6327 00d7 00       		.sleb128 0
 6328 00d8 42020000 		.4byte	.LVL51
 6329 00dc 68020000 		.4byte	.LFE1
 6330 00e0 0600     		.2byte	0x6
 6331 00e2 50       		.byte	0x50
 6332 00e3 93       		.byte	0x93
 6333 00e4 04       		.uleb128 0x4
 6334 00e5 51       		.byte	0x51
 6335 00e6 93       		.byte	0x93
 6336 00e7 04       		.uleb128 0x4
 6337 00e8 00000000 		.4byte	0
 6338 00ec 00000000 		.4byte	0
 6339              	.LLST3:
 6340 00f0 00000000 		.4byte	.LVL0
 6341 00f4 D6000000 		.4byte	.LVL20
 6342 00f8 0A00     		.2byte	0xa
 6343 00fa 9E       		.byte	0x9e
 6344 00fb 08       		.uleb128 0x8
 6345 00fc 182D4454 		.4byte	0x54442d18
 6346 0100 FB21F93F 		.4byte	0x3ff921fb
 6347 0104 86010000 		.4byte	.LVL32
 6348 0108 A2010000 		.4byte	.LVL36
 6349 010c 0600     		.2byte	0x6
 6350 010e 54       		.byte	0x54
 6351 010f 93       		.byte	0x93
 6352 0110 04       		.uleb128 0x4
 6353 0111 55       		.byte	0x55
 6354 0112 93       		.byte	0x93
 6355 0113 04       		.uleb128 0x4
 6356 0114 00020000 		.4byte	.LVL44
 6357 0118 09020000 		.4byte	.LVL45-1
 6358 011c 0600     		.2byte	0x6
 6359 011e 50       		.byte	0x50
ARM GAS  /tmp/cctkbEOJ.s 			page 113


 6360 011f 93       		.byte	0x93
 6361 0120 04       		.uleb128 0x4
 6362 0121 51       		.byte	0x51
 6363 0122 93       		.byte	0x93
 6364 0123 04       		.uleb128 0x4
 6365 0124 0A020000 		.4byte	.LVL45
 6366 0128 68020000 		.4byte	.LFE1
 6367 012c 0A00     		.2byte	0xa
 6368 012e 9E       		.byte	0x9e
 6369 012f 08       		.uleb128 0x8
 6370 0130 182D4454 		.4byte	0x54442d18
 6371 0134 FB21F93F 		.4byte	0x3ff921fb
 6372 0138 00000000 		.4byte	0
 6373 013c 00000000 		.4byte	0
 6374              	.LLST4:
 6375 0140 9A000000 		.4byte	.LVL17
 6376 0144 2A020000 		.4byte	.LVL48
 6377 0148 0A00     		.2byte	0xa
 6378 014a 9E       		.byte	0x9e
 6379 014b 08       		.uleb128 0x8
 6380 014c 00000000 		.4byte	0
 6381 0150 0000F03F 		.4byte	0x3ff00000
 6382 0154 00000000 		.4byte	0
 6383 0158 00000000 		.4byte	0
 6384              	.LLST5:
 6385 015c A2010000 		.4byte	.LVL36
 6386 0160 A9010000 		.4byte	.LVL37-1
 6387 0164 0E00     		.2byte	0xe
 6388 0166 F5       		.byte	0xf5
 6389 0167 04       		.uleb128 0x4
 6390 0168 29       		.uleb128 0x29
 6391 0169 91       		.byte	0x91
 6392 016a 50       		.sleb128 -48
 6393 016b F6       		.byte	0xf6
 6394 016c 08       		.byte	0x8
 6395 016d 29       		.uleb128 0x29
 6396 016e F5       		.byte	0xf5
 6397 016f 02       		.uleb128 0x2
 6398 0170 29       		.uleb128 0x29
 6399 0171 1E       		.byte	0x1e
 6400 0172 1C       		.byte	0x1c
 6401 0173 9F       		.byte	0x9f
 6402 0174 00000000 		.4byte	0
 6403 0178 00000000 		.4byte	0
 6404              	.LLST6:
 6405 017c 00000000 		.4byte	.LVL0
 6406 0180 D6000000 		.4byte	.LVL20
 6407 0184 0A00     		.2byte	0xa
 6408 0186 9E       		.byte	0x9e
 6409 0187 08       		.uleb128 0x8
 6410 0188 182D4454 		.4byte	0x54442d18
 6411 018c FB21E93F 		.4byte	0x3fe921fb
 6412 0190 92010000 		.4byte	.LVL34
 6413 0194 A2010000 		.4byte	.LVL36
 6414 0198 0600     		.2byte	0x6
 6415 019a 58       		.byte	0x58
 6416 019b 93       		.byte	0x93
ARM GAS  /tmp/cctkbEOJ.s 			page 114


 6417 019c 04       		.uleb128 0x4
 6418 019d 59       		.byte	0x59
 6419 019e 93       		.byte	0x93
 6420 019f 04       		.uleb128 0x4
 6421 01a0 0A020000 		.4byte	.LVL45
 6422 01a4 68020000 		.4byte	.LFE1
 6423 01a8 0A00     		.2byte	0xa
 6424 01aa 9E       		.byte	0x9e
 6425 01ab 08       		.uleb128 0x8
 6426 01ac 182D4454 		.4byte	0x54442d18
 6427 01b0 FB21E93F 		.4byte	0x3fe921fb
 6428 01b4 00000000 		.4byte	0
 6429 01b8 00000000 		.4byte	0
 6430              	.LLST7:
 6431 01bc BA000000 		.4byte	.LVL19
 6432 01c0 D6000000 		.4byte	.LVL20
 6433 01c4 0200     		.2byte	0x2
 6434 01c6 30       		.byte	0x30
 6435 01c7 9F       		.byte	0x9f
 6436 01c8 00000000 		.4byte	0
 6437 01cc 00000000 		.4byte	0
 6438              	.LLST8:
 6439 01d0 1A000000 		.4byte	.LVL3
 6440 01d4 1D000000 		.4byte	.LVL4-1
 6441 01d8 0600     		.2byte	0x6
 6442 01da 50       		.byte	0x50
 6443 01db 93       		.byte	0x93
 6444 01dc 04       		.uleb128 0x4
 6445 01dd 51       		.byte	0x51
 6446 01de 93       		.byte	0x93
 6447 01df 04       		.uleb128 0x4
 6448 01e0 1D000000 		.4byte	.LVL4-1
 6449 01e4 5A000000 		.4byte	.LVL8
 6450 01e8 0600     		.2byte	0x6
 6451 01ea 59       		.byte	0x59
 6452 01eb 93       		.byte	0x93
 6453 01ec 04       		.uleb128 0x4
 6454 01ed 56       		.byte	0x56
 6455 01ee 93       		.byte	0x93
 6456 01ef 04       		.uleb128 0x4
 6457 01f0 2A020000 		.4byte	.LVL48
 6458 01f4 30020000 		.4byte	.LVL49
 6459 01f8 0600     		.2byte	0x6
 6460 01fa 59       		.byte	0x59
 6461 01fb 93       		.byte	0x93
 6462 01fc 04       		.uleb128 0x4
 6463 01fd 56       		.byte	0x56
 6464 01fe 93       		.byte	0x93
 6465 01ff 04       		.uleb128 0x4
 6466 0200 00000000 		.4byte	0
 6467 0204 00000000 		.4byte	0
 6468              	.LLST9:
 6469 0208 CA010000 		.4byte	.LVL40
 6470 020c E0010000 		.4byte	.LVL43
 6471 0210 0600     		.2byte	0x6
 6472 0212 56       		.byte	0x56
 6473 0213 93       		.byte	0x93
ARM GAS  /tmp/cctkbEOJ.s 			page 115


 6474 0214 04       		.uleb128 0x4
 6475 0215 57       		.byte	0x57
 6476 0216 93       		.byte	0x93
 6477 0217 04       		.uleb128 0x4
 6478 0218 00000000 		.4byte	0
 6479 021c 00000000 		.4byte	0
 6480              	.LLST10:
 6481 0220 00000000 		.4byte	.LFB2
 6482 0224 02000000 		.4byte	.LCFI2
 6483 0228 0200     		.2byte	0x2
 6484 022a 7D       		.byte	0x7d
 6485 022b 00       		.sleb128 0
 6486 022c 02000000 		.4byte	.LCFI2
 6487 0230 14000000 		.4byte	.LFE2
 6488 0234 0200     		.2byte	0x2
 6489 0236 7D       		.byte	0x7d
 6490 0237 10       		.sleb128 16
 6491 0238 00000000 		.4byte	0
 6492 023c 00000000 		.4byte	0
 6493              	.LLST11:
 6494 0240 00000000 		.4byte	.LVL52
 6495 0244 08000000 		.4byte	.LVL53
 6496 0248 0600     		.2byte	0x6
 6497 024a 50       		.byte	0x50
 6498 024b 93       		.byte	0x93
 6499 024c 04       		.uleb128 0x4
 6500 024d 51       		.byte	0x51
 6501 024e 93       		.byte	0x93
 6502 024f 04       		.uleb128 0x4
 6503 0250 08000000 		.4byte	.LVL53
 6504 0254 14000000 		.4byte	.LFE2
 6505 0258 0600     		.2byte	0x6
 6506 025a F3       		.byte	0xf3
 6507 025b 03       		.uleb128 0x3
 6508 025c F5       		.byte	0xf5
 6509 025d 00       		.uleb128 0
 6510 025e 29       		.uleb128 0x29
 6511 025f 9F       		.byte	0x9f
 6512 0260 00000000 		.4byte	0
 6513 0264 00000000 		.4byte	0
 6514              	.LLST12:
 6515 0268 00000000 		.4byte	.LVL52
 6516 026c 0C000000 		.4byte	.LVL54
 6517 0270 0600     		.2byte	0x6
 6518 0272 52       		.byte	0x52
 6519 0273 93       		.byte	0x93
 6520 0274 04       		.uleb128 0x4
 6521 0275 53       		.byte	0x53
 6522 0276 93       		.byte	0x93
 6523 0277 04       		.uleb128 0x4
 6524 0278 0C000000 		.4byte	.LVL54
 6525 027c 14000000 		.4byte	.LFE2
 6526 0280 0600     		.2byte	0x6
 6527 0282 F3       		.byte	0xf3
 6528 0283 03       		.uleb128 0x3
 6529 0284 F5       		.byte	0xf5
 6530 0285 02       		.uleb128 0x2
ARM GAS  /tmp/cctkbEOJ.s 			page 116


 6531 0286 29       		.uleb128 0x29
 6532 0287 9F       		.byte	0x9f
 6533 0288 00000000 		.4byte	0
 6534 028c 00000000 		.4byte	0
 6535              	.LLST13:
 6536 0290 00000000 		.4byte	.LFB3
 6537 0294 04000000 		.4byte	.LCFI3
 6538 0298 0200     		.2byte	0x2
 6539 029a 7D       		.byte	0x7d
 6540 029b 00       		.sleb128 0
 6541 029c 04000000 		.4byte	.LCFI3
 6542 02a0 84000000 		.4byte	.LFE3
 6543 02a4 0200     		.2byte	0x2
 6544 02a6 7D       		.byte	0x7d
 6545 02a7 20       		.sleb128 32
 6546 02a8 00000000 		.4byte	0
 6547 02ac 00000000 		.4byte	0
 6548              	.LLST14:
 6549 02b0 00000000 		.4byte	.LVL56
 6550 02b4 0A000000 		.4byte	.LVL57
 6551 02b8 0600     		.2byte	0x6
 6552 02ba 50       		.byte	0x50
 6553 02bb 93       		.byte	0x93
 6554 02bc 04       		.uleb128 0x4
 6555 02bd 51       		.byte	0x51
 6556 02be 93       		.byte	0x93
 6557 02bf 04       		.uleb128 0x4
 6558 02c0 0A000000 		.4byte	.LVL57
 6559 02c4 84000000 		.4byte	.LFE3
 6560 02c8 0600     		.2byte	0x6
 6561 02ca F3       		.byte	0xf3
 6562 02cb 03       		.uleb128 0x3
 6563 02cc F5       		.byte	0xf5
 6564 02cd 00       		.uleb128 0
 6565 02ce 29       		.uleb128 0x29
 6566 02cf 9F       		.byte	0x9f
 6567 02d0 00000000 		.4byte	0
 6568 02d4 00000000 		.4byte	0
 6569              	.LLST15:
 6570 02d8 00000000 		.4byte	.LVL56
 6571 02dc 0F000000 		.4byte	.LVL58-1
 6572 02e0 0600     		.2byte	0x6
 6573 02e2 52       		.byte	0x52
 6574 02e3 93       		.byte	0x93
 6575 02e4 04       		.uleb128 0x4
 6576 02e5 53       		.byte	0x53
 6577 02e6 93       		.byte	0x93
 6578 02e7 04       		.uleb128 0x4
 6579 02e8 0F000000 		.4byte	.LVL58-1
 6580 02ec 16000000 		.4byte	.LVL59
 6581 02f0 0600     		.2byte	0x6
 6582 02f2 F3       		.byte	0xf3
 6583 02f3 03       		.uleb128 0x3
 6584 02f4 F5       		.byte	0xf5
 6585 02f5 02       		.uleb128 0x2
 6586 02f6 29       		.uleb128 0x29
 6587 02f7 9F       		.byte	0x9f
ARM GAS  /tmp/cctkbEOJ.s 			page 117


 6588 02f8 16000000 		.4byte	.LVL59
 6589 02fc 84000000 		.4byte	.LFE3
 6590 0300 0600     		.2byte	0x6
 6591 0302 56       		.byte	0x56
 6592 0303 93       		.byte	0x93
 6593 0304 04       		.uleb128 0x4
 6594 0305 57       		.byte	0x57
 6595 0306 93       		.byte	0x93
 6596 0307 04       		.uleb128 0x4
 6597 0308 00000000 		.4byte	0
 6598 030c 00000000 		.4byte	0
 6599              	.LLST16:
 6600 0310 64000000 		.4byte	.LVL66
 6601 0314 6B000000 		.4byte	.LVL67-1
 6602 0318 0800     		.2byte	0x8
 6603 031a F5       		.byte	0xf5
 6604 031b 04       		.uleb128 0x4
 6605 031c 29       		.uleb128 0x29
 6606 031d F5       		.byte	0xf5
 6607 031e 02       		.uleb128 0x2
 6608 031f 29       		.uleb128 0x29
 6609 0320 1E       		.byte	0x1e
 6610 0321 9F       		.byte	0x9f
 6611 0322 70000000 		.4byte	.LVL68
 6612 0326 77000000 		.4byte	.LVL69-1
 6613 032a 0800     		.2byte	0x8
 6614 032c F5       		.byte	0xf5
 6615 032d 00       		.uleb128 0
 6616 032e 29       		.uleb128 0x29
 6617 032f F5       		.byte	0xf5
 6618 0330 00       		.uleb128 0
 6619 0331 29       		.uleb128 0x29
 6620 0332 22       		.byte	0x22
 6621 0333 9F       		.byte	0x9f
 6622 0334 00000000 		.4byte	0
 6623 0338 00000000 		.4byte	0
 6624              	.LLST17:
 6625 033c 00000000 		.4byte	.LFB4
 6626 0340 02000000 		.4byte	.LCFI4
 6627 0344 0200     		.2byte	0x2
 6628 0346 7D       		.byte	0x7d
 6629 0347 00       		.sleb128 0
 6630 0348 02000000 		.4byte	.LCFI4
 6631 034c 38000000 		.4byte	.LFE4
 6632 0350 0200     		.2byte	0x2
 6633 0352 7D       		.byte	0x7d
 6634 0353 18       		.sleb128 24
 6635 0354 00000000 		.4byte	0
 6636 0358 00000000 		.4byte	0
 6637              	.LLST18:
 6638 035c 00000000 		.4byte	.LVL72
 6639 0360 0A000000 		.4byte	.LVL73
 6640 0364 0600     		.2byte	0x6
 6641 0366 50       		.byte	0x50
 6642 0367 93       		.byte	0x93
 6643 0368 04       		.uleb128 0x4
 6644 0369 51       		.byte	0x51
ARM GAS  /tmp/cctkbEOJ.s 			page 118


 6645 036a 93       		.byte	0x93
 6646 036b 04       		.uleb128 0x4
 6647 036c 0A000000 		.4byte	.LVL73
 6648 0370 38000000 		.4byte	.LFE4
 6649 0374 0600     		.2byte	0x6
 6650 0376 F3       		.byte	0xf3
 6651 0377 03       		.uleb128 0x3
 6652 0378 F5       		.byte	0xf5
 6653 0379 00       		.uleb128 0
 6654 037a 29       		.uleb128 0x29
 6655 037b 9F       		.byte	0x9f
 6656 037c 00000000 		.4byte	0
 6657 0380 00000000 		.4byte	0
 6658              	.LLST19:
 6659 0384 00000000 		.4byte	.LVL72
 6660 0388 11000000 		.4byte	.LVL74-1
 6661 038c 0600     		.2byte	0x6
 6662 038e 52       		.byte	0x52
 6663 038f 93       		.byte	0x93
 6664 0390 04       		.uleb128 0x4
 6665 0391 53       		.byte	0x53
 6666 0392 93       		.byte	0x93
 6667 0393 04       		.uleb128 0x4
 6668 0394 11000000 		.4byte	.LVL74-1
 6669 0398 38000000 		.4byte	.LFE4
 6670 039c 0600     		.2byte	0x6
 6671 039e F3       		.byte	0xf3
 6672 039f 03       		.uleb128 0x3
 6673 03a0 F5       		.byte	0xf5
 6674 03a1 02       		.uleb128 0x2
 6675 03a2 29       		.uleb128 0x29
 6676 03a3 9F       		.byte	0x9f
 6677 03a4 00000000 		.4byte	0
 6678 03a8 00000000 		.4byte	0
 6679              	.LLST20:
 6680 03ac 00000000 		.4byte	.LFB5
 6681 03b0 02000000 		.4byte	.LCFI5
 6682 03b4 0200     		.2byte	0x2
 6683 03b6 7D       		.byte	0x7d
 6684 03b7 00       		.sleb128 0
 6685 03b8 02000000 		.4byte	.LCFI5
 6686 03bc 28000000 		.4byte	.LFE5
 6687 03c0 0200     		.2byte	0x2
 6688 03c2 7D       		.byte	0x7d
 6689 03c3 18       		.sleb128 24
 6690 03c4 00000000 		.4byte	0
 6691 03c8 00000000 		.4byte	0
 6692              	.LLST21:
 6693 03cc 00000000 		.4byte	.LVL79
 6694 03d0 12000000 		.4byte	.LVL81
 6695 03d4 0600     		.2byte	0x6
 6696 03d6 50       		.byte	0x50
 6697 03d7 93       		.byte	0x93
 6698 03d8 04       		.uleb128 0x4
 6699 03d9 51       		.byte	0x51
 6700 03da 93       		.byte	0x93
 6701 03db 04       		.uleb128 0x4
ARM GAS  /tmp/cctkbEOJ.s 			page 119


 6702 03dc 12000000 		.4byte	.LVL81
 6703 03e0 28000000 		.4byte	.LFE5
 6704 03e4 0600     		.2byte	0x6
 6705 03e6 F3       		.byte	0xf3
 6706 03e7 03       		.uleb128 0x3
 6707 03e8 F5       		.byte	0xf5
 6708 03e9 00       		.uleb128 0
 6709 03ea 29       		.uleb128 0x29
 6710 03eb 9F       		.byte	0x9f
 6711 03ec 00000000 		.4byte	0
 6712 03f0 00000000 		.4byte	0
 6713              	.LLST22:
 6714 03f4 00000000 		.4byte	.LVL79
 6715 03f8 0E000000 		.4byte	.LVL80
 6716 03fc 0600     		.2byte	0x6
 6717 03fe 52       		.byte	0x52
 6718 03ff 93       		.byte	0x93
 6719 0400 04       		.uleb128 0x4
 6720 0401 53       		.byte	0x53
 6721 0402 93       		.byte	0x93
 6722 0403 04       		.uleb128 0x4
 6723 0404 0E000000 		.4byte	.LVL80
 6724 0408 28000000 		.4byte	.LFE5
 6725 040c 0600     		.2byte	0x6
 6726 040e F3       		.byte	0xf3
 6727 040f 03       		.uleb128 0x3
 6728 0410 F5       		.byte	0xf5
 6729 0411 02       		.uleb128 0x2
 6730 0412 29       		.uleb128 0x29
 6731 0413 9F       		.byte	0x9f
 6732 0414 00000000 		.4byte	0
 6733 0418 00000000 		.4byte	0
 6734              	.LLST23:
 6735 041c 00000000 		.4byte	.LFB6
 6736 0420 02000000 		.4byte	.LCFI6
 6737 0424 0200     		.2byte	0x2
 6738 0426 7D       		.byte	0x7d
 6739 0427 00       		.sleb128 0
 6740 0428 02000000 		.4byte	.LCFI6
 6741 042c 2C000000 		.4byte	.LFE6
 6742 0430 0200     		.2byte	0x2
 6743 0432 7D       		.byte	0x7d
 6744 0433 10       		.sleb128 16
 6745 0434 00000000 		.4byte	0
 6746 0438 00000000 		.4byte	0
 6747              	.LLST24:
 6748 043c 00000000 		.4byte	.LVL84
 6749 0440 0D000000 		.4byte	.LVL86-1
 6750 0444 0600     		.2byte	0x6
 6751 0446 50       		.byte	0x50
 6752 0447 93       		.byte	0x93
 6753 0448 04       		.uleb128 0x4
 6754 0449 51       		.byte	0x51
 6755 044a 93       		.byte	0x93
 6756 044b 04       		.uleb128 0x4
 6757 044c 0D000000 		.4byte	.LVL86-1
 6758 0450 2C000000 		.4byte	.LFE6
ARM GAS  /tmp/cctkbEOJ.s 			page 120


 6759 0454 0600     		.2byte	0x6
 6760 0456 F3       		.byte	0xf3
 6761 0457 03       		.uleb128 0x3
 6762 0458 F5       		.byte	0xf5
 6763 0459 00       		.uleb128 0
 6764 045a 29       		.uleb128 0x29
 6765 045b 9F       		.byte	0x9f
 6766 045c 00000000 		.4byte	0
 6767 0460 00000000 		.4byte	0
 6768              	.LLST25:
 6769 0464 00000000 		.4byte	.LVL84
 6770 0468 08000000 		.4byte	.LVL85
 6771 046c 0600     		.2byte	0x6
 6772 046e 52       		.byte	0x52
 6773 046f 93       		.byte	0x93
 6774 0470 04       		.uleb128 0x4
 6775 0471 53       		.byte	0x53
 6776 0472 93       		.byte	0x93
 6777 0473 04       		.uleb128 0x4
 6778 0474 08000000 		.4byte	.LVL85
 6779 0478 2C000000 		.4byte	.LFE6
 6780 047c 0600     		.2byte	0x6
 6781 047e F3       		.byte	0xf3
 6782 047f 03       		.uleb128 0x3
 6783 0480 F5       		.byte	0xf5
 6784 0481 02       		.uleb128 0x2
 6785 0482 29       		.uleb128 0x29
 6786 0483 9F       		.byte	0x9f
 6787 0484 00000000 		.4byte	0
 6788 0488 00000000 		.4byte	0
 6789              	.LLST26:
 6790 048c 00000000 		.4byte	.LFB7
 6791 0490 02000000 		.4byte	.LCFI7
 6792 0494 0200     		.2byte	0x2
 6793 0496 7D       		.byte	0x7d
 6794 0497 00       		.sleb128 0
 6795 0498 02000000 		.4byte	.LCFI7
 6796 049c 30000000 		.4byte	.LFE7
 6797 04a0 0200     		.2byte	0x2
 6798 04a2 7D       		.byte	0x7d
 6799 04a3 10       		.sleb128 16
 6800 04a4 00000000 		.4byte	0
 6801 04a8 00000000 		.4byte	0
 6802              	.LLST27:
 6803 04ac 00000000 		.4byte	.LVL90
 6804 04b0 09000000 		.4byte	.LVL91-1
 6805 04b4 0600     		.2byte	0x6
 6806 04b6 50       		.byte	0x50
 6807 04b7 93       		.byte	0x93
 6808 04b8 04       		.uleb128 0x4
 6809 04b9 51       		.byte	0x51
 6810 04ba 93       		.byte	0x93
 6811 04bb 04       		.uleb128 0x4
 6812 04bc 09000000 		.4byte	.LVL91-1
 6813 04c0 30000000 		.4byte	.LFE7
 6814 04c4 0600     		.2byte	0x6
 6815 04c6 F3       		.byte	0xf3
ARM GAS  /tmp/cctkbEOJ.s 			page 121


 6816 04c7 03       		.uleb128 0x3
 6817 04c8 F5       		.byte	0xf5
 6818 04c9 00       		.uleb128 0
 6819 04ca 29       		.uleb128 0x29
 6820 04cb 9F       		.byte	0x9f
 6821 04cc 00000000 		.4byte	0
 6822 04d0 00000000 		.4byte	0
 6823              	.LLST28:
 6824 04d4 00000000 		.4byte	.LFB8
 6825 04d8 04000000 		.4byte	.LCFI8
 6826 04dc 0200     		.2byte	0x2
 6827 04de 7D       		.byte	0x7d
 6828 04df 00       		.sleb128 0
 6829 04e0 04000000 		.4byte	.LCFI8
 6830 04e4 08000000 		.4byte	.LCFI9
 6831 04e8 0200     		.2byte	0x2
 6832 04ea 7D       		.byte	0x7d
 6833 04eb 24       		.sleb128 36
 6834 04ec 08000000 		.4byte	.LCFI9
 6835 04f0 EC020000 		.4byte	.LFE8
 6836 04f4 0300     		.2byte	0x3
 6837 04f6 7D       		.byte	0x7d
 6838 04f7 F000     		.sleb128 112
 6839 04f9 00000000 		.4byte	0
 6840 04fd 00000000 		.4byte	0
 6841              	.LLST29:
 6842 0501 00000000 		.4byte	.LVL94
 6843 0505 0C000000 		.4byte	.LVL95
 6844 0509 0100     		.2byte	0x1
 6845 050b 50       		.byte	0x50
 6846 050c 0C000000 		.4byte	.LVL95
 6847 0510 EC020000 		.4byte	.LFE8
 6848 0514 0100     		.2byte	0x1
 6849 0516 56       		.byte	0x56
 6850 0517 00000000 		.4byte	0
 6851 051b 00000000 		.4byte	0
 6852              	.LLST30:
 6853 051f 00000000 		.4byte	.LVL94
 6854 0523 13000000 		.4byte	.LVL96-1
 6855 0527 0600     		.2byte	0x6
 6856 0529 52       		.byte	0x52
 6857 052a 93       		.byte	0x93
 6858 052b 04       		.uleb128 0x4
 6859 052c 53       		.byte	0x53
 6860 052d 93       		.byte	0x93
 6861 052e 04       		.uleb128 0x4
 6862 052f 13000000 		.4byte	.LVL96-1
 6863 0533 EC020000 		.4byte	.LFE8
 6864 0537 0200     		.2byte	0x2
 6865 0539 91       		.byte	0x91
 6866 053a 50       		.sleb128 -48
 6867 053b 00000000 		.4byte	0
 6868 053f 00000000 		.4byte	0
 6869              	.LLST31:
 6870 0543 04010000 		.4byte	.LVL132
 6871 0547 0A010000 		.4byte	.LVL133
 6872 054b 0600     		.2byte	0x6
ARM GAS  /tmp/cctkbEOJ.s 			page 122


 6873 054d 50       		.byte	0x50
 6874 054e 93       		.byte	0x93
 6875 054f 04       		.uleb128 0x4
 6876 0550 51       		.byte	0x51
 6877 0551 93       		.byte	0x93
 6878 0552 04       		.uleb128 0x4
 6879 0553 0A010000 		.4byte	.LVL133
 6880 0557 EC020000 		.4byte	.LFE8
 6881 055b 0300     		.2byte	0x3
 6882 055d 91       		.byte	0x91
 6883 055e A07F     		.sleb128 -96
 6884 0560 00000000 		.4byte	0
 6885 0564 00000000 		.4byte	0
 6886              	.LLST32:
 6887 0568 14010000 		.4byte	.LVL135
 6888 056c 1A010000 		.4byte	.LVL136
 6889 0570 0600     		.2byte	0x6
 6890 0572 50       		.byte	0x50
 6891 0573 93       		.byte	0x93
 6892 0574 04       		.uleb128 0x4
 6893 0575 51       		.byte	0x51
 6894 0576 93       		.byte	0x93
 6895 0577 04       		.uleb128 0x4
 6896 0578 1A010000 		.4byte	.LVL136
 6897 057c EC020000 		.4byte	.LFE8
 6898 0580 0200     		.2byte	0x2
 6899 0582 91       		.byte	0x91
 6900 0583 40       		.sleb128 -64
 6901 0584 00000000 		.4byte	0
 6902 0588 00000000 		.4byte	0
 6903              	.LLST33:
 6904 058c 22010000 		.4byte	.LVL138
 6905 0590 26010000 		.4byte	.LVL139
 6906 0594 0600     		.2byte	0x6
 6907 0596 50       		.byte	0x50
 6908 0597 93       		.byte	0x93
 6909 0598 04       		.uleb128 0x4
 6910 0599 51       		.byte	0x51
 6911 059a 93       		.byte	0x93
 6912 059b 04       		.uleb128 0x4
 6913 059c 26010000 		.4byte	.LVL139
 6914 05a0 EC020000 		.4byte	.LFE8
 6915 05a4 0200     		.2byte	0x2
 6916 05a6 91       		.byte	0x91
 6917 05a7 48       		.sleb128 -56
 6918 05a8 00000000 		.4byte	0
 6919 05ac 00000000 		.4byte	0
 6920              	.LLST34:
 6921 05b0 64000000 		.4byte	.LVL112
 6922 05b4 66000000 		.4byte	.LVL113
 6923 05b8 0600     		.2byte	0x6
 6924 05ba 50       		.byte	0x50
 6925 05bb 93       		.byte	0x93
 6926 05bc 04       		.uleb128 0x4
 6927 05bd 51       		.byte	0x51
 6928 05be 93       		.byte	0x93
 6929 05bf 04       		.uleb128 0x4
ARM GAS  /tmp/cctkbEOJ.s 			page 123


 6930 05c0 66000000 		.4byte	.LVL113
 6931 05c4 EC020000 		.4byte	.LFE8
 6932 05c8 0300     		.2byte	0x3
 6933 05ca 91       		.byte	0x91
 6934 05cb A87F     		.sleb128 -88
 6935 05cd 00000000 		.4byte	0
 6936 05d1 00000000 		.4byte	0
 6937              	.LLST35:
 6938 05d5 76000000 		.4byte	.LVL115
 6939 05d9 7A000000 		.4byte	.LVL116
 6940 05dd 0600     		.2byte	0x6
 6941 05df 50       		.byte	0x50
 6942 05e0 93       		.byte	0x93
 6943 05e1 04       		.uleb128 0x4
 6944 05e2 51       		.byte	0x51
 6945 05e3 93       		.byte	0x93
 6946 05e4 04       		.uleb128 0x4
 6947 05e5 7A000000 		.4byte	.LVL116
 6948 05e9 EC020000 		.4byte	.LFE8
 6949 05ed 0300     		.2byte	0x3
 6950 05ef 91       		.byte	0x91
 6951 05f0 B07F     		.sleb128 -80
 6952 05f2 00000000 		.4byte	0
 6953 05f6 00000000 		.4byte	0
 6954              	.LLST36:
 6955 05fa 8A000000 		.4byte	.LVL118
 6956 05fe 8E000000 		.4byte	.LVL119
 6957 0602 0600     		.2byte	0x6
 6958 0604 50       		.byte	0x50
 6959 0605 93       		.byte	0x93
 6960 0606 04       		.uleb128 0x4
 6961 0607 51       		.byte	0x51
 6962 0608 93       		.byte	0x93
 6963 0609 04       		.uleb128 0x4
 6964 060a 8E000000 		.4byte	.LVL119
 6965 060e EC020000 		.4byte	.LFE8
 6966 0612 0300     		.2byte	0x3
 6967 0614 91       		.byte	0x91
 6968 0615 B87F     		.sleb128 -72
 6969 0617 00000000 		.4byte	0
 6970 061b 00000000 		.4byte	0
 6971              	.LLST37:
 6972 061f C8000000 		.4byte	.LVL125
 6973 0623 0E020000 		.4byte	.LVL165
 6974 0627 0600     		.2byte	0x6
 6975 0629 58       		.byte	0x58
 6976 062a 93       		.byte	0x93
 6977 062b 04       		.uleb128 0x4
 6978 062c 59       		.byte	0x59
 6979 062d 93       		.byte	0x93
 6980 062e 04       		.uleb128 0x4
 6981 062f 00000000 		.4byte	0
 6982 0633 00000000 		.4byte	0
 6983              	.LLST38:
 6984 0637 F6000000 		.4byte	.LVL130
 6985 063b 36020000 		.4byte	.LVL170
 6986 063f 0600     		.2byte	0x6
ARM GAS  /tmp/cctkbEOJ.s 			page 124


 6987 0641 5A       		.byte	0x5a
 6988 0642 93       		.byte	0x93
 6989 0643 04       		.uleb128 0x4
 6990 0644 5B       		.byte	0x5b
 6991 0645 93       		.byte	0x93
 6992 0646 04       		.uleb128 0x4
 6993 0647 00000000 		.4byte	0
 6994 064b 00000000 		.4byte	0
 6995              	.LLST39:
 6996 064f 52010000 		.4byte	.LVL144
 6997 0653 56010000 		.4byte	.LVL145
 6998 0657 0600     		.2byte	0x6
 6999 0659 50       		.byte	0x50
 7000 065a 93       		.byte	0x93
 7001 065b 04       		.uleb128 0x4
 7002 065c 51       		.byte	0x51
 7003 065d 93       		.byte	0x93
 7004 065e 04       		.uleb128 0x4
 7005 065f 56010000 		.4byte	.LVL145
 7006 0663 EC020000 		.4byte	.LFE8
 7007 0667 0300     		.2byte	0x3
 7008 0669 91       		.byte	0x91
 7009 066a 987F     		.sleb128 -104
 7010 066c 00000000 		.4byte	0
 7011 0670 00000000 		.4byte	0
 7012              	.LLST40:
 7013 0674 82010000 		.4byte	.LVL150
 7014 0678 86010000 		.4byte	.LVL151
 7015 067c 0600     		.2byte	0x6
 7016 067e 50       		.byte	0x50
 7017 067f 93       		.byte	0x93
 7018 0680 04       		.uleb128 0x4
 7019 0681 51       		.byte	0x51
 7020 0682 93       		.byte	0x93
 7021 0683 04       		.uleb128 0x4
 7022 0684 86010000 		.4byte	.LVL151
 7023 0688 EC020000 		.4byte	.LFE8
 7024 068c 0300     		.2byte	0x3
 7025 068e 91       		.byte	0x91
 7026 068f A87F     		.sleb128 -88
 7027 0691 00000000 		.4byte	0
 7028 0695 00000000 		.4byte	0
 7029              	.LLST41:
 7030 0699 B6010000 		.4byte	.LVL156
 7031 069d BA010000 		.4byte	.LVL157
 7032 06a1 0600     		.2byte	0x6
 7033 06a3 50       		.byte	0x50
 7034 06a4 93       		.byte	0x93
 7035 06a5 04       		.uleb128 0x4
 7036 06a6 51       		.byte	0x51
 7037 06a7 93       		.byte	0x93
 7038 06a8 04       		.uleb128 0x4
 7039 06a9 BA010000 		.4byte	.LVL157
 7040 06ad EC020000 		.4byte	.LFE8
 7041 06b1 0300     		.2byte	0x3
 7042 06b3 91       		.byte	0x91
 7043 06b4 B07F     		.sleb128 -80
ARM GAS  /tmp/cctkbEOJ.s 			page 125


 7044 06b6 00000000 		.4byte	0
 7045 06ba 00000000 		.4byte	0
 7046              	.LLST42:
 7047 06be 1C000000 		.4byte	.LVL98
 7048 06c2 20000000 		.4byte	.LVL99
 7049 06c6 0600     		.2byte	0x6
 7050 06c8 50       		.byte	0x50
 7051 06c9 93       		.byte	0x93
 7052 06ca 04       		.uleb128 0x4
 7053 06cb 51       		.byte	0x51
 7054 06cc 93       		.byte	0x93
 7055 06cd 04       		.uleb128 0x4
 7056 06ce 20000000 		.4byte	.LVL99
 7057 06d2 23000000 		.4byte	.LVL100-1
 7058 06d6 0600     		.2byte	0x6
 7059 06d8 58       		.byte	0x58
 7060 06d9 93       		.byte	0x93
 7061 06da 04       		.uleb128 0x4
 7062 06db 51       		.byte	0x51
 7063 06dc 93       		.byte	0x93
 7064 06dd 04       		.uleb128 0x4
 7065 06de 23000000 		.4byte	.LVL100-1
 7066 06e2 9A000000 		.4byte	.LVL121
 7067 06e6 0600     		.2byte	0x6
 7068 06e8 58       		.byte	0x58
 7069 06e9 93       		.byte	0x93
 7070 06ea 04       		.uleb128 0x4
 7071 06eb 57       		.byte	0x57
 7072 06ec 93       		.byte	0x93
 7073 06ed 04       		.uleb128 0x4
 7074 06ee 00000000 		.4byte	0
 7075 06f2 00000000 		.4byte	0
 7076              	.LLST43:
 7077 06f6 3C000000 		.4byte	.LVL106
 7078 06fa 40000000 		.4byte	.LVL107
 7079 06fe 0600     		.2byte	0x6
 7080 0700 50       		.byte	0x50
 7081 0701 93       		.byte	0x93
 7082 0702 04       		.uleb128 0x4
 7083 0703 51       		.byte	0x51
 7084 0704 93       		.byte	0x93
 7085 0705 04       		.uleb128 0x4
 7086 0706 40000000 		.4byte	.LVL107
 7087 070a EC020000 		.4byte	.LFE8
 7088 070e 0300     		.2byte	0x3
 7089 0710 91       		.byte	0x91
 7090 0711 A07F     		.sleb128 -96
 7091 0713 00000000 		.4byte	0
 7092 0717 00000000 		.4byte	0
 7093              	.LLST44:
 7094 071b 2C000000 		.4byte	.LVL102
 7095 071f 30000000 		.4byte	.LVL103
 7096 0723 0600     		.2byte	0x6
 7097 0725 50       		.byte	0x50
 7098 0726 93       		.byte	0x93
 7099 0727 04       		.uleb128 0x4
 7100 0728 51       		.byte	0x51
ARM GAS  /tmp/cctkbEOJ.s 			page 126


 7101 0729 93       		.byte	0x93
 7102 072a 04       		.uleb128 0x4
 7103 072b 30000000 		.4byte	.LVL103
 7104 072f EC020000 		.4byte	.LFE8
 7105 0733 0300     		.2byte	0x3
 7106 0735 91       		.byte	0x91
 7107 0736 987F     		.sleb128 -104
 7108 0738 00000000 		.4byte	0
 7109 073c 00000000 		.4byte	0
 7110              	.LLST45:
 7111 0740 52000000 		.4byte	.LVL110
 7112 0744 F4000000 		.4byte	.LVL129
 7113 0748 0600     		.2byte	0x6
 7114 074a 5A       		.byte	0x5a
 7115 074b 93       		.byte	0x93
 7116 074c 04       		.uleb128 0x4
 7117 074d 5B       		.byte	0x5b
 7118 074e 93       		.byte	0x93
 7119 074f 04       		.uleb128 0x4
 7120 0750 00000000 		.4byte	0
 7121 0754 00000000 		.4byte	0
 7122              	.LLST46:
 7123 0758 10020000 		.4byte	.LVL166
 7124 075c 42020000 		.4byte	.LVL173
 7125 0760 0600     		.2byte	0x6
 7126 0762 58       		.byte	0x58
 7127 0763 93       		.byte	0x93
 7128 0764 04       		.uleb128 0x4
 7129 0765 59       		.byte	0x59
 7130 0766 93       		.byte	0x93
 7131 0767 04       		.uleb128 0x4
 7132 0768 00000000 		.4byte	0
 7133 076c 00000000 		.4byte	0
 7134              	.LLST47:
 7135 0770 E8010000 		.4byte	.LVL160
 7136 0774 F3010000 		.4byte	.LVL161-1
 7137 0778 0C00     		.2byte	0xc
 7138 077a 91       		.byte	0x91
 7139 077b 50       		.sleb128 -48
 7140 077c F6       		.byte	0xf6
 7141 077d 08       		.byte	0x8
 7142 077e 29       		.uleb128 0x29
 7143 077f 76       		.byte	0x76
 7144 0780 30       		.sleb128 48
 7145 0781 F6       		.byte	0xf6
 7146 0782 08       		.byte	0x8
 7147 0783 29       		.uleb128 0x29
 7148 0784 1C       		.byte	0x1c
 7149 0785 9F       		.byte	0x9f
 7150 0786 00000000 		.4byte	0
 7151 078a 00000000 		.4byte	0
 7152              	.LLST48:
 7153 078e E8010000 		.4byte	.LVL160
 7154 0792 00020000 		.4byte	.LVL163
 7155 0796 0600     		.2byte	0x6
 7156 0798 54       		.byte	0x54
 7157 0799 93       		.byte	0x93
ARM GAS  /tmp/cctkbEOJ.s 			page 127


 7158 079a 04       		.uleb128 0x4
 7159 079b 55       		.byte	0x55
 7160 079c 93       		.byte	0x93
 7161 079d 04       		.uleb128 0x4
 7162 079e 00000000 		.4byte	0
 7163 07a2 00000000 		.4byte	0
 7164              	.LLST49:
 7165 07a6 00000000 		.4byte	.LFB10
 7166 07aa 04000000 		.4byte	.LCFI10
 7167 07ae 0200     		.2byte	0x2
 7168 07b0 7D       		.byte	0x7d
 7169 07b1 00       		.sleb128 0
 7170 07b2 04000000 		.4byte	.LCFI10
 7171 07b6 06000000 		.4byte	.LCFI11
 7172 07ba 0200     		.2byte	0x2
 7173 07bc 7D       		.byte	0x7d
 7174 07bd 20       		.sleb128 32
 7175 07be 06000000 		.4byte	.LCFI11
 7176 07c2 F8000000 		.4byte	.LFE10
 7177 07c6 0300     		.2byte	0x3
 7178 07c8 7D       		.byte	0x7d
 7179 07c9 D800     		.sleb128 88
 7180 07cb 00000000 		.4byte	0
 7181 07cf 00000000 		.4byte	0
 7182              	.LLST50:
 7183 07d3 00000000 		.4byte	.LVL191
 7184 07d7 12000000 		.4byte	.LVL192
 7185 07db 0600     		.2byte	0x6
 7186 07dd 50       		.byte	0x50
 7187 07de 93       		.byte	0x93
 7188 07df 04       		.uleb128 0x4
 7189 07e0 51       		.byte	0x51
 7190 07e1 93       		.byte	0x93
 7191 07e2 04       		.uleb128 0x4
 7192 07e3 12000000 		.4byte	.LVL192
 7193 07e7 F8000000 		.4byte	.LFE10
 7194 07eb 0600     		.2byte	0x6
 7195 07ed F3       		.byte	0xf3
 7196 07ee 03       		.uleb128 0x3
 7197 07ef F5       		.byte	0xf5
 7198 07f0 00       		.uleb128 0
 7199 07f1 29       		.uleb128 0x29
 7200 07f2 9F       		.byte	0x9f
 7201 07f3 00000000 		.4byte	0
 7202 07f7 00000000 		.4byte	0
 7203              	.LLST51:
 7204 07fb 00000000 		.4byte	.LVL191
 7205 07ff 16000000 		.4byte	.LVL194
 7206 0803 0100     		.2byte	0x1
 7207 0805 52       		.byte	0x52
 7208 0806 16000000 		.4byte	.LVL194
 7209 080a 1B000000 		.4byte	.LVL195-1
 7210 080e 0100     		.2byte	0x1
 7211 0810 50       		.byte	0x50
 7212 0811 1B000000 		.4byte	.LVL195-1
 7213 0815 6E000000 		.4byte	.LVL205
 7214 0819 0100     		.2byte	0x1
ARM GAS  /tmp/cctkbEOJ.s 			page 128


 7215 081b 57       		.byte	0x57
 7216 081c 6E000000 		.4byte	.LVL205
 7217 0820 F8000000 		.4byte	.LFE10
 7218 0824 0400     		.2byte	0x4
 7219 0826 F3       		.byte	0xf3
 7220 0827 01       		.uleb128 0x1
 7221 0828 52       		.byte	0x52
 7222 0829 9F       		.byte	0x9f
 7223 082a 00000000 		.4byte	0
 7224 082e 00000000 		.4byte	0
 7225              	.LLST52:
 7226 0832 00000000 		.4byte	.LVL191
 7227 0836 14000000 		.4byte	.LVL193
 7228 083a 0100     		.2byte	0x1
 7229 083c 53       		.byte	0x53
 7230 083d 14000000 		.4byte	.LVL193
 7231 0841 F8000000 		.4byte	.LFE10
 7232 0845 0100     		.2byte	0x1
 7233 0847 5A       		.byte	0x5a
 7234 0848 00000000 		.4byte	0
 7235 084c 00000000 		.4byte	0
 7236              	.LLST53:
 7237 0850 36000000 		.4byte	.LVL199
 7238 0854 3D000000 		.4byte	.LVL200-1
 7239 0858 0600     		.2byte	0x6
 7240 085a 52       		.byte	0x52
 7241 085b 93       		.byte	0x93
 7242 085c 04       		.uleb128 0x4
 7243 085d 53       		.byte	0x53
 7244 085e 93       		.byte	0x93
 7245 085f 04       		.uleb128 0x4
 7246 0860 00000000 		.4byte	0
 7247 0864 00000000 		.4byte	0
 7248              	.LLST54:
 7249 0868 5E000000 		.4byte	.LVL203
 7250 086c A4000000 		.4byte	.LVL212
 7251 0870 0600     		.2byte	0x6
 7252 0872 58       		.byte	0x58
 7253 0873 93       		.byte	0x93
 7254 0874 04       		.uleb128 0x4
 7255 0875 59       		.byte	0x59
 7256 0876 93       		.byte	0x93
 7257 0877 04       		.uleb128 0x4
 7258 0878 00000000 		.4byte	0
 7259 087c 00000000 		.4byte	0
 7260              	.LLST55:
 7261 0880 6E000000 		.4byte	.LVL205
 7262 0884 BE000000 		.4byte	.LVL215
 7263 0888 0600     		.2byte	0x6
 7264 088a 56       		.byte	0x56
 7265 088b 93       		.byte	0x93
 7266 088c 04       		.uleb128 0x4
 7267 088d 57       		.byte	0x57
 7268 088e 93       		.byte	0x93
 7269 088f 04       		.uleb128 0x4
 7270 0890 00000000 		.4byte	0
 7271 0894 00000000 		.4byte	0
ARM GAS  /tmp/cctkbEOJ.s 			page 129


 7272              	.LLST56:
 7273 0898 00000000 		.4byte	.LFB9
 7274 089c 02000000 		.4byte	.LCFI12
 7275 08a0 0200     		.2byte	0x2
 7276 08a2 7D       		.byte	0x7d
 7277 08a3 00       		.sleb128 0
 7278 08a4 02000000 		.4byte	.LCFI12
 7279 08a8 04000000 		.4byte	.LCFI13
 7280 08ac 0200     		.2byte	0x2
 7281 08ae 7D       		.byte	0x7d
 7282 08af 10       		.sleb128 16
 7283 08b0 04000000 		.4byte	.LCFI13
 7284 08b4 58000000 		.4byte	.LFE9
 7285 08b8 0300     		.2byte	0x3
 7286 08ba 7D       		.byte	0x7d
 7287 08bb E000     		.sleb128 96
 7288 08bd 00000000 		.4byte	0
 7289 08c1 00000000 		.4byte	0
 7290              	.LLST57:
 7291 08c5 00000000 		.4byte	.LVL222
 7292 08c9 11000000 		.4byte	.LVL223-1
 7293 08cd 0100     		.2byte	0x1
 7294 08cf 50       		.byte	0x50
 7295 08d0 11000000 		.4byte	.LVL223-1
 7296 08d4 58000000 		.4byte	.LFE9
 7297 08d8 0400     		.2byte	0x4
 7298 08da F3       		.byte	0xf3
 7299 08db 01       		.uleb128 0x1
 7300 08dc 50       		.byte	0x50
 7301 08dd 9F       		.byte	0x9f
 7302 08de 00000000 		.4byte	0
 7303 08e2 00000000 		.4byte	0
 7304              	.LLST58:
 7305 08e6 00000000 		.4byte	.LVL222
 7306 08ea 11000000 		.4byte	.LVL223-1
 7307 08ee 0600     		.2byte	0x6
 7308 08f0 52       		.byte	0x52
 7309 08f1 93       		.byte	0x93
 7310 08f2 04       		.uleb128 0x4
 7311 08f3 53       		.byte	0x53
 7312 08f4 93       		.byte	0x93
 7313 08f5 04       		.uleb128 0x4
 7314 08f6 11000000 		.4byte	.LVL223-1
 7315 08fa 58000000 		.4byte	.LFE9
 7316 08fe 0600     		.2byte	0x6
 7317 0900 F3       		.byte	0xf3
 7318 0901 03       		.uleb128 0x3
 7319 0902 F5       		.byte	0xf5
 7320 0903 02       		.uleb128 0x2
 7321 0904 29       		.uleb128 0x29
 7322 0905 9F       		.byte	0x9f
 7323 0906 00000000 		.4byte	0
 7324 090a 00000000 		.4byte	0
 7325              	.LLST59:
 7326 090e 00000000 		.4byte	.LFB11
 7327 0912 04000000 		.4byte	.LCFI14
 7328 0916 0200     		.2byte	0x2
ARM GAS  /tmp/cctkbEOJ.s 			page 130


 7329 0918 7D       		.byte	0x7d
 7330 0919 00       		.sleb128 0
 7331 091a 04000000 		.4byte	.LCFI14
 7332 091e B0000000 		.4byte	.LFE11
 7333 0922 0200     		.2byte	0x2
 7334 0924 7D       		.byte	0x7d
 7335 0925 20       		.sleb128 32
 7336 0926 00000000 		.4byte	0
 7337 092a 00000000 		.4byte	0
 7338              	.LLST60:
 7339 092e 00000000 		.4byte	.LVL229
 7340 0932 0E000000 		.4byte	.LVL230
 7341 0936 0100     		.2byte	0x1
 7342 0938 50       		.byte	0x50
 7343 0939 0E000000 		.4byte	.LVL230
 7344 093d 2A000000 		.4byte	.LVL235
 7345 0941 0100     		.2byte	0x1
 7346 0943 54       		.byte	0x54
 7347 0944 2A000000 		.4byte	.LVL235
 7348 0948 B0000000 		.4byte	.LFE11
 7349 094c 0400     		.2byte	0x4
 7350 094e F3       		.byte	0xf3
 7351 094f 01       		.uleb128 0x1
 7352 0950 50       		.byte	0x50
 7353 0951 9F       		.byte	0x9f
 7354 0952 00000000 		.4byte	0
 7355 0956 00000000 		.4byte	0
 7356              	.LLST61:
 7357 095a 1E000000 		.4byte	.LVL232
 7358 095e 52000000 		.4byte	.LVL240
 7359 0962 1400     		.2byte	0x14
 7360 0964 F5       		.byte	0xf5
 7361 0965 06       		.uleb128 0x6
 7362 0966 29       		.uleb128 0x29
 7363 0967 F5       		.byte	0xf5
 7364 0968 08       		.uleb128 0x8
 7365 0969 29       		.uleb128 0x29
 7366 096a 22       		.byte	0x22
 7367 096b F4       		.byte	0xf4
 7368 096c 29       		.uleb128 0x29
 7369 096d 08       		.byte	0x8
 7370 096e 00000000 		.4byte	0
 7371 0972 0000E03F 		.4byte	0x3fe00000
 7372 0976 1E       		.byte	0x1e
 7373 0977 9F       		.byte	0x9f
 7374 0978 00000000 		.4byte	0
 7375 097c 00000000 		.4byte	0
 7376              	.LLST62:
 7377 0980 2C000000 		.4byte	.LVL236
 7378 0984 35000000 		.4byte	.LVL237-1
 7379 0988 1D00     		.2byte	0x1d
 7380 098a F3       		.byte	0xf3
 7381 098b 01       		.uleb128 0x1
 7382 098c 50       		.byte	0x50
 7383 098d F6       		.byte	0xf6
 7384 098e 08       		.byte	0x8
 7385 098f 29       		.uleb128 0x29
ARM GAS  /tmp/cctkbEOJ.s 			page 131


 7386 0990 F3       		.byte	0xf3
 7387 0991 01       		.uleb128 0x1
 7388 0992 50       		.byte	0x50
 7389 0993 F6       		.byte	0xf6
 7390 0994 08       		.byte	0x8
 7391 0995 29       		.uleb128 0x29
 7392 0996 22       		.byte	0x22
 7393 0997 F5       		.byte	0xf5
 7394 0998 08       		.uleb128 0x8
 7395 0999 29       		.uleb128 0x29
 7396 099a 1E       		.byte	0x1e
 7397 099b F3       		.byte	0xf3
 7398 099c 01       		.uleb128 0x1
 7399 099d 50       		.byte	0x50
 7400 099e F6       		.byte	0xf6
 7401 099f 08       		.byte	0x8
 7402 09a0 29       		.uleb128 0x29
 7403 09a1 F5       		.byte	0xf5
 7404 09a2 08       		.uleb128 0x8
 7405 09a3 29       		.uleb128 0x29
 7406 09a4 22       		.byte	0x22
 7407 09a5 1B       		.byte	0x1b
 7408 09a6 9F       		.byte	0x9f
 7409 09a7 00000000 		.4byte	0
 7410 09ab 00000000 		.4byte	0
 7411              	.LLST63:
 7412 09af 00000000 		.4byte	.LFB13
 7413 09b3 04000000 		.4byte	.LCFI15
 7414 09b7 0200     		.2byte	0x2
 7415 09b9 7D       		.byte	0x7d
 7416 09ba 00       		.sleb128 0
 7417 09bb 04000000 		.4byte	.LCFI15
 7418 09bf 70000000 		.4byte	.LFE13
 7419 09c3 0200     		.2byte	0x2
 7420 09c5 7D       		.byte	0x7d
 7421 09c6 20       		.sleb128 32
 7422 09c7 00000000 		.4byte	0
 7423 09cb 00000000 		.4byte	0
 7424              	.LLST64:
 7425 09cf 00000000 		.4byte	.LVL247
 7426 09d3 0A000000 		.4byte	.LVL248
 7427 09d7 0100     		.2byte	0x1
 7428 09d9 50       		.byte	0x50
 7429 09da 0A000000 		.4byte	.LVL248
 7430 09de 20000000 		.4byte	.LVL251
 7431 09e2 0100     		.2byte	0x1
 7432 09e4 54       		.byte	0x54
 7433 09e5 20000000 		.4byte	.LVL251
 7434 09e9 70000000 		.4byte	.LFE13
 7435 09ed 0400     		.2byte	0x4
 7436 09ef F3       		.byte	0xf3
 7437 09f0 01       		.uleb128 0x1
 7438 09f1 50       		.byte	0x50
 7439 09f2 9F       		.byte	0x9f
 7440 09f3 00000000 		.4byte	0
 7441 09f7 00000000 		.4byte	0
 7442              	.LLST65:
ARM GAS  /tmp/cctkbEOJ.s 			page 132


 7443 09fb 26000000 		.4byte	.LVL252
 7444 09ff 58000000 		.4byte	.LVL256
 7445 0a03 0600     		.2byte	0x6
 7446 0a05 56       		.byte	0x56
 7447 0a06 93       		.byte	0x93
 7448 0a07 04       		.uleb128 0x4
 7449 0a08 57       		.byte	0x57
 7450 0a09 93       		.byte	0x93
 7451 0a0a 04       		.uleb128 0x4
 7452 0a0b 00000000 		.4byte	0
 7453 0a0f 00000000 		.4byte	0
 7454              	.LLST66:
 7455 0a13 00000000 		.4byte	.LFB14
 7456 0a17 04000000 		.4byte	.LCFI16
 7457 0a1b 0200     		.2byte	0x2
 7458 0a1d 7D       		.byte	0x7d
 7459 0a1e 00       		.sleb128 0
 7460 0a1f 04000000 		.4byte	.LCFI16
 7461 0a23 70000000 		.4byte	.LFE14
 7462 0a27 0200     		.2byte	0x2
 7463 0a29 7D       		.byte	0x7d
 7464 0a2a 20       		.sleb128 32
 7465 0a2b 00000000 		.4byte	0
 7466 0a2f 00000000 		.4byte	0
 7467              	.LLST67:
 7468 0a33 00000000 		.4byte	.LVL258
 7469 0a37 0A000000 		.4byte	.LVL259
 7470 0a3b 0100     		.2byte	0x1
 7471 0a3d 50       		.byte	0x50
 7472 0a3e 0A000000 		.4byte	.LVL259
 7473 0a42 20000000 		.4byte	.LVL262
 7474 0a46 0100     		.2byte	0x1
 7475 0a48 54       		.byte	0x54
 7476 0a49 20000000 		.4byte	.LVL262
 7477 0a4d 70000000 		.4byte	.LFE14
 7478 0a51 0400     		.2byte	0x4
 7479 0a53 F3       		.byte	0xf3
 7480 0a54 01       		.uleb128 0x1
 7481 0a55 50       		.byte	0x50
 7482 0a56 9F       		.byte	0x9f
 7483 0a57 00000000 		.4byte	0
 7484 0a5b 00000000 		.4byte	0
 7485              	.LLST68:
 7486 0a5f 26000000 		.4byte	.LVL263
 7487 0a63 58000000 		.4byte	.LVL267
 7488 0a67 0600     		.2byte	0x6
 7489 0a69 56       		.byte	0x56
 7490 0a6a 93       		.byte	0x93
 7491 0a6b 04       		.uleb128 0x4
 7492 0a6c 57       		.byte	0x57
 7493 0a6d 93       		.byte	0x93
 7494 0a6e 04       		.uleb128 0x4
 7495 0a6f 00000000 		.4byte	0
 7496 0a73 00000000 		.4byte	0
 7497              	.LLST69:
 7498 0a77 00000000 		.4byte	.LFB15
 7499 0a7b 02000000 		.4byte	.LCFI17
ARM GAS  /tmp/cctkbEOJ.s 			page 133


 7500 0a7f 0200     		.2byte	0x2
 7501 0a81 7D       		.byte	0x7d
 7502 0a82 00       		.sleb128 0
 7503 0a83 02000000 		.4byte	.LCFI17
 7504 0a87 04000000 		.4byte	.LCFI18
 7505 0a8b 0200     		.2byte	0x2
 7506 0a8d 7D       		.byte	0x7d
 7507 0a8e 10       		.sleb128 16
 7508 0a8f 04000000 		.4byte	.LCFI18
 7509 0a93 32000000 		.4byte	.LFE15
 7510 0a97 0300     		.2byte	0x3
 7511 0a99 7D       		.byte	0x7d
 7512 0a9a C800     		.sleb128 72
 7513 0a9c 00000000 		.4byte	0
 7514 0aa0 00000000 		.4byte	0
 7515              	.LLST70:
 7516 0aa4 00000000 		.4byte	.LVL269
 7517 0aa8 0A000000 		.4byte	.LVL270
 7518 0aac 0600     		.2byte	0x6
 7519 0aae 50       		.byte	0x50
 7520 0aaf 93       		.byte	0x93
 7521 0ab0 04       		.uleb128 0x4
 7522 0ab1 51       		.byte	0x51
 7523 0ab2 93       		.byte	0x93
 7524 0ab3 04       		.uleb128 0x4
 7525 0ab4 0A000000 		.4byte	.LVL270
 7526 0ab8 32000000 		.4byte	.LFE15
 7527 0abc 0600     		.2byte	0x6
 7528 0abe F3       		.byte	0xf3
 7529 0abf 03       		.uleb128 0x3
 7530 0ac0 F5       		.byte	0xf5
 7531 0ac1 00       		.uleb128 0
 7532 0ac2 29       		.uleb128 0x29
 7533 0ac3 9F       		.byte	0x9f
 7534 0ac4 00000000 		.4byte	0
 7535 0ac8 00000000 		.4byte	0
 7536              	.LLST71:
 7537 0acc 00000000 		.4byte	.LVL269
 7538 0ad0 0E000000 		.4byte	.LVL271
 7539 0ad4 0100     		.2byte	0x1
 7540 0ad6 52       		.byte	0x52
 7541 0ad7 0E000000 		.4byte	.LVL271
 7542 0adb 15000000 		.4byte	.LVL272-1
 7543 0adf 0100     		.2byte	0x1
 7544 0ae1 50       		.byte	0x50
 7545 0ae2 15000000 		.4byte	.LVL272-1
 7546 0ae6 32000000 		.4byte	.LFE15
 7547 0aea 0400     		.2byte	0x4
 7548 0aec F3       		.byte	0xf3
 7549 0aed 01       		.uleb128 0x1
 7550 0aee 52       		.byte	0x52
 7551 0aef 9F       		.byte	0x9f
 7552 0af0 00000000 		.4byte	0
 7553 0af4 00000000 		.4byte	0
 7554              	.LLST72:
 7555 0af8 00000000 		.4byte	.LFB12
 7556 0afc 02000000 		.4byte	.LCFI19
ARM GAS  /tmp/cctkbEOJ.s 			page 134


 7557 0b00 0200     		.2byte	0x2
 7558 0b02 7D       		.byte	0x7d
 7559 0b03 00       		.sleb128 0
 7560 0b04 02000000 		.4byte	.LCFI19
 7561 0b08 60000000 		.4byte	.LFE12
 7562 0b0c 0200     		.2byte	0x2
 7563 0b0e 7D       		.byte	0x7d
 7564 0b0f 10       		.sleb128 16
 7565 0b10 00000000 		.4byte	0
 7566 0b14 00000000 		.4byte	0
 7567              	.LLST73:
 7568 0b18 00000000 		.4byte	.LVL274
 7569 0b1c 07000000 		.4byte	.LVL275-1
 7570 0b20 0600     		.2byte	0x6
 7571 0b22 50       		.byte	0x50
 7572 0b23 93       		.byte	0x93
 7573 0b24 04       		.uleb128 0x4
 7574 0b25 51       		.byte	0x51
 7575 0b26 93       		.byte	0x93
 7576 0b27 04       		.uleb128 0x4
 7577 0b28 07000000 		.4byte	.LVL275-1
 7578 0b2c 60000000 		.4byte	.LFE12
 7579 0b30 0600     		.2byte	0x6
 7580 0b32 F3       		.byte	0xf3
 7581 0b33 03       		.uleb128 0x3
 7582 0b34 F5       		.byte	0xf5
 7583 0b35 00       		.uleb128 0
 7584 0b36 29       		.uleb128 0x29
 7585 0b37 9F       		.byte	0x9f
 7586 0b38 00000000 		.4byte	0
 7587 0b3c 00000000 		.4byte	0
 7588              	.LLST74:
 7589 0b40 00000000 		.4byte	.LVL274
 7590 0b44 07000000 		.4byte	.LVL275-1
 7591 0b48 0100     		.2byte	0x1
 7592 0b4a 52       		.byte	0x52
 7593 0b4b 07000000 		.4byte	.LVL275-1
 7594 0b4f 60000000 		.4byte	.LFE12
 7595 0b53 0100     		.2byte	0x1
 7596 0b55 56       		.byte	0x56
 7597 0b56 00000000 		.4byte	0
 7598 0b5a 00000000 		.4byte	0
 7599              	.LLST75:
 7600 0b5e 08000000 		.4byte	.LVL275
 7601 0b62 14000000 		.4byte	.LVL276
 7602 0b66 2800     		.2byte	0x28
 7603 0b68 F4       		.byte	0xf4
 7604 0b69 29       		.uleb128 0x29
 7605 0b6a 08       		.byte	0x8
 7606 0b6b 00000000 		.4byte	0
 7607 0b6f 0000F03F 		.4byte	0x3ff00000
 7608 0b73 F5       		.byte	0xf5
 7609 0b74 00       		.uleb128 0
 7610 0b75 29       		.uleb128 0x29
 7611 0b76 1B       		.byte	0x1b
 7612 0b77 F4       		.byte	0xf4
 7613 0b78 29       		.uleb128 0x29
ARM GAS  /tmp/cctkbEOJ.s 			page 135


 7614 0b79 08       		.byte	0x8
 7615 0b7a 00000000 		.4byte	0
 7616 0b7e 0000F03F 		.4byte	0x3ff00000
 7617 0b82 76       		.byte	0x76
 7618 0b83 00       		.sleb128 0
 7619 0b84 F6       		.byte	0xf6
 7620 0b85 08       		.byte	0x8
 7621 0b86 29       		.uleb128 0x29
 7622 0b87 76       		.byte	0x76
 7623 0b88 00       		.sleb128 0
 7624 0b89 F6       		.byte	0xf6
 7625 0b8a 08       		.byte	0x8
 7626 0b8b 29       		.uleb128 0x29
 7627 0b8c 22       		.byte	0x22
 7628 0b8d 1B       		.byte	0x1b
 7629 0b8e 1C       		.byte	0x1c
 7630 0b8f 9F       		.byte	0x9f
 7631 0b90 00000000 		.4byte	0
 7632 0b94 00000000 		.4byte	0
 7633              	.LLST76:
 7634 0b98 08000000 		.4byte	.LVL275
 7635 0b9c 14000000 		.4byte	.LVL276
 7636 0ba0 0600     		.2byte	0x6
 7637 0ba2 50       		.byte	0x50
 7638 0ba3 93       		.byte	0x93
 7639 0ba4 04       		.uleb128 0x4
 7640 0ba5 51       		.byte	0x51
 7641 0ba6 93       		.byte	0x93
 7642 0ba7 04       		.uleb128 0x4
 7643 0ba8 00000000 		.4byte	0
 7644 0bac 00000000 		.4byte	0
 7645              	.LLST77:
 7646 0bb0 00000000 		.4byte	.LFB16
 7647 0bb4 02000000 		.4byte	.LCFI20
 7648 0bb8 0200     		.2byte	0x2
 7649 0bba 7D       		.byte	0x7d
 7650 0bbb 00       		.sleb128 0
 7651 0bbc 02000000 		.4byte	.LCFI20
 7652 0bc0 04000000 		.4byte	.LCFI21
 7653 0bc4 0200     		.2byte	0x2
 7654 0bc6 7D       		.byte	0x7d
 7655 0bc7 10       		.sleb128 16
 7656 0bc8 04000000 		.4byte	.LCFI21
 7657 0bcc 32000000 		.4byte	.LFE16
 7658 0bd0 0300     		.2byte	0x3
 7659 0bd2 7D       		.byte	0x7d
 7660 0bd3 C800     		.sleb128 72
 7661 0bd5 00000000 		.4byte	0
 7662 0bd9 00000000 		.4byte	0
 7663              	.LLST78:
 7664 0bdd 00000000 		.4byte	.LVL283
 7665 0be1 0A000000 		.4byte	.LVL284
 7666 0be5 0600     		.2byte	0x6
 7667 0be7 50       		.byte	0x50
 7668 0be8 93       		.byte	0x93
 7669 0be9 04       		.uleb128 0x4
 7670 0bea 51       		.byte	0x51
ARM GAS  /tmp/cctkbEOJ.s 			page 136


 7671 0beb 93       		.byte	0x93
 7672 0bec 04       		.uleb128 0x4
 7673 0bed 0A000000 		.4byte	.LVL284
 7674 0bf1 32000000 		.4byte	.LFE16
 7675 0bf5 0600     		.2byte	0x6
 7676 0bf7 F3       		.byte	0xf3
 7677 0bf8 03       		.uleb128 0x3
 7678 0bf9 F5       		.byte	0xf5
 7679 0bfa 00       		.uleb128 0
 7680 0bfb 29       		.uleb128 0x29
 7681 0bfc 9F       		.byte	0x9f
 7682 0bfd 00000000 		.4byte	0
 7683 0c01 00000000 		.4byte	0
 7684              	.LLST79:
 7685 0c05 00000000 		.4byte	.LVL283
 7686 0c09 0E000000 		.4byte	.LVL285
 7687 0c0d 0100     		.2byte	0x1
 7688 0c0f 52       		.byte	0x52
 7689 0c10 0E000000 		.4byte	.LVL285
 7690 0c14 15000000 		.4byte	.LVL286-1
 7691 0c18 0100     		.2byte	0x1
 7692 0c1a 50       		.byte	0x50
 7693 0c1b 15000000 		.4byte	.LVL286-1
 7694 0c1f 32000000 		.4byte	.LFE16
 7695 0c23 0400     		.2byte	0x4
 7696 0c25 F3       		.byte	0xf3
 7697 0c26 01       		.uleb128 0x1
 7698 0c27 52       		.byte	0x52
 7699 0c28 9F       		.byte	0x9f
 7700 0c29 00000000 		.4byte	0
 7701 0c2d 00000000 		.4byte	0
 7702              	.LLST80:
 7703 0c31 00000000 		.4byte	.LFB17
 7704 0c35 04000000 		.4byte	.LCFI22
 7705 0c39 0200     		.2byte	0x2
 7706 0c3b 7D       		.byte	0x7d
 7707 0c3c 00       		.sleb128 0
 7708 0c3d 04000000 		.4byte	.LCFI22
 7709 0c41 0A000000 		.4byte	.LCFI23
 7710 0c45 0200     		.2byte	0x2
 7711 0c47 7D       		.byte	0x7d
 7712 0c48 24       		.sleb128 36
 7713 0c49 0A000000 		.4byte	.LCFI23
 7714 0c4d 00010000 		.4byte	.LFE17
 7715 0c51 0200     		.2byte	0x2
 7716 0c53 7D       		.byte	0x7d
 7717 0c54 30       		.sleb128 48
 7718 0c55 00000000 		.4byte	0
 7719 0c59 00000000 		.4byte	0
 7720              	.LLST81:
 7721 0c5d 00000000 		.4byte	.LVL288
 7722 0c61 16000000 		.4byte	.LVL290
 7723 0c65 0600     		.2byte	0x6
 7724 0c67 50       		.byte	0x50
 7725 0c68 93       		.byte	0x93
 7726 0c69 04       		.uleb128 0x4
 7727 0c6a 51       		.byte	0x51
ARM GAS  /tmp/cctkbEOJ.s 			page 137


 7728 0c6b 93       		.byte	0x93
 7729 0c6c 04       		.uleb128 0x4
 7730 0c6d 16000000 		.4byte	.LVL290
 7731 0c71 00010000 		.4byte	.LFE17
 7732 0c75 0600     		.2byte	0x6
 7733 0c77 F3       		.byte	0xf3
 7734 0c78 03       		.uleb128 0x3
 7735 0c79 F5       		.byte	0xf5
 7736 0c7a 00       		.uleb128 0
 7737 0c7b 29       		.uleb128 0x29
 7738 0c7c 9F       		.byte	0x9f
 7739 0c7d 00000000 		.4byte	0
 7740 0c81 00000000 		.4byte	0
 7741              	.LLST82:
 7742 0c85 00000000 		.4byte	.LVL288
 7743 0c89 12000000 		.4byte	.LVL289
 7744 0c8d 0100     		.2byte	0x1
 7745 0c8f 52       		.byte	0x52
 7746 0c90 12000000 		.4byte	.LVL289
 7747 0c94 96000000 		.4byte	.LVL306
 7748 0c98 0100     		.2byte	0x1
 7749 0c9a 58       		.byte	0x58
 7750 0c9b 96000000 		.4byte	.LVL306
 7751 0c9f 00010000 		.4byte	.LFE17
 7752 0ca3 0400     		.2byte	0x4
 7753 0ca5 F3       		.byte	0xf3
 7754 0ca6 01       		.uleb128 0x1
 7755 0ca7 52       		.byte	0x52
 7756 0ca8 9F       		.byte	0x9f
 7757 0ca9 00000000 		.4byte	0
 7758 0cad 00000000 		.4byte	0
 7759              	.LLST83:
 7760 0cb1 52000000 		.4byte	.LVL297
 7761 0cb5 60000000 		.4byte	.LVL298
 7762 0cb9 0600     		.2byte	0x6
 7763 0cbb 50       		.byte	0x50
 7764 0cbc 93       		.byte	0x93
 7765 0cbd 04       		.uleb128 0x4
 7766 0cbe 51       		.byte	0x51
 7767 0cbf 93       		.byte	0x93
 7768 0cc0 04       		.uleb128 0x4
 7769 0cc1 60000000 		.4byte	.LVL298
 7770 0cc5 65000000 		.4byte	.LVL299-1
 7771 0cc9 0200     		.2byte	0x2
 7772 0ccb 7D       		.byte	0x7d
 7773 0ccc 00       		.sleb128 0
 7774 0ccd 00000000 		.4byte	0
 7775 0cd1 00000000 		.4byte	0
 7776              	.LLST84:
 7777 0cd5 2E000000 		.4byte	.LVL293
 7778 0cd9 39000000 		.4byte	.LVL294-1
 7779 0cdd 0A00     		.2byte	0xa
 7780 0cdf F5       		.byte	0xf5
 7781 0ce0 04       		.uleb128 0x4
 7782 0ce1 29       		.uleb128 0x29
 7783 0ce2 78       		.byte	0x78
 7784 0ce3 30       		.sleb128 48
ARM GAS  /tmp/cctkbEOJ.s 			page 138


 7785 0ce4 F6       		.byte	0xf6
 7786 0ce5 08       		.byte	0x8
 7787 0ce6 29       		.uleb128 0x29
 7788 0ce7 1C       		.byte	0x1c
 7789 0ce8 9F       		.byte	0x9f
 7790 0ce9 00000000 		.4byte	0
 7791 0ced 00000000 		.4byte	0
 7792              	.LLST85:
 7793 0cf1 2E000000 		.4byte	.LVL293
 7794 0cf5 46000000 		.4byte	.LVL296
 7795 0cf9 0600     		.2byte	0x6
 7796 0cfb 56       		.byte	0x56
 7797 0cfc 93       		.byte	0x93
 7798 0cfd 04       		.uleb128 0x4
 7799 0cfe 57       		.byte	0x57
 7800 0cff 93       		.byte	0x93
 7801 0d00 04       		.uleb128 0x4
 7802 0d01 00000000 		.4byte	0
 7803 0d05 00000000 		.4byte	0
 7804              	.LLST86:
 7805 0d09 00000000 		.4byte	.LFB18
 7806 0d0d 04000000 		.4byte	.LCFI24
 7807 0d11 0200     		.2byte	0x2
 7808 0d13 7D       		.byte	0x7d
 7809 0d14 00       		.sleb128 0
 7810 0d15 04000000 		.4byte	.LCFI24
 7811 0d19 08000000 		.4byte	.LCFI25
 7812 0d1d 0200     		.2byte	0x2
 7813 0d1f 7D       		.byte	0x7d
 7814 0d20 20       		.sleb128 32
 7815 0d21 08000000 		.4byte	.LCFI25
 7816 0d25 06010000 		.4byte	.LFE18
 7817 0d29 0200     		.2byte	0x2
 7818 0d2b 7D       		.byte	0x7d
 7819 0d2c 30       		.sleb128 48
 7820 0d2d 00000000 		.4byte	0
 7821 0d31 00000000 		.4byte	0
 7822              	.LLST87:
 7823 0d35 00000000 		.4byte	.LVL317
 7824 0d39 13000000 		.4byte	.LVL319-1
 7825 0d3d 0600     		.2byte	0x6
 7826 0d3f 50       		.byte	0x50
 7827 0d40 93       		.byte	0x93
 7828 0d41 04       		.uleb128 0x4
 7829 0d42 51       		.byte	0x51
 7830 0d43 93       		.byte	0x93
 7831 0d44 04       		.uleb128 0x4
 7832 0d45 13000000 		.4byte	.LVL319-1
 7833 0d49 06010000 		.4byte	.LFE18
 7834 0d4d 0600     		.2byte	0x6
 7835 0d4f F3       		.byte	0xf3
 7836 0d50 03       		.uleb128 0x3
 7837 0d51 F5       		.byte	0xf5
 7838 0d52 00       		.uleb128 0
 7839 0d53 29       		.uleb128 0x29
 7840 0d54 9F       		.byte	0x9f
 7841 0d55 00000000 		.4byte	0
ARM GAS  /tmp/cctkbEOJ.s 			page 139


 7842 0d59 00000000 		.4byte	0
 7843              	.LLST88:
 7844 0d5d 00000000 		.4byte	.LVL317
 7845 0d61 0C000000 		.4byte	.LVL318
 7846 0d65 0100     		.2byte	0x1
 7847 0d67 52       		.byte	0x52
 7848 0d68 0C000000 		.4byte	.LVL318
 7849 0d6c 06010000 		.4byte	.LFE18
 7850 0d70 0100     		.2byte	0x1
 7851 0d72 5A       		.byte	0x5a
 7852 0d73 00000000 		.4byte	0
 7853 0d77 00000000 		.4byte	0
 7854              	.LLST89:
 7855 0d7b 72000000 		.4byte	.LVL329
 7856 0d7f 74000000 		.4byte	.LVL330
 7857 0d83 0600     		.2byte	0x6
 7858 0d85 50       		.byte	0x50
 7859 0d86 93       		.byte	0x93
 7860 0d87 04       		.uleb128 0x4
 7861 0d88 51       		.byte	0x51
 7862 0d89 93       		.byte	0x93
 7863 0d8a 04       		.uleb128 0x4
 7864 0d8b 74000000 		.4byte	.LVL330
 7865 0d8f 06010000 		.4byte	.LFE18
 7866 0d93 0200     		.2byte	0x2
 7867 0d95 91       		.byte	0x91
 7868 0d96 58       		.sleb128 -40
 7869 0d97 00000000 		.4byte	0
 7870 0d9b 00000000 		.4byte	0
 7871              	.LLST90:
 7872 0d9f 1C000000 		.4byte	.LVL320
 7873 0da3 9C000000 		.4byte	.LVL336
 7874 0da7 0600     		.2byte	0x6
 7875 0da9 58       		.byte	0x58
 7876 0daa 93       		.byte	0x93
 7877 0dab 04       		.uleb128 0x4
 7878 0dac 59       		.byte	0x59
 7879 0dad 93       		.byte	0x93
 7880 0dae 04       		.uleb128 0x4
 7881 0daf 00000000 		.4byte	0
 7882 0db3 00000000 		.4byte	0
 7883              	.LLST91:
 7884 0db7 5A000000 		.4byte	.LVL325
 7885 0dbb 68000000 		.4byte	.LVL327
 7886 0dbf 0600     		.2byte	0x6
 7887 0dc1 50       		.byte	0x50
 7888 0dc2 93       		.byte	0x93
 7889 0dc3 04       		.uleb128 0x4
 7890 0dc4 51       		.byte	0x51
 7891 0dc5 93       		.byte	0x93
 7892 0dc6 04       		.uleb128 0x4
 7893 0dc7 68000000 		.4byte	.LVL327
 7894 0dcb 6D000000 		.4byte	.LVL328-1
 7895 0dcf 0200     		.2byte	0x2
 7896 0dd1 7D       		.byte	0x7d
 7897 0dd2 00       		.sleb128 0
 7898 0dd3 00000000 		.4byte	0
ARM GAS  /tmp/cctkbEOJ.s 			page 140


 7899 0dd7 00000000 		.4byte	0
 7900              	.LLST92:
 7901 0ddb 3A000000 		.4byte	.LVL323
 7902 0ddf 9C000000 		.4byte	.LVL336
 7903 0de3 0600     		.2byte	0x6
 7904 0de5 58       		.byte	0x58
 7905 0de6 93       		.byte	0x93
 7906 0de7 04       		.uleb128 0x4
 7907 0de8 59       		.byte	0x59
 7908 0de9 93       		.byte	0x93
 7909 0dea 04       		.uleb128 0x4
 7910 0deb 00000000 		.4byte	0
 7911 0def 00000000 		.4byte	0
 7912              	.LLST93:
 7913 0df3 3A000000 		.4byte	.LVL323
 7914 0df7 5E000000 		.4byte	.LVL326
 7915 0dfb 0600     		.2byte	0x6
 7916 0dfd 54       		.byte	0x54
 7917 0dfe 93       		.byte	0x93
 7918 0dff 04       		.uleb128 0x4
 7919 0e00 55       		.byte	0x55
 7920 0e01 93       		.byte	0x93
 7921 0e02 04       		.uleb128 0x4
 7922 0e03 00000000 		.4byte	0
 7923 0e07 00000000 		.4byte	0
 7924              	.LLST94:
 7925 0e0b 00000000 		.4byte	.LFB20
 7926 0e0f 02000000 		.4byte	.LCFI26
 7927 0e13 0200     		.2byte	0x2
 7928 0e15 7D       		.byte	0x7d
 7929 0e16 00       		.sleb128 0
 7930 0e17 02000000 		.4byte	.LCFI26
 7931 0e1b 04000000 		.4byte	.LCFI27
 7932 0e1f 0200     		.2byte	0x2
 7933 0e21 7D       		.byte	0x7d
 7934 0e22 0C       		.sleb128 12
 7935 0e23 04000000 		.4byte	.LCFI27
 7936 0e27 22000000 		.4byte	.LFE20
 7937 0e2b 0200     		.2byte	0x2
 7938 0e2d 7D       		.byte	0x7d
 7939 0e2e 28       		.sleb128 40
 7940 0e2f 00000000 		.4byte	0
 7941 0e33 00000000 		.4byte	0
 7942              	.LLST95:
 7943 0e37 00000000 		.4byte	.LVL347
 7944 0e3b 1D000000 		.4byte	.LVL349-1
 7945 0e3f 0600     		.2byte	0x6
 7946 0e41 50       		.byte	0x50
 7947 0e42 93       		.byte	0x93
 7948 0e43 04       		.uleb128 0x4
 7949 0e44 51       		.byte	0x51
 7950 0e45 93       		.byte	0x93
 7951 0e46 04       		.uleb128 0x4
 7952 0e47 1D000000 		.4byte	.LVL349-1
 7953 0e4b 22000000 		.4byte	.LFE20
 7954 0e4f 0600     		.2byte	0x6
 7955 0e51 F3       		.byte	0xf3
ARM GAS  /tmp/cctkbEOJ.s 			page 141


 7956 0e52 03       		.uleb128 0x3
 7957 0e53 F5       		.byte	0xf5
 7958 0e54 00       		.uleb128 0
 7959 0e55 29       		.uleb128 0x29
 7960 0e56 9F       		.byte	0x9f
 7961 0e57 00000000 		.4byte	0
 7962 0e5b 00000000 		.4byte	0
 7963              	.LLST96:
 7964 0e5f 00000000 		.4byte	.LVL347
 7965 0e63 1D000000 		.4byte	.LVL349-1
 7966 0e67 0100     		.2byte	0x1
 7967 0e69 52       		.byte	0x52
 7968 0e6a 1D000000 		.4byte	.LVL349-1
 7969 0e6e 22000000 		.4byte	.LFE20
 7970 0e72 0400     		.2byte	0x4
 7971 0e74 F3       		.byte	0xf3
 7972 0e75 01       		.uleb128 0x1
 7973 0e76 52       		.byte	0x52
 7974 0e77 9F       		.byte	0x9f
 7975 0e78 00000000 		.4byte	0
 7976 0e7c 00000000 		.4byte	0
 7977              	.LLST97:
 7978 0e80 00000000 		.4byte	.LVL347
 7979 0e84 0C000000 		.4byte	.LVL348
 7980 0e88 0100     		.2byte	0x1
 7981 0e8a 53       		.byte	0x53
 7982 0e8b 0C000000 		.4byte	.LVL348
 7983 0e8f 1D000000 		.4byte	.LVL349-1
 7984 0e93 0200     		.2byte	0x2
 7985 0e95 7D       		.byte	0x7d
 7986 0e96 00       		.sleb128 0
 7987 0e97 1D000000 		.4byte	.LVL349-1
 7988 0e9b 22000000 		.4byte	.LFE20
 7989 0e9f 0400     		.2byte	0x4
 7990 0ea1 F3       		.byte	0xf3
 7991 0ea2 01       		.uleb128 0x1
 7992 0ea3 53       		.byte	0x53
 7993 0ea4 9F       		.byte	0x9f
 7994 0ea5 00000000 		.4byte	0
 7995 0ea9 00000000 		.4byte	0
 7996              	.LLST98:
 7997 0ead 00000000 		.4byte	.LFB19
 7998 0eb1 02000000 		.4byte	.LCFI28
 7999 0eb5 0200     		.2byte	0x2
 8000 0eb7 7D       		.byte	0x7d
 8001 0eb8 00       		.sleb128 0
 8002 0eb9 02000000 		.4byte	.LCFI28
 8003 0ebd 0A000000 		.4byte	.LCFI29
 8004 0ec1 0200     		.2byte	0x2
 8005 0ec3 7D       		.byte	0x7d
 8006 0ec4 0C       		.sleb128 12
 8007 0ec5 0A000000 		.4byte	.LCFI29
 8008 0ec9 28000000 		.4byte	.LFE19
 8009 0ecd 0200     		.2byte	0x2
 8010 0ecf 7D       		.byte	0x7d
 8011 0ed0 20       		.sleb128 32
 8012 0ed1 00000000 		.4byte	0
ARM GAS  /tmp/cctkbEOJ.s 			page 142


 8013 0ed5 00000000 		.4byte	0
 8014              	.LLST99:
 8015 0ed9 00000000 		.4byte	.LVL350
 8016 0edd 15000000 		.4byte	.LVL351-1
 8017 0ee1 0600     		.2byte	0x6
 8018 0ee3 50       		.byte	0x50
 8019 0ee4 93       		.byte	0x93
 8020 0ee5 04       		.uleb128 0x4
 8021 0ee6 51       		.byte	0x51
 8022 0ee7 93       		.byte	0x93
 8023 0ee8 04       		.uleb128 0x4
 8024 0ee9 15000000 		.4byte	.LVL351-1
 8025 0eed 28000000 		.4byte	.LFE19
 8026 0ef1 0600     		.2byte	0x6
 8027 0ef3 F3       		.byte	0xf3
 8028 0ef4 03       		.uleb128 0x3
 8029 0ef5 F5       		.byte	0xf5
 8030 0ef6 00       		.uleb128 0
 8031 0ef7 29       		.uleb128 0x29
 8032 0ef8 9F       		.byte	0x9f
 8033 0ef9 00000000 		.4byte	0
 8034 0efd 00000000 		.4byte	0
 8035              	.LLST100:
 8036 0f01 00000000 		.4byte	.LVL350
 8037 0f05 15000000 		.4byte	.LVL351-1
 8038 0f09 0100     		.2byte	0x1
 8039 0f0b 52       		.byte	0x52
 8040 0f0c 15000000 		.4byte	.LVL351-1
 8041 0f10 28000000 		.4byte	.LFE19
 8042 0f14 0400     		.2byte	0x4
 8043 0f16 F3       		.byte	0xf3
 8044 0f17 01       		.uleb128 0x1
 8045 0f18 52       		.byte	0x52
 8046 0f19 9F       		.byte	0x9f
 8047 0f1a 00000000 		.4byte	0
 8048 0f1e 00000000 		.4byte	0
 8049              	.LLST101:
 8050 0f22 00000000 		.4byte	.LVL350
 8051 0f26 15000000 		.4byte	.LVL351-1
 8052 0f2a 0100     		.2byte	0x1
 8053 0f2c 53       		.byte	0x53
 8054 0f2d 15000000 		.4byte	.LVL351-1
 8055 0f31 28000000 		.4byte	.LFE19
 8056 0f35 0400     		.2byte	0x4
 8057 0f37 F3       		.byte	0xf3
 8058 0f38 01       		.uleb128 0x1
 8059 0f39 53       		.byte	0x53
 8060 0f3a 9F       		.byte	0x9f
 8061 0f3b 00000000 		.4byte	0
 8062 0f3f 00000000 		.4byte	0
 8063              	.LLST102:
 8064 0f43 00000000 		.4byte	.LFB22
 8065 0f47 02000000 		.4byte	.LCFI30
 8066 0f4b 0200     		.2byte	0x2
 8067 0f4d 7D       		.byte	0x7d
 8068 0f4e 00       		.sleb128 0
 8069 0f4f 02000000 		.4byte	.LCFI30
ARM GAS  /tmp/cctkbEOJ.s 			page 143


 8070 0f53 04000000 		.4byte	.LCFI31
 8071 0f57 0200     		.2byte	0x2
 8072 0f59 7D       		.byte	0x7d
 8073 0f5a 0C       		.sleb128 12
 8074 0f5b 04000000 		.4byte	.LCFI31
 8075 0f5f 22000000 		.4byte	.LFE22
 8076 0f63 0200     		.2byte	0x2
 8077 0f65 7D       		.byte	0x7d
 8078 0f66 28       		.sleb128 40
 8079 0f67 00000000 		.4byte	0
 8080 0f6b 00000000 		.4byte	0
 8081              	.LLST103:
 8082 0f6f 00000000 		.4byte	.LVL352
 8083 0f73 1D000000 		.4byte	.LVL354-1
 8084 0f77 0600     		.2byte	0x6
 8085 0f79 50       		.byte	0x50
 8086 0f7a 93       		.byte	0x93
 8087 0f7b 04       		.uleb128 0x4
 8088 0f7c 51       		.byte	0x51
 8089 0f7d 93       		.byte	0x93
 8090 0f7e 04       		.uleb128 0x4
 8091 0f7f 1D000000 		.4byte	.LVL354-1
 8092 0f83 22000000 		.4byte	.LFE22
 8093 0f87 0600     		.2byte	0x6
 8094 0f89 F3       		.byte	0xf3
 8095 0f8a 03       		.uleb128 0x3
 8096 0f8b F5       		.byte	0xf5
 8097 0f8c 00       		.uleb128 0
 8098 0f8d 29       		.uleb128 0x29
 8099 0f8e 9F       		.byte	0x9f
 8100 0f8f 00000000 		.4byte	0
 8101 0f93 00000000 		.4byte	0
 8102              	.LLST104:
 8103 0f97 00000000 		.4byte	.LVL352
 8104 0f9b 1D000000 		.4byte	.LVL354-1
 8105 0f9f 0100     		.2byte	0x1
 8106 0fa1 52       		.byte	0x52
 8107 0fa2 1D000000 		.4byte	.LVL354-1
 8108 0fa6 22000000 		.4byte	.LFE22
 8109 0faa 0400     		.2byte	0x4
 8110 0fac F3       		.byte	0xf3
 8111 0fad 01       		.uleb128 0x1
 8112 0fae 52       		.byte	0x52
 8113 0faf 9F       		.byte	0x9f
 8114 0fb0 00000000 		.4byte	0
 8115 0fb4 00000000 		.4byte	0
 8116              	.LLST105:
 8117 0fb8 00000000 		.4byte	.LVL352
 8118 0fbc 0C000000 		.4byte	.LVL353
 8119 0fc0 0100     		.2byte	0x1
 8120 0fc2 53       		.byte	0x53
 8121 0fc3 0C000000 		.4byte	.LVL353
 8122 0fc7 1D000000 		.4byte	.LVL354-1
 8123 0fcb 0200     		.2byte	0x2
 8124 0fcd 7D       		.byte	0x7d
 8125 0fce 00       		.sleb128 0
 8126 0fcf 1D000000 		.4byte	.LVL354-1
ARM GAS  /tmp/cctkbEOJ.s 			page 144


 8127 0fd3 22000000 		.4byte	.LFE22
 8128 0fd7 0400     		.2byte	0x4
 8129 0fd9 F3       		.byte	0xf3
 8130 0fda 01       		.uleb128 0x1
 8131 0fdb 53       		.byte	0x53
 8132 0fdc 9F       		.byte	0x9f
 8133 0fdd 00000000 		.4byte	0
 8134 0fe1 00000000 		.4byte	0
 8135              	.LLST106:
 8136 0fe5 00000000 		.4byte	.LFB21
 8137 0fe9 02000000 		.4byte	.LCFI32
 8138 0fed 0200     		.2byte	0x2
 8139 0fef 7D       		.byte	0x7d
 8140 0ff0 00       		.sleb128 0
 8141 0ff1 02000000 		.4byte	.LCFI32
 8142 0ff5 0A000000 		.4byte	.LCFI33
 8143 0ff9 0200     		.2byte	0x2
 8144 0ffb 7D       		.byte	0x7d
 8145 0ffc 0C       		.sleb128 12
 8146 0ffd 0A000000 		.4byte	.LCFI33
 8147 1001 28000000 		.4byte	.LFE21
 8148 1005 0200     		.2byte	0x2
 8149 1007 7D       		.byte	0x7d
 8150 1008 20       		.sleb128 32
 8151 1009 00000000 		.4byte	0
 8152 100d 00000000 		.4byte	0
 8153              	.LLST107:
 8154 1011 00000000 		.4byte	.LVL355
 8155 1015 15000000 		.4byte	.LVL356-1
 8156 1019 0600     		.2byte	0x6
 8157 101b 50       		.byte	0x50
 8158 101c 93       		.byte	0x93
 8159 101d 04       		.uleb128 0x4
 8160 101e 51       		.byte	0x51
 8161 101f 93       		.byte	0x93
 8162 1020 04       		.uleb128 0x4
 8163 1021 15000000 		.4byte	.LVL356-1
 8164 1025 28000000 		.4byte	.LFE21
 8165 1029 0600     		.2byte	0x6
 8166 102b F3       		.byte	0xf3
 8167 102c 03       		.uleb128 0x3
 8168 102d F5       		.byte	0xf5
 8169 102e 00       		.uleb128 0
 8170 102f 29       		.uleb128 0x29
 8171 1030 9F       		.byte	0x9f
 8172 1031 00000000 		.4byte	0
 8173 1035 00000000 		.4byte	0
 8174              	.LLST108:
 8175 1039 00000000 		.4byte	.LVL355
 8176 103d 15000000 		.4byte	.LVL356-1
 8177 1041 0100     		.2byte	0x1
 8178 1043 52       		.byte	0x52
 8179 1044 15000000 		.4byte	.LVL356-1
 8180 1048 28000000 		.4byte	.LFE21
 8181 104c 0400     		.2byte	0x4
 8182 104e F3       		.byte	0xf3
 8183 104f 01       		.uleb128 0x1
ARM GAS  /tmp/cctkbEOJ.s 			page 145


 8184 1050 52       		.byte	0x52
 8185 1051 9F       		.byte	0x9f
 8186 1052 00000000 		.4byte	0
 8187 1056 00000000 		.4byte	0
 8188              	.LLST109:
 8189 105a 00000000 		.4byte	.LVL355
 8190 105e 15000000 		.4byte	.LVL356-1
 8191 1062 0100     		.2byte	0x1
 8192 1064 53       		.byte	0x53
 8193 1065 15000000 		.4byte	.LVL356-1
 8194 1069 28000000 		.4byte	.LFE21
 8195 106d 0400     		.2byte	0x4
 8196 106f F3       		.byte	0xf3
 8197 1070 01       		.uleb128 0x1
 8198 1071 53       		.byte	0x53
 8199 1072 9F       		.byte	0x9f
 8200 1073 00000000 		.4byte	0
 8201 1077 00000000 		.4byte	0
 8202              	.LLST110:
 8203 107b 00000000 		.4byte	.LFB23
 8204 107f 02000000 		.4byte	.LCFI34
 8205 1083 0200     		.2byte	0x2
 8206 1085 7D       		.byte	0x7d
 8207 1086 00       		.sleb128 0
 8208 1087 02000000 		.4byte	.LCFI34
 8209 108b 04000000 		.4byte	.LCFI35
 8210 108f 0200     		.2byte	0x2
 8211 1091 7D       		.byte	0x7d
 8212 1092 0C       		.sleb128 12
 8213 1093 04000000 		.4byte	.LCFI35
 8214 1097 26000000 		.4byte	.LFE23
 8215 109b 0200     		.2byte	0x2
 8216 109d 7D       		.byte	0x7d
 8217 109e 28       		.sleb128 40
 8218 109f 00000000 		.4byte	0
 8219 10a3 00000000 		.4byte	0
 8220              	.LLST111:
 8221 10a7 00000000 		.4byte	.LVL357
 8222 10ab 21000000 		.4byte	.LVL359-1
 8223 10af 0600     		.2byte	0x6
 8224 10b1 50       		.byte	0x50
 8225 10b2 93       		.byte	0x93
 8226 10b3 04       		.uleb128 0x4
 8227 10b4 51       		.byte	0x51
 8228 10b5 93       		.byte	0x93
 8229 10b6 04       		.uleb128 0x4
 8230 10b7 21000000 		.4byte	.LVL359-1
 8231 10bb 26000000 		.4byte	.LFE23
 8232 10bf 0600     		.2byte	0x6
 8233 10c1 F3       		.byte	0xf3
 8234 10c2 03       		.uleb128 0x3
 8235 10c3 F5       		.byte	0xf5
 8236 10c4 00       		.uleb128 0
 8237 10c5 29       		.uleb128 0x29
 8238 10c6 9F       		.byte	0x9f
 8239 10c7 00000000 		.4byte	0
 8240 10cb 00000000 		.4byte	0
ARM GAS  /tmp/cctkbEOJ.s 			page 146


 8241              	.LLST112:
 8242 10cf 00000000 		.4byte	.LVL357
 8243 10d3 21000000 		.4byte	.LVL359-1
 8244 10d7 0100     		.2byte	0x1
 8245 10d9 52       		.byte	0x52
 8246 10da 21000000 		.4byte	.LVL359-1
 8247 10de 26000000 		.4byte	.LFE23
 8248 10e2 0400     		.2byte	0x4
 8249 10e4 F3       		.byte	0xf3
 8250 10e5 01       		.uleb128 0x1
 8251 10e6 52       		.byte	0x52
 8252 10e7 9F       		.byte	0x9f
 8253 10e8 00000000 		.4byte	0
 8254 10ec 00000000 		.4byte	0
 8255              	.LLST113:
 8256 10f0 00000000 		.4byte	.LVL357
 8257 10f4 0C000000 		.4byte	.LVL358
 8258 10f8 0100     		.2byte	0x1
 8259 10fa 53       		.byte	0x53
 8260 10fb 0C000000 		.4byte	.LVL358
 8261 10ff 21000000 		.4byte	.LVL359-1
 8262 1103 0200     		.2byte	0x2
 8263 1105 7D       		.byte	0x7d
 8264 1106 00       		.sleb128 0
 8265 1107 21000000 		.4byte	.LVL359-1
 8266 110b 26000000 		.4byte	.LFE23
 8267 110f 0400     		.2byte	0x4
 8268 1111 F3       		.byte	0xf3
 8269 1112 01       		.uleb128 0x1
 8270 1113 53       		.byte	0x53
 8271 1114 9F       		.byte	0x9f
 8272 1115 00000000 		.4byte	0
 8273 1119 00000000 		.4byte	0
 8274              	.LLST114:
 8275 111d 00000000 		.4byte	.LFB24
 8276 1121 02000000 		.4byte	.LCFI36
 8277 1125 0200     		.2byte	0x2
 8278 1127 7D       		.byte	0x7d
 8279 1128 00       		.sleb128 0
 8280 1129 02000000 		.4byte	.LCFI36
 8281 112d 20000000 		.4byte	.LFE24
 8282 1131 0200     		.2byte	0x2
 8283 1133 7D       		.byte	0x7d
 8284 1134 10       		.sleb128 16
 8285 1135 00000000 		.4byte	0
 8286 1139 00000000 		.4byte	0
 8287              	.LLST115:
 8288 113d 00000000 		.4byte	.LVL360
 8289 1141 08000000 		.4byte	.LVL361
 8290 1145 0600     		.2byte	0x6
 8291 1147 50       		.byte	0x50
 8292 1148 93       		.byte	0x93
 8293 1149 04       		.uleb128 0x4
 8294 114a 51       		.byte	0x51
 8295 114b 93       		.byte	0x93
 8296 114c 04       		.uleb128 0x4
 8297 114d 08000000 		.4byte	.LVL361
ARM GAS  /tmp/cctkbEOJ.s 			page 147


 8298 1151 20000000 		.4byte	.LFE24
 8299 1155 0600     		.2byte	0x6
 8300 1157 F3       		.byte	0xf3
 8301 1158 03       		.uleb128 0x3
 8302 1159 F5       		.byte	0xf5
 8303 115a 00       		.uleb128 0
 8304 115b 29       		.uleb128 0x29
 8305 115c 9F       		.byte	0x9f
 8306 115d 00000000 		.4byte	0
 8307 1161 00000000 		.4byte	0
 8308              	.LLST116:
 8309 1165 00000000 		.4byte	.LVL360
 8310 1169 0E000000 		.4byte	.LVL362
 8311 116d 0600     		.2byte	0x6
 8312 116f 52       		.byte	0x52
 8313 1170 93       		.byte	0x93
 8314 1171 04       		.uleb128 0x4
 8315 1172 53       		.byte	0x53
 8316 1173 93       		.byte	0x93
 8317 1174 04       		.uleb128 0x4
 8318 1175 0E000000 		.4byte	.LVL362
 8319 1179 20000000 		.4byte	.LFE24
 8320 117d 0600     		.2byte	0x6
 8321 117f F3       		.byte	0xf3
 8322 1180 03       		.uleb128 0x3
 8323 1181 F5       		.byte	0xf5
 8324 1182 02       		.uleb128 0x2
 8325 1183 29       		.uleb128 0x29
 8326 1184 9F       		.byte	0x9f
 8327 1185 00000000 		.4byte	0
 8328 1189 00000000 		.4byte	0
 8329              		.section	.debug_aranges,"",%progbits
 8330 0000 D4000000 		.4byte	0xd4
 8331 0004 0200     		.2byte	0x2
 8332 0006 00000000 		.4byte	.Ldebug_info0
 8333 000a 04       		.byte	0x4
 8334 000b 00       		.byte	0
 8335 000c 0000     		.2byte	0
 8336 000e 0000     		.2byte	0
 8337 0010 00000000 		.4byte	.LFB1
 8338 0014 68020000 		.4byte	.LFE1-.LFB1
 8339 0018 00000000 		.4byte	.LFB2
 8340 001c 14000000 		.4byte	.LFE2-.LFB2
 8341 0020 00000000 		.4byte	.LFB3
 8342 0024 84000000 		.4byte	.LFE3-.LFB3
 8343 0028 00000000 		.4byte	.LFB4
 8344 002c 38000000 		.4byte	.LFE4-.LFB4
 8345 0030 00000000 		.4byte	.LFB5
 8346 0034 28000000 		.4byte	.LFE5-.LFB5
 8347 0038 00000000 		.4byte	.LFB6
 8348 003c 2C000000 		.4byte	.LFE6-.LFB6
 8349 0040 00000000 		.4byte	.LFB7
 8350 0044 30000000 		.4byte	.LFE7-.LFB7
 8351 0048 00000000 		.4byte	.LFB8
 8352 004c EC020000 		.4byte	.LFE8-.LFB8
 8353 0050 00000000 		.4byte	.LFB10
 8354 0054 F8000000 		.4byte	.LFE10-.LFB10
ARM GAS  /tmp/cctkbEOJ.s 			page 148


 8355 0058 00000000 		.4byte	.LFB9
 8356 005c 58000000 		.4byte	.LFE9-.LFB9
 8357 0060 00000000 		.4byte	.LFB11
 8358 0064 B0000000 		.4byte	.LFE11-.LFB11
 8359 0068 00000000 		.4byte	.LFB13
 8360 006c 70000000 		.4byte	.LFE13-.LFB13
 8361 0070 00000000 		.4byte	.LFB14
 8362 0074 70000000 		.4byte	.LFE14-.LFB14
 8363 0078 00000000 		.4byte	.LFB15
 8364 007c 32000000 		.4byte	.LFE15-.LFB15
 8365 0080 00000000 		.4byte	.LFB12
 8366 0084 60000000 		.4byte	.LFE12-.LFB12
 8367 0088 00000000 		.4byte	.LFB16
 8368 008c 32000000 		.4byte	.LFE16-.LFB16
 8369 0090 00000000 		.4byte	.LFB17
 8370 0094 00010000 		.4byte	.LFE17-.LFB17
 8371 0098 00000000 		.4byte	.LFB18
 8372 009c 06010000 		.4byte	.LFE18-.LFB18
 8373 00a0 00000000 		.4byte	.LFB20
 8374 00a4 22000000 		.4byte	.LFE20-.LFB20
 8375 00a8 00000000 		.4byte	.LFB19
 8376 00ac 28000000 		.4byte	.LFE19-.LFB19
 8377 00b0 00000000 		.4byte	.LFB22
 8378 00b4 22000000 		.4byte	.LFE22-.LFB22
 8379 00b8 00000000 		.4byte	.LFB21
 8380 00bc 28000000 		.4byte	.LFE21-.LFB21
 8381 00c0 00000000 		.4byte	.LFB23
 8382 00c4 26000000 		.4byte	.LFE23-.LFB23
 8383 00c8 00000000 		.4byte	.LFB24
 8384 00cc 20000000 		.4byte	.LFE24-.LFB24
 8385 00d0 00000000 		.4byte	0
 8386 00d4 00000000 		.4byte	0
 8387              		.section	.debug_ranges,"",%progbits
 8388              	.Ldebug_ranges0:
 8389 0000 12000000 		.4byte	.LBB12
 8390 0004 16000000 		.4byte	.LBE12
 8391 0008 1A000000 		.4byte	.LBB16
 8392 000c 46000000 		.4byte	.LBE16
 8393 0010 2A020000 		.4byte	.LBB27
 8394 0014 30020000 		.4byte	.LBE27
 8395 0018 00000000 		.4byte	0
 8396 001c 00000000 		.4byte	0
 8397 0020 D6000000 		.4byte	.LBB17
 8398 0024 DA000000 		.4byte	.LBE17
 8399 0028 3C010000 		.4byte	.LBB23
 8400 002c 40010000 		.4byte	.LBE23
 8401 0030 44010000 		.4byte	.LBB24
 8402 0034 62010000 		.4byte	.LBE24
 8403 0038 C2010000 		.4byte	.LBB25
 8404 003c C6010000 		.4byte	.LBE25
 8405 0040 CA010000 		.4byte	.LBB26
 8406 0044 F4010000 		.4byte	.LBE26
 8407 0048 00000000 		.4byte	0
 8408 004c 00000000 		.4byte	0
 8409 0050 F4010000 		.4byte	.LBB28
 8410 0054 FC010000 		.4byte	.LBE28
 8411 0058 00020000 		.4byte	.LBB31
ARM GAS  /tmp/cctkbEOJ.s 			page 149


 8412 005c 04020000 		.4byte	.LBE31
 8413 0060 00000000 		.4byte	0
 8414 0064 00000000 		.4byte	0
 8415 0068 3A000000 		.4byte	.LBB32
 8416 006c 42000000 		.4byte	.LBE32
 8417 0070 46000000 		.4byte	.LBB35
 8418 0074 4A000000 		.4byte	.LBE35
 8419 0078 00000000 		.4byte	0
 8420 007c 00000000 		.4byte	0
 8421 0080 3E000000 		.4byte	.LBB36
 8422 0084 40000000 		.4byte	.LBE36
 8423 0088 44000000 		.4byte	.LBB39
 8424 008c 52000000 		.4byte	.LBE39
 8425 0090 00000000 		.4byte	0
 8426 0094 00000000 		.4byte	0
 8427 0098 00000000 		.4byte	.LFB1
 8428 009c 68020000 		.4byte	.LFE1
 8429 00a0 00000000 		.4byte	.LFB2
 8430 00a4 14000000 		.4byte	.LFE2
 8431 00a8 00000000 		.4byte	.LFB3
 8432 00ac 84000000 		.4byte	.LFE3
 8433 00b0 00000000 		.4byte	.LFB4
 8434 00b4 38000000 		.4byte	.LFE4
 8435 00b8 00000000 		.4byte	.LFB5
 8436 00bc 28000000 		.4byte	.LFE5
 8437 00c0 00000000 		.4byte	.LFB6
 8438 00c4 2C000000 		.4byte	.LFE6
 8439 00c8 00000000 		.4byte	.LFB7
 8440 00cc 30000000 		.4byte	.LFE7
 8441 00d0 00000000 		.4byte	.LFB8
 8442 00d4 EC020000 		.4byte	.LFE8
 8443 00d8 00000000 		.4byte	.LFB10
 8444 00dc F8000000 		.4byte	.LFE10
 8445 00e0 00000000 		.4byte	.LFB9
 8446 00e4 58000000 		.4byte	.LFE9
 8447 00e8 00000000 		.4byte	.LFB11
 8448 00ec B0000000 		.4byte	.LFE11
 8449 00f0 00000000 		.4byte	.LFB13
 8450 00f4 70000000 		.4byte	.LFE13
 8451 00f8 00000000 		.4byte	.LFB14
 8452 00fc 70000000 		.4byte	.LFE14
 8453 0100 00000000 		.4byte	.LFB15
 8454 0104 32000000 		.4byte	.LFE15
 8455 0108 00000000 		.4byte	.LFB12
 8456 010c 60000000 		.4byte	.LFE12
 8457 0110 00000000 		.4byte	.LFB16
 8458 0114 32000000 		.4byte	.LFE16
 8459 0118 00000000 		.4byte	.LFB17
 8460 011c 00010000 		.4byte	.LFE17
 8461 0120 00000000 		.4byte	.LFB18
 8462 0124 06010000 		.4byte	.LFE18
 8463 0128 00000000 		.4byte	.LFB20
 8464 012c 22000000 		.4byte	.LFE20
 8465 0130 00000000 		.4byte	.LFB19
 8466 0134 28000000 		.4byte	.LFE19
 8467 0138 00000000 		.4byte	.LFB22
 8468 013c 22000000 		.4byte	.LFE22
ARM GAS  /tmp/cctkbEOJ.s 			page 150


 8469 0140 00000000 		.4byte	.LFB21
 8470 0144 28000000 		.4byte	.LFE21
 8471 0148 00000000 		.4byte	.LFB23
 8472 014c 26000000 		.4byte	.LFE23
 8473 0150 00000000 		.4byte	.LFB24
 8474 0154 20000000 		.4byte	.LFE24
 8475 0158 00000000 		.4byte	0
 8476 015c 00000000 		.4byte	0
 8477              		.section	.debug_line,"",%progbits
 8478              	.Ldebug_line0:
 8479 0000 26040000 		.section	.debug_str,"MS",%progbits,1
 8479      0200EE00 
 8479      00000201 
 8479      FB0E0D00 
 8479      01010101 
 8480              	.LASF73:
 8481 0000 6C6E5F72 		.ascii	"ln_rad_to_deg\000"
 8481      61645F74 
 8481      6F5F6465 
 8481      6700
 8482              	.LASF88:
 8483 000e 6C6E5F67 		.ascii	"ln_get_motion_body_next_rst_horizon_future\000"
 8483      65745F6D 
 8483      6F74696F 
 8483      6E5F626F 
 8483      64795F6E 
 8484              	.LASF67:
 8485 0039 6C6E5F67 		.ascii	"ln_get_ell_body_next_rst_horizon_future\000"
 8485      65745F65 
 8485      6C6C5F62 
 8485      6F64795F 
 8485      6E657874 
 8486              	.LASF57:
 8487 0061 6C6E5F67 		.ascii	"ln_get_ell_body_phase_angle\000"
 8487      65745F65 
 8487      6C6C5F62 
 8487      6F64795F 
 8487      70686173 
 8488              	.LASF43:
 8489 007d 626F6479 		.ascii	"body_rect_posn\000"
 8489      5F726563 
 8489      745F706F 
 8489      736E00
 8490              	.LASF80:
 8491 008c 6173696E 		.ascii	"asin\000"
 8491      00
 8492              	.LASF64:
 8493 0091 6C6E5F67 		.ascii	"ln_get_ell_body_rst\000"
 8493      65745F65 
 8493      6C6C5F62 
 8493      6F64795F 
 8493      72737400 
 8494              	.LASF28:
 8495 00a5 6C6E5F67 		.ascii	"ln_get_ell_sminor_diam\000"
 8495      65745F65 
 8495      6C6C5F73 
 8495      6D696E6F 
ARM GAS  /tmp/cctkbEOJ.s 			page 151


 8495      725F6469 
 8496              	.LASF49:
 8497 00bc 65617274 		.ascii	"earth\000"
 8497      6800
 8498              	.LASF7:
 8499 00c2 6C6F6E67 		.ascii	"long long unsigned int\000"
 8499      206C6F6E 
 8499      6720756E 
 8499      7369676E 
 8499      65642069 
 8500              	.LASF17:
 8501 00d9 6C6E5F72 		.ascii	"ln_rect_posn\000"
 8501      6563745F 
 8501      706F736E 
 8501      00
 8502              	.LASF26:
 8503 00e6 6C6E5F67 		.ascii	"ln_get_ell_radius_vector\000"
 8503      65745F65 
 8503      6C6C5F72 
 8503      61646975 
 8503      735F7665 
 8504              	.LASF63:
 8505 00ff 686F7269 		.ascii	"horizon\000"
 8505      7A6F6E00 
 8506              	.LASF6:
 8507 0107 6C6F6E67 		.ascii	"long long int\000"
 8507      206C6F6E 
 8507      6720696E 
 8507      7400
 8508              	.LASF1:
 8509 0115 7369676E 		.ascii	"signed char\000"
 8509      65642063 
 8509      68617200 
 8510              	.LASF25:
 8511 0121 6C6E5F67 		.ascii	"ln_get_ell_true_anomaly\000"
 8511      65745F65 
 8511      6C6C5F74 
 8511      7275655F 
 8511      616E6F6D 
 8512              	.LASF52:
 8513 0139 6C6E5F67 		.ascii	"ln_get_ell_orbit_avel\000"
 8513      65745F65 
 8513      6C6C5F6F 
 8513      72626974 
 8513      5F617665 
 8514              	.LASF70:
 8515 014f 65706F63 		.ascii	"epoch_JD\000"
 8515      685F4A44 
 8515      00
 8516              	.LASF30:
 8517 0158 474E5520 		.ascii	"GNU C 4.7.4 20130913 (release) [ARM/embedded-4_7-br"
 8517      4320342E 
 8517      372E3420 
 8517      32303133 
 8517      30393133 
 8518 018b 616E6368 		.ascii	"anch revision 202601]\000"
 8518      20726576 
ARM GAS  /tmp/cctkbEOJ.s 			page 152


 8518      6973696F 
 8518      6E203230 
 8518      32363031 
 8519              	.LASF58:
 8520 01a1 70686173 		.ascii	"phase\000"
 8520      6500
 8521              	.LASF8:
 8522 01a7 6C6F6E67 		.ascii	"long int\000"
 8522      20696E74 
 8522      00
 8523              	.LASF81:
 8524 01b0 6C6E5F67 		.ascii	"ln_get_solar_geo_coords\000"
 8524      65745F73 
 8524      6F6C6172 
 8524      5F67656F 
 8524      5F636F6F 
 8525              	.LASF0:
 8526 01c8 646F7562 		.ascii	"double\000"
 8526      6C6500
 8527              	.LASF59:
 8528 01cf 6C6E5F67 		.ascii	"ln_get_ell_body_elong\000"
 8528      65745F65 
 8528      6C6C5F62 
 8528      6F64795F 
 8528      656C6F6E 
 8529              	.LASF29:
 8530 01e5 6C6E5F67 		.ascii	"ln_get_ell_mean_motion\000"
 8530      65745F65 
 8530      6C6C5F6D 
 8530      65616E5F 
 8530      6D6F7469 
 8531              	.LASF32:
 8532 01fc 2F426967 		.ascii	"/BigDriver/home/nacho/WORKHOME/programacion/chibiOS"
 8532      44726976 
 8532      65722F68 
 8532      6F6D652F 
 8532      6E616368 
 8533 022f 2F636869 		.ascii	"/chibios/nacho/lx200\000"
 8533      62696F73 
 8533      2F6E6163 
 8533      686F2F6C 
 8533      78323030 
 8534              	.LASF53:
 8535 0244 6C6E5F67 		.ascii	"ln_get_ell_body_solar_dist\000"
 8535      65745F65 
 8535      6C6C5F62 
 8535      6F64795F 
 8535      736F6C61 
 8536              	.LASF35:
 8537 025f 73696E5F 		.ascii	"sin_e\000"
 8537      6500
 8538              	.LASF38:
 8539 0265 73696E5F 		.ascii	"sin_i\000"
 8539      6900
 8540              	.LASF5:
 8541 026b 756E7369 		.ascii	"unsigned int\000"
 8541      676E6564 
ARM GAS  /tmp/cctkbEOJ.s 			page 153


 8541      20696E74 
 8541      00
 8542              	.LASF24:
 8543 0278 6C6E5F73 		.ascii	"ln_solve_kepler\000"
 8543      6F6C7665 
 8543      5F6B6570 
 8543      6C657200 
 8544              	.LASF79:
 8545 0288 6C6E5F67 		.ascii	"ln_get_light_time\000"
 8545      65745F6C 
 8545      69676874 
 8545      5F74696D 
 8545      6500
 8546              	.LASF10:
 8547 029a 6C6F6E67 		.ascii	"long unsigned int\000"
 8547      20756E73 
 8547      69676E65 
 8547      6420696E 
 8547      7400
 8548              	.LASF36:
 8549 02ac 636F735F 		.ascii	"cos_e\000"
 8549      6500
 8550              	.LASF40:
 8551 02b2 636F735F 		.ascii	"cos_i\000"
 8551      6900
 8552              	.LASF4:
 8553 02b8 73686F72 		.ascii	"short unsigned int\000"
 8553      7420756E 
 8553      7369676E 
 8553      65642069 
 8553      6E7400
 8554              	.LASF76:
 8555 02cb 6C6E5F72 		.ascii	"ln_range_degrees\000"
 8555      616E6765 
 8555      5F646567 
 8555      72656573 
 8555      00
 8556              	.LASF34:
 8557 02dc 706F736E 		.ascii	"posn\000"
 8557      00
 8558              	.LASF50:
 8559 02e1 6C6E5F67 		.ascii	"ln_get_ell_orbit_len\000"
 8559      65745F65 
 8559      6C6C5F6F 
 8559      72626974 
 8559      5F6C656E 
 8560              	.LASF89:
 8561 02f6 6765745F 		.ascii	"get_motion_body_coords_t\000"
 8561      6D6F7469 
 8561      6F6E5F62 
 8561      6F64795F 
 8561      636F6F72 
 8562              	.LASF61:
 8563 030f 6C6E5F67 		.ascii	"ln_get_ell_body_rst_horizon\000"
 8563      65745F65 
 8563      6C6C5F62 
 8563      6F64795F 
ARM GAS  /tmp/cctkbEOJ.s 			page 154


 8563      7273745F 
 8564              	.LASF71:
 8565 032b 6C6E5F67 		.ascii	"ln_get_ell_mean_anomaly\000"
 8565      65745F65 
 8565      6C6C5F6D 
 8565      65616E5F 
 8565      616E6F6D 
 8566              	.LASF87:
 8567 0343 6C6E5F67 		.ascii	"ln_get_motion_body_next_rst_horizon\000"
 8567      65745F6D 
 8567      6F74696F 
 8567      6E5F626F 
 8567      64795F6E 
 8568              	.LASF18:
 8569 0367 6C6E5F65 		.ascii	"ln_ell_orbit\000"
 8569      6C6C5F6F 
 8569      72626974 
 8569      00
 8570              	.LASF9:
 8571 0374 73697A65 		.ascii	"sizetype\000"
 8571      74797065 
 8571      00
 8572              	.LASF13:
 8573 037d 6C6F6E67 		.ascii	"long double\000"
 8573      20646F75 
 8573      626C6500 
 8574              	.LASF51:
 8575 0389 6C6E5F67 		.ascii	"ln_get_ell_orbit_pvel\000"
 8575      65745F65 
 8575      6C6C5F6F 
 8575      72626974 
 8575      5F707665 
 8576              	.LASF22:
 8577 039f 7472616E 		.ascii	"transit\000"
 8577      73697400 
 8578              	.LASF39:
 8579 03a7 636F735F 		.ascii	"cos_omega\000"
 8579      6F6D6567 
 8579      6100
 8580              	.LASF85:
 8581 03b1 6C6E5F67 		.ascii	"ln_get_earth_solar_dist\000"
 8581      65745F65 
 8581      61727468 
 8581      5F736F6C 
 8581      61725F64 
 8582              	.LASF56:
 8583 03c9 65617274 		.ascii	"earth_rect_posn\000"
 8583      685F7265 
 8583      63745F70 
 8583      6F736E00 
 8584              	.LASF21:
 8585 03d9 72697365 		.ascii	"rise\000"
 8585      00
 8586              	.LASF42:
 8587 03de 6C6E5F67 		.ascii	"ln_get_ell_body_equ_coords\000"
 8587      65745F65 
 8587      6C6C5F62 
ARM GAS  /tmp/cctkbEOJ.s 			page 155


 8587      6F64795F 
 8587      6571755F 
 8588              	.LASF12:
 8589 03f9 666C6F61 		.ascii	"float\000"
 8589      7400
 8590              	.LASF31:
 8591 03ff 2E2F6C69 		.ascii	"./libnova/src/elliptic_motion.c\000"
 8591      626E6F76 
 8591      612F7372 
 8591      632F656C 
 8591      6C697074 
 8592              	.LASF23:
 8593 041f 64656C74 		.ascii	"delta_JD\000"
 8593      615F4A44 
 8593      00
 8594              	.LASF54:
 8595 0428 6C6E5F67 		.ascii	"ln_get_ell_orbit_vel\000"
 8595      65745F65 
 8595      6C6C5F6F 
 8595      72626974 
 8595      5F76656C 
 8596              	.LASF66:
 8597 043d 6C6E5F67 		.ascii	"ln_get_ell_body_next_rst\000"
 8597      65745F65 
 8597      6C6C5F62 
 8597      6F64795F 
 8597      6E657874 
 8598              	.LASF2:
 8599 0456 756E7369 		.ascii	"unsigned char\000"
 8599      676E6564 
 8599      20636861 
 8599      7200
 8600              	.LASF86:
 8601 0464 6C6E5F67 		.ascii	"ln_get_motion_body_rst_horizon\000"
 8601      65745F6D 
 8601      6F74696F 
 8601      6E5F626F 
 8601      64795F72 
 8602              	.LASF3:
 8603 0483 73686F72 		.ascii	"short int\000"
 8603      7420696E 
 8603      7400
 8604              	.LASF62:
 8605 048d 6F627365 		.ascii	"observer\000"
 8605      72766572 
 8605      00
 8606              	.LASF19:
 8607 0496 6F6D6567 		.ascii	"omega\000"
 8607      6100
 8608              	.LASF60:
 8609 049c 656C6F6E 		.ascii	"elong\000"
 8609      6700
 8610              	.LASF84:
 8611 04a2 61636F73 		.ascii	"acos\000"
 8611      00
 8612              	.LASF48:
 8613 04a7 655F706F 		.ascii	"e_posn\000"
ARM GAS  /tmp/cctkbEOJ.s 			page 156


 8613      736E00
 8614              	.LASF46:
 8615 04ae 6C6E5F67 		.ascii	"ln_get_ell_geo_rect_posn\000"
 8615      65745F65 
 8615      6C6C5F67 
 8615      656F5F72 
 8615      6563745F 
 8616              	.LASF11:
 8617 04c7 63686172 		.ascii	"char\000"
 8617      00
 8618              	.LASF15:
 8619 04cc 6C6E5F6C 		.ascii	"ln_lnlat_posn\000"
 8619      6E6C6174 
 8619      5F706F73 
 8619      6E00
 8620              	.LASF27:
 8621 04da 6C6E5F67 		.ascii	"ln_get_ell_smajor_diam\000"
 8621      65745F65 
 8621      6C6C5F73 
 8621      6D616A6F 
 8621      725F6469 
 8622              	.LASF77:
 8623 04f1 6174616E 		.ascii	"atan2\000"
 8623      3200
 8624              	.LASF75:
 8625 04f7 6174616E 		.ascii	"atan\000"
 8625      00
 8626              	.LASF69:
 8627 04fc 6C6E5F67 		.ascii	"ln_get_ell_last_perihelion\000"
 8627      65745F65 
 8627      6C6C5F6C 
 8627      6173745F 
 8627      70657269 
 8628              	.LASF68:
 8629 0517 6461795F 		.ascii	"day_limit\000"
 8629      6C696D69 
 8629      7400
 8630              	.LASF65:
 8631 0521 6C6E5F67 		.ascii	"ln_get_ell_body_next_rst_horizon\000"
 8631      65745F65 
 8631      6C6C5F62 
 8631      6F64795F 
 8631      6E657874 
 8632              	.LASF20:
 8633 0542 6C6E5F72 		.ascii	"ln_rst_time\000"
 8633      73745F74 
 8633      696D6500 
 8634              	.LASF45:
 8635 054e 64697374 		.ascii	"dist\000"
 8635      00
 8636              	.LASF78:
 8637 0553 6C6E5F67 		.ascii	"ln_get_rect_distance\000"
 8637      65745F72 
 8637      6563745F 
 8637      64697374 
 8637      616E6365 
 8638              	.LASF37:
ARM GAS  /tmp/cctkbEOJ.s 			page 157


 8639 0568 73696E5F 		.ascii	"sin_omega\000"
 8639      6F6D6567 
 8639      6100
 8640              	.LASF72:
 8641 0572 6C6E5F64 		.ascii	"ln_deg_to_rad\000"
 8641      65675F74 
 8641      6F5F7261 
 8641      6400
 8642              	.LASF55:
 8643 0580 6C6E5F67 		.ascii	"ln_get_ell_body_earth_dist\000"
 8643      65745F65 
 8643      6C6C5F62 
 8643      6F64795F 
 8643      65617274 
 8644              	.LASF41:
 8645 059b 6C6E5F67 		.ascii	"ln_get_ell_helio_rect_posn\000"
 8645      65745F65 
 8645      6C6C5F68 
 8645      656C696F 
 8645      5F726563 
 8646              	.LASF83:
 8647 05b6 6C6E5F67 		.ascii	"ln_get_rect_from_helio\000"
 8647      65745F72 
 8647      6563745F 
 8647      66726F6D 
 8647      5F68656C 
 8648              	.LASF82:
 8649 05cd 6C6E5F67 		.ascii	"ln_get_earth_helio_coords\000"
 8649      65745F65 
 8649      61727468 
 8649      5F68656C 
 8649      696F5F63 
 8650              	.LASF74:
 8651 05e7 73717274 		.ascii	"sqrt\000"
 8651      00
 8652              	.LASF16:
 8653 05ec 6C6E5F68 		.ascii	"ln_helio_posn\000"
 8653      656C696F 
 8653      5F706F73 
 8653      6E00
 8654              	.LASF44:
 8655 05fa 736F6C5F 		.ascii	"sol_rect_posn\000"
 8655      72656374 
 8655      5F706F73 
 8655      6E00
 8656              	.LASF14:
 8657 0608 6C6E5F65 		.ascii	"ln_equ_posn\000"
 8657      71755F70 
 8657      6F736E00 
 8658              	.LASF47:
 8659 0614 705F706F 		.ascii	"p_posn\000"
 8659      736E00
 8660              	.LASF33:
 8661 061b 6F726269 		.ascii	"orbit\000"
 8661      7400
 8662              		.ident	"GCC: (GNU Tools for ARM Embedded Processors) 4.7.4 20130913 (release) [ARM/embedded-4_7-br
ARM GAS  /tmp/cctkbEOJ.s 			page 158


DEFINED SYMBOLS
                            *ABS*:0000000000000000 elliptic_motion.c
     /tmp/cctkbEOJ.s:28     .text.ln_solve_kepler:0000000000000000 $t
     /tmp/cctkbEOJ.s:34     .text.ln_solve_kepler:0000000000000000 ln_solve_kepler
     /tmp/cctkbEOJ.s:423    .text.ln_solve_kepler:0000000000000248 $d
     /tmp/cctkbEOJ.s:435    .text.ln_get_ell_mean_anomaly:0000000000000000 $t
     /tmp/cctkbEOJ.s:441    .text.ln_get_ell_mean_anomaly:0000000000000000 ln_get_ell_mean_anomaly
     /tmp/cctkbEOJ.s:473    .text.ln_get_ell_true_anomaly:0000000000000000 $t
     /tmp/cctkbEOJ.s:479    .text.ln_get_ell_true_anomaly:0000000000000000 ln_get_ell_true_anomaly
     /tmp/cctkbEOJ.s:573    .text.ln_get_ell_radius_vector:0000000000000000 $t
     /tmp/cctkbEOJ.s:579    .text.ln_get_ell_radius_vector:0000000000000000 ln_get_ell_radius_vector
     /tmp/cctkbEOJ.s:630    .text.ln_get_ell_smajor_diam:0000000000000000 $t
     /tmp/cctkbEOJ.s:636    .text.ln_get_ell_smajor_diam:0000000000000000 ln_get_ell_smajor_diam
     /tmp/cctkbEOJ.s:681    .text.ln_get_ell_sminor_diam:0000000000000000 $t
     /tmp/cctkbEOJ.s:687    .text.ln_get_ell_sminor_diam:0000000000000000 ln_get_ell_sminor_diam
     /tmp/cctkbEOJ.s:729    .text.ln_get_ell_mean_motion:0000000000000000 $t
     /tmp/cctkbEOJ.s:735    .text.ln_get_ell_mean_motion:0000000000000000 ln_get_ell_mean_motion
     /tmp/cctkbEOJ.s:770    .text.ln_get_ell_mean_motion:0000000000000028 $d
     /tmp/cctkbEOJ.s:776    .text.ln_get_ell_helio_rect_posn:0000000000000000 $t
     /tmp/cctkbEOJ.s:782    .text.ln_get_ell_helio_rect_posn:0000000000000000 ln_get_ell_helio_rect_posn
     /tmp/cctkbEOJ.s:1070   .text.ln_get_ell_helio_rect_posn:00000000000001d8 $d
     /tmp/cctkbEOJ.s:1078   .text.ln_get_ell_helio_rect_posn:00000000000001e8 $t
     /tmp/cctkbEOJ.s:1225   .text.ln_get_ell_body_equ_coords:0000000000000000 $t
     /tmp/cctkbEOJ.s:1231   .text.ln_get_ell_body_equ_coords:0000000000000000 ln_get_ell_body_equ_coords
     /tmp/cctkbEOJ.s:1399   .text.ln_get_ell_geo_rect_posn:0000000000000000 $t
     /tmp/cctkbEOJ.s:1405   .text.ln_get_ell_geo_rect_posn:0000000000000000 ln_get_ell_geo_rect_posn
     /tmp/cctkbEOJ.s:1474   .text.ln_get_ell_orbit_len:0000000000000000 $t
     /tmp/cctkbEOJ.s:1480   .text.ln_get_ell_orbit_len:0000000000000000 ln_get_ell_orbit_len
     /tmp/cctkbEOJ.s:1588   .text.ln_get_ell_orbit_len:00000000000000a8 $d
     /tmp/cctkbEOJ.s:1594   .text.ln_get_ell_orbit_pvel:0000000000000000 $t
     /tmp/cctkbEOJ.s:1600   .text.ln_get_ell_orbit_pvel:0000000000000000 ln_get_ell_orbit_pvel
     /tmp/cctkbEOJ.s:1672   .text.ln_get_ell_orbit_pvel:0000000000000068 $d
     /tmp/cctkbEOJ.s:1678   .text.ln_get_ell_orbit_avel:0000000000000000 $t
     /tmp/cctkbEOJ.s:1684   .text.ln_get_ell_orbit_avel:0000000000000000 ln_get_ell_orbit_avel
     /tmp/cctkbEOJ.s:1758   .text.ln_get_ell_orbit_avel:0000000000000068 $d
     /tmp/cctkbEOJ.s:1764   .text.ln_get_ell_body_solar_dist:0000000000000000 $t
     /tmp/cctkbEOJ.s:1770   .text.ln_get_ell_body_solar_dist:0000000000000000 ln_get_ell_body_solar_dist
     /tmp/cctkbEOJ.s:1824   .text.ln_get_ell_orbit_vel:0000000000000000 $t
     /tmp/cctkbEOJ.s:1830   .text.ln_get_ell_orbit_vel:0000000000000000 ln_get_ell_orbit_vel
     /tmp/cctkbEOJ.s:1890   .text.ln_get_ell_orbit_vel:0000000000000058 $d
     /tmp/cctkbEOJ.s:1896   .text.ln_get_ell_body_earth_dist:0000000000000000 $t
     /tmp/cctkbEOJ.s:1902   .text.ln_get_ell_body_earth_dist:0000000000000000 ln_get_ell_body_earth_dist
     /tmp/cctkbEOJ.s:1956   .text.ln_get_ell_body_phase_angle:0000000000000000 $t
     /tmp/cctkbEOJ.s:1962   .text.ln_get_ell_body_phase_angle:0000000000000000 ln_get_ell_body_phase_angle
     /tmp/cctkbEOJ.s:2145   .text.ln_get_ell_body_elong:0000000000000000 $t
     /tmp/cctkbEOJ.s:2151   .text.ln_get_ell_body_elong:0000000000000000 ln_get_ell_body_elong
     /tmp/cctkbEOJ.s:2333   .text.ln_get_ell_body_rst_horizon:0000000000000000 $t
     /tmp/cctkbEOJ.s:2339   .text.ln_get_ell_body_rst_horizon:0000000000000000 ln_get_ell_body_rst_horizon
     /tmp/cctkbEOJ.s:2373   .text.ln_get_ell_body_rst:0000000000000000 $t
     /tmp/cctkbEOJ.s:2379   .text.ln_get_ell_body_rst:0000000000000000 ln_get_ell_body_rst
     /tmp/cctkbEOJ.s:2411   .text.ln_get_ell_body_rst:0000000000000020 $d
     /tmp/cctkbEOJ.s:2417   .text.ln_get_ell_body_next_rst_horizon:0000000000000000 $t
     /tmp/cctkbEOJ.s:2423   .text.ln_get_ell_body_next_rst_horizon:0000000000000000 ln_get_ell_body_next_rst_horizon
     /tmp/cctkbEOJ.s:2457   .text.ln_get_ell_body_next_rst:0000000000000000 $t
     /tmp/cctkbEOJ.s:2463   .text.ln_get_ell_body_next_rst:0000000000000000 ln_get_ell_body_next_rst
     /tmp/cctkbEOJ.s:2495   .text.ln_get_ell_body_next_rst:0000000000000020 $d
     /tmp/cctkbEOJ.s:2501   .text.ln_get_ell_body_next_rst_horizon_future:0000000000000000 $t
ARM GAS  /tmp/cctkbEOJ.s 			page 159


     /tmp/cctkbEOJ.s:2507   .text.ln_get_ell_body_next_rst_horizon_future:0000000000000000 ln_get_ell_body_next_rst_horizon_future
     /tmp/cctkbEOJ.s:2543   .text.ln_get_ell_last_perihelion:0000000000000000 $t
     /tmp/cctkbEOJ.s:2549   .text.ln_get_ell_last_perihelion:0000000000000000 ln_get_ell_last_perihelion
                     .debug_frame:0000000000000010 $d
     /tmp/cctkbEOJ.s:434    .text.ln_solve_kepler:0000000000000268 $t
     /tmp/cctkbEOJ.s:2416   .text.ln_get_ell_body_rst:0000000000000028 $t
     /tmp/cctkbEOJ.s:2500   .text.ln_get_ell_body_next_rst:0000000000000028 $t

UNDEFINED SYMBOLS
__aeabi_dcmpeq
__aeabi_dcmplt
__aeabi_ddiv
__aeabi_d2iz
__aeabi_i2d
__aeabi_dsub
__aeabi_dadd
__aeabi_dmul
__aeabi_dcmpgt
ln_deg_to_rad
sin
ln_rad_to_deg
sqrt
tan
atan
ln_range_degrees
cos
atan2
ln_get_solar_geo_coords
ln_get_rect_distance
ln_get_light_time
asin
ln_get_earth_helio_coords
ln_get_rect_from_helio
acos
ln_get_earth_solar_dist
ln_get_motion_body_rst_horizon
ln_get_motion_body_next_rst_horizon
ln_get_motion_body_next_rst_horizon_future
