ARM GAS  /tmp/cc1kxtIq.s 			page 1


   1              		.syntax unified
   2              		.cpu cortex-m4
   3              		.fpu softvfp
   4              		.eabi_attribute 20, 1
   5              		.eabi_attribute 21, 1
   6              		.eabi_attribute 23, 3
   7              		.eabi_attribute 24, 1
   8              		.eabi_attribute 25, 1
   9              		.eabi_attribute 26, 1
  10              		.eabi_attribute 30, 2
  11              		.eabi_attribute 34, 1
  12              		.eabi_attribute 18, 4
  13              		.thumb
  14              		.file	"hal.c"
  15              		.text
  16              	.Ltext0:
  17              		.cfi_sections	.debug_frame
  18              		.section	.text.halInit,"ax",%progbits
  19              		.align	2
  20              		.p2align 4,,15
  21              		.global	halInit
  22              		.thumb
  23              		.thumb_func
  24              		.type	halInit, %function
  25              	halInit:
  26              	.LFB118:
  27              		.file 1 "../../os/hal/src/hal.c"
  28              		.loc 1 61 0
  29              		.cfi_startproc
  30              		@ args = 0, pretend = 0, frame = 0
  31              		@ frame_needed = 0, uses_anonymous_args = 0
  32 0000 08B5     		push	{r3, lr}
  33              	.LCFI0:
  34              		.cfi_def_cfa_offset 8
  35              		.cfi_offset 3, -8
  36              		.cfi_offset 14, -4
  37              		.loc 1 63 0
  38 0002 FFF7FEFF 		bl	hal_lld_init
  39              	.LVL0:
  40              		.loc 1 69 0
  41 0006 40F20000 		movw	r0, #:lower16:pal_default_config
  42 000a C0F20000 		movt	r0, #:upper16:pal_default_config
  43 000e FFF7FEFF 		bl	_pal_lld_init
  44              	.LVL1:
  45              		.loc 1 93 0
  46 0012 FFF7FEFF 		bl	pwmInit
  47              	.LVL2:
  48              		.loc 1 96 0
  49 0016 FFF7FEFF 		bl	sdInit
  50              	.LVL3:
  51              		.loc 1 102 0
  52 001a FFF7FEFF 		bl	spiInit
  53              	.LVL4:
  54              		.loc 1 108 0
  55 001e FFF7FEFF 		bl	usbInit
  56              	.LVL5:
  57              		.loc 1 114 0
ARM GAS  /tmp/cc1kxtIq.s 			page 2


  58 0022 FFF7FEFF 		bl	sduInit
  59              	.LVL6:
  60              		.loc 1 117 0
  61 0026 FFF7FEFF 		bl	rtcInit
  62              	.LVL7:
  63              		.loc 1 121 0
  64 002a BDE80840 		pop	{r3, lr}
  65              		.loc 1 120 0
  66 002e FFF7FEBF 		b	boardInit
  67              	.LVL8:
  68              		.cfi_endproc
  69              	.LFE118:
  70              		.size	halInit, .-halInit
  71 0032 00BFAFF3 		.section	.text.halIsCounterWithin,"ax",%progbits
  71      0080AFF3 
  71      0080AFF3 
  71      0080
  72              		.align	2
  73              		.p2align 4,,15
  74              		.global	halIsCounterWithin
  75              		.thumb
  76              		.thumb_func
  77              		.type	halIsCounterWithin, %function
  78              	halIsCounterWithin:
  79              	.LFB119:
  80              		.loc 1 167 0
  81              		.cfi_startproc
  82              		@ args = 0, pretend = 0, frame = 0
  83              		@ frame_needed = 0, uses_anonymous_args = 0
  84              		@ link register save eliminated.
  85              	.LVL9:
  86              		.loc 1 168 0
  87 0000 4FF48053 		mov	r3, #4096
  88 0004 CEF20003 		movt	r3, 57344
  89              		.loc 1 170 0
  90 0008 8142     		cmp	r1, r0
  91              		.loc 1 168 0
  92 000a 5A68     		ldr	r2, [r3, #4]
  93              	.LVL10:
  94              		.loc 1 170 0
  95 000c 05D9     		bls	.L3
  96              		.loc 1 170 0 is_stmt 0 discriminator 1
  97 000e 8242     		cmp	r2, r0
  98 0010 01D3     		bcc	.L7
  99              		.loc 1 170 0 discriminator 3
 100 0012 8A42     		cmp	r2, r1
 101 0014 03D3     		bcc	.L5
 102              	.L7:
 103              		.loc 1 170 0
 104 0016 0020     		movs	r0, #0
 105              	.LVL11:
 106              		.loc 1 172 0 is_stmt 1
 107 0018 7047     		bx	lr
 108              	.LVL12:
 109              	.L3:
 110              		.loc 1 170 0 discriminator 2
 111 001a 8242     		cmp	r2, r0
ARM GAS  /tmp/cc1kxtIq.s 			page 3


 112 001c 01D3     		bcc	.L9
 113              	.L5:
 114              		.loc 1 170 0 is_stmt 0
 115 001e 0120     		movs	r0, #1
 116              	.LVL13:
 117 0020 7047     		bx	lr
 118              	.LVL14:
 119              	.L9:
 120              		.loc 1 171 0 is_stmt 1
 121 0022 8A42     		cmp	r2, r1
 122 0024 2CBF     		ite	cs
 123 0026 0020     		movcs	r0, #0
 124              	.LVL15:
 125 0028 0120     		movcc	r0, #1
 126 002a 7047     		bx	lr
 127              		.cfi_endproc
 128              	.LFE119:
 129              		.size	halIsCounterWithin, .-halIsCounterWithin
 130              		.section	.text.halPolledDelay,"ax",%progbits
 131              		.align	2
 132              		.p2align 4,,15
 133              		.global	halPolledDelay
 134              		.thumb
 135              		.thumb_func
 136              		.type	halPolledDelay, %function
 137              	halPolledDelay:
 138              	.LFB120:
 139              		.loc 1 186 0
 140              		.cfi_startproc
 141              		@ args = 0, pretend = 0, frame = 0
 142              		@ frame_needed = 0, uses_anonymous_args = 0
 143              		@ link register save eliminated.
 144              	.LVL16:
 145              		.loc 1 187 0
 146 0000 4FF48053 		mov	r3, #4096
 147 0004 CEF20003 		movt	r3, 57344
 148              	.LBB4:
 149              	.LBB5:
 150              		.loc 1 168 0
 151 0008 1946     		mov	r1, r3
 152              	.LBE5:
 153              	.LBE4:
 154              		.loc 1 187 0
 155 000a 5A68     		ldr	r2, [r3, #4]
 156              	.LVL17:
 157              		.loc 1 188 0
 158 000c 8018     		adds	r0, r0, r2
 159              	.LVL18:
 160              	.L16:
 161              	.LBB7:
 162              	.LBB6:
 163              		.loc 1 170 0 discriminator 1
 164 000e 8242     		cmp	r2, r0
 165              		.loc 1 168 0 discriminator 1
 166 0010 4B68     		ldr	r3, [r1, #4]
 167              	.LVL19:
 168              		.loc 1 170 0 discriminator 1
ARM GAS  /tmp/cc1kxtIq.s 			page 4


 169 0012 02D2     		bcs	.L11
 170              		.loc 1 170 0 is_stmt 0
 171 0014 9A42     		cmp	r2, r3
 172 0016 05D9     		bls	.L17
 173 0018 7047     		bx	lr
 174              	.L11:
 175 001a 9A42     		cmp	r2, r3
 176 001c F7D9     		bls	.L16
 177              		.loc 1 171 0 is_stmt 1
 178 001e 9842     		cmp	r0, r3
 179 0020 F5D8     		bhi	.L16
 180 0022 7047     		bx	lr
 181              	.L17:
 182              		.loc 1 170 0
 183 0024 9842     		cmp	r0, r3
 184 0026 F2D8     		bhi	.L16
 185 0028 7047     		bx	lr
 186              	.LBE6:
 187              	.LBE7:
 188              		.cfi_endproc
 189              	.LFE120:
 190              		.size	halPolledDelay, .-halPolledDelay
 191              		.text
 192              	.Letext0:
 193              		.file 2 "/usr/bin/../lib/gcc/arm-none-eabi/4.7.4/../../../../arm-none-eabi/include/stdint.h"
 194              		.file 3 "../../os/ports/GCC/ARMCMx/chtypes.h"
 195              		.file 4 "../../os/ports/common/ARMCMx/nvic.h"
 196              		.file 5 "../../os/hal/platforms/STM32F4xx/hal_lld.h"
 197              		.file 6 "../../os/hal/platforms/STM32/GPIOv2/pal_lld.h"
 198              		.file 7 "../../os/ports/common/ARMCMx/CMSIS/include/core_cm4.h"
 199              		.file 8 "../../os/hal/include/pwm.h"
 200              		.file 9 "../../os/hal/include/serial.h"
 201              		.file 10 "../../os/hal/include/spi.h"
 202              		.file 11 "../../os/hal/include/usb.h"
 203              		.file 12 "../../os/hal/include/serial_usb.h"
 204              		.file 13 "../../os/hal/include/rtc.h"
 205              		.file 14 "../../boards/ST_STM32F4_DISCOVERY/board.h"