ARM GAS  /tmp/ccADnaER.s 			page 1


   1              		.syntax unified
   2              		.cpu cortex-m4
   3              		.fpu softvfp
   4              		.eabi_attribute 20, 1
   5              		.eabi_attribute 21, 1
   6              		.eabi_attribute 23, 3
   7              		.eabi_attribute 24, 1
   8              		.eabi_attribute 25, 1
   9              		.eabi_attribute 26, 1
  10              		.eabi_attribute 30, 2
  11              		.eabi_attribute 34, 1
  12              		.eabi_attribute 18, 4
  13              		.thumb
  14              		.file	"heliocentric_time.c"
  15              		.text
  16              	.Ltext0:
  17              		.cfi_sections	.debug_frame
  18              		.global	__aeabi_dadd
  19              		.global	__aeabi_dmul
  20              		.section	.text.ln_get_heliocentric_time_diff,"ax",%progbits
  21              		.align	2
  22              		.p2align 4,,15
  23              		.global	ln_get_heliocentric_time_diff
  24              		.thumb
  25              		.thumb_func
  26              		.type	ln_get_heliocentric_time_diff, %function
  27              	ln_get_heliocentric_time_diff:
  28              	.LFB0:
  29              		.file 1 "./libnova/src/heliocentric_time.c"
  30              		.loc 1 36 0
  31              		.cfi_startproc
  32              		@ args = 0, pretend = 0, frame = 96
  33              		@ frame_needed = 0, uses_anonymous_args = 0
  34              	.LVL0:
  35 0000 2DE9F04F 		push	{r4, r5, r6, r7, r8, r9, sl, fp, lr}
  36              	.LCFI0:
  37              		.cfi_def_cfa_offset 36
  38              		.cfi_offset 4, -36
  39              		.cfi_offset 5, -32
  40              		.cfi_offset 6, -28
  41              		.cfi_offset 7, -24
  42              		.cfi_offset 8, -20
  43              		.cfi_offset 9, -16
  44              		.cfi_offset 10, -12
  45              		.cfi_offset 11, -8
  46              		.cfi_offset 14, -4
  47 0004 99B0     		sub	sp, sp, #100
  48              	.LCFI1:
  49              		.cfi_def_cfa_offset 136
  50              		.loc 1 36 0
  51 0006 9046     		mov	r8, r2
  52 0008 0446     		mov	r4, r0
  53 000a 0D46     		mov	r5, r1
  54              		.loc 1 42 0
  55 000c 0CAA     		add	r2, sp, #48
  56              	.LVL1:
  57 000e FFF7FEFF 		bl	ln_get_nutation
ARM GAS  /tmp/ccADnaER.s 			page 2


  58              	.LVL2:
  59              		.loc 1 43 0
  60 0012 2046     		mov	r0, r4
  61 0014 2946     		mov	r1, r5
  62 0016 12AA     		add	r2, sp, #72
  63 0018 FFF7FEFF 		bl	ln_get_earth_helio_coords
  64              	.LVL3:
  65              		.loc 1 45 0
  66 001c 4FF40043 		mov	r3, #32768
  67 0020 0022     		movs	r2, #0
  68 0022 C4F26603 		movt	r3, 16486
  69 0026 DDE91201 		ldrd	r0, [sp, #72]
  70 002a FFF7FEFF 		bl	__aeabi_dadd
  71              	.LVL4:
  72 002e FFF7FEFF 		bl	ln_range_degrees
  73              	.LVL5:
  74 0032 FFF7FEFF 		bl	ln_deg_to_rad
  75              	.LVL6:
  76 0036 0646     		mov	r6, r0
  77 0038 0F46     		mov	r7, r1
  78              	.LVL7:
  79              		.loc 1 46 0
  80 003a D8E90001 		ldrd	r0, [r8]
  81 003e FFF7FEFF 		bl	ln_deg_to_rad
  82              	.LVL8:
  83 0042 8246     		mov	sl, r0
  84 0044 8B46     		mov	fp, r1
  85              	.LVL9:
  86              		.loc 1 47 0
  87 0046 D8E90201 		ldrd	r0, [r8, #8]
  88 004a FFF7FEFF 		bl	ln_deg_to_rad
  89              	.LVL10:
  90 004e 8046     		mov	r8, r0
  91              	.LVL11:
  92 0050 8946     		mov	r9, r1
  93              	.LVL12:
  94              		.loc 1 48 0
  95 0052 FFF7FEFF 		bl	cos
  96              	.LVL13:
  97 0056 CDE90001 		strd	r0, [sp]
  98              	.LVL14:
  99              		.loc 1 49 0
 100 005a DDE91001 		ldrd	r0, [sp, #64]
 101              	.LVL15:
 102 005e FFF7FEFF 		bl	ln_deg_to_rad
 103              	.LVL16:
 104 0062 0446     		mov	r4, r0
 105 0064 0D46     		mov	r5, r1
 106              	.LVL17:
 107              		.loc 1 53 0
 108 0066 3046     		mov	r0, r6
 109 0068 3946     		mov	r1, r7
 110 006a FFF7FEFF 		bl	cos
 111              	.LVL18:
 112 006e CDE90201 		strd	r0, [sp, #8]
 113 0072 5046     		mov	r0, sl
 114 0074 5946     		mov	r1, fp
ARM GAS  /tmp/ccADnaER.s 			page 3


 115 0076 FFF7FEFF 		bl	cos
 116              	.LVL19:
 117 007a CDE90401 		strd	r0, [sp, #16]
 118              		.loc 1 54 0
 119 007e 3046     		mov	r0, r6
 120 0080 3946     		mov	r1, r7
 121 0082 FFF7FEFF 		bl	sin
 122              	.LVL20:
 123 0086 CDE90601 		strd	r0, [sp, #24]
 124 008a 2046     		mov	r0, r4
 125 008c 2946     		mov	r1, r5
 126 008e FFF7FEFF 		bl	sin
 127              	.LVL21:
 128 0092 CDE90801 		strd	r0, [sp, #32]
 129 0096 4046     		mov	r0, r8
 130 0098 4946     		mov	r1, r9
 131 009a FFF7FEFF 		bl	sin
 132              	.LVL22:
 133 009e 8046     		mov	r8, r0
 134              	.LVL23:
 135 00a0 8946     		mov	r9, r1
 136 00a2 2046     		mov	r0, r4
 137 00a4 2946     		mov	r1, r5
 138 00a6 FFF7FEFF 		bl	cos
 139              	.LVL24:
 140 00aa CDE90A01 		strd	r0, [sp, #40]
 141 00ae 5046     		mov	r0, sl
 142 00b0 5946     		mov	r1, fp
 143 00b2 FFF7FEFF 		bl	sin
 144              	.LVL25:
 145              		.loc 1 52 0
 146 00b6 22A3     		adr	r3, .L2
 147 00b8 D3E90023 		ldrd	r2, [r3]
 148              		.loc 1 54 0
 149 00bc 8246     		mov	sl, r0
 150              	.LVL26:
 151 00be 8B46     		mov	fp, r1
 152              		.loc 1 52 0
 153 00c0 DDE91601 		ldrd	r0, [sp, #88]
 154 00c4 FFF7FEFF 		bl	__aeabi_dmul
 155              	.LVL27:
 156              		.loc 1 53 0
 157 00c8 DDE90423 		ldrd	r2, [sp, #16]
 158              		.loc 1 52 0
 159 00cc 0446     		mov	r4, r0
 160              	.LVL28:
 161 00ce 0D46     		mov	r5, r1
 162              		.loc 1 53 0
 163 00d0 DDE90201 		ldrd	r0, [sp, #8]
 164 00d4 FFF7FEFF 		bl	__aeabi_dmul
 165              	.LVL29:
 166 00d8 DDE90023 		ldrd	r2, [sp]
 167 00dc FFF7FEFF 		bl	__aeabi_dmul
 168              	.LVL30:
 169              		.loc 1 54 0
 170 00e0 4246     		mov	r2, r8
 171              		.loc 1 53 0
ARM GAS  /tmp/ccADnaER.s 			page 4


 172 00e2 0646     		mov	r6, r0
 173              	.LVL31:
 174 00e4 0F46     		mov	r7, r1
 175              		.loc 1 54 0
 176 00e6 4B46     		mov	r3, r9
 177 00e8 DDE90801 		ldrd	r0, [sp, #32]
 178 00ec FFF7FEFF 		bl	__aeabi_dmul
 179              	.LVL32:
 180 00f0 DDE90023 		ldrd	r2, [sp]
 181 00f4 8046     		mov	r8, r0
 182 00f6 8946     		mov	r9, r1
 183 00f8 DDE90A01 		ldrd	r0, [sp, #40]
 184 00fc FFF7FEFF 		bl	__aeabi_dmul
 185              	.LVL33:
 186 0100 5246     		mov	r2, sl
 187 0102 5B46     		mov	r3, fp
 188 0104 FFF7FEFF 		bl	__aeabi_dmul
 189              	.LVL34:
 190 0108 0246     		mov	r2, r0
 191 010a 0B46     		mov	r3, r1
 192 010c 4046     		mov	r0, r8
 193 010e 4946     		mov	r1, r9
 194 0110 FFF7FEFF 		bl	__aeabi_dadd
 195              	.LVL35:
 196 0114 0246     		mov	r2, r0
 197 0116 0B46     		mov	r3, r1
 198 0118 DDE90601 		ldrd	r0, [sp, #24]
 199 011c FFF7FEFF 		bl	__aeabi_dmul
 200              	.LVL36:
 201 0120 0246     		mov	r2, r0
 202 0122 0B46     		mov	r3, r1
 203 0124 3046     		mov	r0, r6
 204 0126 3946     		mov	r1, r7
 205 0128 FFF7FEFF 		bl	__aeabi_dadd
 206              	.LVL37:
 207 012c 0246     		mov	r2, r0
 208 012e 0B46     		mov	r3, r1
 209              		.loc 1 52 0
 210 0130 2046     		mov	r0, r4
 211 0132 2946     		mov	r1, r5
 212 0134 FFF7FEFF 		bl	__aeabi_dmul
 213              	.LVL38:
 214              		.loc 1 55 0
 215 0138 19B0     		add	sp, sp, #100
 216 013a BDE8F08F 		pop	{r4, r5, r6, r7, r8, r9, sl, fp, pc}
 217              	.L3:
 218 013e 00BF     		.align	3
 219              	.L2:
 220 0140 4D86E3F9 		.word	4192437837
 221 0144 0CA877BF 		.word	-1082677236
 222              		.cfi_endproc
 223              	.LFE0:
 224              		.size	ln_get_heliocentric_time_diff, .-ln_get_heliocentric_time_diff
 225 0148 AFF30080 		.text
 225      AFF30080 
 226              	.Letext0:
 227              		.file 2 "./libnova/src/libnova/ln_types.h"
ARM GAS  /tmp/ccADnaER.s 			page 5


 228              		.file 3 "./libnova/src/libnova/nutation.h"
 229              		.file 4 "./libnova/src/libnova/earth.h"
 230              		.file 5 "./libnova/src/libnova/utility.h"
 231              		.file 6 "/usr/bin/../lib/gcc/arm-none-eabi/4.7.4/../../../../arm-none-eabi/include/math.h"