ARM GAS  /tmp/cc14gtoT.s 			page 1


   1              		.syntax unified
   2              		.cpu cortex-m4
   3              		.fpu softvfp
   4              		.eabi_attribute 20, 1
   5              		.eabi_attribute 21, 1
   6              		.eabi_attribute 23, 3
   7              		.eabi_attribute 24, 1
   8              		.eabi_attribute 25, 1
   9              		.eabi_attribute 26, 1
  10              		.eabi_attribute 30, 2
  11              		.eabi_attribute 34, 1
  12              		.eabi_attribute 18, 4
  13              		.thumb
  14              		.file	"hyperbolic_motion.c"
  15              		.text
  16              	.Ltext0:
  17              		.cfi_sections	.debug_frame
  18              		.global	__aeabi_dmul
  19              		.global	__aeabi_ddiv
  20              		.global	__aeabi_dadd
  21              		.global	__aeabi_dcmplt
  22              		.global	__aeabi_i2d
  23              		.global	__aeabi_dsub
  24              		.global	__aeabi_dcmpgt
  25              		.section	.text.ln_solve_hyp_barker,"ax",%progbits
  26              		.align	2
  27              		.p2align 4,,15
  28              		.global	ln_solve_hyp_barker
  29              		.thumb
  30              		.thumb_func
  31              		.type	ln_solve_hyp_barker, %function
  32              	ln_solve_hyp_barker:
  33              	.LFB0:
  34              		.file 1 "./libnova/src/hyperbolic_motion.c"
  35              		.loc 1 46 0
  36              		.cfi_startproc
  37              		@ args = 8, pretend = 0, frame = 56
  38              		@ frame_needed = 0, uses_anonymous_args = 0
  39              	.LVL0:
  40 0000 2DE9F04F 		push	{r4, r5, r6, r7, r8, r9, sl, fp, lr}
  41              	.LCFI0:
  42              		.cfi_def_cfa_offset 36
  43              		.cfi_offset 4, -36
  44              		.cfi_offset 5, -32
  45              		.cfi_offset 6, -28
  46              		.cfi_offset 7, -24
  47              		.cfi_offset 8, -20
  48              		.cfi_offset 9, -16
  49              		.cfi_offset 10, -12
  50              		.cfi_offset 11, -8
  51              		.cfi_offset 14, -4
  52 0004 8FB0     		sub	sp, sp, #60
  53              	.LCFI1:
  54              		.cfi_def_cfa_offset 96
  55              		.loc 1 46 0
  56 0006 DDE91845 		ldrd	r4, [sp, #96]
  57 000a CDE90223 		strd	r2, [sp, #8]
ARM GAS  /tmp/cc14gtoT.s 			page 2


  58              		.loc 1 52 0
  59 000e 2246     		mov	r2, r4
  60              	.LVL1:
  61 0010 2B46     		mov	r3, r5
  62 0012 FFF7FEFF 		bl	__aeabi_dmul
  63              	.LVL2:
  64              		.loc 1 53 0
  65 0016 0023     		movs	r3, #0
  66 0018 21F00047 		bic	r7, r1, #-2147483648
  67              		.loc 1 52 0
  68 001c 0B91     		str	r1, [sp, #44]
  69              	.LVL3:
  70              		.loc 1 53 0
  71 001e 0022     		movs	r2, #0
  72 0020 C4F20803 		movt	r3, 16392
  73 0024 3946     		mov	r1, r7
  74              	.LVL4:
  75              		.loc 1 52 0
  76 0026 0A90     		str	r0, [sp, #40]
  77              		.loc 1 53 0
  78 0028 FFF7FEFF 		bl	__aeabi_dmul
  79              	.LVL5:
  80 002c 0246     		mov	r2, r0
  81 002e 0B46     		mov	r3, r1
  82 0030 0020     		movs	r0, #0
  83 0032 4FF08041 		mov	r1, #1073741824
  84 0036 FFF7FEFF 		bl	__aeabi_ddiv
  85              	.LVL6:
  86              		.loc 1 54 0
  87 003a FFF7FEFF 		bl	atan
  88              	.LVL7:
  89 003e 0023     		movs	r3, #0
  90 0040 0022     		movs	r2, #0
  91 0042 C3F6E073 		movt	r3, 16352
  92 0046 FFF7FEFF 		bl	__aeabi_dmul
  93              	.LVL8:
  94 004a FFF7FEFF 		bl	tan
  95              	.LVL9:
  96 004e FFF7FEFF 		bl	cbrt
  97              	.LVL10:
  98 0052 FFF7FEFF 		bl	atan
  99              	.LVL11:
 100 0056 0246     		mov	r2, r0
 101 0058 0B46     		mov	r3, r1
 102 005a FFF7FEFF 		bl	__aeabi_dadd
 103              	.LVL12:
 104 005e FFF7FEFF 		bl	tan
 105              	.LVL13:
 106 0062 0246     		mov	r2, r0
 107 0064 0B46     		mov	r3, r1
 108 0066 0020     		movs	r0, #0
 109 0068 4FF08041 		mov	r1, #1073741824
 110 006c FFF7FEFF 		bl	__aeabi_ddiv
 111              	.LVL14:
 112              		.loc 1 55 0
 113 0070 0022     		movs	r2, #0
 114              		.loc 1 54 0
ARM GAS  /tmp/cc14gtoT.s 			page 3


 115 0072 0746     		mov	r7, r0
 116 0074 0E46     		mov	r6, r1
 117              		.loc 1 55 0
 118 0076 0023     		movs	r3, #0
 119 0078 2046     		mov	r0, r4
 120 007a 2946     		mov	r1, r5
 121              		.loc 1 54 0
 122 007c 0897     		str	r7, [sp, #32]
 123 007e 0796     		str	r6, [sp, #28]
 124              	.LVL15:
 125              		.loc 1 55 0
 126 0080 FFF7FEFF 		bl	__aeabi_dcmplt
 127              	.LVL16:
 128 0084 0028     		cmp	r0, #0
 129 0086 40F0FB80 		bne	.L16
 130              	.LVL17:
 131              	.L2:
 132 008a DDE90201 		ldrd	r0, [sp, #8]
 133 008e 0B46     		mov	r3, r1
 134 0090 0246     		mov	r2, r0
 135 0092 FFF7FEFF 		bl	__aeabi_dadd
 136              	.LVL18:
 137 0096 CDE90C01 		strd	r0, [sp, #48]
 138              		.loc 1 46 0
 139 009a 6523     		movs	r3, #101
 140 009c 0993     		str	r3, [sp, #36]
 141              	.L7:
 142              	.LVL19:
 143              		.loc 1 63 0
 144 009e 0898     		ldr	r0, [sp, #32]
 145 00a0 0799     		ldr	r1, [sp, #28]
 146 00a2 0246     		mov	r2, r0
 147 00a4 0B46     		mov	r3, r1
 148 00a6 FFF7FEFF 		bl	__aeabi_dmul
 149              	.LVL20:
 150              		.loc 1 64 0
 151 00aa 01F10045 		add	r5, r1, #-2147483648
 152              		.loc 1 63 0
 153 00ae 0691     		str	r1, [sp, #24]
 154              	.LVL21:
 155              		.loc 1 64 0
 156 00b0 089A     		ldr	r2, [sp, #32]
 157 00b2 079B     		ldr	r3, [sp, #28]
 158              		.loc 1 63 0
 159 00b4 0590     		str	r0, [sp, #20]
 160              		.loc 1 64 0
 161 00b6 2946     		mov	r1, r5
 162              	.LVL22:
 163 00b8 FFF7FEFF 		bl	__aeabi_dmul
 164              	.LVL23:
 165              		.loc 1 65 0
 166 00bc 089F     		ldr	r7, [sp, #32]
 167 00be 079E     		ldr	r6, [sp, #28]
 168 00c0 DDE90C23 		ldrd	r2, [sp, #48]
 169              		.loc 1 64 0
 170 00c4 8246     		mov	sl, r0
 171 00c6 8946     		mov	r9, r1
ARM GAS  /tmp/cc14gtoT.s 			page 4


 172              		.loc 1 65 0
 173 00c8 3846     		mov	r0, r7
 174 00ca 3146     		mov	r1, r6
 175              	.LVL24:
 176 00cc FFF7FEFF 		bl	__aeabi_dmul
 177              	.LVL25:
 178 00d0 059A     		ldr	r2, [sp, #20]
 179 00d2 069B     		ldr	r3, [sp, #24]
 180 00d4 FFF7FEFF 		bl	__aeabi_dmul
 181              	.LVL26:
 182 00d8 0023     		movs	r3, #0
 183 00da 0022     		movs	r2, #0
 184 00dc C4F20803 		movt	r3, 16392
 185 00e0 FFF7FEFF 		bl	__aeabi_ddiv
 186              	.LVL27:
 187 00e4 0A9A     		ldr	r2, [sp, #40]
 188 00e6 0B9B     		ldr	r3, [sp, #44]
 189 00e8 FFF7FEFF 		bl	__aeabi_dadd
 190              	.LVL28:
 191 00ec CDE90001 		strd	r0, [sp]
 192              	.LVL29:
 193 00f0 4FF00208 		mov	r8, #2
 194              	.LVL30:
 195              	.L4:
 196              		.loc 1 68 0
 197 00f4 DDE90223 		ldrd	r2, [sp, #8]
 198 00f8 5046     		mov	r0, sl
 199 00fa 09F10041 		add	r1, r9, #-2147483648
 200 00fe FFF7FEFF 		bl	__aeabi_dmul
 201              	.LVL31:
 202 0102 059A     		ldr	r2, [sp, #20]
 203 0104 069B     		ldr	r3, [sp, #24]
 204 0106 FFF7FEFF 		bl	__aeabi_dmul
 205              	.LVL32:
 206 010a 8246     		mov	sl, r0
 207              	.LVL33:
 208              		.loc 1 69 0
 209 010c 4046     		mov	r0, r8
 210              		.loc 1 68 0
 211 010e 8946     		mov	r9, r1
 212              		.loc 1 69 0
 213 0110 FFF7FEFF 		bl	__aeabi_i2d
 214              	.LVL34:
 215              		.loc 1 67 0
 216 0114 C346     		mov	fp, r8
 217              	.LVL35:
 218              		.loc 1 45 0
 219 0116 08F10108 		add	r8, r8, #1
 220              	.LVL36:
 221              		.loc 1 69 0
 222 011a 0446     		mov	r4, r0
 223 011c 4046     		mov	r0, r8
 224 011e 0D46     		mov	r5, r1
 225              	.LVL37:
 226 0120 FFF7FEFF 		bl	__aeabi_i2d
 227              	.LVL38:
 228 0124 DDE90223 		ldrd	r2, [sp, #8]
ARM GAS  /tmp/cc14gtoT.s 			page 5


 229 0128 FFF7FEFF 		bl	__aeabi_dmul
 230              	.LVL39:
 231 012c 0246     		mov	r2, r0
 232 012e 0B46     		mov	r3, r1
 233 0130 2046     		mov	r0, r4
 234 0132 2946     		mov	r1, r5
 235 0134 FFF7FEFF 		bl	__aeabi_dsub
 236              	.LVL40:
 237 0138 2246     		mov	r2, r4
 238 013a 0646     		mov	r6, r0
 239 013c 0F46     		mov	r7, r1
 240 013e 2B46     		mov	r3, r5
 241 0140 2046     		mov	r0, r4
 242 0142 2946     		mov	r1, r5
 243 0144 FFF7FEFF 		bl	__aeabi_dadd
 244              	.LVL41:
 245 0148 0023     		movs	r3, #0
 246 014a 0022     		movs	r2, #0
 247 014c C3F6F073 		movt	r3, 16368
 248 0150 FFF7FEFF 		bl	__aeabi_dadd
 249              	.LVL42:
 250 0154 0246     		mov	r2, r0
 251 0156 0B46     		mov	r3, r1
 252 0158 3046     		mov	r0, r6
 253 015a 3946     		mov	r1, r7
 254 015c FFF7FEFF 		bl	__aeabi_ddiv
 255              	.LVL43:
 256              		.loc 1 70 0
 257 0160 5246     		mov	r2, sl
 258 0162 4B46     		mov	r3, r9
 259 0164 FFF7FEFF 		bl	__aeabi_dmul
 260              	.LVL44:
 261              		.loc 1 71 0
 262 0168 0246     		mov	r2, r0
 263 016a 0B46     		mov	r3, r1
 264              		.loc 1 70 0
 265 016c 0746     		mov	r7, r0
 266              	.LVL45:
 267              		.loc 1 72 0
 268 016e 21F00046 		bic	r6, r1, #-2147483648
 269              		.loc 1 71 0
 270 0172 DDE90001 		ldrd	r0, [sp]
 271              	.LVL46:
 272 0176 FFF7FEFF 		bl	__aeabi_dadd
 273              	.LVL47:
 274              		.loc 1 72 0
 275 017a BBF1650F 		cmp	fp, #101
 276              		.loc 1 71 0
 277 017e CDE90001 		strd	r0, [sp]
 278              	.LVL48:
 279              		.loc 1 72 0
 280 0182 43A3     		adr	r3, .L17
 281 0184 D3E90023 		ldrd	r2, [r3]
 282 0188 3846     		mov	r0, r7
 283              	.LVL49:
 284 018a 3146     		mov	r1, r6
 285 018c 6FD0     		beq	.L10
ARM GAS  /tmp/cc14gtoT.s 			page 6


 286              		.loc 1 72 0 is_stmt 0 discriminator 1
 287 018e FFF7FEFF 		bl	__aeabi_dcmpgt
 288              	.LVL50:
 289              		.loc 1 74 0 is_stmt 1 discriminator 1
 290 0192 3C46     		mov	r4, r7
 291 0194 3546     		mov	r5, r6
 292 0196 40A3     		adr	r3, .L17+8
 293 0198 D3E90023 		ldrd	r2, [r3]
 294              		.loc 1 72 0 discriminator 1
 295 019c 0028     		cmp	r0, #0
 296 019e 66D1     		bne	.L10
 297              		.loc 1 74 0
 298 01a0 3846     		mov	r0, r7
 299 01a2 3146     		mov	r1, r6
 300 01a4 FFF7FEFF 		bl	__aeabi_dcmpgt
 301              	.LVL51:
 302 01a8 0028     		cmp	r0, #0
 303 01aa A3D1     		bne	.L4
 304              		.loc 1 77 0
 305 01ac 0998     		ldr	r0, [sp, #36]
 306 01ae 431E     		subs	r3, r0, #1
 307 01b0 0993     		str	r3, [sp, #36]
 308 01b2 5CD0     		beq	.L10
 309              		.loc 1 77 0 is_stmt 0 discriminator 1
 310 01b4 DDE900AB 		ldrd	sl, [sp]
 311              	.LVL52:
 312 01b8 DDF82080 		ldr	r8, [sp, #32]
 313 01bc DDF81C90 		ldr	r9, [sp, #28]
 314              	.LVL53:
 315              	.L6:
 316              		.loc 1 82 0 is_stmt 1 discriminator 1
 317 01c0 4246     		mov	r2, r8
 318 01c2 4B46     		mov	r3, r9
 319 01c4 4046     		mov	r0, r8
 320 01c6 4946     		mov	r1, r9
 321 01c8 FFF7FEFF 		bl	__aeabi_dadd
 322              	.LVL54:
 323 01cc 4246     		mov	r2, r8
 324 01ce 4B46     		mov	r3, r9
 325 01d0 FFF7FEFF 		bl	__aeabi_dmul
 326              	.LVL55:
 327 01d4 4246     		mov	r2, r8
 328 01d6 4B46     		mov	r3, r9
 329 01d8 FFF7FEFF 		bl	__aeabi_dmul
 330              	.LVL56:
 331 01dc 0023     		movs	r3, #0
 332 01de 0022     		movs	r2, #0
 333 01e0 C4F20803 		movt	r3, 16392
 334 01e4 FFF7FEFF 		bl	__aeabi_ddiv
 335              	.LVL57:
 336 01e8 0246     		mov	r2, r0
 337 01ea 0B46     		mov	r3, r1
 338 01ec 5046     		mov	r0, sl
 339 01ee 5946     		mov	r1, fp
 340 01f0 FFF7FEFF 		bl	__aeabi_dadd
 341              	.LVL58:
 342 01f4 4246     		mov	r2, r8
ARM GAS  /tmp/cc14gtoT.s 			page 7


 343 01f6 0646     		mov	r6, r0
 344 01f8 0F46     		mov	r7, r1
 345 01fa 4B46     		mov	r3, r9
 346 01fc 4046     		mov	r0, r8
 347 01fe 4946     		mov	r1, r9
 348 0200 FFF7FEFF 		bl	__aeabi_dmul
 349              	.LVL59:
 350 0204 0023     		movs	r3, #0
 351 0206 0022     		movs	r2, #0
 352 0208 C3F6F073 		movt	r3, 16368
 353 020c FFF7FEFF 		bl	__aeabi_dadd
 354              	.LVL60:
 355 0210 0246     		mov	r2, r0
 356 0212 0B46     		mov	r3, r1
 357 0214 3046     		mov	r0, r6
 358 0216 3946     		mov	r1, r7
 359 0218 FFF7FEFF 		bl	__aeabi_ddiv
 360              	.LVL61:
 361              		.loc 1 83 0 discriminator 1
 362 021c 4246     		mov	r2, r8
 363 021e 4B46     		mov	r3, r9
 364              		.loc 1 82 0 discriminator 1
 365 0220 0546     		mov	r5, r0
 366 0222 0C46     		mov	r4, r1
 367              		.loc 1 83 0 discriminator 1
 368 0224 FFF7FEFF 		bl	__aeabi_dsub
 369              	.LVL62:
 370 0228 0246     		mov	r2, r0
 371 022a 1046     		mov	r0, r2
 372 022c 21F00041 		bic	r1, r1, #-2147483648
 373 0230 19A3     		adr	r3, .L17+8
 374 0232 D3E90023 		ldrd	r2, [r3]
 375              		.loc 1 82 0 discriminator 1
 376 0236 2F46     		mov	r7, r5
 377 0238 2646     		mov	r6, r4
 378              	.LVL63:
 379 023a A846     		mov	r8, r5
 380              	.LVL64:
 381 023c A146     		mov	r9, r4
 382              		.loc 1 83 0 discriminator 1
 383 023e FFF7FEFF 		bl	__aeabi_dcmpgt
 384              	.LVL65:
 385 0242 0028     		cmp	r0, #0
 386 0244 BCD1     		bne	.L6
 387              		.loc 1 84 0
 388 0246 089A     		ldr	r2, [sp, #32]
 389 0248 079B     		ldr	r3, [sp, #28]
 390 024a 2846     		mov	r0, r5
 391 024c 2146     		mov	r1, r4
 392 024e FFF7FEFF 		bl	__aeabi_dsub
 393              	.LVL66:
 394 0252 21F00043 		bic	r3, r1, #-2147483648
 395 0256 1946     		mov	r1, r3
 396 0258 0FA3     		adr	r3, .L17+8
 397 025a D3E90023 		ldrd	r2, [r3]
 398 025e FFF7FEFF 		bl	__aeabi_dcmpgt
 399              	.LVL67:
ARM GAS  /tmp/cc14gtoT.s 			page 8


 400 0262 40B1     		cbz	r0, .L5
 401              		.loc 1 82 0
 402 0264 CDF82080 		str	r8, [sp, #32]
 403 0268 CDF81C90 		str	r9, [sp, #28]
 404 026c 17E7     		b	.L7
 405              	.LVL68:
 406              	.L10:
 407              		.loc 1 73 0
 408 026e 0026     		movs	r6, #0
 409 0270 3746     		mov	r7, r6
 410 0272 C7F6F876 		movt	r6, 32760
 411              	.LVL69:
 412              	.L5:
 413              		.loc 1 87 0
 414 0276 3846     		mov	r0, r7
 415 0278 3146     		mov	r1, r6
 416 027a 0FB0     		add	sp, sp, #60
 417 027c BDE8F08F 		pop	{r4, r5, r6, r7, r8, r9, sl, fp, pc}
 418              	.LVL70:
 419              	.L16:
 420              		.loc 1 56 0
 421 0280 0799     		ldr	r1, [sp, #28]
 422 0282 01F10040 		add	r0, r1, #-2147483648
 423 0286 0790     		str	r0, [sp, #28]
 424              	.LVL71:
 425 0288 FFE6     		b	.L2
 426              	.L18:
 427 028a 00BFAFF3 		.align	3
 427      0080
 428              	.L17:
 429 0290 00000000 		.word	0
 430 0294 0088C340 		.word	1086556160
 431 0298 BBBDD7D9 		.word	3654794683
 432 029c DF7CDB3D 		.word	1037794527
 433              		.cfi_endproc
 434              	.LFE0:
 435              		.size	ln_solve_hyp_barker, .-ln_solve_hyp_barker
 436              		.section	.text.ln_get_hyp_true_anomaly,"ax",%progbits
 437              		.align	2
 438              		.p2align 4,,15
 439              		.global	ln_get_hyp_true_anomaly
 440              		.thumb
 441              		.thumb_func
 442              		.type	ln_get_hyp_true_anomaly, %function
 443              	ln_get_hyp_true_anomaly:
 444              	.LFB1:
 445              		.loc 1 99 0
 446              		.cfi_startproc
 447              		@ args = 8, pretend = 0, frame = 8
 448              		@ frame_needed = 0, uses_anonymous_args = 0
 449              	.LVL72:
 450 0000 2DE9F04F 		push	{r4, r5, r6, r7, r8, r9, sl, fp, lr}
 451              	.LCFI2:
 452              		.cfi_def_cfa_offset 36
 453              		.cfi_offset 4, -36
 454              		.cfi_offset 5, -32
 455              		.cfi_offset 6, -28
ARM GAS  /tmp/cc14gtoT.s 			page 9


 456              		.cfi_offset 7, -24
 457              		.cfi_offset 8, -20
 458              		.cfi_offset 9, -16
 459              		.cfi_offset 10, -12
 460              		.cfi_offset 11, -8
 461              		.cfi_offset 14, -4
 462 0004 1646     		mov	r6, r2
 463 0006 1F46     		mov	r7, r3
 464              		.loc 1 104 0
 465 0008 0023     		movs	r3, #0
 466              		.loc 1 99 0
 467 000a 85B0     		sub	sp, sp, #20
 468              	.LCFI3:
 469              		.cfi_def_cfa_offset 56
 470              		.loc 1 99 0
 471 000c 0446     		mov	r4, r0
 472 000e 0D46     		mov	r5, r1
 473              		.loc 1 104 0
 474 0010 0022     		movs	r2, #0
 475              	.LVL73:
 476 0012 C3F6F073 		movt	r3, 16368
 477 0016 3046     		mov	r0, r6
 478              	.LVL74:
 479 0018 3946     		mov	r1, r7
 480 001a FFF7FEFF 		bl	__aeabi_dadd
 481              	.LVL75:
 482 001e 2246     		mov	r2, r4
 483 0020 2B46     		mov	r3, r5
 484 0022 8246     		mov	sl, r0
 485 0024 8B46     		mov	fp, r1
 486 0026 FFF7FEFF 		bl	__aeabi_ddiv
 487              	.LVL76:
 488              		.loc 1 99 0
 489 002a DDE90E23 		ldrd	r2, [sp, #56]
 490 002e CDE90223 		strd	r2, [sp, #8]
 491              		.loc 1 104 0
 492 0032 FFF7FEFF 		bl	sqrt
 493              	.LVL77:
 494 0036 2246     		mov	r2, r4
 495 0038 8046     		mov	r8, r0
 496 003a 8946     		mov	r9, r1
 497              	.LVL78:
 498 003c 2B46     		mov	r3, r5
 499 003e 2046     		mov	r0, r4
 500 0040 2946     		mov	r1, r5
 501 0042 FFF7FEFF 		bl	__aeabi_dadd
 502              	.LVL79:
 503 0046 0246     		mov	r2, r0
 504 0048 0B46     		mov	r3, r1
 505 004a 17A1     		adr	r1, .L20
 506 004c D1E90001 		ldrd	r0, [r1]
 507 0050 FFF7FEFF 		bl	__aeabi_ddiv
 508              	.LVL80:
 509 0054 4246     		mov	r2, r8
 510 0056 4B46     		mov	r3, r9
 511 0058 FFF7FEFF 		bl	__aeabi_dmul
 512              	.LVL81:
ARM GAS  /tmp/cc14gtoT.s 			page 10


 513 005c 0D46     		mov	r5, r1
 514              		.loc 1 105 0
 515 005e 0021     		movs	r1, #0
 516              		.loc 1 104 0
 517 0060 0446     		mov	r4, r0
 518              	.LVL82:
 519              		.loc 1 105 0
 520 0062 3246     		mov	r2, r6
 521 0064 3B46     		mov	r3, r7
 522 0066 0020     		movs	r0, #0
 523 0068 C3F6F071 		movt	r1, 16368
 524 006c FFF7FEFF 		bl	__aeabi_dsub
 525              	.LVL83:
 526 0070 5246     		mov	r2, sl
 527 0072 5B46     		mov	r3, fp
 528 0074 FFF7FEFF 		bl	__aeabi_ddiv
 529              	.LVL84:
 530 0078 0246     		mov	r2, r0
 531 007a 0B46     		mov	r3, r1
 532              		.loc 1 107 0
 533 007c DDE90201 		ldrd	r0, [sp, #8]
 534 0080 CDE90001 		strd	r0, [sp]
 535 0084 2046     		mov	r0, r4
 536 0086 2946     		mov	r1, r5
 537 0088 FFF7FEFF 		bl	ln_solve_hyp_barker
 538              	.LVL85:
 539              		.loc 1 108 0
 540 008c FFF7FEFF 		bl	atan
 541              	.LVL86:
 542 0090 0246     		mov	r2, r0
 543 0092 0B46     		mov	r3, r1
 544 0094 FFF7FEFF 		bl	__aeabi_dadd
 545              	.LVL87:
 546              		.loc 1 110 0
 547 0098 FFF7FEFF 		bl	ln_rad_to_deg
 548              	.LVL88:
 549              		.loc 1 111 0
 550 009c 05B0     		add	sp, sp, #20
 551 009e BDE8F04F 		pop	{r4, r5, r6, r7, r8, r9, sl, fp, lr}
 552              		.loc 1 110 0
 553 00a2 FFF7FEBF 		b	ln_range_degrees
 554              	.LVL89:
 555              	.L21:
 556 00a6 00BF     		.align	3
 557              	.L20:
 558 00a8 9AB6A651 		.word	1369880218
 559 00ac 6D9D913F 		.word	1066507629
 560              		.cfi_endproc
 561              	.LFE1:
 562              		.size	ln_get_hyp_true_anomaly, .-ln_get_hyp_true_anomaly
 563              		.section	.text.ln_get_hyp_radius_vector,"ax",%progbits
 564              		.align	2
 565              		.p2align 4,,15
 566              		.global	ln_get_hyp_radius_vector
 567              		.thumb
 568              		.thumb_func
 569              		.type	ln_get_hyp_radius_vector, %function
ARM GAS  /tmp/cc14gtoT.s 			page 11


 570              	ln_get_hyp_radius_vector:
 571              	.LFB2:
 572              		.loc 1 123 0
 573              		.cfi_startproc
 574              		@ args = 8, pretend = 0, frame = 0
 575              		@ frame_needed = 0, uses_anonymous_args = 0
 576              	.LVL90:
 577 0000 2DE9F043 		push	{r4, r5, r6, r7, r8, r9, lr}
 578              	.LCFI4:
 579              		.cfi_def_cfa_offset 28
 580              		.cfi_offset 4, -28
 581              		.cfi_offset 5, -24
 582              		.cfi_offset 6, -20
 583              		.cfi_offset 7, -16
 584              		.cfi_offset 8, -12
 585              		.cfi_offset 9, -8
 586              		.cfi_offset 14, -4
 587 0004 1446     		mov	r4, r2
 588 0006 1D46     		mov	r5, r3
 589              		.loc 1 124 0
 590 0008 0023     		movs	r3, #0
 591              		.loc 1 123 0
 592 000a 83B0     		sub	sp, sp, #12
 593              	.LCFI5:
 594              		.cfi_def_cfa_offset 40
 595              		.loc 1 123 0
 596 000c 0646     		mov	r6, r0
 597 000e 0F46     		mov	r7, r1
 598              		.loc 1 124 0
 599 0010 0022     		movs	r2, #0
 600              	.LVL91:
 601 0012 C3F6F073 		movt	r3, 16368
 602 0016 2046     		mov	r0, r4
 603              	.LVL92:
 604 0018 2946     		mov	r1, r5
 605 001a FFF7FEFF 		bl	__aeabi_dadd
 606              	.LVL93:
 607 001e 3246     		mov	r2, r6
 608 0020 3B46     		mov	r3, r7
 609 0022 FFF7FEFF 		bl	__aeabi_dmul
 610              	.LVL94:
 611 0026 8046     		mov	r8, r0
 612 0028 8946     		mov	r9, r1
 613 002a DDE90A01 		ldrd	r0, [sp, #40]
 614 002e 2246     		mov	r2, r4
 615 0030 2B46     		mov	r3, r5
 616 0032 CDE90001 		strd	r0, [sp]
 617 0036 3046     		mov	r0, r6
 618 0038 3946     		mov	r1, r7
 619 003a FFF7FEFF 		bl	ln_get_hyp_true_anomaly
 620              	.LVL95:
 621 003e FFF7FEFF 		bl	ln_deg_to_rad
 622              	.LVL96:
 623 0042 FFF7FEFF 		bl	cos
 624              	.LVL97:
 625 0046 2246     		mov	r2, r4
 626 0048 2B46     		mov	r3, r5
ARM GAS  /tmp/cc14gtoT.s 			page 12


 627 004a FFF7FEFF 		bl	__aeabi_dmul
 628              	.LVL98:
 629 004e 0023     		movs	r3, #0
 630 0050 0022     		movs	r2, #0
 631 0052 C3F6F073 		movt	r3, 16368
 632 0056 FFF7FEFF 		bl	__aeabi_dadd
 633              	.LVL99:
 634 005a 0246     		mov	r2, r0
 635 005c 0B46     		mov	r3, r1
 636 005e 4046     		mov	r0, r8
 637 0060 4946     		mov	r1, r9
 638 0062 FFF7FEFF 		bl	__aeabi_ddiv
 639              	.LVL100:
 640              		.loc 1 125 0
 641 0066 03B0     		add	sp, sp, #12
 642 0068 BDE8F083 		pop	{r4, r5, r6, r7, r8, r9, pc}
 643              		.cfi_endproc
 644              	.LFE2:
 645              		.size	ln_get_hyp_radius_vector, .-ln_get_hyp_radius_vector
 646 006c AFF30080 		.section	.text.ln_get_hyp_helio_rect_posn,"ax",%progbits
 647              		.align	2
 648              		.p2align 4,,15
 649              		.global	ln_get_hyp_helio_rect_posn
 650              		.thumb
 651              		.thumb_func
 652              		.type	ln_get_hyp_helio_rect_posn, %function
 653              	ln_get_hyp_helio_rect_posn:
 654              	.LFB3:
 655              		.loc 1 136 0
 656              		.cfi_startproc
 657              		@ args = 4, pretend = 0, frame = 64
 658              		@ frame_needed = 0, uses_anonymous_args = 0
 659              	.LVL101:
 660 0000 2DE9F04F 		push	{r4, r5, r6, r7, r8, r9, sl, fp, lr}
 661              	.LCFI6:
 662              		.cfi_def_cfa_offset 36
 663              		.cfi_offset 4, -36
 664              		.cfi_offset 5, -32
 665              		.cfi_offset 6, -28
 666              		.cfi_offset 7, -24
 667              		.cfi_offset 8, -20
 668              		.cfi_offset 9, -16
 669              		.cfi_offset 10, -12
 670              		.cfi_offset 11, -8
 671              		.cfi_offset 14, -4
 672 0004 0646     		mov	r6, r0
 673 0006 93B0     		sub	sp, sp, #76
 674              	.LCFI7:
 675              		.cfi_def_cfa_offset 112
 676              		.loc 1 146 0
 677 0008 1046     		mov	r0, r2
 678              	.LVL102:
 679 000a 1946     		mov	r1, r3
 680 000c D6E90A23 		ldrd	r2, [r6, #40]
 681              	.LVL103:
 682 0010 FFF7FEFF 		bl	__aeabi_dsub
 683              	.LVL104:
ARM GAS  /tmp/cc14gtoT.s 			page 13


 684 0014 CDE90A01 		strd	r0, [sp, #40]
 685              	.LVL105:
 686              		.loc 1 153 0
 687 0018 D6E90801 		ldrd	r0, [r6, #32]
 688              	.LVL106:
 689 001c FFF7FEFF 		bl	ln_deg_to_rad
 690              	.LVL107:
 691 0020 FFF7FEFF 		bl	sin
 692              	.LVL108:
 693 0024 8046     		mov	r8, r0
 694 0026 0F46     		mov	r7, r1
 695              	.LVL109:
 696              		.loc 1 154 0
 697 0028 D6E90801 		ldrd	r0, [r6, #32]
 698              	.LVL110:
 699 002c FFF7FEFF 		bl	ln_deg_to_rad
 700              	.LVL111:
 701 0030 FFF7FEFF 		bl	cos
 702              	.LVL112:
 703 0034 CDE90201 		strd	r0, [sp, #8]
 704              	.LVL113:
 705              		.loc 1 155 0
 706 0038 D6E90401 		ldrd	r0, [r6, #16]
 707              	.LVL114:
 708 003c FFF7FEFF 		bl	ln_deg_to_rad
 709              	.LVL115:
 710 0040 FFF7FEFF 		bl	sin
 711              	.LVL116:
 712 0044 CDE90401 		strd	r0, [sp, #16]
 713              	.LVL117:
 714              		.loc 1 156 0
 715 0048 D6E90401 		ldrd	r0, [r6, #16]
 716              	.LVL118:
 717 004c FFF7FEFF 		bl	ln_deg_to_rad
 718              	.LVL119:
 719 0050 FFF7FEFF 		bl	cos
 720              	.LVL120:
 721              		.loc 1 158 0
 722 0054 94A3     		adr	r3, .L24
 723 0056 D3E90023 		ldrd	r2, [r3]
 724              		.loc 1 156 0
 725 005a 8246     		mov	sl, r0
 726 005c 8B46     		mov	fp, r1
 727              	.LVL121:
 728              		.loc 1 158 0
 729 005e 4046     		mov	r0, r8
 730 0060 3946     		mov	r1, r7
 731 0062 FFF7FEFF 		bl	__aeabi_dmul
 732              	.LVL122:
 733              		.loc 1 159 0
 734 0066 92A3     		adr	r3, .L24+8
 735 0068 D3E90023 		ldrd	r2, [r3]
 736              		.loc 1 158 0
 737 006c CDE90601 		strd	r0, [sp, #24]
 738              	.LVL123:
 739              		.loc 1 159 0
 740 0070 4046     		mov	r0, r8
ARM GAS  /tmp/cc14gtoT.s 			page 14


 741              	.LVL124:
 742 0072 3946     		mov	r1, r7
 743 0074 FFF7FEFF 		bl	__aeabi_dmul
 744              	.LVL125:
 745              		.loc 1 158 0
 746 0078 4446     		mov	r4, r8
 747              		.loc 1 160 0
 748 007a 07F10043 		add	r3, r7, #-2147483648
 749              		.loc 1 159 0
 750 007e CDE90801 		strd	r0, [sp, #32]
 751              	.LVL126:
 752              		.loc 1 160 0
 753 0082 5246     		mov	r2, sl
 754 0084 2046     		mov	r0, r4
 755              	.LVL127:
 756 0086 1946     		mov	r1, r3
 757 0088 5B46     		mov	r3, fp
 758 008a FFF7FEFF 		bl	__aeabi_dmul
 759              	.LVL128:
 760              		.loc 1 161 0
 761 008e 5246     		mov	r2, sl
 762 0090 5B46     		mov	r3, fp
 763              		.loc 1 160 0
 764 0092 CDE90C01 		strd	r0, [sp, #48]
 765              	.LVL129:
 766              		.loc 1 161 0
 767 0096 DDE90201 		ldrd	r0, [sp, #8]
 768              	.LVL130:
 769 009a FFF7FEFF 		bl	__aeabi_dmul
 770              	.LVL131:
 771 009e 82A3     		adr	r3, .L24
 772 00a0 D3E90023 		ldrd	r2, [r3]
 773 00a4 0746     		mov	r7, r0
 774              	.LVL132:
 775 00a6 0C46     		mov	r4, r1
 776 00a8 FFF7FEFF 		bl	__aeabi_dmul
 777              	.LVL133:
 778 00ac 80A3     		adr	r3, .L24+8
 779 00ae D3E90023 		ldrd	r2, [r3]
 780 00b2 8046     		mov	r8, r0
 781 00b4 8946     		mov	r9, r1
 782 00b6 DDE90401 		ldrd	r0, [sp, #16]
 783 00ba FFF7FEFF 		bl	__aeabi_dmul
 784              	.LVL134:
 785 00be 0246     		mov	r2, r0
 786 00c0 0B46     		mov	r3, r1
 787 00c2 4046     		mov	r0, r8
 788 00c4 4946     		mov	r1, r9
 789 00c6 FFF7FEFF 		bl	__aeabi_dsub
 790              	.LVL135:
 791              		.loc 1 162 0
 792 00ca 79A3     		adr	r3, .L24+8
 793 00cc D3E90023 		ldrd	r2, [r3]
 794              		.loc 1 161 0
 795 00d0 8046     		mov	r8, r0
 796 00d2 8946     		mov	r9, r1
 797              	.LVL136:
ARM GAS  /tmp/cc14gtoT.s 			page 15


 798              		.loc 1 162 0
 799 00d4 3846     		mov	r0, r7
 800 00d6 2146     		mov	r1, r4
 801 00d8 FFF7FEFF 		bl	__aeabi_dmul
 802              	.LVL137:
 803 00dc 72A3     		adr	r3, .L24
 804 00de D3E90023 		ldrd	r2, [r3]
 805 00e2 0746     		mov	r7, r0
 806 00e4 0D46     		mov	r5, r1
 807 00e6 DDE90401 		ldrd	r0, [sp, #16]
 808 00ea FFF7FEFF 		bl	__aeabi_dmul
 809              	.LVL138:
 810 00ee 0246     		mov	r2, r0
 811 00f0 0B46     		mov	r3, r1
 812 00f2 3846     		mov	r0, r7
 813 00f4 2946     		mov	r1, r5
 814 00f6 FFF7FEFF 		bl	__aeabi_dadd
 815              	.LVL139:
 816              		.loc 1 165 0
 817 00fa DDE90C23 		ldrd	r2, [sp, #48]
 818              		.loc 1 162 0
 819 00fe 8246     		mov	sl, r0
 820              	.LVL140:
 821 0100 8B46     		mov	fp, r1
 822              	.LVL141:
 823              		.loc 1 165 0
 824 0102 DDE90201 		ldrd	r0, [sp, #8]
 825 0106 FFF7FEFF 		bl	atan2
 826              	.LVL142:
 827              		.loc 1 166 0
 828 010a 4246     		mov	r2, r8
 829 010c 4B46     		mov	r3, r9
 830              		.loc 1 165 0
 831 010e CDE90401 		strd	r0, [sp, #16]
 832              	.LVL143:
 833              		.loc 1 166 0
 834 0112 DDE90601 		ldrd	r0, [sp, #24]
 835              	.LVL144:
 836 0116 FFF7FEFF 		bl	atan2
 837              	.LVL145:
 838              		.loc 1 167 0
 839 011a 5246     		mov	r2, sl
 840 011c 5B46     		mov	r3, fp
 841              		.loc 1 166 0
 842 011e CDE90E01 		strd	r0, [sp, #56]
 843              	.LVL146:
 844              		.loc 1 167 0
 845 0122 DDE90801 		ldrd	r0, [sp, #32]
 846              	.LVL147:
 847 0126 FFF7FEFF 		bl	atan2
 848              	.LVL148:
 849 012a CDE91001 		strd	r0, [sp, #64]
 850              	.LVL149:
 851              		.loc 1 168 0
 852 012e DDE90201 		ldrd	r0, [sp, #8]
 853              	.LVL150:
 854 0132 0246     		mov	r2, r0
ARM GAS  /tmp/cc14gtoT.s 			page 16


 855 0134 0B46     		mov	r3, r1
 856 0136 FFF7FEFF 		bl	__aeabi_dmul
 857              	.LVL151:
 858 013a 0446     		mov	r4, r0
 859 013c 0F46     		mov	r7, r1
 860 013e DDE90C01 		ldrd	r0, [sp, #48]
 861 0142 0246     		mov	r2, r0
 862 0144 0B46     		mov	r3, r1
 863 0146 FFF7FEFF 		bl	__aeabi_dmul
 864              	.LVL152:
 865 014a 0246     		mov	r2, r0
 866 014c 0B46     		mov	r3, r1
 867 014e 2046     		mov	r0, r4
 868 0150 3946     		mov	r1, r7
 869 0152 FFF7FEFF 		bl	__aeabi_dadd
 870              	.LVL153:
 871 0156 FFF7FEFF 		bl	sqrt
 872              	.LVL154:
 873 015a CDE90201 		strd	r0, [sp, #8]
 874              	.LVL155:
 875              		.loc 1 169 0
 876 015e DDE90601 		ldrd	r0, [sp, #24]
 877              	.LVL156:
 878 0162 0246     		mov	r2, r0
 879 0164 0B46     		mov	r3, r1
 880 0166 FFF7FEFF 		bl	__aeabi_dmul
 881              	.LVL157:
 882 016a 4246     		mov	r2, r8
 883 016c 0446     		mov	r4, r0
 884 016e 0D46     		mov	r5, r1
 885 0170 4B46     		mov	r3, r9
 886 0172 4046     		mov	r0, r8
 887 0174 4946     		mov	r1, r9
 888 0176 FFF7FEFF 		bl	__aeabi_dmul
 889              	.LVL158:
 890 017a 0246     		mov	r2, r0
 891 017c 0B46     		mov	r3, r1
 892 017e 2046     		mov	r0, r4
 893 0180 2946     		mov	r1, r5
 894 0182 FFF7FEFF 		bl	__aeabi_dadd
 895              	.LVL159:
 896 0186 FFF7FEFF 		bl	sqrt
 897              	.LVL160:
 898 018a CDE90601 		strd	r0, [sp, #24]
 899              	.LVL161:
 900              		.loc 1 170 0
 901 018e DDE90801 		ldrd	r0, [sp, #32]
 902              	.LVL162:
 903 0192 0246     		mov	r2, r0
 904 0194 0B46     		mov	r3, r1
 905 0196 FFF7FEFF 		bl	__aeabi_dmul
 906              	.LVL163:
 907 019a 5246     		mov	r2, sl
 908 019c 0746     		mov	r7, r0
 909 019e 0C46     		mov	r4, r1
 910 01a0 5B46     		mov	r3, fp
 911 01a2 5046     		mov	r0, sl
ARM GAS  /tmp/cc14gtoT.s 			page 17


 912 01a4 5946     		mov	r1, fp
 913 01a6 FFF7FEFF 		bl	__aeabi_dmul
 914              	.LVL164:
 915 01aa 0246     		mov	r2, r0
 916 01ac 0B46     		mov	r3, r1
 917 01ae 3846     		mov	r0, r7
 918 01b0 2146     		mov	r1, r4
 919 01b2 FFF7FEFF 		bl	__aeabi_dadd
 920              	.LVL165:
 921 01b6 FFF7FEFF 		bl	sqrt
 922              	.LVL166:
 923              		.loc 1 173 0
 924 01ba DDE90A45 		ldrd	r4, [sp, #40]
 925 01be D6E90223 		ldrd	r2, [r6, #8]
 926              		.loc 1 170 0
 927 01c2 CDE90801 		strd	r0, [sp, #32]
 928              	.LVL167:
 929              		.loc 1 173 0
 930 01c6 D6E90001 		ldrd	r0, [r6]
 931              	.LVL168:
 932 01ca CDE90045 		strd	r4, [sp]
 933 01ce FFF7FEFF 		bl	ln_get_hyp_true_anomaly
 934              	.LVL169:
 935              		.loc 1 176 0
 936 01d2 DDE90A89 		ldrd	r8, [sp, #40]
 937              	.LVL170:
 938              		.loc 1 173 0
 939 01d6 0446     		mov	r4, r0
 940 01d8 0D46     		mov	r5, r1
 941              	.LVL171:
 942              		.loc 1 176 0
 943 01da D6E90223 		ldrd	r2, [r6, #8]
 944 01de D6E90001 		ldrd	r0, [r6]
 945 01e2 CDE90089 		strd	r8, [sp]
 946 01e6 FFF7FEFF 		bl	ln_get_hyp_radius_vector
 947              	.LVL172:
 948              		.loc 1 179 0
 949 01ea DDE90223 		ldrd	r2, [sp, #8]
 950              		.loc 1 176 0
 951 01ee 8246     		mov	sl, r0
 952              	.LVL173:
 953 01f0 8B46     		mov	fp, r1
 954              	.LVL174:
 955              		.loc 1 179 0
 956 01f2 FFF7FEFF 		bl	__aeabi_dmul
 957              	.LVL175:
 958 01f6 D6E90623 		ldrd	r2, [r6, #24]
 959 01fa 0746     		mov	r7, r0
 960 01fc 8946     		mov	r9, r1
 961 01fe 2046     		mov	r0, r4
 962 0200 2946     		mov	r1, r5
 963 0202 FFF7FEFF 		bl	__aeabi_dadd
 964              	.LVL176:
 965 0206 FFF7FEFF 		bl	ln_deg_to_rad
 966              	.LVL177:
 967 020a DDE90423 		ldrd	r2, [sp, #16]
 968 020e FFF7FEFF 		bl	__aeabi_dadd
ARM GAS  /tmp/cc14gtoT.s 			page 18


 969              	.LVL178:
 970 0212 FFF7FEFF 		bl	sin
 971              	.LVL179:
 972 0216 0246     		mov	r2, r0
 973 0218 0B46     		mov	r3, r1
 974 021a 3846     		mov	r0, r7
 975 021c 4946     		mov	r1, r9
 976 021e FFF7FEFF 		bl	__aeabi_dmul
 977              	.LVL180:
 978 0222 DDF870C0 		ldr	ip, [sp, #112]
 979              		.loc 1 180 0
 980 0226 DDE90623 		ldrd	r2, [sp, #24]
 981              		.loc 1 179 0
 982 022a CCE90001 		strd	r0, [ip]
 983              		.loc 1 180 0
 984 022e 5046     		mov	r0, sl
 985 0230 5946     		mov	r1, fp
 986 0232 FFF7FEFF 		bl	__aeabi_dmul
 987              	.LVL181:
 988 0236 D6E90623 		ldrd	r2, [r6, #24]
 989 023a 8046     		mov	r8, r0
 990 023c 0F46     		mov	r7, r1
 991 023e 2046     		mov	r0, r4
 992 0240 2946     		mov	r1, r5
 993 0242 FFF7FEFF 		bl	__aeabi_dadd
 994              	.LVL182:
 995 0246 FFF7FEFF 		bl	ln_deg_to_rad
 996              	.LVL183:
 997 024a DDE90E23 		ldrd	r2, [sp, #56]
 998 024e FFF7FEFF 		bl	__aeabi_dadd
 999              	.LVL184:
 1000 0252 FFF7FEFF 		bl	sin
 1001              	.LVL185:
 1002 0256 0246     		mov	r2, r0
 1003 0258 0B46     		mov	r3, r1
 1004 025a 4046     		mov	r0, r8
 1005 025c 3946     		mov	r1, r7
 1006 025e FFF7FEFF 		bl	__aeabi_dmul
 1007              	.LVL186:
 1008 0262 1C9F     		ldr	r7, [sp, #112]
 1009              		.loc 1 181 0
 1010 0264 DDE90823 		ldrd	r2, [sp, #32]
 1011              		.loc 1 180 0
 1012 0268 C7E90201 		strd	r0, [r7, #8]
 1013              		.loc 1 181 0
 1014 026c 5046     		mov	r0, sl
 1015 026e 5946     		mov	r1, fp
 1016 0270 FFF7FEFF 		bl	__aeabi_dmul
 1017              	.LVL187:
 1018 0274 D6E90623 		ldrd	r2, [r6, #24]
 1019 0278 8046     		mov	r8, r0
 1020 027a 8946     		mov	r9, r1
 1021 027c 2046     		mov	r0, r4
 1022 027e 2946     		mov	r1, r5
 1023 0280 FFF7FEFF 		bl	__aeabi_dadd
 1024              	.LVL188:
 1025 0284 FFF7FEFF 		bl	ln_deg_to_rad
ARM GAS  /tmp/cc14gtoT.s 			page 19


 1026              	.LVL189:
 1027 0288 DDE91023 		ldrd	r2, [sp, #64]
 1028 028c FFF7FEFF 		bl	__aeabi_dadd
 1029              	.LVL190:
 1030 0290 FFF7FEFF 		bl	sin
 1031              	.LVL191:
 1032 0294 0246     		mov	r2, r0
 1033 0296 0B46     		mov	r3, r1
 1034 0298 4046     		mov	r0, r8
 1035 029a 4946     		mov	r1, r9
 1036 029c FFF7FEFF 		bl	__aeabi_dmul
 1037              	.LVL192:
 1038 02a0 C7E90401 		strd	r0, [r7, #16]
 1039 02a4 08E0     		b	.L25
 1040              	.L26:
 1041 02a6 00BF     		.align	3
 1042              	.L24:
 1043 02a8 D59C5E57 		.word	1465818325
 1044 02ac 035CED3F 		.word	1072520195
 1045 02b0 BF6A0751 		.word	1359440575
 1046 02b4 2E75D93F 		.word	1071215918
 1047              	.L25:
 1048              		.loc 1 182 0
 1049 02b8 13B0     		add	sp, sp, #76
 1050 02ba BDE8F08F 		pop	{r4, r5, r6, r7, r8, r9, sl, fp, pc}
 1051              		.cfi_endproc
 1052              	.LFE3:
 1053              		.size	ln_get_hyp_helio_rect_posn, .-ln_get_hyp_helio_rect_posn
 1054 02be 00BF     		.section	.text.ln_get_hyp_body_equ_coords,"ax",%progbits
 1055              		.align	2
 1056              		.p2align 4,,15
 1057              		.global	ln_get_hyp_body_equ_coords
 1058              		.thumb
 1059              		.thumb_func
 1060              		.type	ln_get_hyp_body_equ_coords, %function
 1061              	ln_get_hyp_body_equ_coords:
 1062              	.LFB5:
 1063              		.loc 1 220 0
 1064              		.cfi_startproc
 1065              		@ args = 0, pretend = 0, frame = 48
 1066              		@ frame_needed = 0, uses_anonymous_args = 0
 1067              	.LVL193:
 1068 0000 2DE9F047 		push	{r4, r5, r6, r7, r8, r9, sl, lr}
 1069              	.LCFI8:
 1070              		.cfi_def_cfa_offset 32
 1071              		.cfi_offset 4, -32
 1072              		.cfi_offset 5, -28
 1073              		.cfi_offset 6, -24
 1074              		.cfi_offset 7, -20
 1075              		.cfi_offset 8, -16
 1076              		.cfi_offset 9, -12
 1077              		.cfi_offset 10, -8
 1078              		.cfi_offset 14, -4
 1079 0004 8EB0     		sub	sp, sp, #56
 1080              	.LCFI9:
 1081              		.cfi_def_cfa_offset 88
 1082              		.loc 1 220 0
ARM GAS  /tmp/cc14gtoT.s 			page 20


 1083 0006 0446     		mov	r4, r0
 1084              		.loc 1 226 0
 1085 0008 02AE     		add	r6, sp, #8
 1086              		.loc 1 220 0
 1087 000a 0D46     		mov	r5, r1
 1088 000c 1746     		mov	r7, r2
 1089 000e 9A46     		mov	sl, r3
 1090              		.loc 1 226 0
 1091 0010 1046     		mov	r0, r2
 1092              	.LVL194:
 1093 0012 0B46     		mov	r3, r1
 1094              	.LVL195:
 1095 0014 2246     		mov	r2, r4
 1096              	.LVL196:
 1097 0016 0096     		str	r6, [sp, #0]
 1098 0018 FFF7FEFF 		bl	ln_get_hyp_helio_rect_posn
 1099              	.LVL197:
 1100              		.loc 1 227 0
 1101 001c 08AA     		add	r2, sp, #32
 1102 001e 2046     		mov	r0, r4
 1103 0020 2946     		mov	r1, r5
 1104 0022 FFF7FEFF 		bl	ln_get_solar_geo_coords
 1105              	.LVL198:
 1106              		.loc 1 230 0
 1107 0026 3046     		mov	r0, r6
 1108 0028 08A9     		add	r1, sp, #32
 1109 002a FFF7FEFF 		bl	ln_get_rect_distance
 1110              	.LVL199:
 1111              		.loc 1 231 0
 1112 002e FFF7FEFF 		bl	ln_get_light_time
 1113              	.LVL200:
 1114 0032 0246     		mov	r2, r0
 1115 0034 0B46     		mov	r3, r1
 1116              	.LVL201:
 1117              		.loc 1 234 0
 1118 0036 2046     		mov	r0, r4
 1119 0038 2946     		mov	r1, r5
 1120 003a FFF7FEFF 		bl	__aeabi_dsub
 1121              	.LVL202:
 1122 003e 0096     		str	r6, [sp, #0]
 1123 0040 0246     		mov	r2, r0
 1124 0042 0B46     		mov	r3, r1
 1125 0044 3846     		mov	r0, r7
 1126 0046 FFF7FEFF 		bl	ln_get_hyp_helio_rect_posn
 1127              	.LVL203:
 1128              		.loc 1 237 0
 1129 004a DDE90223 		ldrd	r2, [sp, #8]
 1130 004e DDE90801 		ldrd	r0, [sp, #32]
 1131 0052 FFF7FEFF 		bl	__aeabi_dadd
 1132              	.LVL204:
 1133              		.loc 1 238 0
 1134 0056 DDE90423 		ldrd	r2, [sp, #16]
 1135              		.loc 1 237 0
 1136 005a 0646     		mov	r6, r0
 1137 005c 0F46     		mov	r7, r1
 1138              	.LVL205:
 1139              		.loc 1 238 0
ARM GAS  /tmp/cc14gtoT.s 			page 21


 1140 005e DDE90A01 		ldrd	r0, [sp, #40]
 1141 0062 FFF7FEFF 		bl	__aeabi_dadd
 1142              	.LVL206:
 1143              		.loc 1 239 0
 1144 0066 DDE90623 		ldrd	r2, [sp, #24]
 1145              		.loc 1 238 0
 1146 006a 0446     		mov	r4, r0
 1147 006c 0D46     		mov	r5, r1
 1148              	.LVL207:
 1149              		.loc 1 239 0
 1150 006e DDE90C01 		ldrd	r0, [sp, #48]
 1151 0072 FFF7FEFF 		bl	__aeabi_dadd
 1152              	.LVL208:
 1153              		.loc 1 241 0
 1154 0076 3246     		mov	r2, r6
 1155 0078 3B46     		mov	r3, r7
 1156              		.loc 1 239 0
 1157 007a 8046     		mov	r8, r0
 1158 007c 8946     		mov	r9, r1
 1159              	.LVL209:
 1160              		.loc 1 241 0
 1161 007e 2046     		mov	r0, r4
 1162 0080 2946     		mov	r1, r5
 1163 0082 FFF7FEFF 		bl	atan2
 1164              	.LVL210:
 1165 0086 FFF7FEFF 		bl	ln_rad_to_deg
 1166              	.LVL211:
 1167 008a FFF7FEFF 		bl	ln_range_degrees
 1168              	.LVL212:
 1169              		.loc 1 242 0
 1170 008e 3246     		mov	r2, r6
 1171              		.loc 1 241 0
 1172 0090 CAE90001 		strd	r0, [sl]
 1173              		.loc 1 242 0
 1174 0094 3B46     		mov	r3, r7
 1175 0096 3046     		mov	r0, r6
 1176 0098 3946     		mov	r1, r7
 1177 009a FFF7FEFF 		bl	__aeabi_dmul
 1178              	.LVL213:
 1179 009e 2246     		mov	r2, r4
 1180 00a0 0646     		mov	r6, r0
 1181              	.LVL214:
 1182 00a2 0F46     		mov	r7, r1
 1183 00a4 2B46     		mov	r3, r5
 1184 00a6 2046     		mov	r0, r4
 1185 00a8 2946     		mov	r1, r5
 1186 00aa FFF7FEFF 		bl	__aeabi_dmul
 1187              	.LVL215:
 1188 00ae 0246     		mov	r2, r0
 1189 00b0 0B46     		mov	r3, r1
 1190 00b2 3046     		mov	r0, r6
 1191 00b4 3946     		mov	r1, r7
 1192 00b6 FFF7FEFF 		bl	__aeabi_dadd
 1193              	.LVL216:
 1194 00ba FFF7FEFF 		bl	sqrt
 1195              	.LVL217:
 1196 00be 0246     		mov	r2, r0
ARM GAS  /tmp/cc14gtoT.s 			page 22


 1197 00c0 0B46     		mov	r3, r1
 1198 00c2 4046     		mov	r0, r8
 1199 00c4 4946     		mov	r1, r9
 1200 00c6 FFF7FEFF 		bl	atan2
 1201              	.LVL218:
 1202 00ca FFF7FEFF 		bl	ln_rad_to_deg
 1203              	.LVL219:
 1204 00ce CAE90201 		strd	r0, [sl, #8]
 1205              		.loc 1 243 0
 1206 00d2 0EB0     		add	sp, sp, #56
 1207 00d4 BDE8F087 		pop	{r4, r5, r6, r7, r8, r9, sl, pc}
 1208              		.cfi_endproc
 1209              	.LFE5:
 1210              		.size	ln_get_hyp_body_equ_coords, .-ln_get_hyp_body_equ_coords
 1211              		.section	.text.ln_get_hyp_geo_rect_posn,"ax",%progbits
 1212              		.align	2
 1213              		.p2align 4,,15
 1214              		.global	ln_get_hyp_geo_rect_posn
 1215              		.thumb
 1216              		.thumb_func
 1217              		.type	ln_get_hyp_geo_rect_posn, %function
 1218              	ln_get_hyp_geo_rect_posn:
 1219              	.LFB4:
 1220              		.loc 1 194 0
 1221              		.cfi_startproc
 1222              		@ args = 4, pretend = 0, frame = 72
 1223              		@ frame_needed = 0, uses_anonymous_args = 0
 1224              	.LVL220:
 1225 0000 70B5     		push	{r4, r5, r6, lr}
 1226              	.LCFI10:
 1227              		.cfi_def_cfa_offset 16
 1228              		.cfi_offset 4, -16
 1229              		.cfi_offset 5, -12
 1230              		.cfi_offset 6, -8
 1231              		.cfi_offset 14, -4
 1232 0002 94B0     		sub	sp, sp, #80
 1233              	.LCFI11:
 1234              		.cfi_def_cfa_offset 96
 1235              		.loc 1 199 0
 1236 0004 02A9     		add	r1, sp, #8
 1237              		.loc 1 194 0
 1238 0006 1D46     		mov	r5, r3
 1239 0008 1446     		mov	r4, r2
 1240              		.loc 1 199 0
 1241 000a 0091     		str	r1, [sp, #0]
 1242              		.loc 1 194 0
 1243 000c 189E     		ldr	r6, [sp, #96]
 1244              		.loc 1 199 0
 1245 000e FFF7FEFF 		bl	ln_get_hyp_helio_rect_posn
 1246              	.LVL221:
 1247              		.loc 1 202 0
 1248 0012 0EAA     		add	r2, sp, #56
 1249 0014 2046     		mov	r0, r4
 1250 0016 2946     		mov	r1, r5
 1251 0018 FFF7FEFF 		bl	ln_get_earth_helio_coords
 1252              	.LVL222:
 1253              		.loc 1 204 0
ARM GAS  /tmp/cc14gtoT.s 			page 23


 1254 001c 0EA8     		add	r0, sp, #56
 1255 001e 08A9     		add	r1, sp, #32
 1256 0020 FFF7FEFF 		bl	ln_get_rect_from_helio
 1257              	.LVL223:
 1258              		.loc 1 205 0
 1259 0024 DDE90823 		ldrd	r2, [sp, #32]
 1260 0028 DDE90201 		ldrd	r0, [sp, #8]
 1261 002c FFF7FEFF 		bl	__aeabi_dsub
 1262              	.LVL224:
 1263              		.loc 1 206 0
 1264 0030 DDE90A23 		ldrd	r2, [sp, #40]
 1265              		.loc 1 205 0
 1266 0034 C6E90001 		strd	r0, [r6]
 1267              		.loc 1 206 0
 1268 0038 DDE90401 		ldrd	r0, [sp, #16]
 1269 003c FFF7FEFF 		bl	__aeabi_dsub
 1270              	.LVL225:
 1271              		.loc 1 207 0
 1272 0040 DDE90C23 		ldrd	r2, [sp, #48]
 1273              		.loc 1 206 0
 1274 0044 C6E90201 		strd	r0, [r6, #8]
 1275              		.loc 1 207 0
 1276 0048 DDE90601 		ldrd	r0, [sp, #24]
 1277 004c FFF7FEFF 		bl	__aeabi_dsub
 1278              	.LVL226:
 1279 0050 C6E90401 		strd	r0, [r6, #16]
 1280              		.loc 1 208 0
 1281 0054 14B0     		add	sp, sp, #80
 1282 0056 70BD     		pop	{r4, r5, r6, pc}
 1283              		.cfi_endproc
 1284              	.LFE4:
 1285              		.size	ln_get_hyp_geo_rect_posn, .-ln_get_hyp_geo_rect_posn
 1286 0058 AFF30080 		.section	.text.ln_get_hyp_body_earth_dist,"ax",%progbits
 1286      AFF30080 
 1287              		.align	2
 1288              		.p2align 4,,15
 1289              		.global	ln_get_hyp_body_earth_dist
 1290              		.thumb
 1291              		.thumb_func
 1292              		.type	ln_get_hyp_body_earth_dist, %function
 1293              	ln_get_hyp_body_earth_dist:
 1294              	.LFB6:
 1295              		.loc 1 255 0
 1296              		.cfi_startproc
 1297              		@ args = 0, pretend = 0, frame = 48
 1298              		@ frame_needed = 0, uses_anonymous_args = 0
 1299              	.LVL227:
 1300 0000 70B5     		push	{r4, r5, r6, lr}
 1301              	.LCFI12:
 1302              		.cfi_def_cfa_offset 16
 1303              		.cfi_offset 4, -16
 1304              		.cfi_offset 5, -12
 1305              		.cfi_offset 6, -8
 1306              		.cfi_offset 14, -4
 1307 0002 8EB0     		sub	sp, sp, #56
 1308              	.LCFI13:
 1309              		.cfi_def_cfa_offset 72
ARM GAS  /tmp/cc14gtoT.s 			page 24


 1310              		.loc 1 255 0
 1311 0004 0446     		mov	r4, r0
 1312              		.loc 1 259 0
 1313 0006 02AE     		add	r6, sp, #8
 1314 0008 1046     		mov	r0, r2
 1315              	.LVL228:
 1316 000a 0B46     		mov	r3, r1
 1317 000c 2246     		mov	r2, r4
 1318              	.LVL229:
 1319 000e 0096     		str	r6, [sp, #0]
 1320              		.loc 1 255 0
 1321 0010 0D46     		mov	r5, r1
 1322              		.loc 1 259 0
 1323 0012 FFF7FEFF 		bl	ln_get_hyp_geo_rect_posn
 1324              	.LVL230:
 1325              		.loc 1 260 0
 1326 0016 0022     		movs	r2, #0
 1327 0018 0023     		movs	r3, #0
 1328              		.loc 1 265 0
 1329 001a 3046     		mov	r0, r6
 1330 001c 08A9     		add	r1, sp, #32
 1331              		.loc 1 260 0
 1332 001e CDE90823 		strd	r2, [sp, #32]
 1333              		.loc 1 261 0
 1334 0022 CDE90A23 		strd	r2, [sp, #40]
 1335              		.loc 1 262 0
 1336 0026 CDE90C23 		strd	r2, [sp, #48]
 1337              		.loc 1 265 0
 1338 002a FFF7FEFF 		bl	ln_get_rect_distance
 1339              	.LVL231:
 1340              		.loc 1 266 0
 1341 002e 0EB0     		add	sp, sp, #56
 1342 0030 70BD     		pop	{r4, r5, r6, pc}
 1343              		.cfi_endproc
 1344              	.LFE6:
 1345              		.size	ln_get_hyp_body_earth_dist, .-ln_get_hyp_body_earth_dist
 1346              		.section	.text.ln_get_hyp_body_solar_dist,"ax",%progbits
 1347              		.align	2
 1348              		.p2align 4,,15
 1349              		.global	ln_get_hyp_body_solar_dist
 1350              		.thumb
 1351              		.thumb_func
 1352              		.type	ln_get_hyp_body_solar_dist, %function
 1353              	ln_get_hyp_body_solar_dist:
 1354              	.LFB7:
 1355              		.loc 1 277 0
 1356              		.cfi_startproc
 1357              		@ args = 0, pretend = 0, frame = 48
 1358              		@ frame_needed = 0, uses_anonymous_args = 0
 1359              	.LVL232:
 1360 0000 70B5     		push	{r4, r5, r6, lr}
 1361              	.LCFI14:
 1362              		.cfi_def_cfa_offset 16
 1363              		.cfi_offset 4, -16
 1364              		.cfi_offset 5, -12
 1365              		.cfi_offset 6, -8
 1366              		.cfi_offset 14, -4
ARM GAS  /tmp/cc14gtoT.s 			page 25


 1367 0002 8EB0     		sub	sp, sp, #56
 1368              	.LCFI15:
 1369              		.cfi_def_cfa_offset 72
 1370              		.loc 1 277 0
 1371 0004 0446     		mov	r4, r0
 1372              		.loc 1 281 0
 1373 0006 02AE     		add	r6, sp, #8
 1374 0008 1046     		mov	r0, r2
 1375              	.LVL233:
 1376 000a 0B46     		mov	r3, r1
 1377 000c 2246     		mov	r2, r4
 1378              	.LVL234:
 1379 000e 0096     		str	r6, [sp, #0]
 1380              		.loc 1 277 0
 1381 0010 0D46     		mov	r5, r1
 1382              		.loc 1 281 0
 1383 0012 FFF7FEFF 		bl	ln_get_hyp_helio_rect_posn
 1384              	.LVL235:
 1385              		.loc 1 282 0
 1386 0016 0022     		movs	r2, #0
 1387 0018 0023     		movs	r3, #0
 1388              		.loc 1 287 0
 1389 001a 3046     		mov	r0, r6
 1390 001c 08A9     		add	r1, sp, #32
 1391              		.loc 1 282 0
 1392 001e CDE90823 		strd	r2, [sp, #32]
 1393              		.loc 1 283 0
 1394 0022 CDE90A23 		strd	r2, [sp, #40]
 1395              		.loc 1 284 0
 1396 0026 CDE90C23 		strd	r2, [sp, #48]
 1397              		.loc 1 287 0
 1398 002a FFF7FEFF 		bl	ln_get_rect_distance
 1399              	.LVL236:
 1400              		.loc 1 288 0
 1401 002e 0EB0     		add	sp, sp, #56
 1402 0030 70BD     		pop	{r4, r5, r6, pc}
 1403              		.cfi_endproc
 1404              	.LFE7:
 1405              		.size	ln_get_hyp_body_solar_dist, .-ln_get_hyp_body_solar_dist
 1406              		.section	.text.ln_get_hyp_body_phase_angle,"ax",%progbits
 1407              		.align	2
 1408              		.p2align 4,,15
 1409              		.global	ln_get_hyp_body_phase_angle
 1410              		.thumb
 1411              		.thumb_func
 1412              		.type	ln_get_hyp_body_phase_angle, %function
 1413              	ln_get_hyp_body_phase_angle:
 1414              	.LFB8:
 1415              		.loc 1 298 0
 1416              		.cfi_startproc
 1417              		@ args = 0, pretend = 0, frame = 0
 1418              		@ frame_needed = 0, uses_anonymous_args = 0
 1419              	.LVL237:
 1420 0000 2DE9F04F 		push	{r4, r5, r6, r7, r8, r9, sl, fp, lr}
 1421              	.LCFI16:
 1422              		.cfi_def_cfa_offset 36
 1423              		.cfi_offset 4, -36
ARM GAS  /tmp/cc14gtoT.s 			page 26


 1424              		.cfi_offset 5, -32
 1425              		.cfi_offset 6, -28
 1426              		.cfi_offset 7, -24
 1427              		.cfi_offset 8, -20
 1428              		.cfi_offset 9, -16
 1429              		.cfi_offset 10, -12
 1430              		.cfi_offset 11, -8
 1431              		.cfi_offset 14, -4
 1432 0004 9046     		mov	r8, r2
 1433 0006 83B0     		sub	sp, sp, #12
 1434              	.LCFI17:
 1435              		.cfi_def_cfa_offset 48
 1436              		.loc 1 304 0
 1437 0008 D2E90A23 		ldrd	r2, [r2, #40]
 1438              	.LVL238:
 1439              		.loc 1 307 0
 1440 000c D8E90067 		ldrd	r6, [r8]
 1441              		.loc 1 298 0
 1442 0010 0446     		mov	r4, r0
 1443 0012 0D46     		mov	r5, r1
 1444              	.LVL239:
 1445              		.loc 1 304 0
 1446 0014 FFF7FEFF 		bl	__aeabi_dsub
 1447              	.LVL240:
 1448              		.loc 1 307 0
 1449 0018 D8E90223 		ldrd	r2, [r8, #8]
 1450 001c CDE90001 		strd	r0, [sp]
 1451 0020 3046     		mov	r0, r6
 1452 0022 3946     		mov	r1, r7
 1453 0024 FFF7FEFF 		bl	ln_get_hyp_radius_vector
 1454              	.LVL241:
 1455 0028 0646     		mov	r6, r0
 1456 002a 0F46     		mov	r7, r1
 1457              	.LVL242:
 1458              		.loc 1 310 0
 1459 002c 2046     		mov	r0, r4
 1460 002e 2946     		mov	r1, r5
 1461 0030 FFF7FEFF 		bl	ln_get_earth_solar_dist
 1462              	.LVL243:
 1463              		.loc 1 311 0
 1464 0034 4246     		mov	r2, r8
 1465              		.loc 1 310 0
 1466 0036 8246     		mov	sl, r0
 1467 0038 8B46     		mov	fp, r1
 1468              	.LVL244:
 1469              		.loc 1 311 0
 1470 003a 2046     		mov	r0, r4
 1471 003c 2946     		mov	r1, r5
 1472 003e FFF7FEFF 		bl	ln_get_hyp_body_solar_dist
 1473              	.LVL245:
 1474              		.loc 1 313 0
 1475 0042 3246     		mov	r2, r6
 1476              		.loc 1 311 0
 1477 0044 0446     		mov	r4, r0
 1478 0046 0D46     		mov	r5, r1
 1479              	.LVL246:
 1480              		.loc 1 313 0
ARM GAS  /tmp/cc14gtoT.s 			page 27


 1481 0048 3B46     		mov	r3, r7
 1482 004a 3046     		mov	r0, r6
 1483 004c 3946     		mov	r1, r7
 1484 004e FFF7FEFF 		bl	__aeabi_dmul
 1485              	.LVL247:
 1486 0052 2246     		mov	r2, r4
 1487 0054 8046     		mov	r8, r0
 1488              	.LVL248:
 1489 0056 8946     		mov	r9, r1
 1490 0058 2B46     		mov	r3, r5
 1491 005a 2046     		mov	r0, r4
 1492 005c 2946     		mov	r1, r5
 1493 005e FFF7FEFF 		bl	__aeabi_dmul
 1494              	.LVL249:
 1495 0062 0246     		mov	r2, r0
 1496 0064 0B46     		mov	r3, r1
 1497 0066 4046     		mov	r0, r8
 1498 0068 4946     		mov	r1, r9
 1499 006a FFF7FEFF 		bl	__aeabi_dadd
 1500              	.LVL250:
 1501 006e 5246     		mov	r2, sl
 1502 0070 8046     		mov	r8, r0
 1503 0072 8946     		mov	r9, r1
 1504 0074 5B46     		mov	r3, fp
 1505 0076 5046     		mov	r0, sl
 1506 0078 5946     		mov	r1, fp
 1507 007a FFF7FEFF 		bl	__aeabi_dmul
 1508              	.LVL251:
 1509 007e 0246     		mov	r2, r0
 1510 0080 0B46     		mov	r3, r1
 1511 0082 4046     		mov	r0, r8
 1512 0084 4946     		mov	r1, r9
 1513 0086 FFF7FEFF 		bl	__aeabi_dsub
 1514              	.LVL252:
 1515 008a 3246     		mov	r2, r6
 1516 008c 8046     		mov	r8, r0
 1517 008e 8946     		mov	r9, r1
 1518 0090 3B46     		mov	r3, r7
 1519 0092 3046     		mov	r0, r6
 1520 0094 3946     		mov	r1, r7
 1521 0096 FFF7FEFF 		bl	__aeabi_dadd
 1522              	.LVL253:
 1523 009a 2246     		mov	r2, r4
 1524 009c 2B46     		mov	r3, r5
 1525 009e FFF7FEFF 		bl	__aeabi_dmul
 1526              	.LVL254:
 1527 00a2 0246     		mov	r2, r0
 1528 00a4 0B46     		mov	r3, r1
 1529 00a6 4046     		mov	r0, r8
 1530 00a8 4946     		mov	r1, r9
 1531 00aa FFF7FEFF 		bl	__aeabi_ddiv
 1532              	.LVL255:
 1533              		.loc 1 314 0
 1534 00ae FFF7FEFF 		bl	acos
 1535              	.LVL256:
 1536 00b2 FFF7FEFF 		bl	ln_rad_to_deg
 1537              	.LVL257:
ARM GAS  /tmp/cc14gtoT.s 			page 28


 1538              		.loc 1 315 0
 1539 00b6 03B0     		add	sp, sp, #12
 1540 00b8 BDE8F04F 		pop	{r4, r5, r6, r7, r8, r9, sl, fp, lr}
 1541              		.loc 1 314 0
 1542 00bc FFF7FEBF 		b	ln_range_degrees
 1543              	.LVL258:
 1544              		.cfi_endproc
 1545              	.LFE8:
 1546              		.size	ln_get_hyp_body_phase_angle, .-ln_get_hyp_body_phase_angle
 1547              		.section	.text.ln_get_hyp_body_elong,"ax",%progbits
 1548              		.align	2
 1549              		.p2align 4,,15
 1550              		.global	ln_get_hyp_body_elong
 1551              		.thumb
 1552              		.thumb_func
 1553              		.type	ln_get_hyp_body_elong, %function
 1554              	ln_get_hyp_body_elong:
 1555              	.LFB9:
 1556              		.loc 1 325 0
 1557              		.cfi_startproc
 1558              		@ args = 0, pretend = 0, frame = 0
 1559              		@ frame_needed = 0, uses_anonymous_args = 0
 1560              	.LVL259:
 1561 0000 2DE9F04F 		push	{r4, r5, r6, r7, r8, r9, sl, fp, lr}
 1562              	.LCFI18:
 1563              		.cfi_def_cfa_offset 36
 1564              		.cfi_offset 4, -36
 1565              		.cfi_offset 5, -32
 1566              		.cfi_offset 6, -28
 1567              		.cfi_offset 7, -24
 1568              		.cfi_offset 8, -20
 1569              		.cfi_offset 9, -16
 1570              		.cfi_offset 10, -12
 1571              		.cfi_offset 11, -8
 1572              		.cfi_offset 14, -4
 1573 0004 9046     		mov	r8, r2
 1574 0006 83B0     		sub	sp, sp, #12
 1575              	.LCFI19:
 1576              		.cfi_def_cfa_offset 48
 1577              		.loc 1 331 0
 1578 0008 D2E90A23 		ldrd	r2, [r2, #40]
 1579              	.LVL260:
 1580              		.loc 1 334 0
 1581 000c D8E90067 		ldrd	r6, [r8]
 1582              		.loc 1 325 0
 1583 0010 0446     		mov	r4, r0
 1584 0012 0D46     		mov	r5, r1
 1585              	.LVL261:
 1586              		.loc 1 331 0
 1587 0014 FFF7FEFF 		bl	__aeabi_dsub
 1588              	.LVL262:
 1589              		.loc 1 334 0
 1590 0018 D8E90223 		ldrd	r2, [r8, #8]
 1591 001c CDE90001 		strd	r0, [sp]
 1592 0020 3046     		mov	r0, r6
 1593 0022 3946     		mov	r1, r7
 1594 0024 FFF7FEFF 		bl	ln_get_hyp_radius_vector
ARM GAS  /tmp/cc14gtoT.s 			page 29


 1595              	.LVL263:
 1596 0028 8246     		mov	sl, r0
 1597 002a 8B46     		mov	fp, r1
 1598              	.LVL264:
 1599              		.loc 1 337 0
 1600 002c 2046     		mov	r0, r4
 1601 002e 2946     		mov	r1, r5
 1602 0030 FFF7FEFF 		bl	ln_get_earth_solar_dist
 1603              	.LVL265:
 1604              		.loc 1 338 0
 1605 0034 4246     		mov	r2, r8
 1606              		.loc 1 337 0
 1607 0036 0646     		mov	r6, r0
 1608 0038 0F46     		mov	r7, r1
 1609              	.LVL266:
 1610              		.loc 1 338 0
 1611 003a 2046     		mov	r0, r4
 1612 003c 2946     		mov	r1, r5
 1613 003e FFF7FEFF 		bl	ln_get_hyp_body_solar_dist
 1614              	.LVL267:
 1615              		.loc 1 340 0
 1616 0042 3246     		mov	r2, r6
 1617              		.loc 1 338 0
 1618 0044 0446     		mov	r4, r0
 1619 0046 0D46     		mov	r5, r1
 1620              	.LVL268:
 1621              		.loc 1 340 0
 1622 0048 3B46     		mov	r3, r7
 1623 004a 3046     		mov	r0, r6
 1624 004c 3946     		mov	r1, r7
 1625 004e FFF7FEFF 		bl	__aeabi_dmul
 1626              	.LVL269:
 1627 0052 2246     		mov	r2, r4
 1628 0054 8046     		mov	r8, r0
 1629              	.LVL270:
 1630 0056 8946     		mov	r9, r1
 1631 0058 2B46     		mov	r3, r5
 1632 005a 2046     		mov	r0, r4
 1633 005c 2946     		mov	r1, r5
 1634 005e FFF7FEFF 		bl	__aeabi_dmul
 1635              	.LVL271:
 1636 0062 0246     		mov	r2, r0
 1637 0064 0B46     		mov	r3, r1
 1638 0066 4046     		mov	r0, r8
 1639 0068 4946     		mov	r1, r9
 1640 006a FFF7FEFF 		bl	__aeabi_dadd
 1641              	.LVL272:
 1642 006e 5246     		mov	r2, sl
 1643 0070 8046     		mov	r8, r0
 1644 0072 8946     		mov	r9, r1
 1645 0074 5B46     		mov	r3, fp
 1646 0076 5046     		mov	r0, sl
 1647 0078 5946     		mov	r1, fp
 1648 007a FFF7FEFF 		bl	__aeabi_dmul
 1649              	.LVL273:
 1650 007e 0246     		mov	r2, r0
 1651 0080 0B46     		mov	r3, r1
ARM GAS  /tmp/cc14gtoT.s 			page 30


 1652 0082 4046     		mov	r0, r8
 1653 0084 4946     		mov	r1, r9
 1654 0086 FFF7FEFF 		bl	__aeabi_dsub
 1655              	.LVL274:
 1656 008a 3246     		mov	r2, r6
 1657 008c 8046     		mov	r8, r0
 1658 008e 8946     		mov	r9, r1
 1659 0090 3B46     		mov	r3, r7
 1660 0092 3046     		mov	r0, r6
 1661 0094 3946     		mov	r1, r7
 1662 0096 FFF7FEFF 		bl	__aeabi_dadd
 1663              	.LVL275:
 1664 009a 2246     		mov	r2, r4
 1665 009c 2B46     		mov	r3, r5
 1666 009e FFF7FEFF 		bl	__aeabi_dmul
 1667              	.LVL276:
 1668 00a2 0246     		mov	r2, r0
 1669 00a4 0B46     		mov	r3, r1
 1670 00a6 4046     		mov	r0, r8
 1671 00a8 4946     		mov	r1, r9
 1672 00aa FFF7FEFF 		bl	__aeabi_ddiv
 1673              	.LVL277:
 1674              		.loc 1 341 0
 1675 00ae FFF7FEFF 		bl	acos
 1676              	.LVL278:
 1677 00b2 FFF7FEFF 		bl	ln_rad_to_deg
 1678              	.LVL279:
 1679              		.loc 1 342 0
 1680 00b6 03B0     		add	sp, sp, #12
 1681 00b8 BDE8F04F 		pop	{r4, r5, r6, r7, r8, r9, sl, fp, lr}
 1682              		.loc 1 341 0
 1683 00bc FFF7FEBF 		b	ln_range_degrees
 1684              	.LVL280:
 1685              		.cfi_endproc
 1686              	.LFE9:
 1687              		.size	ln_get_hyp_body_elong, .-ln_get_hyp_body_elong
 1688              		.section	.text.ln_get_hyp_body_rst_horizon,"ax",%progbits
 1689              		.align	2
 1690              		.p2align 4,,15
 1691              		.global	ln_get_hyp_body_rst_horizon
 1692              		.thumb
 1693              		.thumb_func
 1694              		.type	ln_get_hyp_body_rst_horizon, %function
 1695              	ln_get_hyp_body_rst_horizon:
 1696              	.LFB11:
 1697              		.loc 1 377 0
 1698              		.cfi_startproc
 1699              		@ args = 12, pretend = 0, frame = 0
 1700              		@ frame_needed = 0, uses_anonymous_args = 0
 1701              	.LVL281:
 1702 0000 30B5     		push	{r4, r5, lr}
 1703              	.LCFI20:
 1704              		.cfi_def_cfa_offset 12
 1705              		.cfi_offset 4, -12
 1706              		.cfi_offset 5, -8
 1707              		.cfi_offset 14, -4
 1708 0002 87B0     		sub	sp, sp, #28
ARM GAS  /tmp/cc14gtoT.s 			page 31


 1709              	.LCFI21:
 1710              		.cfi_def_cfa_offset 40
 1711              		.loc 1 378 0
 1712 0004 DDE90A45 		ldrd	r4, [sp, #40]
 1713 0008 0093     		str	r3, [sp, #0]
 1714 000a 0C9B     		ldr	r3, [sp, #48]
 1715              	.LVL282:
 1716 000c 0493     		str	r3, [sp, #16]
 1717 000e 40F20003 		movw	r3, #:lower16:ln_get_hyp_body_equ_coords
 1718 0012 CDE90245 		strd	r4, [sp, #8]
 1719 0016 C0F20003 		movt	r3, #:upper16:ln_get_hyp_body_equ_coords
 1720 001a FFF7FEFF 		bl	ln_get_motion_body_rst_horizon
 1721              	.LVL283:
 1722              		.loc 1 379 0
 1723 001e 07B0     		add	sp, sp, #28
 1724 0020 30BD     		pop	{r4, r5, pc}
 1725              		.cfi_endproc
 1726              	.LFE11:
 1727              		.size	ln_get_hyp_body_rst_horizon, .-ln_get_hyp_body_rst_horizon
 1728 0022 00BFAFF3 		.section	.text.ln_get_hyp_body_rst,"ax",%progbits
 1728      0080AFF3 
 1728      0080AFF3 
 1728      0080
 1729              		.align	2
 1730              		.p2align 4,,15
 1731              		.global	ln_get_hyp_body_rst
 1732              		.thumb
 1733              		.thumb_func
 1734              		.type	ln_get_hyp_body_rst, %function
 1735              	ln_get_hyp_body_rst:
 1736              	.LFB10:
 1737              		.loc 1 358 0
 1738              		.cfi_startproc
 1739              		@ args = 4, pretend = 0, frame = 0
 1740              		@ frame_needed = 0, uses_anonymous_args = 0
 1741              	.LVL284:
 1742 0000 30B5     		push	{r4, r5, lr}
 1743              	.LCFI22:
 1744              		.cfi_def_cfa_offset 12
 1745              		.cfi_offset 4, -12
 1746              		.cfi_offset 5, -8
 1747              		.cfi_offset 14, -4
 1748              		.loc 1 359 0
 1749 0002 07A5     		adr	r5, .L35
 1750 0004 D5E90045 		ldrd	r4, [r5]
 1751              		.loc 1 358 0
 1752 0008 85B0     		sub	sp, sp, #20
 1753              	.LCFI23:
 1754              		.cfi_def_cfa_offset 32
 1755              		.loc 1 359 0
 1756 000a CDE90045 		strd	r4, [sp]
 1757 000e 089C     		ldr	r4, [sp, #32]
 1758 0010 0294     		str	r4, [sp, #8]
 1759 0012 FFF7FEFF 		bl	ln_get_hyp_body_rst_horizon
 1760              	.LVL285:
 1761              		.loc 1 360 0
 1762 0016 05B0     		add	sp, sp, #20
ARM GAS  /tmp/cc14gtoT.s 			page 32


 1763 0018 30BD     		pop	{r4, r5, pc}
 1764              	.L36:
 1765 001a 00BFAFF3 		.align	3
 1765      0080
 1766              	.L35:
 1767 0020 1895D409 		.word	164926744
 1768 0024 6822E2BF 		.word	-1075699096
 1769              		.cfi_endproc
 1770              	.LFE10:
 1771              		.size	ln_get_hyp_body_rst, .-ln_get_hyp_body_rst
 1772 0028 AFF30080 		.section	.text.ln_get_hyp_body_next_rst_horizon,"ax",%progbits
 1772      AFF30080 
 1773              		.align	2
 1774              		.p2align 4,,15
 1775              		.global	ln_get_hyp_body_next_rst_horizon
 1776              		.thumb
 1777              		.thumb_func
 1778              		.type	ln_get_hyp_body_next_rst_horizon, %function
 1779              	ln_get_hyp_body_next_rst_horizon:
 1780              	.LFB13:
 1781              		.loc 1 418 0
 1782              		.cfi_startproc
 1783              		@ args = 12, pretend = 0, frame = 0
 1784              		@ frame_needed = 0, uses_anonymous_args = 0
 1785              	.LVL286:
 1786 0000 30B5     		push	{r4, r5, lr}
 1787              	.LCFI24:
 1788              		.cfi_def_cfa_offset 12
 1789              		.cfi_offset 4, -12
 1790              		.cfi_offset 5, -8
 1791              		.cfi_offset 14, -4
 1792 0002 87B0     		sub	sp, sp, #28
 1793              	.LCFI25:
 1794              		.cfi_def_cfa_offset 40
 1795              		.loc 1 419 0
 1796 0004 DDE90A45 		ldrd	r4, [sp, #40]
 1797 0008 0093     		str	r3, [sp, #0]
 1798 000a 0C9B     		ldr	r3, [sp, #48]
 1799              	.LVL287:
 1800 000c 0493     		str	r3, [sp, #16]
 1801 000e 40F20003 		movw	r3, #:lower16:ln_get_hyp_body_equ_coords
 1802 0012 CDE90245 		strd	r4, [sp, #8]
 1803 0016 C0F20003 		movt	r3, #:upper16:ln_get_hyp_body_equ_coords
 1804 001a FFF7FEFF 		bl	ln_get_motion_body_next_rst_horizon
 1805              	.LVL288:
 1806              		.loc 1 420 0
 1807 001e 07B0     		add	sp, sp, #28
 1808 0020 30BD     		pop	{r4, r5, pc}
 1809              		.cfi_endproc
 1810              	.LFE13:
 1811              		.size	ln_get_hyp_body_next_rst_horizon, .-ln_get_hyp_body_next_rst_horizon
 1812 0022 00BFAFF3 		.section	.text.ln_get_hyp_body_next_rst,"ax",%progbits
 1812      0080AFF3 
 1812      0080AFF3 
 1812      0080
 1813              		.align	2
 1814              		.p2align 4,,15
ARM GAS  /tmp/cc14gtoT.s 			page 33


 1815              		.global	ln_get_hyp_body_next_rst
 1816              		.thumb
 1817              		.thumb_func
 1818              		.type	ln_get_hyp_body_next_rst, %function
 1819              	ln_get_hyp_body_next_rst:
 1820              	.LFB12:
 1821              		.loc 1 397 0
 1822              		.cfi_startproc
 1823              		@ args = 4, pretend = 0, frame = 0
 1824              		@ frame_needed = 0, uses_anonymous_args = 0
 1825              	.LVL289:
 1826 0000 30B5     		push	{r4, r5, lr}
 1827              	.LCFI26:
 1828              		.cfi_def_cfa_offset 12
 1829              		.cfi_offset 4, -12
 1830              		.cfi_offset 5, -8
 1831              		.cfi_offset 14, -4
 1832              		.loc 1 398 0
 1833 0002 07A5     		adr	r5, .L39
 1834 0004 D5E90045 		ldrd	r4, [r5]
 1835              		.loc 1 397 0
 1836 0008 85B0     		sub	sp, sp, #20
 1837              	.LCFI27:
 1838              		.cfi_def_cfa_offset 32
 1839              		.loc 1 398 0
 1840 000a CDE90045 		strd	r4, [sp]
 1841 000e 089C     		ldr	r4, [sp, #32]
 1842 0010 0294     		str	r4, [sp, #8]
 1843 0012 FFF7FEFF 		bl	ln_get_hyp_body_next_rst_horizon
 1844              	.LVL290:
 1845              		.loc 1 399 0
 1846 0016 05B0     		add	sp, sp, #20
 1847 0018 30BD     		pop	{r4, r5, pc}
 1848              	.L40:
 1849 001a 00BFAFF3 		.align	3
 1849      0080
 1850              	.L39:
 1851 0020 1895D409 		.word	164926744
 1852 0024 6822E2BF 		.word	-1075699096
 1853              		.cfi_endproc
 1854              	.LFE12:
 1855              		.size	ln_get_hyp_body_next_rst, .-ln_get_hyp_body_next_rst
 1856 0028 AFF30080 		.section	.text.ln_get_hyp_body_next_rst_horizon_future,"ax",%progbits
 1856      AFF30080 
 1857              		.align	2
 1858              		.p2align 4,,15
 1859              		.global	ln_get_hyp_body_next_rst_horizon_future
 1860              		.thumb
 1861              		.thumb_func
 1862              		.type	ln_get_hyp_body_next_rst_horizon_future, %function
 1863              	ln_get_hyp_body_next_rst_horizon_future:
 1864              	.LFB14:
 1865              		.loc 1 440 0
 1866              		.cfi_startproc
 1867              		@ args = 16, pretend = 0, frame = 0
 1868              		@ frame_needed = 0, uses_anonymous_args = 0
 1869              	.LVL291:
ARM GAS  /tmp/cc14gtoT.s 			page 34


 1870 0000 30B5     		push	{r4, r5, lr}
 1871              	.LCFI28:
 1872              		.cfi_def_cfa_offset 12
 1873              		.cfi_offset 4, -12
 1874              		.cfi_offset 5, -8
 1875              		.cfi_offset 14, -4
 1876 0002 87B0     		sub	sp, sp, #28
 1877              	.LCFI29:
 1878              		.cfi_def_cfa_offset 40
 1879              		.loc 1 441 0
 1880 0004 DDE90A45 		ldrd	r4, [sp, #40]
 1881 0008 0093     		str	r3, [sp, #0]
 1882 000a 0C9B     		ldr	r3, [sp, #48]
 1883              	.LVL292:
 1884 000c 0493     		str	r3, [sp, #16]
 1885 000e 0D9B     		ldr	r3, [sp, #52]
 1886 0010 0593     		str	r3, [sp, #20]
 1887 0012 40F20003 		movw	r3, #:lower16:ln_get_hyp_body_equ_coords
 1888 0016 CDE90245 		strd	r4, [sp, #8]
 1889 001a C0F20003 		movt	r3, #:upper16:ln_get_hyp_body_equ_coords
 1890 001e FFF7FEFF 		bl	ln_get_motion_body_next_rst_horizon_future
 1891              	.LVL293:
 1892              		.loc 1 442 0
 1893 0022 07B0     		add	sp, sp, #28
 1894 0024 30BD     		pop	{r4, r5, pc}
 1895              		.cfi_endproc
 1896              	.LFE14:
 1897              		.size	ln_get_hyp_body_next_rst_horizon_future, .-ln_get_hyp_body_next_rst_horizon_future
 1898 0026 00BFAFF3 		.text
 1898      0080AFF3 
 1898      0080
 1899              	.Letext0:
 1900              		.file 2 "./libnova/src/libnova/ln_types.h"
 1901              		.file 3 "/usr/bin/../lib/gcc/arm-none-eabi/4.7.4/../../../../arm-none-eabi/include/math.h"
 1902              		.file 4 "./libnova/src/libnova/utility.h"
 1903              		.file 5 "./libnova/src/libnova/solar.h"
 1904              		.file 6 "./libnova/src/libnova/earth.h"
 1905              		.file 7 "./libnova/src/libnova/transform.h"
 1906              		.file 8 "./libnova/src/libnova/rise_set.h"