ARM GAS  /tmp/ccuTVmIG.s 			page 1


   1              		.syntax unified
   2              		.cpu cortex-m4
   3              		.fpu softvfp
   4              		.eabi_attribute 20, 1
   5              		.eabi_attribute 21, 1
   6              		.eabi_attribute 23, 3
   7              		.eabi_attribute 24, 1
   8              		.eabi_attribute 25, 1
   9              		.eabi_attribute 26, 1
  10              		.eabi_attribute 30, 2
  11              		.eabi_attribute 34, 1
  12              		.eabi_attribute 18, 4
  13              		.thumb
  14              		.file	"lx200ShellCMD.c"
  15              		.text
  16              	.Ltext0:
  17              		.cfi_sections	.debug_frame
  18              		.section	.text.cmd_dummy,"ax",%progbits
  19              		.align	2
  20              		.p2align 4,,15
  21              		.global	cmd_dummy
  22              		.thumb
  23              		.thumb_func
  24              		.type	cmd_dummy, %function
  25              	cmd_dummy:
  26              	.LFB118:
  27              		.file 1 "lx200ShellCMD.c"
  28              		.loc 1 46 0
  29              		.cfi_startproc
  30              		@ args = 0, pretend = 0, frame = 0
  31              		@ frame_needed = 0, uses_anonymous_args = 0
  32              		@ link register save eliminated.
  33              	.LVL0:
  34              		.loc 1 50 0
  35 0000 40F20001 		movw	r1, #:lower16:.LC0
  36              	.LVL1:
  37 0004 C0F20001 		movt	r1, #:upper16:.LC0
  38              		.loc 1 52 0
  39              		.loc 1 50 0
  40 0008 FFF7FEBF 		b	chprintf
  41              	.LVL2:
  42              		.cfi_endproc
  43              	.LFE118:
  44              		.size	cmd_dummy, .-cmd_dummy
  45 000c AFF30080 		.section	.text.cmd_info,"ax",%progbits
  46              		.align	2
  47              		.p2align 4,,15
  48              		.global	cmd_info
  49              		.thumb
  50              		.thumb_func
  51              		.type	cmd_info, %function
  52              	cmd_info:
  53              	.LFB119:
  54              		.loc 1 54 0
  55              		.cfi_startproc
  56              		@ args = 0, pretend = 0, frame = 0
  57              		@ frame_needed = 0, uses_anonymous_args = 0
ARM GAS  /tmp/ccuTVmIG.s 			page 2


  58              	.LVL3:
  59 0000 10B5     		push	{r4, lr}
  60              	.LCFI0:
  61              		.cfi_def_cfa_offset 8
  62              		.cfi_offset 4, -8
  63              		.cfi_offset 14, -4
  64              		.loc 1 57 0
  65 0002 0029     		cmp	r1, #0
  66              		.loc 1 54 0
  67 0004 82B0     		sub	sp, sp, #8
  68              	.LCFI1:
  69              		.cfi_def_cfa_offset 16
  70              		.loc 1 54 0
  71 0006 0446     		mov	r4, r0
  72              		.loc 1 57 0
  73 0008 05DD     		ble	.L3
  74              		.loc 1 58 0
  75 000a 1949     		ldr	r1, .L5
  76              	.LVL4:
  77              		.loc 1 84 0
  78 000c 02B0     		add	sp, sp, #8
  79 000e BDE81040 		pop	{r4, lr}
  80              		.loc 1 58 0
  81 0012 FFF7FEBF 		b	chprintf
  82              	.LVL5:
  83              	.L3:
  84              		.loc 1 62 0
  85 0016 1749     		ldr	r1, .L5+4
  86              	.LVL6:
  87 0018 174A     		ldr	r2, .L5+8
  88              	.LVL7:
  89 001a FFF7FEFF 		bl	chprintf
  90              	.LVL8:
  91              		.loc 1 64 0
  92 001e 2046     		mov	r0, r4
  93 0020 1649     		ldr	r1, .L5+12
  94 0022 174A     		ldr	r2, .L5+16
  95 0024 FFF7FEFF 		bl	chprintf
  96              	.LVL9:
  97              		.loc 1 66 0
  98 0028 2046     		mov	r0, r4
  99 002a 1649     		ldr	r1, .L5+20
 100 002c 164A     		ldr	r2, .L5+24
 101 002e FFF7FEFF 		bl	chprintf
 102              	.LVL10:
 103              		.loc 1 68 0
 104 0032 2046     		mov	r0, r4
 105 0034 1549     		ldr	r1, .L5+28
 106 0036 164A     		ldr	r2, .L5+32
 107 0038 FFF7FEFF 		bl	chprintf
 108              	.LVL11:
 109              		.loc 1 71 0
 110 003c 2046     		mov	r0, r4
 111 003e 1549     		ldr	r1, .L5+36
 112 0040 154A     		ldr	r2, .L5+40
 113 0042 FFF7FEFF 		bl	chprintf
 114              	.LVL12:
ARM GAS  /tmp/ccuTVmIG.s 			page 3


 115              		.loc 1 74 0
 116 0046 2046     		mov	r0, r4
 117 0048 1449     		ldr	r1, .L5+44
 118 004a 154A     		ldr	r2, .L5+48
 119 004c FFF7FEFF 		bl	chprintf
 120              	.LVL13:
 121              		.loc 1 77 0
 122 0050 2046     		mov	r0, r4
 123 0052 1449     		ldr	r1, .L5+52
 124 0054 144A     		ldr	r2, .L5+56
 125 0056 FFF7FEFF 		bl	chprintf
 126              	.LVL14:
 127              		.loc 1 81 0
 128 005a 144B     		ldr	r3, .L5+60
 129 005c 1449     		ldr	r1, .L5+64
 130 005e 0093     		str	r3, [sp, #0]
 131 0060 2046     		mov	r0, r4
 132 0062 144A     		ldr	r2, .L5+68
 133 0064 144B     		ldr	r3, .L5+72
 134 0066 FFF7FEFF 		bl	chprintf
 135              	.LVL15:
 136              		.loc 1 84 0
 137 006a 02B0     		add	sp, sp, #8
 138 006c 10BD     		pop	{r4, pc}
 139              	.L6:
 140 006e 00BF     		.align	2
 141              	.L5:
 142 0070 18000000 		.word	.LC1
 143 0074 28000000 		.word	.LC2
 144 0078 3C000000 		.word	.LC3
 145 007c 4C000000 		.word	.LC4
 146 0080 60000000 		.word	.LC5
 147 0084 A8000000 		.word	.LC6
 148 0088 BC000000 		.word	.LC7
 149 008c C8000000 		.word	.LC8
 150 0090 DC000000 		.word	.LC9
 151 0094 E8000000 		.word	.LC10
 152 0098 FC000000 		.word	.LC11
 153 009c 14010000 		.word	.LC12
 154 00a0 28010000 		.word	.LC13
 155 00a4 44010000 		.word	.LC14
 156 00a8 58010000 		.word	.LC15
 157 00ac A8010000 		.word	.LC19
 158 00b0 80010000 		.word	.LC16
 159 00b4 98010000 		.word	.LC17
 160 00b8 A4010000 		.word	.LC18
 161              		.cfi_endproc
 162              	.LFE119:
 163              		.size	cmd_info, .-cmd_info
 164 00bc AFF30080 		.section	.text.cmd_systime,"ax",%progbits
 165              		.align	2
 166              		.p2align 4,,15
 167              		.global	cmd_systime
 168              		.thumb
 169              		.thumb_func
 170              		.type	cmd_systime, %function
 171              	cmd_systime:
ARM GAS  /tmp/ccuTVmIG.s 			page 4


 172              	.LFB120:
 173              		.loc 1 86 0
 174              		.cfi_startproc
 175              		@ args = 0, pretend = 0, frame = 0
 176              		@ frame_needed = 0, uses_anonymous_args = 0
 177              		@ link register save eliminated.
 178              	.LVL16:
 179              		.loc 1 88 0
 180 0000 0029     		cmp	r1, #0
 181 0002 02DD     		ble	.L8
 182              		.loc 1 89 0
 183 0004 0349     		ldr	r1, .L9
 184              	.LVL17:
 185              		.loc 1 93 0
 186              		.loc 1 89 0
 187 0006 FFF7FEBF 		b	chprintf
 188              	.LVL18:
 189              	.L8:
 190              		.loc 1 92 0
 191 000a 034B     		ldr	r3, .L9+4
 192 000c 0349     		ldr	r1, .L9+8
 193              	.LVL19:
 194 000e DA68     		ldr	r2, [r3, #12]
 195              	.LVL20:
 196              		.loc 1 93 0
 197              		.loc 1 92 0
 198 0010 FFF7FEBF 		b	chprintf
 199              	.LVL21:
 200              	.L10:
 201              		.align	2
 202              	.L9:
 203 0014 B4010000 		.word	.LC20
 204 0018 00000000 		.word	vtlist
 205 001c C8010000 		.word	.LC21
 206              		.cfi_endproc
 207              	.LFE120:
 208              		.size	cmd_systime, .-cmd_systime
 209              		.global	__aeabi_i2d
 210              		.section	.text.ln_now,"ax",%progbits
 211              		.align	2
 212              		.p2align 4,,15
 213              		.global	ln_now
 214              		.thumb
 215              		.thumb_func
 216              		.type	ln_now, %function
 217              	ln_now:
 218              	.LFB122:
 219              		.loc 1 106 0
 220              		.cfi_startproc
 221              		@ args = 0, pretend = 0, frame = 40
 222              		@ frame_needed = 0, uses_anonymous_args = 0
 223              	.LVL22:
 224 0000 10B5     		push	{r4, lr}
 225              	.LCFI2:
 226              		.cfi_def_cfa_offset 8
 227              		.cfi_offset 4, -8
 228              		.cfi_offset 14, -4
ARM GAS  /tmp/ccuTVmIG.s 			page 5


 229 0002 0446     		mov	r4, r0
 230 0004 8AB0     		sub	sp, sp, #40
 231              	.LCFI3:
 232              		.cfi_def_cfa_offset 48
 233              		.loc 1 110 0
 234 0006 0E48     		ldr	r0, .L16
 235              	.LVL23:
 236 0008 FFF7FEFF 		bl	rtcGetTimeUnixSec
 237              	.LVL24:
 238              		.loc 1 111 0
 239 000c 0130     		adds	r0, r0, #1
 240              	.LVL25:
 241 000e 15D0     		beq	.L11
 242              	.LVL26:
 243              	.LBB4:
 244              	.LBB5:
 245              		.loc 1 114 0
 246 0010 0B48     		ldr	r0, .L16
 247              	.LVL27:
 248 0012 01A9     		add	r1, sp, #4
 249 0014 FFF7FEFF 		bl	rtcGetTimeTm
 250              	.LVL28:
 251              		.loc 1 117 0
 252 0018 049B     		ldr	r3, [sp, #16]
 253              		.loc 1 115 0
 254 001a 0698     		ldr	r0, [sp, #24]
 255              		.loc 1 116 0
 256 001c 0599     		ldr	r1, [sp, #20]
 257              		.loc 1 117 0
 258 001e A360     		str	r3, [r4, #8]
 259              		.loc 1 115 0
 260 0020 00F26C72 		addw	r2, r0, #1900
 261              		.loc 1 116 0
 262 0024 4B1C     		adds	r3, r1, #1
 263 0026 84E80C00 		stmia	r4, {r2, r3}
 264              		.loc 1 118 0
 265 002a 039A     		ldr	r2, [sp, #12]
 266              		.loc 1 119 0
 267 002c 029B     		ldr	r3, [sp, #8]
 268              		.loc 1 118 0
 269 002e E260     		str	r2, [r4, #12]
 270              		.loc 1 119 0
 271 0030 2361     		str	r3, [r4, #16]
 272              		.loc 1 120 0
 273 0032 0198     		ldr	r0, [sp, #4]
 274 0034 FFF7FEFF 		bl	__aeabi_i2d
 275              	.LVL29:
 276 0038 C4E90601 		strd	r0, [r4, #24]
 277              	.LVL30:
 278              	.L11:
 279              	.LBE5:
 280              	.LBE4:
 281              		.loc 1 122 0
 282 003c 0AB0     		add	sp, sp, #40
 283 003e 10BD     		pop	{r4, pc}
 284              	.L17:
 285              		.align	2
ARM GAS  /tmp/ccuTVmIG.s 			page 6


 286              	.L16:
 287 0040 00000000 		.word	RTCD1
 288              		.cfi_endproc
 289              	.LFE122:
 290              		.size	ln_now, .-ln_now
 291 0044 AFF30080 		.section	.text.cmd_date,"ax",%progbits
 291      AFF30080 
 291      AFF30080 
 292              		.align	2
 293              		.p2align 4,,15
 294              		.global	cmd_date
 295              		.thumb
 296              		.thumb_func
 297              		.type	cmd_date, %function
 298              	cmd_date:
 299              	.LFB121:
 300              		.loc 1 95 0
 301              		.cfi_startproc
 302              		@ args = 0, pretend = 0, frame = 32
 303              		@ frame_needed = 0, uses_anonymous_args = 0
 304              	.LVL31:
 305 0000 10B5     		push	{r4, lr}
 306              	.LCFI4:
 307              		.cfi_def_cfa_offset 8
 308              		.cfi_offset 4, -8
 309              		.cfi_offset 14, -4
 310              		.loc 1 97 0
 311 0002 0029     		cmp	r1, #0
 312              		.loc 1 95 0
 313 0004 8EB0     		sub	sp, sp, #56
 314              	.LCFI5:
 315              		.cfi_def_cfa_offset 64
 316              		.loc 1 95 0
 317 0006 0446     		mov	r4, r0
 318              		.loc 1 97 0
 319 0008 04DD     		ble	.L19
 320              		.loc 1 98 0
 321 000a 0C49     		ldr	r1, .L21
 322              	.LVL32:
 323 000c FFF7FEFF 		bl	chprintf
 324              	.LVL33:
 325              	.L18:
 326              		.loc 1 104 0
 327 0010 0EB0     		add	sp, sp, #56
 328 0012 10BD     		pop	{r4, pc}
 329              	.LVL34:
 330              	.L19:
 331              		.loc 1 102 0
 332 0014 06A8     		add	r0, sp, #24
 333              	.LVL35:
 334 0016 FFF7FEFF 		bl	ln_now
 335              	.LVL36:
 336              		.loc 1 103 0
 337 001a 069B     		ldr	r3, [sp, #24]
 338 001c 0998     		ldr	r0, [sp, #36]
 339 001e 0093     		str	r3, [sp, #0]
 340 0020 DDE90C23 		ldrd	r2, [sp, #48]
ARM GAS  /tmp/ccuTVmIG.s 			page 7


 341 0024 0A99     		ldr	r1, [sp, #40]
 342 0026 0190     		str	r0, [sp, #4]
 343 0028 CDE90423 		strd	r2, [sp, #16]
 344 002c 0291     		str	r1, [sp, #8]
 345 002e 2046     		mov	r0, r4
 346 0030 0349     		ldr	r1, .L21+4
 347 0032 089A     		ldr	r2, [sp, #32]
 348 0034 079B     		ldr	r3, [sp, #28]
 349 0036 FFF7FEFF 		bl	chprintf
 350              	.LVL37:
 351 003a E9E7     		b	.L18
 352              	.L22:
 353              		.align	2
 354              	.L21:
 355 003c 18000000 		.word	.LC1
 356 0040 D0010000 		.word	.LC22
 357              		.cfi_endproc
 358              	.LFE121:
 359              		.size	cmd_date, .-cmd_date
 360 0044 AFF30080 		.section	.text.cmd_libnova_test,"ax",%progbits
 360      AFF30080 
 360      AFF30080 
 361              		.align	2
 362              		.p2align 4,,15
 363              		.global	cmd_libnova_test
 364              		.thumb
 365              		.thumb_func
 366              		.type	cmd_libnova_test, %function
 367              	cmd_libnova_test:
 368              	.LFB123:
 369              		.loc 1 124 0
 370              		.cfi_startproc
 371              		@ args = 0, pretend = 0, frame = 224
 372              		@ frame_needed = 0, uses_anonymous_args = 0
 373              	.LVL38:
 374 0000 2DE9F04F 		push	{r4, r5, r6, r7, r8, r9, sl, fp, lr}
 375              	.LCFI6:
 376              		.cfi_def_cfa_offset 36
 377              		.cfi_offset 4, -36
 378              		.cfi_offset 5, -32
 379              		.cfi_offset 6, -28
 380              		.cfi_offset 7, -24
 381              		.cfi_offset 8, -20
 382              		.cfi_offset 9, -16
 383              		.cfi_offset 10, -12
 384              		.cfi_offset 11, -8
 385              		.cfi_offset 14, -4
 386              		.loc 1 126 0
 387 0004 0029     		cmp	r1, #0
 388              		.loc 1 124 0
 389 0006 BFB0     		sub	sp, sp, #252
 390              	.LCFI7:
 391              		.cfi_def_cfa_offset 288
 392              		.loc 1 124 0
 393 0008 0646     		mov	r6, r0
 394              		.loc 1 126 0
 395 000a 05DD     		ble	.L24
ARM GAS  /tmp/ccuTVmIG.s 			page 8


 396              		.loc 1 127 0
 397 000c 6049     		ldr	r1, .L26+16
 398              	.LVL39:
 399 000e FFF7FEFF 		bl	chprintf
 400              	.LVL40:
 401              	.L23:
 402              		.loc 1 189 0
 403 0012 3FB0     		add	sp, sp, #252
 404 0014 BDE8F08F 		pop	{r4, r5, r6, r7, r8, r9, sl, fp, pc}
 405              	.LVL41:
 406              	.L24:
 407              		.loc 1 162 0
 408 0018 0025     		movs	r5, #0
 409 001a 0024     		movs	r4, #0
 410 001c C4F21C05 		movt	r5, 16412
 411 0020 CDE90445 		strd	r4, [sp, #16]
 412              		.loc 1 146 0
 413 0024 4FF6FD74 		movw	r4, #65533
 414 0028 ADF89A40 		strh	r4, [sp, #154]	@ movhi
 415              		.loc 1 148 0
 416 002c 0025     		movs	r5, #0
 417              		.loc 1 147 0
 418 002e 2A24     		movs	r4, #42
 419 0030 ADF89C40 		strh	r4, [sp, #156]	@ movhi
 420              		.loc 1 148 0
 421 0034 C4F24205 		movt	r5, 16450
 422 0038 0024     		movs	r4, #0
 423 003a CDE92845 		strd	r4, [sp, #160]
 424              		.loc 1 149 0
 425 003e 2824     		movs	r4, #40
 426 0040 ADF8AA40 		strh	r4, [sp, #170]	@ movhi
 427              		.loc 1 150 0
 428 0044 1924     		movs	r4, #25
 429 0046 ADF8AC40 		strh	r4, [sp, #172]	@ movhi
 430              		.loc 1 151 0
 431 004a 4DA5     		adr	r5, .L26
 432 004c D5E90045 		ldrd	r4, [r5]
 433              		.loc 1 156 0
 434 0050 0FF2341B 		adr	fp, .L26+8
 435 0054 DBE900AB 		ldrd	sl, [fp]
 436              		.loc 1 155 0
 437 0058 4FF0240C 		mov	ip, #36
 438              		.loc 1 159 0
 439 005c 4FF00C0E 		mov	lr, #12
 440              		.loc 1 157 0
 441 0060 0127     		movs	r7, #1
 442              		.loc 1 151 0
 443 0062 CDE92C45 		strd	r4, [sp, #176]
 444              		.loc 1 154 0
 445 0066 4FF00508 		mov	r8, #5
 446              		.loc 1 160 0
 447 006a 0025     		movs	r5, #0
 448              		.loc 1 162 0
 449 006c 6346     		mov	r3, ip
 450 006e CDF80CE0 		str	lr, [sp, #12]
 451 0072 4246     		mov	r2, r8
 452              	.LVL42:
ARM GAS  /tmp/ccuTVmIG.s 			page 9


 453 0074 4749     		ldr	r1, .L26+20
 454              	.LVL43:
 455 0076 0297     		str	r7, [sp, #8]
 456 0078 CDE900AB 		strd	sl, [sp]
 457              		.loc 1 160 0
 458 007c 0024     		movs	r4, #0
 459 007e C4F21C05 		movt	r5, 16412
 460              		.loc 1 155 0
 461 0082 ADF85AC0 		strh	ip, [sp, #90]	@ movhi
 462              		.loc 1 159 0
 463 0086 ADF86CE0 		strh	lr, [sp, #108]	@ movhi
 464              		.loc 1 160 0
 465 008a CDE91C45 		strd	r4, [sp, #112]
 466              		.loc 1 154 0
 467 008e ADF85880 		strh	r8, [sp, #88]	@ movhi
 468              		.loc 1 156 0
 469 0092 CDE918AB 		strd	sl, [sp, #96]
 470              		.loc 1 157 0
 471 0096 ADF86870 		strh	r7, [sp, #104]	@ movhi
 472              		.loc 1 158 0
 473 009a ADF86A70 		strh	r7, [sp, #106]	@ movhi
 474              		.loc 1 162 0
 475 009e FFF7FEFF 		bl	chprintf
 476              	.LVL44:
 477              		.loc 1 166 0
 478 00a2 36A8     		add	r0, sp, #216
 479 00a4 FFF7FEFF 		bl	ln_now
 480              	.LVL45:
 481              		.loc 1 168 0
 482 00a8 36A8     		add	r0, sp, #216
 483 00aa FFF7FEFF 		bl	ln_get_julian_day
 484              	.LVL46:
 485 00ae 8046     		mov	r8, r0
 486 00b0 8946     		mov	r9, r1
 487              	.LVL47:
 488              		.loc 1 169 0
 489 00b2 16A8     		add	r0, sp, #88
 490 00b4 06A9     		add	r1, sp, #24
 491 00b6 FFF7FEFF 		bl	ln_hequ_to_equ
 492              	.LVL48:
 493              		.loc 1 174 0
 494 00ba 0EAF     		add	r7, sp, #56
 495              		.loc 1 170 0
 496 00bc 26A8     		add	r0, sp, #152
 497 00be 12A9     		add	r1, sp, #72
 498 00c0 FFF7FEFF 		bl	ln_hlnlat_to_lnlat
 499              	.LVL49:
 500              		.loc 1 174 0
 501 00c4 12A9     		add	r1, sp, #72
 502 00c6 4246     		mov	r2, r8
 503 00c8 4B46     		mov	r3, r9
 504 00ca 06A8     		add	r0, sp, #24
 505 00cc 0097     		str	r7, [sp, #0]
 506 00ce FFF7FEFF 		bl	ln_get_hrz_from_equ
 507              	.LVL50:
 508              		.loc 1 175 0
 509 00d2 3046     		mov	r0, r6
ARM GAS  /tmp/ccuTVmIG.s 			page 10


 510 00d4 DDE91023 		ldrd	r2, [sp, #64]
 511 00d8 2F49     		ldr	r1, .L26+24
 512 00da FFF7FEFF 		bl	chprintf
 513              	.LVL51:
 514              		.loc 1 176 0
 515 00de DDE90E23 		ldrd	r2, [sp, #56]
 516 00e2 3046     		mov	r0, r6
 517 00e4 2D49     		ldr	r1, .L26+28
 518 00e6 FFF7FEFF 		bl	chprintf
 519              	.LVL52:
 520              		.loc 1 177 0
 521 00ea 3846     		mov	r0, r7
 522 00ec 2EA9     		add	r1, sp, #184
 523 00ee FFF7FEFF 		bl	ln_hrz_to_hhrz
 524              	.LVL53:
 525              		.loc 1 178 0
 526 00f2 DDE934AB 		ldrd	sl, [sp, #208]
 527 00f6 CDE900AB 		strd	sl, [sp]
 528 00fa DDE930AB 		ldrd	sl, [sp, #192]
 529 00fe BDF8BA00 		ldrh	r0, [sp, #186]
 530 0102 BDF8BC50 		ldrh	r5, [sp, #188]
 531 0106 BDF8CA20 		ldrh	r2, [sp, #202]
 532 010a BDF8CC30 		ldrh	r3, [sp, #204]
 533 010e 0290     		str	r0, [sp, #8]
 534              		.loc 1 181 0
 535 0110 0AAC     		add	r4, sp, #40
 536              		.loc 1 178 0
 537 0112 3046     		mov	r0, r6
 538 0114 2249     		ldr	r1, .L26+32
 539 0116 0395     		str	r5, [sp, #12]
 540 0118 CDE904AB 		strd	sl, [sp, #16]
 541 011c FFF7FEFF 		bl	chprintf
 542              	.LVL54:
 543              		.loc 1 181 0
 544 0120 12A9     		add	r1, sp, #72
 545 0122 4246     		mov	r2, r8
 546 0124 4B46     		mov	r3, r9
 547 0126 0094     		str	r4, [sp, #0]
 548 0128 3846     		mov	r0, r7
 549 012a FFF7FEFF 		bl	ln_get_equ_from_hrz
 550              	.LVL55:
 551              		.loc 1 182 0
 552 012e 3046     		mov	r0, r6
 553 0130 DDE90A23 		ldrd	r2, [sp, #40]
 554 0134 1B49     		ldr	r1, .L26+36
 555 0136 FFF7FEFF 		bl	chprintf
 556              	.LVL56:
 557              		.loc 1 183 0
 558 013a DDE90C23 		ldrd	r2, [sp, #48]
 559 013e 3046     		mov	r0, r6
 560 0140 1949     		ldr	r1, .L26+40
 561 0142 FFF7FEFF 		bl	chprintf
 562              	.LVL57:
 563              		.loc 1 184 0
 564 0146 2046     		mov	r0, r4
 565 0148 1EA9     		add	r1, sp, #120
 566 014a FFF7FEFF 		bl	ln_equ_to_hequ
ARM GAS  /tmp/ccuTVmIG.s 			page 11


 567              	.LVL58:
 568              		.loc 1 185 0
 569 014e BDF88A10 		ldrh	r1, [sp, #138]
 570 0152 BDF88C40 		ldrh	r4, [sp, #140]
 571 0156 0291     		str	r1, [sp, #8]
 572 0158 DDE92001 		ldrd	r0, [sp, #128]
 573 015c CDE90001 		strd	r0, [sp]
 574 0160 DDE92401 		ldrd	r0, [sp, #144]
 575 0164 BDF87820 		ldrh	r2, [sp, #120]
 576 0168 BDF87A30 		ldrh	r3, [sp, #122]
 577 016c 0394     		str	r4, [sp, #12]
 578 016e CDE90401 		strd	r0, [sp, #16]
 579 0172 3046     		mov	r0, r6
 580 0174 0D49     		ldr	r1, .L26+44
 581 0176 FFF7FEFF 		bl	chprintf
 582              	.LVL59:
 583 017a 4AE7     		b	.L23
 584              	.L27:
 585 017c AFF30080 		.align	3
 586              	.L26:
 587 0180 7B14AE47 		.word	1202590843
 588 0184 E1FA2740 		.word	1076361953
 589 0188 9A999999 		.word	2576980378
 590 018c 99992940 		.word	1076468121
 591 0190 F8010000 		.word	.LC23
 592 0194 0C020000 		.word	.LC24
 593 0198 30020000 		.word	.LC25
 594 019c 50020000 		.word	.LC26
 595 01a0 70020000 		.word	.LC27
 596 01a4 8C020000 		.word	.LC28
 597 01a8 AC020000 		.word	.LC29
 598 01ac CC020000 		.word	.LC30
 599              		.cfi_endproc
 600              	.LFE123:
 601              		.size	cmd_libnova_test, .-cmd_libnova_test
 602              		.section	.text.cmd_mem,"ax",%progbits
 603              		.align	2
 604              		.p2align 4,,15
 605              		.global	cmd_mem
 606              		.thumb
 607              		.thumb_func
 608              		.type	cmd_mem, %function
 609              	cmd_mem:
 610              	.LFB124:
 611              		.loc 1 193 0
 612              		.cfi_startproc
 613              		@ args = 0, pretend = 0, frame = 8
 614              		@ frame_needed = 0, uses_anonymous_args = 0
 615              	.LVL60:
 616 0000 30B5     		push	{r4, r5, lr}
 617              	.LCFI8:
 618              		.cfi_def_cfa_offset 12
 619              		.cfi_offset 4, -12
 620              		.cfi_offset 5, -8
 621              		.cfi_offset 14, -4
 622              		.loc 1 197 0
 623 0002 0029     		cmp	r1, #0
ARM GAS  /tmp/ccuTVmIG.s 			page 12


 624              		.loc 1 193 0
 625 0004 83B0     		sub	sp, sp, #12
 626              	.LCFI9:
 627              		.cfi_def_cfa_offset 24
 628              		.loc 1 193 0
 629 0006 0446     		mov	r4, r0
 630              		.loc 1 197 0
 631 0008 04DD     		ble	.L29
 632              		.loc 1 198 0
 633 000a 0E49     		ldr	r1, .L31
 634              	.LVL61:
 635 000c FFF7FEFF 		bl	chprintf
 636              	.LVL62:
 637              	.L28:
 638              		.loc 1 205 0
 639 0010 03B0     		add	sp, sp, #12
 640 0012 30BD     		pop	{r4, r5, pc}
 641              	.LVL63:
 642              	.L29:
 643              		.loc 1 201 0
 644 0014 01A9     		add	r1, sp, #4
 645              	.LVL64:
 646 0016 0020     		movs	r0, #0
 647              	.LVL65:
 648 0018 FFF7FEFF 		bl	chHeapStatus
 649              	.LVL66:
 650 001c 0546     		mov	r5, r0
 651              	.LVL67:
 652              		.loc 1 202 0
 653 001e FFF7FEFF 		bl	chCoreStatus
 654              	.LVL68:
 655 0022 0949     		ldr	r1, .L31+4
 656 0024 0246     		mov	r2, r0
 657 0026 2046     		mov	r0, r4
 658 0028 FFF7FEFF 		bl	chprintf
 659              	.LVL69:
 660              		.loc 1 203 0
 661 002c 2046     		mov	r0, r4
 662 002e 2A46     		mov	r2, r5
 663 0030 0649     		ldr	r1, .L31+8
 664 0032 FFF7FEFF 		bl	chprintf
 665              	.LVL70:
 666              		.loc 1 204 0
 667 0036 2046     		mov	r0, r4
 668 0038 0549     		ldr	r1, .L31+12
 669              	.LVL71:
 670 003a 019A     		ldr	r2, [sp, #4]
 671 003c FFF7FEFF 		bl	chprintf
 672              	.LVL72:
 673 0040 E6E7     		b	.L28
 674              	.L32:
 675 0042 00BF     		.align	2
 676              	.L31:
 677 0044 E8020000 		.word	.LC31
 678 0048 F8020000 		.word	.LC32
 679 004c 18030000 		.word	.LC33
 680 0050 30030000 		.word	.LC34
ARM GAS  /tmp/ccuTVmIG.s 			page 13


 681              		.cfi_endproc
 682              	.LFE124:
 683              		.size	cmd_mem, .-cmd_mem
 684 0054 AFF30080 		.section	.text.cmd_threads,"ax",%progbits
 684      AFF30080 
 684      AFF30080 
 685              		.align	2
 686              		.p2align 4,,15
 687              		.global	cmd_threads
 688              		.thumb
 689              		.thumb_func
 690              		.type	cmd_threads, %function
 691              	cmd_threads:
 692              	.LFB125:
 693              		.loc 1 207 0
 694              		.cfi_startproc
 695              		@ args = 0, pretend = 0, frame = 0
 696              		@ frame_needed = 0, uses_anonymous_args = 0
 697              	.LVL73:
 698 0000 F0B5     		push	{r4, r5, r6, r7, lr}
 699              	.LCFI10:
 700              		.cfi_def_cfa_offset 20
 701              		.cfi_offset 4, -20
 702              		.cfi_offset 5, -16
 703              		.cfi_offset 6, -12
 704              		.cfi_offset 7, -8
 705              		.cfi_offset 14, -4
 706              		.loc 1 212 0
 707 0002 0029     		cmp	r1, #0
 708              		.loc 1 207 0
 709 0004 87B0     		sub	sp, sp, #28
 710              	.LCFI11:
 711              		.cfi_def_cfa_offset 48
 712              		.loc 1 207 0
 713 0006 0646     		mov	r6, r0
 714              		.loc 1 212 0
 715 0008 05DD     		ble	.L34
 716              		.loc 1 213 0
 717 000a 1449     		ldr	r1, .L37
 718              	.LVL74:
 719              		.loc 1 225 0
 720 000c 07B0     		add	sp, sp, #28
 721 000e BDE8F040 		pop	{r4, r5, r6, r7, lr}
 722              		.loc 1 213 0
 723 0012 FFF7FEBF 		b	chprintf
 724              	.LVL75:
 725              	.L34:
 726              		.loc 1 216 0
 727 0016 1249     		ldr	r1, .L37+4
 728              	.LVL76:
 729 0018 124F     		ldr	r7, .L37+8
 730 001a FFF7FEFF 		bl	chprintf
 731              	.LVL77:
 732              		.loc 1 217 0
 733 001e FFF7FEFF 		bl	chRegFirstThread
 734              	.LVL78:
 735 0022 0446     		mov	r4, r0
ARM GAS  /tmp/ccuTVmIG.s 			page 14


 736              	.LVL79:
 737              	.L35:
 738              		.loc 1 219 0 discriminator 1
 739 0024 A268     		ldr	r2, [r4, #8]
 740 0026 E368     		ldr	r3, [r4, #12]
 741 0028 206A     		ldr	r0, [r4, #32]
 742              	.LVL80:
 743 002a 0092     		str	r2, [sp, #0]
 744              		.loc 1 221 0 discriminator 1
 745 002c A57F     		ldrb	r5, [r4, #30]	@ zero_extendqisi2
 746              		.loc 1 219 0 discriminator 1
 747 002e 0E49     		ldr	r1, .L37+12
 748              		.loc 1 221 0 discriminator 1
 749 0030 6A1E     		subs	r2, r5, #1
 750              		.loc 1 219 0 discriminator 1
 751 0032 0192     		str	r2, [sp, #4]
 752 0034 257F     		ldrb	r5, [r4, #28]	@ zero_extendqisi2
 753 0036 0390     		str	r0, [sp, #12]
 754 0038 57F82500 		ldr	r0, [r7, r5, lsl #2]
 755 003c 0290     		str	r0, [sp, #8]
 756 003e A569     		ldr	r5, [r4, #24]
 757 0040 2246     		mov	r2, r4
 758 0042 3046     		mov	r0, r6
 759 0044 0495     		str	r5, [sp, #16]
 760 0046 FFF7FEFF 		bl	chprintf
 761              	.LVL81:
 762              		.loc 1 223 0 discriminator 1
 763 004a 2046     		mov	r0, r4
 764 004c FFF7FEFF 		bl	chRegNextThread
 765              	.LVL82:
 766              		.loc 1 224 0 discriminator 1
 767 0050 0446     		mov	r4, r0
 768 0052 0028     		cmp	r0, #0
 769 0054 E6D1     		bne	.L35
 770              		.loc 1 225 0
 771 0056 07B0     		add	sp, sp, #28
 772 0058 F0BD     		pop	{r4, r5, r6, r7, pc}
 773              	.L38:
 774 005a 00BF     		.align	2
 775              	.L37:
 776 005c 50030000 		.word	.LC35
 777 0060 64030000 		.word	.LC36
 778 0064 00000000 		.word	.LANCHOR0
 779 0068 A0030000 		.word	.LC37
 780              		.cfi_endproc
 781              	.LFE125:
 782              		.size	cmd_threads, .-cmd_threads
 783              		.global	__aeabi_fdiv
 784              		.global	__aeabi_fadd
 785 006c AFF30080 		.section	.text.f_scansexa,"ax",%progbits
 786              		.align	2
 787              		.p2align 4,,15
 788              		.global	f_scansexa
 789              		.thumb
 790              		.thumb_func
 791              		.type	f_scansexa, %function
 792              	f_scansexa:
ARM GAS  /tmp/ccuTVmIG.s 			page 15


 793              	.LFB126:
 794              		.loc 1 227 0
 795              		.cfi_startproc
 796              		@ args = 0, pretend = 0, frame = 144
 797              		@ frame_needed = 0, uses_anonymous_args = 0
 798              	.LVL83:
 799 0000 70B5     		push	{r4, r5, r6, lr}
 800              	.LCFI12:
 801              		.cfi_def_cfa_offset 16
 802              		.cfi_offset 4, -16
 803              		.cfi_offset 5, -12
 804              		.cfi_offset 6, -8
 805              		.cfi_offset 14, -4
 806 0002 0446     		mov	r4, r0
 807 0004 A6B0     		sub	sp, sp, #152
 808              	.LCFI13:
 809              		.cfi_def_cfa_offset 168
 810              		.loc 1 228 0
 811 0006 0023     		movs	r3, #0
 812              		.loc 1 234 0
 813 0008 7F22     		movs	r2, #127
 814              		.loc 1 227 0
 815 000a 0D46     		mov	r5, r1
 816              		.loc 1 234 0
 817 000c 06A8     		add	r0, sp, #24
 818              	.LVL84:
 819 000e 2146     		mov	r1, r4
 820              	.LVL85:
 821              		.loc 1 228 0
 822 0010 0393     		str	r3, [sp, #12]	@ float
 823              	.LVL86:
 824 0012 0493     		str	r3, [sp, #16]	@ float
 825              	.LVL87:
 826 0014 0593     		str	r3, [sp, #20]	@ float
 827              	.LVL88:
 828              		.loc 1 234 0
 829 0016 FFF7FEFF 		bl	strncpy
 830              	.LVL89:
 831              		.loc 1 235 0
 832 001a 0022     		movs	r2, #0
 833              		.loc 1 237 0
 834 001c 06A8     		add	r0, sp, #24
 835 001e 2D21     		movs	r1, #45
 836              		.loc 1 235 0
 837 0020 8DF89720 		strb	r2, [sp, #151]
 838              		.loc 1 237 0
 839 0024 FFF7FEFF 		bl	strchr
 840              	.LVL90:
 841              		.loc 1 238 0
 842 0028 0446     		mov	r4, r0
 843              	.LVL91:
 844 002a 08B1     		cbz	r0, .L40
 845              		.loc 1 239 0
 846 002c 2020     		movs	r0, #32
 847              	.LVL92:
 848 002e 2070     		strb	r0, [r4, #0]
 849              	.L40:
ARM GAS  /tmp/ccuTVmIG.s 			page 16


 850              		.loc 1 241 0
 851 0030 05A9     		add	r1, sp, #20
 852 0032 0091     		str	r1, [sp, #0]
 853 0034 06A8     		add	r0, sp, #24
 854 0036 1749     		ldr	r1, .L52
 855 0038 03AA     		add	r2, sp, #12
 856 003a 04AB     		add	r3, sp, #16
 857 003c FFF7FEFF 		bl	sscanf
 858              	.LVL93:
 859              		.loc 1 242 0
 860 0040 0028     		cmp	r0, #0
 861 0042 1ADD     		ble	.L41
 862              	.L45:
 863              		.loc 1 248 0
 864 0044 0021     		movs	r1, #0
 865 0046 C4F27021 		movt	r1, 17008
 866 004a 0498     		ldr	r0, [sp, #16]	@ float
 867              	.LVL94:
 868 004c FFF7FEFF 		bl	__aeabi_fdiv
 869              	.LVL95:
 870 0050 0399     		ldr	r1, [sp, #12]	@ float
 871 0052 FFF7FEFF 		bl	__aeabi_fadd
 872              	.LVL96:
 873 0056 0021     		movs	r1, #0
 874 0058 0646     		mov	r6, r0
 875 005a C4F26151 		movt	r1, 17761
 876 005e 0598     		ldr	r0, [sp, #20]	@ float
 877 0060 FFF7FEFF 		bl	__aeabi_fdiv
 878              	.LVL97:
 879 0064 0146     		mov	r1, r0
 880 0066 3046     		mov	r0, r6
 881 0068 FFF7FEFF 		bl	__aeabi_fadd
 882              	.LVL98:
 883              		.loc 1 249 0
 884 006c 0CB1     		cbz	r4, .L51
 885              		.loc 1 250 0
 886 006e 00F10040 		add	r0, r0, #-2147483648
 887              	.L51:
 888 0072 2860     		str	r0, [r5, #0]	@ float
 889              		.loc 1 251 0
 890 0074 0020     		movs	r0, #0
 891              	.L44:
 892              		.loc 1 252 0
 893 0076 26B0     		add	sp, sp, #152
 894 0078 70BD     		pop	{r4, r5, r6, pc}
 895              	.LVL99:
 896              	.L41:
 897              		.loc 1 243 0
 898 007a 0023     		movs	r3, #0
 899 007c 0593     		str	r3, [sp, #20]	@ float
 900              		.loc 1 244 0
 901 007e 0649     		ldr	r1, .L52+4
 902 0080 06A8     		add	r0, sp, #24
 903              	.LVL100:
 904 0082 03AA     		add	r2, sp, #12
 905 0084 04AB     		add	r3, sp, #16
 906 0086 FFF7FEFF 		bl	sscanf
ARM GAS  /tmp/ccuTVmIG.s 			page 17


 907              	.LVL101:
 908              		.loc 1 246 0
 909 008a 0028     		cmp	r0, #0
 910 008c DADC     		bgt	.L45
 911              		.loc 1 247 0
 912 008e 4FF0FF30 		mov	r0, #-1
 913              	.LVL102:
 914 0092 F0E7     		b	.L44
 915              	.L53:
 916              		.align	2
 917              	.L52:
 918 0094 CC030000 		.word	.LC38
 919 0098 E4030000 		.word	.LC39
 920              		.cfi_endproc
 921              	.LFE126:
 922              		.size	f_scansexa, .-f_scansexa
 923              		.global	__aeabi_fcmplt
 924              		.global	__aeabi_i2f
 925              		.global	__aeabi_fmul
 926              		.global	__aeabi_f2d
 927              		.global	__aeabi_dadd
 928              		.global	__aeabi_d2uiz
 929 009c AFF30080 		.section	.text.fs_sexa,"ax",%progbits
 930              		.align	2
 931              		.p2align 4,,15
 932              		.global	fs_sexa
 933              		.thumb
 934              		.thumb_func
 935              		.type	fs_sexa, %function
 936              	fs_sexa:
 937              	.LFB127:
 938              		.loc 1 254 0
 939              		.cfi_startproc
 940              		@ args = 4, pretend = 0, frame = 0
 941              		@ frame_needed = 0, uses_anonymous_args = 0
 942              	.LVL103:
 943 0000 2DE9F041 		push	{r4, r5, r6, r7, r8, lr}
 944              	.LCFI14:
 945              		.cfi_def_cfa_offset 24
 946              		.cfi_offset 4, -24
 947              		.cfi_offset 5, -20
 948              		.cfi_offset 6, -16
 949              		.cfi_offset 7, -12
 950              		.cfi_offset 8, -8
 951              		.cfi_offset 14, -4
 952 0004 0D46     		mov	r5, r1
 953 0006 82B0     		sub	sp, sp, #8
 954              	.LCFI15:
 955              		.cfi_def_cfa_offset 32
 956              		.loc 1 254 0
 957 0008 0646     		mov	r6, r0
 958              	.LVL104:
 959              		.loc 1 265 0
 960 000a 0021     		movs	r1, #0
 961              	.LVL105:
 962 000c 2846     		mov	r0, r5
 963              	.LVL106:
ARM GAS  /tmp/ccuTVmIG.s 			page 18


 964              		.loc 1 254 0
 965 000e 9046     		mov	r8, r2
 966 0010 1C46     		mov	r4, r3
 967              		.loc 1 265 0
 968 0012 FFF7FEFF 		bl	__aeabi_fcmplt
 969              	.LVL107:
 970 0016 D0B1     		cbz	r0, .L72
 971              	.LVL108:
 972              		.loc 1 269 0
 973 0018 2046     		mov	r0, r4
 974 001a FFF7FEFF 		bl	__aeabi_i2f
 975              	.LVL109:
 976              		.loc 1 266 0
 977 001e 05F10047 		add	r7, r5, #-2147483648
 978              		.loc 1 269 0
 979 0022 0146     		mov	r1, r0
 980 0024 3846     		mov	r0, r7
 981 0026 FFF7FEFF 		bl	__aeabi_fmul
 982              	.LVL110:
 983 002a FFF7FEFF 		bl	__aeabi_f2d
 984              	.LVL111:
 985 002e 0023     		movs	r3, #0
 986 0030 C3F6E073 		movt	r3, 16352
 987 0034 0022     		movs	r2, #0
 988 0036 FFF7FEFF 		bl	__aeabi_dadd
 989              	.LVL112:
 990 003a FFF7FEFF 		bl	__aeabi_d2uiz
 991              	.LVL113:
 992              		.loc 1 270 0
 993 003e B0FBF4F3 		udiv	r3, r0, r4
 994              	.LVL114:
 995              		.loc 1 271 0
 996 0042 04FB1307 		mls	r7, r4, r3, r0
 997              	.LVL115:
 998              		.loc 1 274 0
 999 0046 002B     		cmp	r3, #0
 1000 0048 51D0     		beq	.L74
 1001              		.loc 1 277 0 discriminator 1
 1002 004a 5B42     		negs	r3, r3
 1003              	.LVL116:
 1004 004c 14E0     		b	.L69
 1005              	.LVL117:
 1006              	.L72:
 1007              		.loc 1 269 0
 1008 004e 2046     		mov	r0, r4
 1009 0050 FFF7FEFF 		bl	__aeabi_i2f
 1010              	.LVL118:
 1011 0054 0146     		mov	r1, r0
 1012 0056 2846     		mov	r0, r5
 1013 0058 FFF7FEFF 		bl	__aeabi_fmul
 1014              	.LVL119:
 1015 005c FFF7FEFF 		bl	__aeabi_f2d
 1016              	.LVL120:
 1017 0060 0023     		movs	r3, #0
 1018 0062 C3F6E073 		movt	r3, 16352
 1019 0066 0022     		movs	r2, #0
 1020 0068 FFF7FEFF 		bl	__aeabi_dadd
ARM GAS  /tmp/ccuTVmIG.s 			page 19


 1021              	.LVL121:
 1022 006c FFF7FEFF 		bl	__aeabi_d2uiz
 1023              	.LVL122:
 1024              		.loc 1 270 0
 1025 0070 B0FBF4F3 		udiv	r3, r0, r4
 1026              	.LVL123:
 1027              		.loc 1 271 0
 1028 0074 04FB1307 		mls	r7, r4, r3, r0
 1029              	.LVL124:
 1030              	.L69:
 1031              		.loc 1 277 0 discriminator 3
 1032 0078 3046     		mov	r0, r6
 1033              	.LVL125:
 1034 007a 4F49     		ldr	r1, .L77
 1035 007c 4246     		mov	r2, r8
 1036 007e FFF7FEFF 		bl	sprintf
 1037              	.LVL126:
 1038 0082 3018     		adds	r0, r6, r0
 1039              	.LVL127:
 1040              	.L58:
 1041              		.loc 1 280 0
 1042 0084 0899     		ldr	r1, [sp, #32]
 1043 0086 0129     		cmp	r1, #1
 1044              		.loc 1 281 0
 1045 0088 0CBF     		ite	eq
 1046 008a 4C49     		ldreq	r1, .L77+4
 1047              		.loc 1 283 0
 1048 008c 4C49     		ldrne	r1, .L77+8
 1049              		.loc 1 281 0
 1050 008e 0546     		mov	r5, r0
 1051              	.LVL128:
 1052              		.loc 1 283 0
 1053 0090 0A88     		ldrh	r2, [r1, #0]	@ unaligned
 1054              		.loc 1 286 0
 1055 0092 B4F5616F 		cmp	r4, #3600
 1056              		.loc 1 283 0
 1057 0096 25F8012B 		strh	r2, [r5], #1	@ unaligned
 1058              	.LVL129:
 1059              		.loc 1 286 0
 1060 009a 72D0     		beq	.L64
 1061 009c 0EDD     		ble	.L75
 1062 009e 48F6A042 		movw	r2, #36000
 1063 00a2 9442     		cmp	r4, r2
 1064 00a4 4CD0     		beq	.L65
 1065 00a6 A2F56660 		sub	r0, r2, #3680
 1066 00aa C0F20500 		movt	r0, 5
 1067 00ae 8442     		cmp	r4, r0
 1068 00b0 26D0     		beq	.L76
 1069              	.L70:
 1070              		.loc 1 310 0
 1071 00b2 4FF0FF30 		mov	r0, #-1
 1072              	.LVL130:
 1073              	.L73:
 1074              		.loc 1 314 0
 1075 00b6 02B0     		add	sp, sp, #8
 1076 00b8 BDE8F081 		pop	{r4, r5, r6, r7, r8, pc}
 1077              	.LVL131:
ARM GAS  /tmp/ccuTVmIG.s 			page 20


 1078              	.L75:
 1079              		.loc 1 286 0
 1080 00bc 3C2C     		cmp	r4, #60
 1081 00be 74D0     		beq	.L62
 1082 00c0 B4F5167F 		cmp	r4, #600
 1083 00c4 F5D1     		bne	.L70
 1084              		.loc 1 292 0
 1085 00c6 46F26763 		movw	r3, #26215
 1086 00ca C6F26663 		movt	r3, 26214
 1087 00ce 83FB0710 		smull	r1, r0, r3, r7
 1088 00d2 F917     		asrs	r1, r7, #31
 1089 00d4 C1EBA002 		rsb	r2, r1, r0, asr #2
 1090 00d8 02EB8203 		add	r3, r2, r2, lsl #2
 1091 00dc 2846     		mov	r0, r5
 1092 00de 3949     		ldr	r1, .L77+12
 1093 00e0 A7EB4303 		sub	r3, r7, r3, lsl #1
 1094 00e4 FFF7FEFF 		bl	sprintf
 1095              	.LVL132:
 1096 00e8 2A18     		adds	r2, r5, r0
 1097              	.LVL133:
 1098              	.L68:
 1099              		.loc 1 313 0
 1100 00ea 901B     		subs	r0, r2, r6
 1101 00ec E3E7     		b	.L73
 1102              	.LVL134:
 1103              	.L74:
 1104              		.loc 1 275 0
 1105 00ee 3046     		mov	r0, r6
 1106              	.LVL135:
 1107 00f0 3549     		ldr	r1, .L77+16
 1108 00f2 364B     		ldr	r3, .L77+20
 1109              	.LVL136:
 1110 00f4 A8F10202 		sub	r2, r8, #2
 1111 00f8 FFF7FEFF 		bl	sprintf
 1112              	.LVL137:
 1113 00fc 3018     		adds	r0, r6, r0
 1114              	.LVL138:
 1115 00fe C1E7     		b	.L58
 1116              	.LVL139:
 1117              	.L76:
 1118              		.loc 1 306 0
 1119 0100 41F6F111 		movw	r1, #6641
 1120 0104 C0F27651 		movt	r1, 1398
 1121 0108 81FB0732 		smull	r3, r2, r1, r7
 1122 010c FB17     		asrs	r3, r7, #31
 1123 010e C3EBE212 		rsb	r2, r3, r2, asr #7
 1124 0112 41F27071 		movw	r1, #6000
 1125              		.loc 1 307 0
 1126 0116 48F21F50 		movw	r0, #34079
 1127              		.loc 1 306 0
 1128 011a 01FB1277 		mls	r7, r1, r2, r7
 1129              	.LVL140:
 1130              		.loc 1 307 0
 1131 011e C5F2EB10 		movt	r0, 20971
 1132 0122 80FB0713 		smull	r1, r3, r0, r7
 1133 0126 F817     		asrs	r0, r7, #31
 1134 0128 C0EB6313 		rsb	r3, r0, r3, asr #5
ARM GAS  /tmp/ccuTVmIG.s 			page 21


 1135 012c 6421     		movs	r1, #100
 1136 012e 01FB1377 		mls	r7, r1, r3, r7
 1137 0132 0097     		str	r7, [sp, #0]
 1138 0134 2846     		mov	r0, r5
 1139 0136 2649     		ldr	r1, .L77+24
 1140 0138 FFF7FEFF 		bl	sprintf
 1141              	.LVL141:
 1142 013c 2A18     		adds	r2, r5, r0
 1143              	.LVL142:
 1144              		.loc 1 308 0
 1145 013e D4E7     		b	.L68
 1146              	.LVL143:
 1147              	.L65:
 1148              		.loc 1 301 0
 1149 0140 48F2B513 		movw	r3, #33205
 1150 0144 C1F64E33 		movt	r3, 6990
 1151 0148 83FB0710 		smull	r1, r0, r3, r7
 1152 014c F917     		asrs	r1, r7, #31
 1153 014e C1EBA012 		rsb	r2, r1, r0, asr #6
 1154              		.loc 1 302 0
 1155 0152 46F26763 		movw	r3, #26215
 1156              		.loc 1 301 0
 1157 0156 4FF41670 		mov	r0, #600
 1158 015a 00FB1277 		mls	r7, r0, r2, r7
 1159              	.LVL144:
 1160              		.loc 1 302 0
 1161 015e C6F26663 		movt	r3, 26214
 1162 0162 83FB0713 		smull	r1, r3, r3, r7
 1163 0166 F917     		asrs	r1, r7, #31
 1164 0168 C1EBA303 		rsb	r3, r1, r3, asr #2
 1165 016c 03EB8300 		add	r0, r3, r3, lsl #2
 1166 0170 A7EB4007 		sub	r7, r7, r0, lsl #1
 1167 0174 0097     		str	r7, [sp, #0]
 1168 0176 2846     		mov	r0, r5
 1169 0178 1649     		ldr	r1, .L77+28
 1170 017a FFF7FEFF 		bl	sprintf
 1171              	.LVL145:
 1172 017e 2A18     		adds	r2, r5, r0
 1173              	.LVL146:
 1174              		.loc 1 303 0
 1175 0180 B3E7     		b	.L68
 1176              	.LVL147:
 1177              	.L64:
 1178              		.loc 1 295 0
 1179 0182 48F68902 		movw	r2, #34953
 1180 0186 C8F68802 		movt	r2, 34952
 1181 018a 82FB0731 		smull	r3, r1, r2, r7
 1182 018e C819     		adds	r0, r1, r7
 1183 0190 FB17     		asrs	r3, r7, #31
 1184 0192 C3EB6012 		rsb	r2, r3, r0, asr #5
 1185              		.loc 1 296 0
 1186 0196 C2EB0213 		rsb	r3, r2, r2, lsl #4
 1187              		.loc 1 297 0
 1188 019a 2846     		mov	r0, r5
 1189 019c 0E49     		ldr	r1, .L77+32
 1190 019e A7EB8303 		sub	r3, r7, r3, lsl #2
 1191 01a2 FFF7FEFF 		bl	sprintf
ARM GAS  /tmp/ccuTVmIG.s 			page 22


 1192              	.LVL148:
 1193 01a6 2A18     		adds	r2, r5, r0
 1194              	.LVL149:
 1195              		.loc 1 298 0
 1196 01a8 9FE7     		b	.L68
 1197              	.LVL150:
 1198              	.L62:
 1199              		.loc 1 289 0
 1200 01aa 3A46     		mov	r2, r7
 1201 01ac 2846     		mov	r0, r5
 1202 01ae 0B49     		ldr	r1, .L77+36
 1203 01b0 FFF7FEFF 		bl	sprintf
 1204              	.LVL151:
 1205 01b4 2A18     		adds	r2, r5, r0
 1206              	.LVL152:
 1207              		.loc 1 290 0
 1208 01b6 98E7     		b	.L68
 1209              	.L78:
 1210              		.align	2
 1211              	.L77:
 1212 01b8 00040000 		.word	.LC42
 1213 01bc 04040000 		.word	.LC43
 1214 01c0 08040000 		.word	.LC44
 1215 01c4 14040000 		.word	.LC46
 1216 01c8 F4030000 		.word	.LC40
 1217 01cc FC030000 		.word	.LC41
 1218 01d0 3C040000 		.word	.LC49
 1219 01d4 2C040000 		.word	.LC48
 1220 01d8 20040000 		.word	.LC47
 1221 01dc 0C040000 		.word	.LC45
 1222              		.cfi_endproc
 1223              	.LFE127:
 1224              		.size	fs_sexa, .-fs_sexa
 1225              		.section	.text.cmd_firware_date,"ax",%progbits
 1226              		.align	2
 1227              		.p2align 4,,15
 1228              		.global	cmd_firware_date
 1229              		.thumb
 1230              		.thumb_func
 1231              		.type	cmd_firware_date, %function
 1232              	cmd_firware_date:
 1233              	.LFB128:
 1234              		.loc 1 317 0
 1235              		.cfi_startproc
 1236              		@ args = 0, pretend = 0, frame = 0
 1237              		@ frame_needed = 0, uses_anonymous_args = 0
 1238              		@ link register save eliminated.
 1239              	.LVL153:
 1240              		.loc 1 319 0
 1241 0000 11B9     		cbnz	r1, .L81
 1242              		.loc 1 323 0
 1243 0002 0349     		ldr	r1, .L82
 1244              	.LVL154:
 1245              		.loc 1 324 0
 1246              		.loc 1 323 0
 1247 0004 FFF7FEBF 		b	chprintf
 1248              	.LVL155:
ARM GAS  /tmp/ccuTVmIG.s 			page 23


 1249              	.L81:
 1250              		.loc 1 320 0
 1251 0008 0249     		ldr	r1, .L82+4
 1252              	.LVL156:
 1253              		.loc 1 324 0
 1254              		.loc 1 320 0
 1255 000a FFF7FEBF 		b	chprintf
 1256              	.LVL157:
 1257              	.L83:
 1258 000e 00BF     		.align	2
 1259              	.L82:
 1260 0010 50040000 		.word	.LC51
 1261 0014 4C040000 		.word	.LC50
 1262              		.cfi_endproc
 1263              	.LFE128:
 1264              		.size	cmd_firware_date, .-cmd_firware_date
 1265 0018 AFF30080 		.section	.text.cmd_firware_time,"ax",%progbits
 1265      AFF30080 
 1266              		.align	2
 1267              		.p2align 4,,15
 1268              		.global	cmd_firware_time
 1269              		.thumb
 1270              		.thumb_func
 1271              		.type	cmd_firware_time, %function
 1272              	cmd_firware_time:
 1273              	.LFB129:
 1274              		.loc 1 325 0
 1275              		.cfi_startproc
 1276              		@ args = 0, pretend = 0, frame = 0
 1277              		@ frame_needed = 0, uses_anonymous_args = 0
 1278              		@ link register save eliminated.
 1279              	.LVL158:
 1280              		.loc 1 327 0
 1281 0000 11B9     		cbnz	r1, .L86
 1282              		.loc 1 331 0
 1283 0002 0349     		ldr	r1, .L87
 1284              	.LVL159:
 1285              		.loc 1 332 0
 1286              		.loc 1 331 0
 1287 0004 FFF7FEBF 		b	chprintf
 1288              	.LVL160:
 1289              	.L86:
 1290              		.loc 1 328 0
 1291 0008 0249     		ldr	r1, .L87+4
 1292              	.LVL161:
 1293              		.loc 1 332 0
 1294              		.loc 1 328 0
 1295 000a FFF7FEBF 		b	chprintf
 1296              	.LVL162:
 1297              	.L88:
 1298 000e 00BF     		.align	2
 1299              	.L87:
 1300 0010 5C040000 		.word	.LC52
 1301 0014 4C040000 		.word	.LC50
 1302              		.cfi_endproc
 1303              	.LFE129:
 1304              		.size	cmd_firware_time, .-cmd_firware_time
ARM GAS  /tmp/ccuTVmIG.s 			page 24


 1305 0018 AFF30080 		.section	.text.cmd_firware_number,"ax",%progbits
 1305      AFF30080 
 1306              		.align	2
 1307              		.p2align 4,,15
 1308              		.global	cmd_firware_number
 1309              		.thumb
 1310              		.thumb_func
 1311              		.type	cmd_firware_number, %function
 1312              	cmd_firware_number:
 1313              	.LFB130:
 1314              		.loc 1 333 0
 1315              		.cfi_startproc
 1316              		@ args = 0, pretend = 0, frame = 0
 1317              		@ frame_needed = 0, uses_anonymous_args = 0
 1318              		@ link register save eliminated.
 1319              	.LVL163:
 1320              		.loc 1 335 0
 1321 0000 11B9     		cbnz	r1, .L91
 1322              		.loc 1 339 0
 1323 0002 0349     		ldr	r1, .L92
 1324              	.LVL164:
 1325              		.loc 1 340 0
 1326              		.loc 1 339 0
 1327 0004 FFF7FEBF 		b	chprintf
 1328              	.LVL165:
 1329              	.L91:
 1330              		.loc 1 336 0
 1331 0008 0249     		ldr	r1, .L92+4
 1332              	.LVL166:
 1333              		.loc 1 340 0
 1334              		.loc 1 336 0
 1335 000a FFF7FEBF 		b	chprintf
 1336              	.LVL167:
 1337              	.L93:
 1338 000e 00BF     		.align	2
 1339              	.L92:
 1340 0010 68040000 		.word	.LC53
 1341 0014 4C040000 		.word	.LC50
 1342              		.cfi_endproc
 1343              	.LFE130:
 1344              		.size	cmd_firware_number, .-cmd_firware_number
 1345 0018 AFF30080 		.section	.text.cmd_firware_product,"ax",%progbits
 1345      AFF30080 
 1346              		.align	2
 1347              		.p2align 4,,15
 1348              		.global	cmd_firware_product
 1349              		.thumb
 1350              		.thumb_func
 1351              		.type	cmd_firware_product, %function
 1352              	cmd_firware_product:
 1353              	.LFB131:
 1354              		.loc 1 341 0
 1355              		.cfi_startproc
 1356              		@ args = 0, pretend = 0, frame = 0
 1357              		@ frame_needed = 0, uses_anonymous_args = 0
 1358              		@ link register save eliminated.
 1359              	.LVL168:
ARM GAS  /tmp/ccuTVmIG.s 			page 25


 1360              		.loc 1 343 0
 1361 0000 11B9     		cbnz	r1, .L96
 1362              		.loc 1 347 0
 1363 0002 0349     		ldr	r1, .L97
 1364              	.LVL169:
 1365              		.loc 1 348 0
 1366              		.loc 1 347 0
 1367 0004 FFF7FEBF 		b	chprintf
 1368              	.LVL170:
 1369              	.L96:
 1370              		.loc 1 344 0
 1371 0008 0249     		ldr	r1, .L97+4
 1372              	.LVL171:
 1373              		.loc 1 348 0
 1374              		.loc 1 344 0
 1375 000a FFF7FEBF 		b	chprintf
 1376              	.LVL172:
 1377              	.L98:
 1378 000e 00BF     		.align	2
 1379              	.L97:
 1380 0010 70040000 		.word	.LC54
 1381 0014 4C040000 		.word	.LC50
 1382              		.cfi_endproc
 1383              	.LFE131:
 1384              		.size	cmd_firware_product, .-cmd_firware_product
 1385 0018 AFF30080 		.section	.text.cmd_firware_ver,"ax",%progbits
 1385      AFF30080 
 1386              		.align	2
 1387              		.p2align 4,,15
 1388              		.global	cmd_firware_ver
 1389              		.thumb
 1390              		.thumb_func
 1391              		.type	cmd_firware_ver, %function
 1392              	cmd_firware_ver:
 1393              	.LFB132:
 1394              		.loc 1 349 0
 1395              		.cfi_startproc
 1396              		@ args = 0, pretend = 0, frame = 0
 1397              		@ frame_needed = 0, uses_anonymous_args = 0
 1398              		@ link register save eliminated.
 1399              	.LVL173:
 1400              		.loc 1 351 0
 1401 0000 11B9     		cbnz	r1, .L101
 1402              		.loc 1 355 0
 1403 0002 0349     		ldr	r1, .L102
 1404              	.LVL174:
 1405              		.loc 1 356 0
 1406              		.loc 1 355 0
 1407 0004 FFF7FEBF 		b	chprintf
 1408              	.LVL175:
 1409              	.L101:
 1410              		.loc 1 352 0
 1411 0008 0249     		ldr	r1, .L102+4
 1412              	.LVL176:
 1413              		.loc 1 356 0
 1414              		.loc 1 352 0
 1415 000a FFF7FEBF 		b	chprintf
ARM GAS  /tmp/ccuTVmIG.s 			page 26


 1416              	.LVL177:
 1417              	.L103:
 1418 000e 00BF     		.align	2
 1419              	.L102:
 1420 0010 84040000 		.word	.LC55
 1421 0014 4C040000 		.word	.LC50
 1422              		.cfi_endproc
 1423              	.LFE132:
 1424              		.size	cmd_firware_ver, .-cmd_firware_ver
 1425 0018 AFF30080 		.section	.text.cmd_mount_mode,"ax",%progbits
 1425      AFF30080 
 1426              		.align	2
 1427              		.p2align 4,,15
 1428              		.global	cmd_mount_mode
 1429              		.thumb
 1430              		.thumb_func
 1431              		.type	cmd_mount_mode, %function
 1432              	cmd_mount_mode:
 1433              	.LFB133:
 1434              		.loc 1 358 0
 1435              		.cfi_startproc
 1436              		@ args = 0, pretend = 0, frame = 0
 1437              		@ frame_needed = 0, uses_anonymous_args = 0
 1438              		@ link register save eliminated.
 1439              	.LVL178:
 1440              		.loc 1 360 0
 1441 0000 29B9     		cbnz	r1, .L106
 1442              		.loc 1 364 0
 1443 0002 044A     		ldr	r2, .L107
 1444              	.LVL179:
 1445 0004 044B     		ldr	r3, .L107+4
 1446              		.loc 1 365 0
 1447 0006 0549     		ldr	r1, .L107+8
 1448              	.LVL180:
 1449              		.loc 1 364 0
 1450 0008 1A60     		str	r2, [r3, #0]
 1451              		.loc 1 366 0
 1452              		.loc 1 365 0
 1453 000a FFF7FEBF 		b	chprintf
 1454              	.LVL181:
 1455              	.L106:
 1456              		.loc 1 361 0
 1457 000e 0449     		ldr	r1, .L107+12
 1458              	.LVL182:
 1459              		.loc 1 366 0
 1460              		.loc 1 361 0
 1461 0010 FFF7FEBF 		b	chprintf
 1462              	.LVL183:
 1463              	.L108:
 1464              		.align	2
 1465              	.L107:
 1466 0014 9C040000 		.word	.LC56
 1467 0018 00000000 		.word	.LANCHOR1
 1468 001c A0040000 		.word	.LC57
 1469 0020 4C040000 		.word	.LC50
 1470              		.cfi_endproc
 1471              	.LFE133:
ARM GAS  /tmp/ccuTVmIG.s 			page 27


 1472              		.size	cmd_mount_mode, .-cmd_mount_mode
 1473 0024 AFF30080 		.section	.text.cmd_setLocalDate,"ax",%progbits
 1473      AFF30080 
 1473      AFF30080 
 1474              		.align	2
 1475              		.p2align 4,,15
 1476              		.global	cmd_setLocalDate
 1477              		.thumb
 1478              		.thumb_func
 1479              		.type	cmd_setLocalDate, %function
 1480              	cmd_setLocalDate:
 1481              	.LFB134:
 1482              		.loc 1 370 0
 1483              		.cfi_startproc
 1484              		@ args = 0, pretend = 0, frame = 40
 1485              		@ frame_needed = 0, uses_anonymous_args = 0
 1486              	.LVL184:
 1487 0000 10B5     		push	{r4, lr}
 1488              	.LCFI16:
 1489              		.cfi_def_cfa_offset 8
 1490              		.cfi_offset 4, -8
 1491              		.cfi_offset 14, -4
 1492              		.loc 1 373 0
 1493 0002 0129     		cmp	r1, #1
 1494              		.loc 1 370 0
 1495 0004 8AB0     		sub	sp, sp, #40
 1496              	.LCFI17:
 1497              		.cfi_def_cfa_offset 48
 1498              		.loc 1 370 0
 1499 0006 0446     		mov	r4, r0
 1500              		.loc 1 373 0
 1501 0008 05D0     		beq	.L110
 1502              	.LVL185:
 1503              	.L112:
 1504              		.loc 1 374 0
 1505 000a 2046     		mov	r0, r4
 1506 000c 1549     		ldr	r1, .L119
 1507 000e FFF7FEFF 		bl	chprintf
 1508              	.LVL186:
 1509              	.L109:
 1510              		.loc 1 395 0
 1511 0012 0AB0     		add	sp, sp, #40
 1512 0014 10BD     		pop	{r4, pc}
 1513              	.LVL187:
 1514              	.L110:
 1515              		.loc 1 378 0
 1516 0016 1046     		mov	r0, r2
 1517              	.LVL188:
 1518 0018 1349     		ldr	r1, .L119+4
 1519              	.LVL189:
 1520 001a 01AA     		add	r2, sp, #4
 1521              	.LVL190:
 1522 001c FFF7FEFF 		bl	strptime
 1523              	.LVL191:
 1524 0020 0028     		cmp	r0, #0
 1525 0022 F2D0     		beq	.L112
 1526              		.loc 1 382 0
ARM GAS  /tmp/ccuTVmIG.s 			page 28


 1527 0024 1148     		ldr	r0, .L119+8
 1528 0026 FFF7FEFF 		bl	rtcGetTimeUnixSec
 1529              	.LVL192:
 1530 002a 0AAB     		add	r3, sp, #40
 1531 002c 43F8280D 		str	r0, [r3, #-40]!
 1532              	.LVL193:
 1533              		.loc 1 383 0
 1534 0030 6846     		mov	r0, sp
 1535 0032 FFF7FEFF 		bl	gmtime
 1536              	.LVL194:
 1537              		.loc 1 384 0
 1538 0036 8168     		ldr	r1, [r0, #8]
 1539              		.loc 1 386 0
 1540 0038 0368     		ldr	r3, [r0, #0]
 1541              		.loc 1 385 0
 1542 003a 4268     		ldr	r2, [r0, #4]
 1543              		.loc 1 384 0
 1544 003c 0391     		str	r1, [sp, #12]
 1545              		.loc 1 388 0
 1546 003e 01A8     		add	r0, sp, #4
 1547              	.LVL195:
 1548              		.loc 1 387 0
 1549 0040 0021     		movs	r1, #0
 1550              		.loc 1 386 0
 1551 0042 0193     		str	r3, [sp, #4]
 1552              		.loc 1 385 0
 1553 0044 0292     		str	r2, [sp, #8]
 1554              		.loc 1 387 0
 1555 0046 0991     		str	r1, [sp, #36]
 1556              		.loc 1 388 0
 1557 0048 FFF7FEFF 		bl	mktime
 1558              	.LVL196:
 1559              		.loc 1 389 0
 1560 004c 431C     		adds	r3, r0, #1
 1561              		.loc 1 388 0
 1562 004e 0090     		str	r0, [sp, #0]
 1563              		.loc 1 389 0
 1564 0050 DBD0     		beq	.L112
 1565              		.loc 1 393 0
 1566 0052 0146     		mov	r1, r0
 1567 0054 0548     		ldr	r0, .L119+8
 1568 0056 FFF7FEFF 		bl	rtcSetTimeUnixSec
 1569              	.LVL197:
 1570              		.loc 1 394 0
 1571 005a 2046     		mov	r0, r4
 1572 005c 0449     		ldr	r1, .L119+12
 1573 005e FFF7FEFF 		bl	chprintf
 1574              	.LVL198:
 1575 0062 D6E7     		b	.L109
 1576              	.L120:
 1577              		.align	2
 1578              	.L119:
 1579 0064 4C040000 		.word	.LC50
 1580 0068 A4040000 		.word	.LC58
 1581 006c 00000000 		.word	RTCD1
 1582 0070 B0040000 		.word	.LC59
 1583              		.cfi_endproc
ARM GAS  /tmp/ccuTVmIG.s 			page 29


 1584              	.LFE134:
 1585              		.size	cmd_setLocalDate, .-cmd_setLocalDate
 1586 0074 AFF30080 		.section	.text.cmd_getLocalDate,"ax",%progbits
 1586      AFF30080 
 1586      AFF30080 
 1587              		.align	2
 1588              		.p2align 4,,15
 1589              		.global	cmd_getLocalDate
 1590              		.thumb
 1591              		.thumb_func
 1592              		.type	cmd_getLocalDate, %function
 1593              	cmd_getLocalDate:
 1594              	.LFB135:
 1595              		.loc 1 397 0
 1596              		.cfi_startproc
 1597              		@ args = 0, pretend = 0, frame = 48
 1598              		@ frame_needed = 0, uses_anonymous_args = 0
 1599              	.LVL199:
 1600 0000 10B5     		push	{r4, lr}
 1601              	.LCFI18:
 1602              		.cfi_def_cfa_offset 8
 1603              		.cfi_offset 4, -8
 1604              		.cfi_offset 14, -4
 1605 0002 0446     		mov	r4, r0
 1606 0004 8CB0     		sub	sp, sp, #48
 1607              	.LCFI19:
 1608              		.cfi_def_cfa_offset 56
 1609              		.loc 1 402 0
 1610 0006 C9B9     		cbnz	r1, .L126
 1611              		.loc 1 406 0
 1612 0008 0F48     		ldr	r0, .L128
 1613              	.LVL200:
 1614 000a FFF7FEFF 		bl	rtcGetTimeUnixSec
 1615              	.LVL201:
 1616              		.loc 1 407 0
 1617 000e 0130     		adds	r0, r0, #1
 1618              	.LVL202:
 1619 0010 0FD0     		beq	.L127
 1620              		.loc 1 412 0
 1621 0012 03A9     		add	r1, sp, #12
 1622 0014 0C48     		ldr	r0, .L128
 1623              	.LVL203:
 1624 0016 FFF7FEFF 		bl	rtcGetTimeTm
 1625              	.LVL204:
 1626              		.loc 1 413 0
 1627 001a 0A21     		movs	r1, #10
 1628 001c 0B4A     		ldr	r2, .L128+4
 1629 001e 6846     		mov	r0, sp
 1630 0020 03AB     		add	r3, sp, #12
 1631 0022 FFF7FEFF 		bl	strftime
 1632              	.LVL205:
 1633              		.loc 1 414 0
 1634 0026 2046     		mov	r0, r4
 1635 0028 0949     		ldr	r1, .L128+8
 1636 002a 6A46     		mov	r2, sp
 1637 002c FFF7FEFF 		bl	chprintf
 1638              	.LVL206:
ARM GAS  /tmp/ccuTVmIG.s 			page 30


 1639 0030 07E0     		b	.L121
 1640              	.LVL207:
 1641              	.L127:
 1642              		.loc 1 408 0
 1643 0032 2046     		mov	r0, r4
 1644              	.LVL208:
 1645 0034 0749     		ldr	r1, .L128+12
 1646 0036 FFF7FEFF 		bl	chprintf
 1647              	.LVL209:
 1648              		.loc 1 409 0
 1649 003a 2046     		mov	r0, r4
 1650              	.LVL210:
 1651              	.L126:
 1652 003c 0649     		ldr	r1, .L128+16
 1653 003e FFF7FEFF 		bl	chprintf
 1654              	.LVL211:
 1655              	.L121:
 1656              		.loc 1 416 0
 1657 0042 0CB0     		add	sp, sp, #48
 1658 0044 10BD     		pop	{r4, pc}
 1659              	.L129:
 1660 0046 00BF     		.align	2
 1661              	.L128:
 1662 0048 00000000 		.word	RTCD1
 1663 004c A4040000 		.word	.LC58
 1664 0050 D4040000 		.word	.LC61
 1665 0054 B4040000 		.word	.LC60
 1666 0058 4C040000 		.word	.LC50
 1667              		.cfi_endproc
 1668              	.LFE135:
 1669              		.size	cmd_getLocalDate, .-cmd_getLocalDate
 1670 005c AFF30080 		.section	.text.cmd_setLocalTime,"ax",%progbits
 1671              		.align	2
 1672              		.p2align 4,,15
 1673              		.global	cmd_setLocalTime
 1674              		.thumb
 1675              		.thumb_func
 1676              		.type	cmd_setLocalTime, %function
 1677              	cmd_setLocalTime:
 1678              	.LFB136:
 1679              		.loc 1 418 0
 1680              		.cfi_startproc
 1681              		@ args = 0, pretend = 0, frame = 40
 1682              		@ frame_needed = 0, uses_anonymous_args = 0
 1683              	.LVL212:
 1684 0000 10B5     		push	{r4, lr}
 1685              	.LCFI20:
 1686              		.cfi_def_cfa_offset 8
 1687              		.cfi_offset 4, -8
 1688              		.cfi_offset 14, -4
 1689              		.loc 1 421 0
 1690 0002 0129     		cmp	r1, #1
 1691              		.loc 1 418 0
 1692 0004 8AB0     		sub	sp, sp, #40
 1693              	.LCFI21:
 1694              		.cfi_def_cfa_offset 48
 1695              		.loc 1 418 0
ARM GAS  /tmp/ccuTVmIG.s 			page 31


 1696 0006 0446     		mov	r4, r0
 1697              		.loc 1 421 0
 1698 0008 05D0     		beq	.L131
 1699              	.LVL213:
 1700              	.L133:
 1701              		.loc 1 422 0
 1702 000a 2046     		mov	r0, r4
 1703 000c 1549     		ldr	r1, .L140
 1704 000e FFF7FEFF 		bl	chprintf
 1705              	.LVL214:
 1706              	.L130:
 1707              		.loc 1 443 0
 1708 0012 0AB0     		add	sp, sp, #40
 1709 0014 10BD     		pop	{r4, pc}
 1710              	.LVL215:
 1711              	.L131:
 1712              		.loc 1 426 0
 1713 0016 1046     		mov	r0, r2
 1714              	.LVL216:
 1715 0018 1349     		ldr	r1, .L140+4
 1716              	.LVL217:
 1717 001a 01AA     		add	r2, sp, #4
 1718              	.LVL218:
 1719 001c FFF7FEFF 		bl	strptime
 1720              	.LVL219:
 1721 0020 0028     		cmp	r0, #0
 1722 0022 F2D0     		beq	.L133
 1723              		.loc 1 430 0
 1724 0024 1148     		ldr	r0, .L140+8
 1725 0026 FFF7FEFF 		bl	rtcGetTimeUnixSec
 1726              	.LVL220:
 1727 002a 0AAB     		add	r3, sp, #40
 1728 002c 43F8280D 		str	r0, [r3, #-40]!
 1729              	.LVL221:
 1730              		.loc 1 431 0
 1731 0030 6846     		mov	r0, sp
 1732 0032 FFF7FEFF 		bl	gmtime
 1733              	.LVL222:
 1734              		.loc 1 432 0
 1735 0036 4169     		ldr	r1, [r0, #20]
 1736              		.loc 1 433 0
 1737 0038 0269     		ldr	r2, [r0, #16]
 1738              		.loc 1 434 0
 1739 003a C368     		ldr	r3, [r0, #12]
 1740              		.loc 1 432 0
 1741 003c 0691     		str	r1, [sp, #24]
 1742              		.loc 1 436 0
 1743 003e 01A8     		add	r0, sp, #4
 1744              	.LVL223:
 1745              		.loc 1 435 0
 1746 0040 0021     		movs	r1, #0
 1747              		.loc 1 433 0
 1748 0042 0592     		str	r2, [sp, #20]
 1749              		.loc 1 434 0
 1750 0044 0493     		str	r3, [sp, #16]
 1751              		.loc 1 435 0
 1752 0046 0991     		str	r1, [sp, #36]
ARM GAS  /tmp/ccuTVmIG.s 			page 32


 1753              		.loc 1 436 0
 1754 0048 FFF7FEFF 		bl	mktime
 1755              	.LVL224:
 1756              		.loc 1 437 0
 1757 004c 421C     		adds	r2, r0, #1
 1758              		.loc 1 436 0
 1759 004e 0090     		str	r0, [sp, #0]
 1760              		.loc 1 437 0
 1761 0050 DBD0     		beq	.L133
 1762              		.loc 1 441 0
 1763 0052 0146     		mov	r1, r0
 1764 0054 0548     		ldr	r0, .L140+8
 1765 0056 FFF7FEFF 		bl	rtcSetTimeUnixSec
 1766              	.LVL225:
 1767              		.loc 1 442 0
 1768 005a 2046     		mov	r0, r4
 1769 005c 0449     		ldr	r1, .L140+12
 1770 005e FFF7FEFF 		bl	chprintf
 1771              	.LVL226:
 1772 0062 D6E7     		b	.L130
 1773              	.L141:
 1774              		.align	2
 1775              	.L140:
 1776 0064 4C040000 		.word	.LC50
 1777 0068 D8040000 		.word	.LC62
 1778 006c 00000000 		.word	RTCD1
 1779 0070 B0040000 		.word	.LC59
 1780              		.cfi_endproc
 1781              	.LFE136:
 1782              		.size	cmd_setLocalTime, .-cmd_setLocalTime
 1783 0074 AFF30080 		.section	.text.cmd_getLocalTime,"ax",%progbits
 1783      AFF30080 
 1783      AFF30080 
 1784              		.align	2
 1785              		.p2align 4,,15
 1786              		.global	cmd_getLocalTime
 1787              		.thumb
 1788              		.thumb_func
 1789              		.type	cmd_getLocalTime, %function
 1790              	cmd_getLocalTime:
 1791              	.LFB137:
 1792              		.loc 1 445 0
 1793              		.cfi_startproc
 1794              		@ args = 0, pretend = 0, frame = 48
 1795              		@ frame_needed = 0, uses_anonymous_args = 0
 1796              	.LVL227:
 1797 0000 10B5     		push	{r4, lr}
 1798              	.LCFI22:
 1799              		.cfi_def_cfa_offset 8
 1800              		.cfi_offset 4, -8
 1801              		.cfi_offset 14, -4
 1802 0002 0446     		mov	r4, r0
 1803 0004 8CB0     		sub	sp, sp, #48
 1804              	.LCFI23:
 1805              		.cfi_def_cfa_offset 56
 1806              		.loc 1 450 0
 1807 0006 21B1     		cbz	r1, .L143
ARM GAS  /tmp/ccuTVmIG.s 			page 33


 1808              		.loc 1 451 0
 1809 0008 1149     		ldr	r1, .L148
 1810              	.LVL228:
 1811 000a FFF7FEFF 		bl	chprintf
 1812              	.LVL229:
 1813              	.L142:
 1814              		.loc 1 464 0
 1815 000e 0CB0     		add	sp, sp, #48
 1816 0010 10BD     		pop	{r4, pc}
 1817              	.LVL230:
 1818              	.L143:
 1819              		.loc 1 454 0
 1820 0012 1048     		ldr	r0, .L148+4
 1821              	.LVL231:
 1822 0014 FFF7FEFF 		bl	rtcGetTimeUnixSec
 1823              	.LVL232:
 1824              		.loc 1 455 0
 1825 0018 0130     		adds	r0, r0, #1
 1826              	.LVL233:
 1827 001a 0FD0     		beq	.L147
 1828              		.loc 1 460 0
 1829 001c 03A9     		add	r1, sp, #12
 1830 001e 0D48     		ldr	r0, .L148+4
 1831              	.LVL234:
 1832 0020 FFF7FEFF 		bl	rtcGetTimeTm
 1833              	.LVL235:
 1834              		.loc 1 461 0
 1835 0024 0A21     		movs	r1, #10
 1836 0026 0C4A     		ldr	r2, .L148+8
 1837 0028 6846     		mov	r0, sp
 1838 002a 03AB     		add	r3, sp, #12
 1839 002c FFF7FEFF 		bl	strftime
 1840              	.LVL236:
 1841              		.loc 1 462 0
 1842 0030 2046     		mov	r0, r4
 1843 0032 0A49     		ldr	r1, .L148+12
 1844 0034 6A46     		mov	r2, sp
 1845 0036 FFF7FEFF 		bl	chprintf
 1846              	.LVL237:
 1847 003a E8E7     		b	.L142
 1848              	.LVL238:
 1849              	.L147:
 1850              		.loc 1 456 0
 1851 003c 2046     		mov	r0, r4
 1852              	.LVL239:
 1853 003e 0849     		ldr	r1, .L148+16
 1854 0040 FFF7FEFF 		bl	chprintf
 1855              	.LVL240:
 1856              		.loc 1 457 0
 1857 0044 2046     		mov	r0, r4
 1858 0046 0749     		ldr	r1, .L148+20
 1859 0048 FFF7FEFF 		bl	chprintf
 1860              	.LVL241:
 1861 004c DFE7     		b	.L142
 1862              	.L149:
 1863 004e 00BF     		.align	2
 1864              	.L148:
ARM GAS  /tmp/ccuTVmIG.s 			page 34


 1865 0050 E4040000 		.word	.LC63
 1866 0054 00000000 		.word	RTCD1
 1867 0058 D8040000 		.word	.LC62
 1868 005c D4040000 		.word	.LC61
 1869 0060 B4040000 		.word	.LC60
 1870 0064 4C040000 		.word	.LC50
 1871              		.cfi_endproc
 1872              	.LFE137:
 1873              		.size	cmd_getLocalTime, .-cmd_getLocalTime
 1874 0068 AFF30080 		.section	.text.cmd_getClockFormat,"ax",%progbits
 1874      AFF30080 
 1875              		.align	2
 1876              		.p2align 4,,15
 1877              		.global	cmd_getClockFormat
 1878              		.thumb
 1879              		.thumb_func
 1880              		.type	cmd_getClockFormat, %function
 1881              	cmd_getClockFormat:
 1882              	.LFB138:
 1883              		.loc 1 466 0
 1884              		.cfi_startproc
 1885              		@ args = 0, pretend = 0, frame = 0
 1886              		@ frame_needed = 0, uses_anonymous_args = 0
 1887              		@ link register save eliminated.
 1888              	.LVL242:
 1889              		.loc 1 468 0
 1890 0000 11B9     		cbnz	r1, .L152
 1891              		.loc 1 472 0
 1892 0002 0349     		ldr	r1, .L153
 1893              	.LVL243:
 1894              		.loc 1 473 0
 1895              		.loc 1 472 0
 1896 0004 FFF7FEBF 		b	chprintf
 1897              	.LVL244:
 1898              	.L152:
 1899              		.loc 1 469 0
 1900 0008 0249     		ldr	r1, .L153+4
 1901              	.LVL245:
 1902              		.loc 1 473 0
 1903              		.loc 1 469 0
 1904 000a FFF7FEBF 		b	chprintf
 1905              	.LVL246:
 1906              	.L154:
 1907 000e 00BF     		.align	2
 1908              	.L153:
 1909 0010 E8040000 		.word	.LC64
 1910 0014 4C040000 		.word	.LC50
 1911              		.cfi_endproc
 1912              	.LFE138:
 1913              		.size	cmd_getClockFormat, .-cmd_getClockFormat
 1914 0018 AFF30080 		.section	.text.cmd_getSite1Name,"ax",%progbits
 1914      AFF30080 
 1915              		.align	2
 1916              		.p2align 4,,15
 1917              		.global	cmd_getSite1Name
 1918              		.thumb
 1919              		.thumb_func
ARM GAS  /tmp/ccuTVmIG.s 			page 35


 1920              		.type	cmd_getSite1Name, %function
 1921              	cmd_getSite1Name:
 1922              	.LFB139:
 1923              		.loc 1 477 0
 1924              		.cfi_startproc
 1925              		@ args = 0, pretend = 0, frame = 0
 1926              		@ frame_needed = 0, uses_anonymous_args = 0
 1927              		@ link register save eliminated.
 1928              	.LVL247:
 1929              		.loc 1 479 0
 1930 0000 11B9     		cbnz	r1, .L157
 1931              		.loc 1 483 0
 1932 0002 0349     		ldr	r1, .L158
 1933              	.LVL248:
 1934              		.loc 1 484 0
 1935              		.loc 1 483 0
 1936 0004 FFF7FEBF 		b	chprintf
 1937              	.LVL249:
 1938              	.L157:
 1939              		.loc 1 480 0
 1940 0008 0249     		ldr	r1, .L158+4
 1941              	.LVL250:
 1942              		.loc 1 484 0
 1943              		.loc 1 480 0
 1944 000a FFF7FEBF 		b	chprintf
 1945              	.LVL251:
 1946              	.L159:
 1947 000e 00BF     		.align	2
 1948              	.L158:
 1949 0010 EC040000 		.word	.LC65
 1950 0014 4C040000 		.word	.LC50
 1951              		.cfi_endproc
 1952              	.LFE139:
 1953              		.size	cmd_getSite1Name, .-cmd_getSite1Name
 1954 0018 AFF30080 		.section	.text.cmd_setSiteLongitude,"ax",%progbits
 1954      AFF30080 
 1955              		.align	2
 1956              		.p2align 4,,15
 1957              		.global	cmd_setSiteLongitude
 1958              		.thumb
 1959              		.thumb_func
 1960              		.type	cmd_setSiteLongitude, %function
 1961              	cmd_setSiteLongitude:
 1962              	.LFB140:
 1963              		.loc 1 487 0
 1964              		.cfi_startproc
 1965              		@ args = 0, pretend = 0, frame = 8
 1966              		@ frame_needed = 0, uses_anonymous_args = 0
 1967              	.LVL252:
 1968 0000 10B5     		push	{r4, lr}
 1969              	.LCFI24:
 1970              		.cfi_def_cfa_offset 8
 1971              		.cfi_offset 4, -8
 1972              		.cfi_offset 14, -4
 1973              		.loc 1 489 0
 1974 0002 0129     		cmp	r1, #1
 1975              		.loc 1 487 0
ARM GAS  /tmp/ccuTVmIG.s 			page 36


 1976 0004 82B0     		sub	sp, sp, #8
 1977              	.LCFI25:
 1978              		.cfi_def_cfa_offset 16
 1979              		.loc 1 487 0
 1980 0006 0446     		mov	r4, r0
 1981              		.loc 1 489 0
 1982 0008 05D0     		beq	.L161
 1983              	.LVL253:
 1984              	.L163:
 1985              		.loc 1 490 0
 1986 000a 2046     		mov	r0, r4
 1987 000c 0A49     		ldr	r1, .L164
 1988 000e FFF7FEFF 		bl	chprintf
 1989              	.LVL254:
 1990              	.L160:
 1991              		.loc 1 496 0
 1992 0012 02B0     		add	sp, sp, #8
 1993 0014 10BD     		pop	{r4, pc}
 1994              	.LVL255:
 1995              	.L161:
 1996              		.loc 1 489 0 discriminator 1
 1997 0016 1046     		mov	r0, r2
 1998              	.LVL256:
 1999 0018 01A9     		add	r1, sp, #4
 2000              	.LVL257:
 2001 001a FFF7FEFF 		bl	f_scansexa
 2002              	.LVL258:
 2003 001e 0028     		cmp	r0, #0
 2004 0020 F3D1     		bne	.L163
 2005              	.LVL259:
 2006              		.loc 1 494 0
 2007 0022 0198     		ldr	r0, [sp, #4]	@ float
 2008 0024 FFF7FEFF 		bl	__aeabi_f2d
 2009              	.LVL260:
 2010 0028 044B     		ldr	r3, .L164+4
 2011 002a C3E90001 		strd	r0, [r3]
 2012              		.loc 1 495 0
 2013 002e 2046     		mov	r0, r4
 2014 0030 0349     		ldr	r1, .L164+8
 2015 0032 FFF7FEFF 		bl	chprintf
 2016              	.LVL261:
 2017 0036 ECE7     		b	.L160
 2018              	.L165:
 2019              		.align	2
 2020              	.L164:
 2021 0038 4C040000 		.word	.LC50
 2022 003c 00000000 		.word	.LANCHOR2
 2023 0040 B0040000 		.word	.LC59
 2024              		.cfi_endproc
 2025              	.LFE140:
 2026              		.size	cmd_setSiteLongitude, .-cmd_setSiteLongitude
 2027 0044 AFF30080 		.section	.text.cmd_getSiteLongitude,"ax",%progbits
 2027      AFF30080 
 2027      AFF30080 
 2028              		.align	2
 2029              		.p2align 4,,15
 2030              		.global	cmd_getSiteLongitude
ARM GAS  /tmp/ccuTVmIG.s 			page 37


 2031              		.thumb
 2032              		.thumb_func
 2033              		.type	cmd_getSiteLongitude, %function
 2034              	cmd_getSiteLongitude:
 2035              	.LFB141:
 2036              		.loc 1 498 0
 2037              		.cfi_startproc
 2038              		@ args = 0, pretend = 0, frame = 0
 2039              		@ frame_needed = 0, uses_anonymous_args = 0
 2040              		@ link register save eliminated.
 2041              	.LVL262:
 2042              		.loc 1 500 0
 2043 0000 29B9     		cbnz	r1, .L168
 2044              		.loc 1 504 0
 2045 0002 044B     		ldr	r3, .L169
 2046 0004 0449     		ldr	r1, .L169+4
 2047              	.LVL263:
 2048 0006 D3E90023 		ldrd	r2, [r3]
 2049              	.LVL264:
 2050              		.loc 1 505 0
 2051              		.loc 1 504 0
 2052 000a FFF7FEBF 		b	chprintf
 2053              	.LVL265:
 2054              	.L168:
 2055              		.loc 1 501 0
 2056 000e 0349     		ldr	r1, .L169+8
 2057              	.LVL266:
 2058              		.loc 1 505 0
 2059              		.loc 1 501 0
 2060 0010 FFF7FEBF 		b	chprintf
 2061              	.LVL267:
 2062              	.L170:
 2063              		.align	2
 2064              	.L169:
 2065 0014 00000000 		.word	.LANCHOR2
 2066 0018 F8040000 		.word	.LC66
 2067 001c 4C040000 		.word	.LC50
 2068              		.cfi_endproc
 2069              	.LFE141:
 2070              		.size	cmd_getSiteLongitude, .-cmd_getSiteLongitude
 2071              		.section	.text.cmd_setSiteLatitude,"ax",%progbits
 2072              		.align	2
 2073              		.p2align 4,,15
 2074              		.global	cmd_setSiteLatitude
 2075              		.thumb
 2076              		.thumb_func
 2077              		.type	cmd_setSiteLatitude, %function
 2078              	cmd_setSiteLatitude:
 2079              	.LFB142:
 2080              		.loc 1 507 0
 2081              		.cfi_startproc
 2082              		@ args = 0, pretend = 0, frame = 8
 2083              		@ frame_needed = 0, uses_anonymous_args = 0
 2084              	.LVL268:
 2085 0000 10B5     		push	{r4, lr}
 2086              	.LCFI26:
 2087              		.cfi_def_cfa_offset 8
ARM GAS  /tmp/ccuTVmIG.s 			page 38


 2088              		.cfi_offset 4, -8
 2089              		.cfi_offset 14, -4
 2090              		.loc 1 509 0
 2091 0002 0129     		cmp	r1, #1
 2092              		.loc 1 507 0
 2093 0004 82B0     		sub	sp, sp, #8
 2094              	.LCFI27:
 2095              		.cfi_def_cfa_offset 16
 2096              		.loc 1 507 0
 2097 0006 0446     		mov	r4, r0
 2098              		.loc 1 509 0
 2099 0008 05D0     		beq	.L172
 2100              	.LVL269:
 2101              	.L174:
 2102              		.loc 1 510 0
 2103 000a 2046     		mov	r0, r4
 2104 000c 0A49     		ldr	r1, .L175
 2105 000e FFF7FEFF 		bl	chprintf
 2106              	.LVL270:
 2107              	.L171:
 2108              		.loc 1 516 0
 2109 0012 02B0     		add	sp, sp, #8
 2110 0014 10BD     		pop	{r4, pc}
 2111              	.LVL271:
 2112              	.L172:
 2113              		.loc 1 509 0 discriminator 1
 2114 0016 1046     		mov	r0, r2
 2115              	.LVL272:
 2116 0018 01A9     		add	r1, sp, #4
 2117              	.LVL273:
 2118 001a FFF7FEFF 		bl	f_scansexa
 2119              	.LVL274:
 2120 001e 0028     		cmp	r0, #0
 2121 0020 F3D1     		bne	.L174
 2122              	.LVL275:
 2123              		.loc 1 514 0
 2124 0022 0198     		ldr	r0, [sp, #4]	@ float
 2125 0024 FFF7FEFF 		bl	__aeabi_f2d
 2126              	.LVL276:
 2127 0028 044B     		ldr	r3, .L175+4
 2128 002a C3E90201 		strd	r0, [r3, #8]
 2129              		.loc 1 515 0
 2130 002e 2046     		mov	r0, r4
 2131 0030 0349     		ldr	r1, .L175+8
 2132 0032 FFF7FEFF 		bl	chprintf
 2133              	.LVL277:
 2134 0036 ECE7     		b	.L171
 2135              	.L176:
 2136              		.align	2
 2137              	.L175:
 2138 0038 4C040000 		.word	.LC50
 2139 003c 00000000 		.word	.LANCHOR2
 2140 0040 B0040000 		.word	.LC59
 2141              		.cfi_endproc
 2142              	.LFE142:
 2143              		.size	cmd_setSiteLatitude, .-cmd_setSiteLatitude
 2144 0044 AFF30080 		.section	.text.cmd_getSiteLatitude,"ax",%progbits
ARM GAS  /tmp/ccuTVmIG.s 			page 39


 2144      AFF30080 
 2144      AFF30080 
 2145              		.align	2
 2146              		.p2align 4,,15
 2147              		.global	cmd_getSiteLatitude
 2148              		.thumb
 2149              		.thumb_func
 2150              		.type	cmd_getSiteLatitude, %function
 2151              	cmd_getSiteLatitude:
 2152              	.LFB143:
 2153              		.loc 1 518 0
 2154              		.cfi_startproc
 2155              		@ args = 0, pretend = 0, frame = 0
 2156              		@ frame_needed = 0, uses_anonymous_args = 0
 2157              		@ link register save eliminated.
 2158              	.LVL278:
 2159              		.loc 1 520 0
 2160 0000 29B9     		cbnz	r1, .L179
 2161              		.loc 1 524 0
 2162 0002 044B     		ldr	r3, .L180
 2163 0004 0449     		ldr	r1, .L180+4
 2164              	.LVL279:
 2165 0006 D3E90223 		ldrd	r2, [r3, #8]
 2166              	.LVL280:
 2167              		.loc 1 525 0
 2168              		.loc 1 524 0
 2169 000a FFF7FEBF 		b	chprintf
 2170              	.LVL281:
 2171              	.L179:
 2172              		.loc 1 521 0
 2173 000e 0349     		ldr	r1, .L180+8
 2174              	.LVL282:
 2175              		.loc 1 525 0
 2176              		.loc 1 521 0
 2177 0010 FFF7FEBF 		b	chprintf
 2178              	.LVL283:
 2179              	.L181:
 2180              		.align	2
 2181              	.L180:
 2182 0014 00000000 		.word	.LANCHOR2
 2183 0018 F8040000 		.word	.LC66
 2184 001c 4C040000 		.word	.LC50
 2185              		.cfi_endproc
 2186              	.LFE143:
 2187              		.size	cmd_getSiteLatitude, .-cmd_getSiteLatitude
 2188              		.section	.text.cmd_setTargetRA,"ax",%progbits
 2189              		.align	2
 2190              		.p2align 4,,15
 2191              		.global	cmd_setTargetRA
 2192              		.thumb
 2193              		.thumb_func
 2194              		.type	cmd_setTargetRA, %function
 2195              	cmd_setTargetRA:
 2196              	.LFB144:
 2197              		.loc 1 529 0
 2198              		.cfi_startproc
 2199              		@ args = 0, pretend = 0, frame = 8
ARM GAS  /tmp/ccuTVmIG.s 			page 40


 2200              		@ frame_needed = 0, uses_anonymous_args = 0
 2201              	.LVL284:
 2202 0000 10B5     		push	{r4, lr}
 2203              	.LCFI28:
 2204              		.cfi_def_cfa_offset 8
 2205              		.cfi_offset 4, -8
 2206              		.cfi_offset 14, -4
 2207              		.loc 1 531 0
 2208 0002 0129     		cmp	r1, #1
 2209              		.loc 1 529 0
 2210 0004 82B0     		sub	sp, sp, #8
 2211              	.LCFI29:
 2212              		.cfi_def_cfa_offset 16
 2213              		.loc 1 529 0
 2214 0006 0446     		mov	r4, r0
 2215              		.loc 1 531 0
 2216 0008 05D0     		beq	.L183
 2217              	.LVL285:
 2218              	.L185:
 2219              		.loc 1 532 0
 2220 000a 2046     		mov	r0, r4
 2221 000c 0A49     		ldr	r1, .L186
 2222 000e FFF7FEFF 		bl	chprintf
 2223              	.LVL286:
 2224              	.L182:
 2225              		.loc 1 538 0
 2226 0012 02B0     		add	sp, sp, #8
 2227 0014 10BD     		pop	{r4, pc}
 2228              	.LVL287:
 2229              	.L183:
 2230              		.loc 1 531 0 discriminator 1
 2231 0016 1046     		mov	r0, r2
 2232              	.LVL288:
 2233 0018 01A9     		add	r1, sp, #4
 2234              	.LVL289:
 2235 001a FFF7FEFF 		bl	f_scansexa
 2236              	.LVL290:
 2237 001e 0028     		cmp	r0, #0
 2238 0020 F3D1     		bne	.L185
 2239              		.loc 1 535 0
 2240 0022 2046     		mov	r0, r4
 2241 0024 0549     		ldr	r1, .L186+4
 2242 0026 FFF7FEFF 		bl	chprintf
 2243              	.LVL291:
 2244              		.loc 1 536 0
 2245 002a 019B     		ldr	r3, [sp, #4]	@ float
 2246 002c 044A     		ldr	r2, .L186+8
 2247              		.loc 1 537 0
 2248 002e 0548     		ldr	r0, .L186+12
 2249              		.loc 1 536 0
 2250 0030 1360     		str	r3, [r2, #0]	@ float
 2251              		.loc 1 537 0
 2252 0032 0360     		str	r3, [r0, #0]	@ float
 2253 0034 EDE7     		b	.L182
 2254              	.L187:
 2255 0036 00BF     		.align	2
 2256              	.L186:
ARM GAS  /tmp/ccuTVmIG.s 			page 41


 2257 0038 4C040000 		.word	.LC50
 2258 003c B0040000 		.word	.LC59
 2259 0040 00000000 		.word	.LANCHOR3
 2260 0044 00000000 		.word	.LANCHOR4
 2261              		.cfi_endproc
 2262              	.LFE144:
 2263              		.size	cmd_setTargetRA, .-cmd_setTargetRA
 2264 0048 AFF30080 		.section	.text.cmd_setTargetDEC,"ax",%progbits
 2264      AFF30080 
 2265              		.align	2
 2266              		.p2align 4,,15
 2267              		.global	cmd_setTargetDEC
 2268              		.thumb
 2269              		.thumb_func
 2270              		.type	cmd_setTargetDEC, %function
 2271              	cmd_setTargetDEC:
 2272              	.LFB145:
 2273              		.loc 1 540 0
 2274              		.cfi_startproc
 2275              		@ args = 0, pretend = 0, frame = 8
 2276              		@ frame_needed = 0, uses_anonymous_args = 0
 2277              	.LVL292:
 2278 0000 10B5     		push	{r4, lr}
 2279              	.LCFI30:
 2280              		.cfi_def_cfa_offset 8
 2281              		.cfi_offset 4, -8
 2282              		.cfi_offset 14, -4
 2283              		.loc 1 542 0
 2284 0002 0129     		cmp	r1, #1
 2285              		.loc 1 540 0
 2286 0004 82B0     		sub	sp, sp, #8
 2287              	.LCFI31:
 2288              		.cfi_def_cfa_offset 16
 2289              		.loc 1 540 0
 2290 0006 0446     		mov	r4, r0
 2291              		.loc 1 542 0
 2292 0008 05D0     		beq	.L189
 2293              	.LVL293:
 2294              	.L191:
 2295              		.loc 1 543 0
 2296 000a 2046     		mov	r0, r4
 2297 000c 0A49     		ldr	r1, .L192
 2298 000e FFF7FEFF 		bl	chprintf
 2299              	.LVL294:
 2300              	.L188:
 2301              		.loc 1 549 0
 2302 0012 02B0     		add	sp, sp, #8
 2303 0014 10BD     		pop	{r4, pc}
 2304              	.LVL295:
 2305              	.L189:
 2306              		.loc 1 542 0 discriminator 1
 2307 0016 1046     		mov	r0, r2
 2308              	.LVL296:
 2309 0018 01A9     		add	r1, sp, #4
 2310              	.LVL297:
 2311 001a FFF7FEFF 		bl	f_scansexa
 2312              	.LVL298:
ARM GAS  /tmp/ccuTVmIG.s 			page 42


 2313 001e 0028     		cmp	r0, #0
 2314 0020 F3D1     		bne	.L191
 2315              		.loc 1 546 0
 2316 0022 2046     		mov	r0, r4
 2317 0024 0549     		ldr	r1, .L192+4
 2318 0026 FFF7FEFF 		bl	chprintf
 2319              	.LVL299:
 2320              		.loc 1 547 0
 2321 002a 019B     		ldr	r3, [sp, #4]	@ float
 2322 002c 044A     		ldr	r2, .L192+8
 2323              		.loc 1 548 0
 2324 002e 0548     		ldr	r0, .L192+12
 2325              		.loc 1 547 0
 2326 0030 1360     		str	r3, [r2, #0]	@ float
 2327              		.loc 1 548 0
 2328 0032 0360     		str	r3, [r0, #0]	@ float
 2329 0034 EDE7     		b	.L188
 2330              	.L193:
 2331 0036 00BF     		.align	2
 2332              	.L192:
 2333 0038 4C040000 		.word	.LC50
 2334 003c B0040000 		.word	.LC59
 2335 0040 00000000 		.word	.LANCHOR5
 2336 0044 00000000 		.word	.LANCHOR6
 2337              		.cfi_endproc
 2338              	.LFE145:
 2339              		.size	cmd_setTargetDEC, .-cmd_setTargetDEC
 2340 0048 AFF30080 		.section	.text.cmd_getTargetRA,"ax",%progbits
 2340      AFF30080 
 2341              		.align	2
 2342              		.p2align 4,,15
 2343              		.global	cmd_getTargetRA
 2344              		.thumb
 2345              		.thumb_func
 2346              		.type	cmd_getTargetRA, %function
 2347              	cmd_getTargetRA:
 2348              	.LFB146:
 2349              		.loc 1 551 0
 2350              		.cfi_startproc
 2351              		@ args = 0, pretend = 0, frame = 24
 2352              		@ frame_needed = 0, uses_anonymous_args = 0
 2353              	.LVL300:
 2354 0000 10B5     		push	{r4, lr}
 2355              	.LCFI32:
 2356              		.cfi_def_cfa_offset 8
 2357              		.cfi_offset 4, -8
 2358              		.cfi_offset 14, -4
 2359              		.loc 1 554 0
 2360 0002 0A46     		mov	r2, r1
 2361              	.LVL301:
 2362              		.loc 1 551 0
 2363 0004 88B0     		sub	sp, sp, #32
 2364              	.LCFI33:
 2365              		.cfi_def_cfa_offset 40
 2366              		.loc 1 551 0
 2367 0006 0446     		mov	r4, r0
 2368              		.loc 1 554 0
ARM GAS  /tmp/ccuTVmIG.s 			page 43


 2369 0008 71B9     		cbnz	r1, .L197
 2370              		.loc 1 558 0
 2371 000a 094B     		ldr	r3, .L198
 2372 000c 0091     		str	r1, [sp, #0]
 2373 000e 1968     		ldr	r1, [r3, #0]	@ float
 2374              	.LVL302:
 2375 0010 03A8     		add	r0, sp, #12
 2376              	.LVL303:
 2377 0012 4FF46163 		mov	r3, #3600
 2378 0016 FFF7FEFF 		bl	fs_sexa
 2379              	.LVL304:
 2380              		.loc 1 559 0
 2381 001a 2046     		mov	r0, r4
 2382 001c 0549     		ldr	r1, .L198+4
 2383 001e 03AA     		add	r2, sp, #12
 2384 0020 FFF7FEFF 		bl	chprintf
 2385              	.LVL305:
 2386              	.L194:
 2387              		.loc 1 560 0
 2388 0024 08B0     		add	sp, sp, #32
 2389 0026 10BD     		pop	{r4, pc}
 2390              	.LVL306:
 2391              	.L197:
 2392              		.loc 1 555 0
 2393 0028 0349     		ldr	r1, .L198+8
 2394              	.LVL307:
 2395 002a FFF7FEFF 		bl	chprintf
 2396              	.LVL308:
 2397 002e F9E7     		b	.L194
 2398              	.L199:
 2399              		.align	2
 2400              	.L198:
 2401 0030 00000000 		.word	.LANCHOR3
 2402 0034 D4040000 		.word	.LC61
 2403 0038 4C040000 		.word	.LC50
 2404              		.cfi_endproc
 2405              	.LFE146:
 2406              		.size	cmd_getTargetRA, .-cmd_getTargetRA
 2407 003c AFF30080 		.section	.text.cmd_getTargetDEC,"ax",%progbits
 2408              		.align	2
 2409              		.p2align 4,,15
 2410              		.global	cmd_getTargetDEC
 2411              		.thumb
 2412              		.thumb_func
 2413              		.type	cmd_getTargetDEC, %function
 2414              	cmd_getTargetDEC:
 2415              	.LFB147:
 2416              		.loc 1 562 0
 2417              		.cfi_startproc
 2418              		@ args = 0, pretend = 0, frame = 24
 2419              		@ frame_needed = 0, uses_anonymous_args = 0
 2420              	.LVL309:
 2421 0000 10B5     		push	{r4, lr}
 2422              	.LCFI34:
 2423              		.cfi_def_cfa_offset 8
 2424              		.cfi_offset 4, -8
 2425              		.cfi_offset 14, -4
ARM GAS  /tmp/ccuTVmIG.s 			page 44


 2426              		.loc 1 565 0
 2427 0002 0A46     		mov	r2, r1
 2428              	.LVL310:
 2429              		.loc 1 562 0
 2430 0004 88B0     		sub	sp, sp, #32
 2431              	.LCFI35:
 2432              		.cfi_def_cfa_offset 40
 2433              		.loc 1 562 0
 2434 0006 0446     		mov	r4, r0
 2435              		.loc 1 565 0
 2436 0008 79B9     		cbnz	r1, .L203
 2437              		.loc 1 569 0
 2438 000a 0A4B     		ldr	r3, .L204
 2439 000c 0120     		movs	r0, #1
 2440              	.LVL311:
 2441 000e 1968     		ldr	r1, [r3, #0]	@ float
 2442              	.LVL312:
 2443 0010 0090     		str	r0, [sp, #0]
 2444 0012 4FF46163 		mov	r3, #3600
 2445 0016 03A8     		add	r0, sp, #12
 2446 0018 FFF7FEFF 		bl	fs_sexa
 2447              	.LVL313:
 2448              		.loc 1 570 0
 2449 001c 2046     		mov	r0, r4
 2450 001e 0649     		ldr	r1, .L204+4
 2451 0020 03AA     		add	r2, sp, #12
 2452 0022 FFF7FEFF 		bl	chprintf
 2453              	.LVL314:
 2454              	.L200:
 2455              		.loc 1 571 0
 2456 0026 08B0     		add	sp, sp, #32
 2457 0028 10BD     		pop	{r4, pc}
 2458              	.LVL315:
 2459              	.L203:
 2460              		.loc 1 566 0
 2461 002a 0449     		ldr	r1, .L204+8
 2462              	.LVL316:
 2463 002c FFF7FEFF 		bl	chprintf
 2464              	.LVL317:
 2465 0030 F9E7     		b	.L200
 2466              	.L205:
 2467 0032 00BF     		.align	2
 2468              	.L204:
 2469 0034 00000000 		.word	.LANCHOR5
 2470 0038 D4040000 		.word	.LC61
 2471 003c 4C040000 		.word	.LC50
 2472              		.cfi_endproc
 2473              	.LFE147:
 2474              		.size	cmd_getTargetDEC, .-cmd_getTargetDEC
 2475              		.section	.text.cmd_getTelescopeRA,"ax",%progbits
 2476              		.align	2
 2477              		.p2align 4,,15
 2478              		.global	cmd_getTelescopeRA
 2479              		.thumb
 2480              		.thumb_func
 2481              		.type	cmd_getTelescopeRA, %function
 2482              	cmd_getTelescopeRA:
ARM GAS  /tmp/ccuTVmIG.s 			page 45


 2483              	.LFB148:
 2484              		.loc 1 573 0
 2485              		.cfi_startproc
 2486              		@ args = 0, pretend = 0, frame = 24
 2487              		@ frame_needed = 0, uses_anonymous_args = 0
 2488              	.LVL318:
 2489 0000 10B5     		push	{r4, lr}
 2490              	.LCFI36:
 2491              		.cfi_def_cfa_offset 8
 2492              		.cfi_offset 4, -8
 2493              		.cfi_offset 14, -4
 2494              		.loc 1 576 0
 2495 0002 0A46     		mov	r2, r1
 2496              	.LVL319:
 2497              		.loc 1 573 0
 2498 0004 88B0     		sub	sp, sp, #32
 2499              	.LCFI37:
 2500              		.cfi_def_cfa_offset 40
 2501              		.loc 1 573 0
 2502 0006 0446     		mov	r4, r0
 2503              		.loc 1 576 0
 2504 0008 71B9     		cbnz	r1, .L209
 2505              		.loc 1 580 0
 2506 000a 094B     		ldr	r3, .L210
 2507 000c 0091     		str	r1, [sp, #0]
 2508 000e 1968     		ldr	r1, [r3, #0]	@ float
 2509              	.LVL320:
 2510 0010 03A8     		add	r0, sp, #12
 2511              	.LVL321:
 2512 0012 4FF46163 		mov	r3, #3600
 2513 0016 FFF7FEFF 		bl	fs_sexa
 2514              	.LVL322:
 2515              		.loc 1 581 0
 2516 001a 2046     		mov	r0, r4
 2517 001c 0549     		ldr	r1, .L210+4
 2518 001e 03AA     		add	r2, sp, #12
 2519 0020 FFF7FEFF 		bl	chprintf
 2520              	.LVL323:
 2521              	.L206:
 2522              		.loc 1 582 0
 2523 0024 08B0     		add	sp, sp, #32
 2524 0026 10BD     		pop	{r4, pc}
 2525              	.LVL324:
 2526              	.L209:
 2527              		.loc 1 577 0
 2528 0028 0349     		ldr	r1, .L210+8
 2529              	.LVL325:
 2530 002a FFF7FEFF 		bl	chprintf
 2531              	.LVL326:
 2532 002e F9E7     		b	.L206
 2533              	.L211:
 2534              		.align	2
 2535              	.L210:
 2536 0030 00000000 		.word	.LANCHOR4
 2537 0034 D4040000 		.word	.LC61
 2538 0038 4C040000 		.word	.LC50
 2539              		.cfi_endproc
ARM GAS  /tmp/ccuTVmIG.s 			page 46


 2540              	.LFE148:
 2541              		.size	cmd_getTelescopeRA, .-cmd_getTelescopeRA
 2542 003c AFF30080 		.section	.text.cmd_getTelescopeDEC,"ax",%progbits
 2543              		.align	2
 2544              		.p2align 4,,15
 2545              		.global	cmd_getTelescopeDEC
 2546              		.thumb
 2547              		.thumb_func
 2548              		.type	cmd_getTelescopeDEC, %function
 2549              	cmd_getTelescopeDEC:
 2550              	.LFB149:
 2551              		.loc 1 584 0
 2552              		.cfi_startproc
 2553              		@ args = 0, pretend = 0, frame = 24
 2554              		@ frame_needed = 0, uses_anonymous_args = 0
 2555              	.LVL327:
 2556 0000 10B5     		push	{r4, lr}
 2557              	.LCFI38:
 2558              		.cfi_def_cfa_offset 8
 2559              		.cfi_offset 4, -8
 2560              		.cfi_offset 14, -4
 2561              		.loc 1 587 0
 2562 0002 0A46     		mov	r2, r1
 2563              	.LVL328:
 2564              		.loc 1 584 0
 2565 0004 88B0     		sub	sp, sp, #32
 2566              	.LCFI39:
 2567              		.cfi_def_cfa_offset 40
 2568              		.loc 1 584 0
 2569 0006 0446     		mov	r4, r0
 2570              		.loc 1 587 0
 2571 0008 79B9     		cbnz	r1, .L215
 2572              		.loc 1 591 0
 2573 000a 0A4B     		ldr	r3, .L216
 2574 000c 0120     		movs	r0, #1
 2575              	.LVL329:
 2576 000e 1968     		ldr	r1, [r3, #0]	@ float
 2577              	.LVL330:
 2578 0010 0090     		str	r0, [sp, #0]
 2579 0012 4FF46163 		mov	r3, #3600
 2580 0016 03A8     		add	r0, sp, #12
 2581 0018 FFF7FEFF 		bl	fs_sexa
 2582              	.LVL331:
 2583              		.loc 1 592 0
 2584 001c 2046     		mov	r0, r4
 2585 001e 0649     		ldr	r1, .L216+4
 2586 0020 03AA     		add	r2, sp, #12
 2587 0022 FFF7FEFF 		bl	chprintf
 2588              	.LVL332:
 2589              	.L212:
 2590              		.loc 1 593 0
 2591 0026 08B0     		add	sp, sp, #32
 2592 0028 10BD     		pop	{r4, pc}
 2593              	.LVL333:
 2594              	.L215:
 2595              		.loc 1 588 0
 2596 002a 0449     		ldr	r1, .L216+8
ARM GAS  /tmp/ccuTVmIG.s 			page 47


 2597              	.LVL334:
 2598 002c FFF7FEFF 		bl	chprintf
 2599              	.LVL335:
 2600 0030 F9E7     		b	.L212
 2601              	.L217:
 2602 0032 00BF     		.align	2
 2603              	.L216:
 2604 0034 00000000 		.word	.LANCHOR6
 2605 0038 D4040000 		.word	.LC61
 2606 003c 4C040000 		.word	.LC50
 2607              		.cfi_endproc
 2608              	.LFE149:
 2609              		.size	cmd_getTelescopeDEC, .-cmd_getTelescopeDEC
 2610              		.section	.text.cmd_slew,"ax",%progbits
 2611              		.align	2
 2612              		.p2align 4,,15
 2613              		.global	cmd_slew
 2614              		.thumb
 2615              		.thumb_func
 2616              		.type	cmd_slew, %function
 2617              	cmd_slew:
 2618              	.LFB150:
 2619              		.loc 1 596 0
 2620              		.cfi_startproc
 2621              		@ args = 0, pretend = 0, frame = 0
 2622              		@ frame_needed = 0, uses_anonymous_args = 0
 2623              		@ link register save eliminated.
 2624              	.LVL336:
 2625              		.loc 1 598 0
 2626 0000 01B1     		cbz	r1, .L220
 2627 0002 7047     		bx	lr
 2628              	.L220:
 2629              		.loc 1 601 0
 2630 0004 0149     		ldr	r1, .L221
 2631              	.LVL337:
 2632              		.loc 1 602 0
 2633              		.loc 1 601 0
 2634 0006 FFF7FEBF 		b	chprintf
 2635              	.LVL338:
 2636              	.L222:
 2637 000a 00BF     		.align	2
 2638              	.L221:
 2639 000c 4C040000 		.word	.LC50
 2640              		.cfi_endproc
 2641              	.LFE150:
 2642              		.size	cmd_slew, .-cmd_slew
 2643              		.section	.text.cmd_abortMotion,"ax",%progbits
 2644              		.align	2
 2645              		.p2align 4,,15
 2646              		.global	cmd_abortMotion
 2647              		.thumb
 2648              		.thumb_func
 2649              		.type	cmd_abortMotion, %function
 2650              	cmd_abortMotion:
 2651              	.LFB151:
 2652              		.loc 1 604 0
 2653              		.cfi_startproc
ARM GAS  /tmp/ccuTVmIG.s 			page 48


 2654              		@ args = 0, pretend = 0, frame = 0
 2655              		@ frame_needed = 0, uses_anonymous_args = 0
 2656              		@ link register save eliminated.
 2657              	.LVL339:
 2658 0000 7047     		bx	lr
 2659              		.cfi_endproc
 2660              	.LFE151:
 2661              		.size	cmd_abortMotion, .-cmd_abortMotion
 2662              		.global	siteLatLon
 2663              		.global	telescopeDEC
 2664              		.global	telescopeRA
 2665              		.global	targetDEC
 2666              		.global	targetRA
 2667              		.global	mount_mode
 2668 0002 00BFAFF3 		.section	.data.mount_mode,"aw",%progbits
 2668      0080AFF3 
 2668      0080AFF3 
 2668      0080
 2669              		.align	2
 2670              		.set	.LANCHOR1,. + 0
 2671              		.type	mount_mode, %object
 2672              		.size	mount_mode, 4
 2673              	mount_mode:
 2674 0000 9C040000 		.word	.LC56
 2675              		.section	.bss.targetRA,"aw",%nobits
 2676              		.align	2
 2677              		.set	.LANCHOR3,. + 0
 2678              		.type	targetRA, %object
 2679              		.size	targetRA, 4
 2680              	targetRA:
 2681 0000 00000000 		.space	4
 2682              		.section	.bss.siteLatLon,"aw",%nobits
 2683              		.align	3
 2684              		.set	.LANCHOR2,. + 0
 2685              		.type	siteLatLon, %object
 2686              		.size	siteLatLon, 16
 2687              	siteLatLon:
 2688 0000 00000000 		.space	16
 2688      00000000 
 2688      00000000 
 2688      00000000 
 2689              		.section	.rodata.str1.4,"aMS",%progbits,1
 2690              		.align	2
 2691              	.LC0:
 2692 0000 4E4F5420 		.ascii	"NOT IMPLEMENTED YET\015\012\000"
 2692      494D504C 
 2692      454D454E 
 2692      54454420 
 2692      5945540D 
 2693 0016 0000     		.space	2
 2694              	.LC1:
 2695 0018 55736167 		.ascii	"Usage: info\015\012\000"
 2695      653A2069 
 2695      6E666F0D 
 2695      0A00
 2696 0026 0000     		.space	2
 2697              	.LC2:
ARM GAS  /tmp/ccuTVmIG.s 			page 49


 2698 0028 4B65726E 		.ascii	"Kernel:       %s\015\012\000"
 2698      656C3A20 
 2698      20202020 
 2698      20202573 
 2698      0D0A00
 2699 003b 00       		.space	1
 2700              	.LC3:
 2701 003c 322E352E 		.ascii	"2.5.2unstable\000"
 2701      32756E73 
 2701      7461626C 
 2701      6500
 2702 004a 0000     		.space	2
 2703              	.LC4:
 2704 004c 436F6D70 		.ascii	"Compiler:     %s\015\012\000"
 2704      696C6572 
 2704      3A202020 
 2704      20202573 
 2704      0D0A00
 2705 005f 00       		.space	1
 2706              	.LC5:
 2707 0060 47434320 		.ascii	"GCC 4.7.4 20130913 (release) [ARM/embedded-4_7-bran"
 2707      342E372E 
 2707      34203230 
 2707      31333039 
 2707      31332028 
 2708 0093 63682072 		.ascii	"ch revision 202601]\000"
 2708      65766973 
 2708      696F6E20 
 2708      32303236 
 2708      30315D00 
 2709 00a7 00       		.space	1
 2710              	.LC6:
 2711 00a8 41726368 		.ascii	"Architecture: %s\015\012\000"
 2711      69746563 
 2711      74757265 
 2711      3A202573 
 2711      0D0A00
 2712 00bb 00       		.space	1
 2713              	.LC7:
 2714 00bc 41524D76 		.ascii	"ARMv7-ME\000"
 2714      372D4D45 
 2714      00
 2715 00c5 000000   		.space	3
 2716              	.LC8:
 2717 00c8 436F7265 		.ascii	"Core Variant: %s\015\012\000"
 2717      20566172 
 2717      69616E74 
 2717      3A202573 
 2717      0D0A00
 2718 00db 00       		.space	1
 2719              	.LC9:
 2720 00dc 436F7274 		.ascii	"Cortex-M4\000"
 2720      65782D4D 
 2720      3400
 2721 00e6 0000     		.space	2
 2722              	.LC10:
 2723 00e8 506F7274 		.ascii	"Port Info:    %s\015\012\000"
ARM GAS  /tmp/ccuTVmIG.s 			page 50


 2723      20496E66 
 2723      6F3A2020 
 2723      20202573 
 2723      0D0A00
 2724 00fb 00       		.space	1
 2725              	.LC11:
 2726 00fc 41647661 		.ascii	"Advanced kernel mode\000"
 2726      6E636564 
 2726      206B6572 
 2726      6E656C20 
 2726      6D6F6465 
 2727 0111 000000   		.space	3
 2728              	.LC12:
 2729 0114 506C6174 		.ascii	"Platform:     %s\015\012\000"
 2729      666F726D 
 2729      3A202020 
 2729      20202573 
 2729      0D0A00
 2730 0127 00       		.space	1
 2731              	.LC13:
 2732 0128 53544D33 		.ascii	"STM32F4xx High Performance\000"
 2732      32463478 
 2732      78204869 
 2732      67682050 
 2732      6572666F 
 2733 0143 00       		.space	1
 2734              	.LC14:
 2735 0144 426F6172 		.ascii	"Board:        %s\015\012\000"
 2735      643A2020 
 2735      20202020 
 2735      20202573 
 2735      0D0A00
 2736 0157 00       		.space	1
 2737              	.LC15:
 2738 0158 53544D69 		.ascii	"STMicroelectronics STM32F4-Discovery\000"
 2738      63726F65 
 2738      6C656374 
 2738      726F6E69 
 2738      63732053 
 2739 017d 000000   		.space	3
 2740              	.LC16:
 2741 0180 4275696C 		.ascii	"Build time:   %s%s%s\015\012\000"
 2741      64207469 
 2741      6D653A20 
 2741      20202573 
 2741      25732573 
 2742 0197 00       		.space	1
 2743              	.LC17:
 2744 0198 44656320 		.ascii	"Dec 20 2013\000"
 2744      32302032 
 2744      30313300 
 2745              	.LC18:
 2746 01a4 202D2000 		.ascii	" - \000"
 2747              	.LC19:
 2748 01a8 30303A31 		.ascii	"00:15:50\000"
 2748      353A3530 
 2748      00
ARM GAS  /tmp/ccuTVmIG.s 			page 51


 2749 01b1 000000   		.space	3
 2750              	.LC20:
 2751 01b4 55736167 		.ascii	"Usage: systime\015\012\000"
 2751      653A2073 
 2751      79737469 
 2751      6D650D0A 
 2751      00
 2752 01c5 000000   		.space	3
 2753              	.LC21:
 2754 01c8 256C750D 		.ascii	"%lu\015\012\000"
 2754      0A00
 2755 01ce 0000     		.space	2
 2756              	.LC22:
 2757 01d0 6C69626E 		.ascii	"libnova UTC date %u/%u/%u %u:%u:%3.1f\012\000"
 2757      6F766120 
 2757      55544320 
 2757      64617465 
 2757      2025752F 
 2758 01f7 00       		.space	1
 2759              	.LC23:
 2760 01f8 55736167 		.ascii	"Usage: novatest\015\012\000"
 2760      653A206E 
 2760      6F766174 
 2760      6573740D 
 2760      0A00
 2761 020a 0000     		.space	2
 2762              	.LC24:
 2763 020c 414E494C 		.ascii	"ANILAM: RA %d:%d:%f  DEC %d:%d:%f\012\000"
 2763      414D3A20 
 2763      52412025 
 2763      643A2564 
 2763      3A256620 
 2764 022f 00       		.space	1
 2765              	.LC25:
 2766 0230 28416C6E 		.ascii	"(Alnilam) Equ to Horiz ALT %f\012\000"
 2766      696C616D 
 2766      29204571 
 2766      7520746F 
 2766      20486F72 
 2767 024f 00       		.space	1
 2768              	.LC26:
 2769 0250 28416C6E 		.ascii	"(Alnilam) Equ to Horiz AZ %f\012\000"
 2769      696C616D 
 2769      29204571 
 2769      7520746F 
 2769      20486F72 
 2770 026e 0000     		.space	2
 2771              	.LC27:
 2772 0270 414C5420 		.ascii	"ALT %d:%d:%f  AZ %d:%d:%f\012\000"
 2772      25643A25 
 2772      643A2566 
 2772      2020415A 
 2772      2025643A 
 2773 028b 00       		.space	1
 2774              	.LC28:
 2775 028c 28416C6E 		.ascii	"(Alnilam) Horiz to Equ RA %f\012\000"
 2775      696C616D 
ARM GAS  /tmp/ccuTVmIG.s 			page 52


 2775      2920486F 
 2775      72697A20 
 2775      746F2045 
 2776 02aa 0000     		.space	2
 2777              	.LC29:
 2778 02ac 28416C6E 		.ascii	"(Alnilam) Horiz to Equ DEC %f\012\000"
 2778      696C616D 
 2778      2920486F 
 2778      72697A20 
 2778      746F2045 
 2779 02cb 00       		.space	1
 2780              	.LC30:
 2781 02cc 52412025 		.ascii	"RA %d:%d:%f  DEC %d:%d:%f\012\000"
 2781      643A2564 
 2781      3A256620 
 2781      20444543 
 2781      2025643A 
 2782 02e7 00       		.space	1
 2783              	.LC31:
 2784 02e8 55736167 		.ascii	"Usage: mem\015\012\000"
 2784      653A206D 
 2784      656D0D0A 
 2784      00
 2785 02f5 000000   		.space	3
 2786              	.LC32:
 2787 02f8 636F7265 		.ascii	"core free memory : %u bytes\015\012\000"
 2787      20667265 
 2787      65206D65 
 2787      6D6F7279 
 2787      203A2025 
 2788 0316 0000     		.space	2
 2789              	.LC33:
 2790 0318 68656170 		.ascii	"heap fragments   : %u\015\012\000"
 2790      20667261 
 2790      676D656E 
 2790      74732020 
 2790      203A2025 
 2791              	.LC34:
 2792 0330 68656170 		.ascii	"heap free total  : %u bytes\015\012\000"
 2792      20667265 
 2792      6520746F 
 2792      74616C20 
 2792      203A2025 
 2793 034e 0000     		.space	2
 2794              	.LC35:
 2795 0350 55736167 		.ascii	"Usage: threads\015\012\000"
 2795      653A2074 
 2795      68726561 
 2795      64730D0A 
 2795      00
 2796 0361 000000   		.space	3
 2797              	.LC36:
 2798 0364 20202020 		.ascii	"    addr    stack prio refs     state time        N"
 2798      61646472 
 2798      20202020 
 2798      73746163 
 2798      6B207072 
ARM GAS  /tmp/ccuTVmIG.s 			page 53


 2799 0397 616D650D 		.ascii	"ame\015\012\000"
 2799      0A00
 2800 039d 000000   		.space	3
 2801              	.LC37:
 2802 03a0 252E386C 		.ascii	"%.8lx %.8lx %4lu %4lu %9s %lu        %s\015\012\000"
 2802      7820252E 
 2802      386C7820 
 2802      25346C75 
 2802      2025346C 
 2803 03ca 0000     		.space	2
 2804              	.LC38:
 2805 03cc 2566252A 		.ascii	"%f%*[^0-9]%f%*[^0-9]%f\000"
 2805      5B5E302D 
 2805      395D2566 
 2805      252A5B5E 
 2805      302D395D 
 2806 03e3 00       		.space	1
 2807              	.LC39:
 2808 03e4 2566252A 		.ascii	"%f%*[^0-9]%f\000"
 2808      5B5E302D 
 2808      395D2566 
 2808      00
 2809 03f1 000000   		.space	3
 2810              	.LC40:
 2811 03f4 252A732D 		.ascii	"%*s-0\000"
 2811      3000
 2812 03fa 0000     		.space	2
 2813              	.LC41:
 2814 03fc 00       		.ascii	"\000"
 2815 03fd 000000   		.space	3
 2816              	.LC42:
 2817 0400 252A6400 		.ascii	"%*d\000"
 2818              	.LC43:
 2819 0404 2A00     		.ascii	"*\000"
 2820 0406 0000     		.space	2
 2821              	.LC44:
 2822 0408 3A00     		.ascii	":\000"
 2823 040a 0000     		.space	2
 2824              	.LC45:
 2825 040c 25303264 		.ascii	"%02d\000"
 2825      00
 2826 0411 000000   		.space	3
 2827              	.LC46:
 2828 0414 25303264 		.ascii	"%02d.%1d\000"
 2828      2E253164 
 2828      00
 2829 041d 000000   		.space	3
 2830              	.LC47:
 2831 0420 25303264 		.ascii	"%02d:%02d\000"
 2831      3A253032 
 2831      6400
 2832 042a 0000     		.space	2
 2833              	.LC48:
 2834 042c 25303264 		.ascii	"%02d:%02d.%1d\000"
 2834      3A253032 
 2834      642E2531 
 2834      6400
ARM GAS  /tmp/ccuTVmIG.s 			page 54


 2835 043a 0000     		.space	2
 2836              	.LC49:
 2837 043c 25303264 		.ascii	"%02d:%02d.%02d\000"
 2837      3A253032 
 2837      642E2530 
 2837      326400
 2838 044b 00       		.space	1
 2839              	.LC50:
 2840 044c 3000     		.ascii	"0\000"
 2841 044e 0000     		.space	2
 2842              	.LC51:
 2843 0450 30312F30 		.ascii	"01/07/13\012\000"
 2843      372F3133 
 2843      0A00
 2844 045a 0000     		.space	2
 2845              	.LC52:
 2846 045c 31323A31 		.ascii	"12:16:00\012\000"
 2846      363A3030 
 2846      0A00
 2847 0466 0000     		.space	2
 2848              	.LC53:
 2849 0468 302E310A 		.ascii	"0.1\012\000"
 2849      00
 2850 046d 000000   		.space	3
 2851              	.LC54:
 2852 0470 41414D20 		.ascii	"AAM radioantena\012\000"
 2852      72616469 
 2852      6F616E74 
 2852      656E610A 
 2852      00
 2853 0481 000000   		.space	3
 2854              	.LC55:
 2855 0484 4C583230 		.ascii	"LX200 Clone. Ver 0.1\012\000"
 2855      3020436C 
 2855      6F6E652E 
 2855      20566572 
 2855      20302E31 
 2856 049a 0000     		.space	2
 2857              	.LC56:
 2858 049c 5000     		.ascii	"P\000"
 2859 049e 0000     		.space	2
 2860              	.LC57:
 2861 04a0 25730A00 		.ascii	"%s\012\000"
 2862              	.LC58:
 2863 04a4 256D2F25 		.ascii	"%m/%d/%y\000"
 2863      642F2579 
 2863      00
 2864 04ad 000000   		.space	3
 2865              	.LC59:
 2866 04b0 3100     		.ascii	"1\000"
 2867 04b2 0000     		.space	2
 2868              	.LC60:
 2869 04b4 696E636F 		.ascii	"incorrect time in RTC cell\015\012\000"
 2869      72726563 
 2869      74207469 
 2869      6D652069 
 2869      6E205254 
ARM GAS  /tmp/ccuTVmIG.s 			page 55


 2870 04d1 000000   		.space	3
 2871              	.LC61:
 2872 04d4 25732300 		.ascii	"%s#\000"
 2873              	.LC62:
 2874 04d8 25483A25 		.ascii	"%H:%M:%S\000"
 2874      4D3A2553 
 2874      00
 2875 04e1 000000   		.space	3
 2876              	.LC63:
 2877 04e4 300A00   		.ascii	"0\012\000"
 2878 04e7 00       		.space	1
 2879              	.LC64:
 2880 04e8 32342300 		.ascii	"24#\000"
 2881              	.LC65:
 2882 04ec 426F6E69 		.ascii	"Bonilla#\000"
 2882      6C6C6123 
 2882      00
 2883 04f5 000000   		.space	3
 2884              	.LC66:
 2885 04f8 25662300 		.ascii	"%f#\000"
 2886              	.LC67:
 2887 04fc 52454144 		.ascii	"READY\000"
 2887      5900
 2888 0502 0000     		.space	2
 2889              	.LC68:
 2890 0504 43555252 		.ascii	"CURRENT\000"
 2890      454E5400 
 2891              	.LC69:
 2892 050c 53555350 		.ascii	"SUSPENDED\000"
 2892      454E4445 
 2892      4400
 2893 0516 0000     		.space	2
 2894              	.LC70:
 2895 0518 57545345 		.ascii	"WTSEM\000"
 2895      4D00
 2896 051e 0000     		.space	2
 2897              	.LC71:
 2898 0520 57544D54 		.ascii	"WTMTX\000"
 2898      5800
 2899 0526 0000     		.space	2
 2900              	.LC72:
 2901 0528 5754434F 		.ascii	"WTCOND\000"
 2901      4E4400
 2902 052f 00       		.space	1
 2903              	.LC73:
 2904 0530 534C4545 		.ascii	"SLEEPING\000"
 2904      50494E47 
 2904      00
 2905 0539 000000   		.space	3
 2906              	.LC74:
 2907 053c 57544558 		.ascii	"WTEXIT\000"
 2907      495400
 2908 0543 00       		.space	1
 2909              	.LC75:
 2910 0544 57544F52 		.ascii	"WTOREVT\000"
 2910      45565400 
 2911              	.LC76:
ARM GAS  /tmp/ccuTVmIG.s 			page 56


 2912 054c 5754414E 		.ascii	"WTANDEVT\000"
 2912      44455654 
 2912      00
 2913 0555 000000   		.space	3
 2914              	.LC77:
 2915 0558 534E444D 		.ascii	"SNDMSGQ\000"
 2915      53475100 
 2916              	.LC78:
 2917 0560 534E444D 		.ascii	"SNDMSG\000"
 2917      534700
 2918 0567 00       		.space	1
 2919              	.LC79:
 2920 0568 57544D53 		.ascii	"WTMSG\000"
 2920      4700
 2921 056e 0000     		.space	2
 2922              	.LC80:
 2923 0570 57545155 		.ascii	"WTQUEUE\000"
 2923      45554500 
 2924              	.LC81:
 2925 0578 46494E41 		.ascii	"FINAL\000"
 2925      4C00
 2926 057e 0000     		.section	.bss.telescopeDEC,"aw",%nobits
 2927              		.align	2
 2928              		.set	.LANCHOR6,. + 0
 2929              		.type	telescopeDEC, %object
 2930              		.size	telescopeDEC, 4
 2931              	telescopeDEC:
 2932 0000 00000000 		.space	4
 2933              		.section	.rodata.states.9544,"a",%progbits
 2934              		.align	2
 2935              		.set	.LANCHOR0,. + 0
 2936              		.type	states.9544, %object
 2937              		.size	states.9544, 60
 2938              	states.9544:
 2939 0000 FC040000 		.word	.LC67
 2940 0004 04050000 		.word	.LC68
 2941 0008 0C050000 		.word	.LC69
 2942 000c 18050000 		.word	.LC70
 2943 0010 20050000 		.word	.LC71
 2944 0014 28050000 		.word	.LC72
 2945 0018 30050000 		.word	.LC73
 2946 001c 3C050000 		.word	.LC74
 2947 0020 44050000 		.word	.LC75
 2948 0024 4C050000 		.word	.LC76
 2949 0028 58050000 		.word	.LC77
 2950 002c 60050000 		.word	.LC78
 2951 0030 68050000 		.word	.LC79
 2952 0034 70050000 		.word	.LC80
 2953 0038 78050000 		.word	.LC81
 2954              		.section	.bss.telescopeRA,"aw",%nobits
 2955              		.align	2
 2956              		.set	.LANCHOR4,. + 0
 2957              		.type	telescopeRA, %object
 2958              		.size	telescopeRA, 4
 2959              	telescopeRA:
 2960 0000 00000000 		.space	4
 2961              		.section	.bss.targetDEC,"aw",%nobits
ARM GAS  /tmp/ccuTVmIG.s 			page 57


 2962              		.align	2
 2963              		.set	.LANCHOR5,. + 0
 2964              		.type	targetDEC, %object
 2965              		.size	targetDEC, 4
 2966              	targetDEC:
 2967 0000 00000000 		.space	4
 2968              		.text
 2969              	.Letext0:
 2970              		.file 2 "/usr/bin/../lib/gcc/arm-none-eabi/4.7.4/include/stddef.h"
 2971              		.file 3 "/usr/bin/../lib/gcc/arm-none-eabi/4.7.4/../../../../arm-none-eabi/include/stdint.h"
 2972              		.file 4 "../../os/ports/GCC/ARMCMx/chtypes.h"
 2973              		.file 5 "../../os/kernel/include/chlists.h"
 2974              		.file 6 "../../os/kernel/include/chthreads.h"
 2975              		.file 7 "../../os/ports/GCC/ARMCMx/chcore_v7m.h"
 2976              		.file 8 "../../os/kernel/include/chvt.h"
 2977              		.file 9 "../../os/kernel/include/chmtx.h"
 2978              		.file 10 "../../os/kernel/include/chmemcore.h"
 2979              		.file 11 "../../os/kernel/include/chheap.h"
 2980              		.file 12 "../../os/kernel/include/chstreams.h"
 2981              		.file 13 "../../os/hal/platforms/STM32F4xx/stm32f4xx.h"
 2982              		.file 14 "../../os/hal/include/rtc.h"
 2983              		.file 15 "../../os/hal/platforms/STM32/RTCv2/rtc_lld.h"
 2984              		.file 16 "/usr/bin/../lib/gcc/arm-none-eabi/4.7.4/../../../../arm-none-eabi/include/sys/types.h"
 2985              		.file 17 "/usr/bin/../lib/gcc/arm-none-eabi/4.7.4/../../../../arm-none-eabi/include/time.h"
 2986              		.file 18 "lx200Shell.h"
 2987              		.file 19 "./libnova/src/libnova/ln_types.h"
 2988              		.file 20 "lx200ShellCMD.h"
 2989              		.file 21 "../../os/ports/common/ARMCMx/CMSIS/include/core_cm4.h"
 2990              		.file 22 "../../os/various/chprintf.h"
 2991              		.file 23 "../../os/various/chrtclib.h"
 2992              		.file 24 "./libnova/src/libnova/julian_day.h"
 2993              		.file 25 "./libnova/src/libnova/utility.h"
 2994              		.file 26 "./libnova/src/libnova/transform.h"
 2995              		.file 27 "../../os/kernel/include/chregistry.h"
 2996              		.file 28 "/usr/bin/../lib/gcc/arm-none-eabi/4.7.4/../../../../arm-none-eabi/include/string.h"
 2997              		.file 29 "/usr/bin/../lib/gcc/arm-none-eabi/4.7.4/../../../../arm-none-eabi/include/stdio.h"