ARM GAS  /tmp/cciqiTkw.s 			page 1


   1              		.syntax unified
   2              		.cpu cortex-m4
   3              		.fpu softvfp
   4              		.eabi_attribute 20, 1
   5              		.eabi_attribute 21, 1
   6              		.eabi_attribute 23, 3
   7              		.eabi_attribute 24, 1
   8              		.eabi_attribute 25, 1
   9              		.eabi_attribute 26, 1
  10              		.eabi_attribute 30, 2
  11              		.eabi_attribute 34, 1
  12              		.eabi_attribute 18, 4
  13              		.thumb
  14              		.file	"main.c"
  15              		.text
  16              	.Ltext0:
  17              		.cfi_sections	.debug_frame
  18              		.section	.text.Thread1,"ax",%progbits
  19              		.align	2
  20              		.p2align 4,,15
  21              		.thumb
  22              		.thumb_func
  23              		.type	Thread1, %function
  24              	Thread1:
  25              	.LFB118:
  26              		.file 1 "main.c"
  27              		.loc 1 91 0
  28              		.cfi_startproc
  29              		@ args = 0, pretend = 0, frame = 0
  30              		@ frame_needed = 0, uses_anonymous_args = 0
  31              	.LVL0:
  32 0000 2DE9F84F 		push	{r3, r4, r5, r6, r7, r8, r9, sl, fp, lr}
  33              	.LCFI0:
  34              		.cfi_def_cfa_offset 40
  35              		.cfi_offset 3, -40
  36              		.cfi_offset 4, -36
  37              		.cfi_offset 5, -32
  38              		.cfi_offset 6, -28
  39              		.cfi_offset 7, -24
  40              		.cfi_offset 8, -20
  41              		.cfi_offset 9, -16
  42              		.cfi_offset 10, -12
  43              		.cfi_offset 11, -8
  44              		.cfi_offset 14, -4
  45              		.loc 1 96 0
  46 0004 634B     		ldr	r3, .L12
  47 0006 644A     		ldr	r2, .L12+4
  48 0008 9969     		ldr	r1, [r3, #24]
  49              		.loc 1 99 0
  50 000a 6448     		ldr	r0, .L12+8
  51              	.LVL1:
  52              		.loc 1 96 0
  53 000c 8A61     		str	r2, [r1, #24]
  54              		.loc 1 99 0
  55 000e 2021     		movs	r1, #32
  56 0010 4322     		movs	r2, #67
  57 0012 FFF7FEFF 		bl	lis302dlWriteRegister
ARM GAS  /tmp/cciqiTkw.s 			page 2


  58              	.LVL2:
  59              		.loc 1 100 0
  60 0016 6148     		ldr	r0, .L12+8
  61 0018 614D     		ldr	r5, .L12+12
  62 001a 624C     		ldr	r4, .L12+16
  63 001c 624E     		ldr	r6, .L12+20
  64 001e 2121     		movs	r1, #33
  65 0020 0022     		movs	r2, #0
  66 0022 FFF7FEFF 		bl	lis302dlWriteRegister
  67              	.LVL3:
  68              		.loc 1 101 0
  69 0026 5D48     		ldr	r0, .L12+8
  70 0028 2221     		movs	r1, #34
  71 002a 0022     		movs	r2, #0
  72 002c FFF7FEFF 		bl	lis302dlWriteRegister
  73              	.LVL4:
  74              		.loc 1 104 0
  75 0030 5E48     		ldr	r0, .L12+24
  76 0032 C768     		ldr	r7, [r0, #12]
  77              	.LVL5:
  78 0034 1FE0     		b	.L9
  79              	.LVL6:
  80              	.L5:
  81              	.LBB2:
  82              		.loc 1 144 0
  83 0036 0221     		movs	r1, #2
  84 0038 5D48     		ldr	r0, .L12+28
  85              	.LVL7:
  86 003a 92B2     		uxth	r2, r2
  87              	.LVL8:
  88 003c FFF7FEFF 		bl	pwmEnableChannel
  89              	.LVL9:
  90              		.loc 1 145 0
  91 0040 0021     		movs	r1, #0
  92 0042 5B48     		ldr	r0, .L12+28
  93 0044 0A46     		mov	r2, r1
  94 0046 FFF7FEFF 		bl	pwmEnableChannel
  95              	.LVL10:
  96              		.loc 1 148 0
  97 004a BBF1000F 		cmp	fp, #0
  98 004e C0F29480 		blt	.L11
  99              	.L7:
 100              		.loc 1 153 0
 101 0052 5748     		ldr	r0, .L12+28
 102 0054 0321     		movs	r1, #3
 103 0056 1FFA8BF2 		uxth	r2, fp
 104 005a FFF7FEFF 		bl	pwmEnableChannel
 105              	.LVL11:
 106              		.loc 1 154 0
 107 005e 5448     		ldr	r0, .L12+28
 108 0060 0121     		movs	r1, #1
 109 0062 0022     		movs	r2, #0
 110 0064 FFF7FEFF 		bl	pwmEnableChannel
 111              	.LVL12:
 112              	.L8:
 113              	.LBB3:
 114              		.loc 1 156 0
ARM GAS  /tmp/cciqiTkw.s 			page 3


 115 0068 0023     		movs	r3, #0
 116              	.LVL13:
 117              	@ 156 "main.c" 1
 118 006a 83F31188 		msr     BASEPRI, r3
 119              	@ 0 "" 2
 120              	.LVL14:
 121              		.thumb
 122              	.LBE3:
 123              		.loc 1 158 0
 124 006e FA37     		adds	r7, r7, #250
 125              	.LVL15:
 126 0070 3846     		mov	r0, r7
 127 0072 FFF7FEFF 		bl	chThdSleepUntil
 128              	.LVL16:
 129              	.L9:
 130              		.loc 1 111 0
 131 0076 A978     		ldrb	r1, [r5, #2]	@ zero_extendqisi2
 132              		.loc 1 113 0
 133 0078 96F801C0 		ldrb	ip, [r6, #1]	@ zero_extendqisi2
 134              		.loc 1 111 0
 135 007c 95F800E0 		ldrb	lr, [r5, #0]	@ zero_extendqisi2
 136              		.loc 1 112 0
 137 0080 2278     		ldrb	r2, [r4, #0]	@ zero_extendqisi2
 138              		.loc 1 113 0
 139 0082 3378     		ldrb	r3, [r6, #0]	@ zero_extendqisi2
 140              		.loc 1 112 0
 141 0084 94F802B0 		ldrb	fp, [r4, #2]	@ zero_extendqisi2
 142              		.loc 1 113 0
 143 0088 96F802A0 		ldrb	sl, [r6, #2]	@ zero_extendqisi2
 144              		.loc 1 111 0
 145 008c 95F80190 		ldrb	r9, [r5, #1]	@ zero_extendqisi2
 146              		.loc 1 112 0
 147 0090 94F80180 		ldrb	r8, [r4, #1]	@ zero_extendqisi2
 148              		.loc 1 111 0
 149 0094 E970     		strb	r1, [r5, #3]
 150              		.loc 1 117 0
 151 0096 4148     		ldr	r0, .L12+8
 152              		.loc 1 113 0
 153 0098 86F802C0 		strb	ip, [r6, #2]
 154              		.loc 1 117 0
 155 009c 2921     		movs	r1, #41
 156              		.loc 1 111 0
 157 009e 85F801E0 		strb	lr, [r5, #1]
 158              		.loc 1 112 0
 159 00a2 6270     		strb	r2, [r4, #1]
 160              		.loc 1 113 0
 161 00a4 7370     		strb	r3, [r6, #1]
 162              		.loc 1 112 0
 163 00a6 84F803B0 		strb	fp, [r4, #3]
 164              		.loc 1 113 0
 165 00aa 86F803A0 		strb	sl, [r6, #3]
 166              	.LVL17:
 167              		.loc 1 111 0
 168 00ae 85F80290 		strb	r9, [r5, #2]
 169              		.loc 1 112 0
 170 00b2 84F80280 		strb	r8, [r4, #2]
 171              		.loc 1 117 0
ARM GAS  /tmp/cciqiTkw.s 			page 4


 172 00b6 FFF7FEFF 		bl	lis302dlReadRegister
 173              	.LVL18:
 174              		.loc 1 118 0
 175 00ba 2B21     		movs	r1, #43
 176              		.loc 1 117 0
 177 00bc 2870     		strb	r0, [r5, #0]
 178              		.loc 1 118 0
 179 00be 3748     		ldr	r0, .L12+8
 180 00c0 FFF7FEFF 		bl	lis302dlReadRegister
 181              	.LVL19:
 182              		.loc 1 119 0
 183 00c4 2D21     		movs	r1, #45
 184              		.loc 1 118 0
 185 00c6 2070     		strb	r0, [r4, #0]
 186              		.loc 1 119 0
 187 00c8 3448     		ldr	r0, .L12+8
 188 00ca FFF7FEFF 		bl	lis302dlReadRegister
 189              	.LVL20:
 190              		.loc 1 123 0
 191 00ce 95F900B0 		ldrsb	fp, [r5, #0]
 192 00d2 95F90110 		ldrsb	r1, [r5, #1]
 193              		.loc 1 124 0
 194 00d6 95F90220 		ldrsb	r2, [r5, #2]
 195 00da 95F90330 		ldrsb	r3, [r5, #3]
 196              		.loc 1 125 0
 197 00de 94F900C0 		ldrsb	ip, [r4, #0]
 198              		.loc 1 128 0
 199 00e2 96F902E0 		ldrsb	lr, [r6, #2]
 200              		.loc 1 123 0
 201 00e6 0BEB010A 		add	sl, fp, r1
 202 00ea 0AEB0209 		add	r9, sl, r2
 203              		.loc 1 125 0
 204 00ee 94F90120 		ldrsb	r2, [r4, #1]
 205              		.loc 1 126 0
 206 00f2 94F90310 		ldrsb	r1, [r4, #3]
 207              		.loc 1 123 0
 208 00f6 19EB0308 		adds	r8, r9, r3
 209              		.loc 1 126 0
 210 00fa 94F90230 		ldrsb	r3, [r4, #2]
 211              		.loc 1 125 0
 212 00fe 6244     		add	r2, ip, r2
 213 0100 1344     		add	r3, r2, r3
 214              		.loc 1 123 0
 215 0102 48BF     		it	mi
 216 0104 08F10308 		addmi	r8, r8, #3
 217              		.loc 1 125 0
 218 0108 5A18     		adds	r2, r3, r1
 219              		.loc 1 127 0
 220 010a 96F90110 		ldrsb	r1, [r6, #1]
 221              		.loc 1 128 0
 222 010e 96F90330 		ldrsb	r3, [r6, #3]
 223              		.loc 1 119 0
 224 0112 C0B2     		uxtb	r0, r0
 225 0114 3070     		strb	r0, [r6, #0]
 226              		.loc 1 127 0
 227 0116 41FA80F0 		sxtab	r0, r1, r0
 228 011a 00EB0E01 		add	r1, r0, lr
ARM GAS  /tmp/cciqiTkw.s 			page 5


 229              		.loc 1 125 0
 230 011e 48BF     		it	mi
 231 0120 0332     		addmi	r2, r2, #3
 232 0122 9210     		asrs	r2, r2, #2
 233              		.loc 1 127 0
 234 0124 CB18     		adds	r3, r1, r3
 235 0126 48BF     		it	mi
 236 0128 0333     		addmi	r3, r3, #3
 237 012a 9810     		asrs	r0, r3, #2
 238              		.loc 1 123 0
 239 012c 4FEAA80B 		asr	fp, r8, #2
 240              	.LVL21:
 241              	.LBB4:
 242              		.loc 1 131 0
 243 0130 2023     		movs	r3, #32
 244              	.LVL22:
 245              	@ 131 "main.c" 1
 246 0132 83F31188 		msr     BASEPRI, r3
 247              	@ 0 "" 2
 248              	.LVL23:
 249              		.thumb
 250              	.LBE4:
 251              		.loc 1 132 0
 252 0136 40F20001 		movw	r1, #:lower16:.LANCHOR3
 253 013a C0F20001 		movt	r1, #:upper16:.LANCHOR3
 254              		.loc 1 133 0
 255 013e 40F20003 		movw	r3, #:lower16:.LANCHOR4
 256              	.LVL24:
 257              		.loc 1 132 0
 258 0142 81F800B0 		strb	fp, [r1, #0]
 259              		.loc 1 134 0
 260 0146 40F20001 		movw	r1, #:lower16:.LANCHOR5
 261              		.loc 1 133 0
 262 014a C0F20003 		movt	r3, #:upper16:.LANCHOR4
 263              		.loc 1 134 0
 264 014e C0F20001 		movt	r1, #:upper16:.LANCHOR5
 265              		.loc 1 139 0
 266 0152 002A     		cmp	r2, #0
 267              		.loc 1 133 0
 268 0154 1A70     		strb	r2, [r3, #0]
 269              		.loc 1 134 0
 270 0156 0870     		strb	r0, [r1, #0]
 271              		.loc 1 139 0
 272 0158 BFF66DAF 		bge	.L5
 273              		.loc 1 140 0
 274 015c 5242     		negs	r2, r2
 275              	.LVL25:
 276 015e 0021     		movs	r1, #0
 277 0160 92B2     		uxth	r2, r2
 278              	.LVL26:
 279 0162 1348     		ldr	r0, .L12+28
 280              	.LVL27:
 281 0164 FFF7FEFF 		bl	pwmEnableChannel
 282              	.LVL28:
 283              		.loc 1 141 0
 284 0168 0221     		movs	r1, #2
 285 016a 0022     		movs	r2, #0
ARM GAS  /tmp/cciqiTkw.s 			page 6


 286 016c 1048     		ldr	r0, .L12+28
 287 016e FFF7FEFF 		bl	pwmEnableChannel
 288              	.LVL29:
 289              		.loc 1 148 0
 290 0172 BBF1000F 		cmp	fp, #0
 291 0176 BFF66CAF 		bge	.L7
 292              	.L11:
 293              		.loc 1 149 0
 294 017a CBF10000 		rsb	r0, fp, #0
 295 017e 82B2     		uxth	r2, r0
 296 0180 0121     		movs	r1, #1
 297 0182 0B48     		ldr	r0, .L12+28
 298 0184 FFF7FEFF 		bl	pwmEnableChannel
 299              	.LVL30:
 300              		.loc 1 150 0
 301 0188 0948     		ldr	r0, .L12+28
 302 018a 0321     		movs	r1, #3
 303 018c 0022     		movs	r2, #0
 304 018e FFF7FEFF 		bl	pwmEnableChannel
 305              	.LVL31:
 306 0192 69E7     		b	.L8
 307              	.L13:
 308              		.align	2
 309              	.L12:
 310 0194 00000000 		.word	rlist
 311 0198 00000000 		.word	.LC0
 312 019c 00000000 		.word	SPID1
 313 01a0 00000000 		.word	.LANCHOR0
 314 01a4 00000000 		.word	.LANCHOR1
 315 01a8 00000000 		.word	.LANCHOR2
 316 01ac 00000000 		.word	vtlist
 317 01b0 00000000 		.word	PWMD4
 318              	.LBE2:
 319              		.cfi_endproc
 320              	.LFE118:
 321              		.size	Thread1, .-Thread1
 322 01b4 AFF30080 		.section	.text.startup.main,"ax",%progbits
 322      AFF30080 
 322      AFF30080 
 323              		.align	2
 324              		.p2align 4,,15
 325              		.global	main
 326              		.thumb
 327              		.thumb_func
 328              		.type	main, %function
 329              	main:
 330              	.LFB119:
 331              		.loc 1 182 0
 332              		.cfi_startproc
 333              		@ args = 0, pretend = 0, frame = 0
 334              		@ frame_needed = 0, uses_anonymous_args = 0
 335              	.LVL32:
 336 0000 30B5     		push	{r4, r5, lr}
 337              	.LCFI1:
 338              		.cfi_def_cfa_offset 12
 339              		.cfi_offset 4, -12
 340              		.cfi_offset 5, -8
ARM GAS  /tmp/cciqiTkw.s 			page 7


 341              		.cfi_offset 14, -4
 342 0002 474D     		ldr	r5, .L20
 343              		.loc 1 204 0
 344 0004 474C     		ldr	r4, .L20+4
 345              		.loc 1 182 0
 346 0006 83B0     		sub	sp, sp, #12
 347              	.LCFI2:
 348              		.cfi_def_cfa_offset 24
 349              		.loc 1 192 0
 350 0008 FFF7FEFF 		bl	halInit
 351              	.LVL33:
 352              		.loc 1 193 0
 353 000c FFF7FEFF 		bl	chSysInit
 354              	.LVL34:
 355              		.loc 1 198 0
 356 0010 FFF7FEFF 		bl	lx200ShellInit
 357              	.LVL35:
 358              		.loc 1 203 0
 359 0014 2846     		mov	r0, r5
 360 0016 FFF7FEFF 		bl	sduObjectInit
 361              	.LVL36:
 362              		.loc 1 204 0
 363 001a 2146     		mov	r1, r4
 364 001c 2846     		mov	r0, r5
 365 001e FFF7FEFF 		bl	sduStart
 366              	.LVL37:
 367              		.loc 1 211 0
 368 0022 2368     		ldr	r3, [r4, #0]
 369 0024 D96B     		ldr	r1, [r3, #60]
 370 0026 8A6B     		ldr	r2, [r1, #56]
 371 0028 22F40023 		bic	r3, r2, #524288
 372 002c 8B63     		str	r3, [r1, #56]
 373              		.loc 1 212 0
 374 002e 4FF47A70 		mov	r0, #1000
 375 0032 FFF7FEFF 		bl	chThdSleep
 376              	.LVL38:
 377              		.loc 1 213 0
 378 0036 2068     		ldr	r0, [r4, #0]
 379 0038 3B49     		ldr	r1, .L20+8
 380 003a FFF7FEFF 		bl	usbStart
 381              	.LVL39:
 382              		.loc 1 214 0
 383 003e 2468     		ldr	r4, [r4, #0]
 384              		.loc 1 220 0
 385 0040 3A48     		ldr	r0, .L20+12
 386              		.loc 1 214 0
 387 0042 E36B     		ldr	r3, [r4, #60]
 388 0044 996B     		ldr	r1, [r3, #56]
 389 0046 41F40022 		orr	r2, r1, #524288
 390 004a 9A63     		str	r2, [r3, #56]
 391              		.loc 1 220 0
 392 004c 0021     		movs	r1, #0
 393 004e FFF7FEFF 		bl	sdStart
 394              	.LVL40:
 395              		.loc 1 221 0
 396 0052 0020     		movs	r0, #0
 397 0054 C4F20200 		movt	r0, 16386
ARM GAS  /tmp/cciqiTkw.s 			page 8


 398 0058 0421     		movs	r1, #4
 399 005a 40F28232 		movw	r2, #898
 400 005e FFF7FEFF 		bl	_pal_lld_setgroupmode
 401              	.LVL41:
 402              		.loc 1 222 0
 403 0062 0020     		movs	r0, #0
 404 0064 40F28232 		movw	r2, #898
 405 0068 C4F20200 		movt	r0, 16386
 406 006c 0821     		movs	r1, #8
 407 006e FFF7FEFF 		bl	_pal_lld_setgroupmode
 408              	.LVL42:
 409              		.loc 1 228 0
 410 0072 2F48     		ldr	r0, .L20+16
 411 0074 2F49     		ldr	r1, .L20+20
 412 0076 FFF7FEFF 		bl	spiStart
 413              	.LVL43:
 414              		.loc 1 234 0
 415 007a 2F48     		ldr	r0, .L20+24
 416 007c 2F49     		ldr	r1, .L20+28
 417 007e FFF7FEFF 		bl	pwmStart
 418              	.LVL44:
 419              		.loc 1 235 0
 420 0082 4FF44060 		mov	r0, #3072
 421 0086 C4F20200 		movt	r0, 16386
 422 008a 4FF48051 		mov	r1, #4096
 423 008e 4FF48172 		mov	r2, #258
 424 0092 FFF7FEFF 		bl	_pal_lld_setgroupmode
 425              	.LVL45:
 426              		.loc 1 236 0
 427 0096 4FF44060 		mov	r0, #3072
 428 009a C4F20200 		movt	r0, 16386
 429 009e 4FF40051 		mov	r1, #8192
 430 00a2 4FF48172 		mov	r2, #258
 431 00a6 FFF7FEFF 		bl	_pal_lld_setgroupmode
 432              	.LVL46:
 433              		.loc 1 237 0
 434 00aa 4FF44060 		mov	r0, #3072
 435 00ae C4F20200 		movt	r0, 16386
 436 00b2 4FF48041 		mov	r1, #16384
 437 00b6 4FF48172 		mov	r2, #258
 438 00ba FFF7FEFF 		bl	_pal_lld_setgroupmode
 439              	.LVL47:
 440              		.loc 1 238 0
 441 00be 4FF44060 		mov	r0, #3072
 442 00c2 C4F20200 		movt	r0, 16386
 443 00c6 4FF40041 		mov	r1, #32768
 444 00ca 4FF48172 		mov	r2, #258
 445              		.loc 1 243 0
 446 00ce 0024     		movs	r4, #0
 447              		.loc 1 238 0
 448 00d0 FFF7FEFF 		bl	_pal_lld_setgroupmode
 449              	.LVL48:
 450              		.loc 1 243 0
 451 00d4 0094     		str	r4, [sp, #0]
 452 00d6 1A48     		ldr	r0, .L20+32
 453 00d8 1A4B     		ldr	r3, .L20+36
 454 00da 4FF49871 		mov	r1, #304
ARM GAS  /tmp/cciqiTkw.s 			page 9


 455 00de 4A22     		movs	r2, #74
 456 00e0 FFF7FEFF 		bl	chThdCreateStatic
 457              	.LVL49:
 458              		.loc 1 251 0
 459 00e4 44B1     		cbz	r4, .L18
 460              	.L15:
 461              		.loc 1 259 0
 462 00e6 207F     		ldrb	r0, [r4, #28]	@ zero_extendqisi2
 463 00e8 0E28     		cmp	r0, #14
 464 00ea 13D0     		beq	.L19
 465              	.LVL50:
 466              	.L16:
 467              		.loc 1 265 0
 468 00ec 4FF4FA70 		mov	r0, #500
 469 00f0 FFF7FEFF 		bl	chThdSleep
 470              	.LVL51:
 471              		.loc 1 251 0
 472 00f4 002C     		cmp	r4, #0
 473 00f6 F6D1     		bne	.L15
 474              	.L18:
 475              		.loc 1 252 0
 476 00f8 D5F85432 		ldr	r3, [r5, #596]
 477 00fc 1968     		ldr	r1, [r3, #0]
 478 00fe 0A78     		ldrb	r2, [r1, #0]	@ zero_extendqisi2
 479 0100 042A     		cmp	r2, #4
 480 0102 F3D1     		bne	.L16
 481              		.loc 1 254 0
 482 0104 1048     		ldr	r0, .L20+40
 483 0106 4FF49661 		mov	r1, #1200
 484 010a 4022     		movs	r2, #64
 485 010c FFF7FEFF 		bl	lx200ShellCreate
 486              	.LVL52:
 487 0110 0446     		mov	r4, r0
 488              	.LVL53:
 489 0112 EBE7     		b	.L16
 490              	.LVL54:
 491              	.L19:
 492              		.loc 1 261 0
 493 0114 2046     		mov	r0, r4
 494 0116 FFF7FEFF 		bl	chThdRelease
 495              	.LVL55:
 496              		.loc 1 262 0
 497 011a 0024     		movs	r4, #0
 498 011c E6E7     		b	.L16
 499              	.L21:
 500 011e 00BF     		.align	2
 501              	.L20:
 502 0120 00000000 		.word	.LANCHOR6
 503 0124 00000000 		.word	serusbcfg
 504 0128 00000000 		.word	usbcfg
 505 012c 00000000 		.word	SD2
 506 0130 00000000 		.word	SPID1
 507 0134 00000000 		.word	.LANCHOR7
 508 0138 00000000 		.word	PWMD4
 509 013c 00000000 		.word	.LANCHOR8
 510 0140 00000000 		.word	.LANCHOR9
 511 0144 00000000 		.word	Thread1
ARM GAS  /tmp/cciqiTkw.s 			page 10


 512 0148 00000000 		.word	.LANCHOR10
 513              		.cfi_endproc
 514              	.LFE119:
 515              		.size	main, .-main
 516              		.global	gZ
 517              		.global	gY
 518              		.global	gX
 519 014c AFF30080 		.section	.bss.waThread1,"aw",%nobits
 520              		.align	3
 521              		.set	.LANCHOR9,. + 0
 522              		.type	waThread1, %object
 523              		.size	waThread1, 304
 524              	waThread1:
 525 0000 00000000 		.space	304
 525      00000000 
 525      00000000 
 525      00000000 
 525      00000000 
 526              		.section	.rodata.LX200commands,"a",%progbits
 527              		.align	2
 528              		.type	LX200commands, %object
 529              		.size	LX200commands, 352
 530              	LX200commands:
 531 0000 0C000000 		.word	.LC1
 532 0004 00000000 		.word	cmd_info
 533 0008 14000000 		.word	.LC2
 534 000c 00000000 		.word	cmd_systime
 535 0010 1C000000 		.word	.LC3
 536 0014 00000000 		.word	cmd_date
 537 0018 24000000 		.word	.LC4
 538 001c 00000000 		.word	cmd_mem
 539 0020 28000000 		.word	.LC5
 540 0024 00000000 		.word	cmd_threads
 541 0028 30000000 		.word	.LC6
 542 002c 00000000 		.word	cmd_libnova_test
 543 0030 3C000000 		.word	.LC7
 544 0034 00000000 		.word	cmd_firware_date
 545 0038 4C000000 		.word	.LC8
 546 003c 00000000 		.word	cmd_firware_date
 547 0040 54000000 		.word	.LC9
 548 0044 00000000 		.word	cmd_firware_number
 549 0048 5C000000 		.word	.LC10
 550 004c 00000000 		.word	cmd_firware_product
 551 0050 64000000 		.word	.LC11
 552 0054 00000000 		.word	cmd_firware_time
 553 0058 6C000000 		.word	.LC12
 554 005c 00000000 		.word	cmd_firware_ver
 555 0060 74000000 		.word	.LC13
 556 0064 00000000 		.word	cmd_getSite1Name
 557 0068 00000000 		.word	ACK
 558 006c 00000000 		.word	cmd_mount_mode
 559 0070 78000000 		.word	.LC14
 560 0074 00000000 		.word	cmd_dummy
 561 0078 7C000000 		.word	.LC15
 562 007c 00000000 		.word	cmd_dummy
 563 0080 80000000 		.word	.LC16
 564 0084 00000000 		.word	cmd_setTargetRA
ARM GAS  /tmp/cciqiTkw.s 			page 11


 565 0088 84000000 		.word	.LC17
 566 008c 00000000 		.word	cmd_setTargetDEC
 567 0090 88000000 		.word	.LC18
 568 0094 00000000 		.word	cmd_setSiteLongitude
 569 0098 8C000000 		.word	.LC19
 570 009c 00000000 		.word	cmd_setSiteLatitude
 571 00a0 90000000 		.word	.LC20
 572 00a4 00000000 		.word	cmd_setLocalTime
 573 00a8 94000000 		.word	.LC21
 574 00ac 00000000 		.word	cmd_setLocalDate
 575 00b0 98000000 		.word	.LC22
 576 00b4 00000000 		.word	cmd_dummy
 577 00b8 9C000000 		.word	.LC23
 578 00bc 00000000 		.word	cmd_dummy
 579 00c0 A0000000 		.word	.LC24
 580 00c4 00000000 		.word	cmd_dummy
 581 00c8 A4000000 		.word	.LC25
 582 00cc 00000000 		.word	cmd_getTelescopeRA
 583 00d0 A8000000 		.word	.LC26
 584 00d4 00000000 		.word	cmd_getTelescopeDEC
 585 00d8 AC000000 		.word	.LC27
 586 00dc 00000000 		.word	cmd_getTargetRA
 587 00e0 B0000000 		.word	.LC28
 588 00e4 00000000 		.word	cmd_getTargetDEC
 589 00e8 B4000000 		.word	.LC29
 590 00ec 00000000 		.word	cmd_getSiteLongitude
 591 00f0 B8000000 		.word	.LC30
 592 00f4 00000000 		.word	cmd_getSiteLatitude
 593 00f8 BC000000 		.word	.LC31
 594 00fc 00000000 		.word	cmd_getClockFormat
 595 0100 C0000000 		.word	.LC32
 596 0104 00000000 		.word	cmd_getLocalTime
 597 0108 C4000000 		.word	.LC33
 598 010c 00000000 		.word	cmd_getLocalDate
 599 0110 C8000000 		.word	.LC34
 600 0114 00000000 		.word	cmd_dummy
 601 0118 CC000000 		.word	.LC35
 602 011c 00000000 		.word	cmd_dummy
 603 0120 D0000000 		.word	.LC36
 604 0124 00000000 		.word	cmd_dummy
 605 0128 D4000000 		.word	.LC37
 606 012c 00000000 		.word	cmd_dummy
 607 0130 D8000000 		.word	.LC38
 608 0134 00000000 		.word	cmd_dummy
 609 0138 DC000000 		.word	.LC39
 610 013c 00000000 		.word	cmd_dummy
 611 0140 E0000000 		.word	.LC40
 612 0144 00000000 		.word	cmd_slew
 613 0148 E4000000 		.word	.LC41
 614 014c 00000000 		.word	cmd_abortMotion
 615 0150 E8000000 		.word	.LC42
 616 0154 00000000 		.word	cmd_dummy
 617 0158 00000000 		.word	0
 618 015c 00000000 		.word	0
 619              		.section	.bss.SDU1,"aw",%nobits
 620              		.align	2
 621              		.set	.LANCHOR6,. + 0
ARM GAS  /tmp/cciqiTkw.s 			page 12


 622              		.type	SDU1, %object
 623              		.size	SDU1, 600
 624              	SDU1:
 625 0000 00000000 		.space	600
 625      00000000 
 625      00000000 
 625      00000000 
 625      00000000 
 626              		.section	.bss.ybuf.8872,"aw",%nobits
 627              		.align	2
 628              		.set	.LANCHOR1,. + 0
 629              		.type	ybuf.8872, %object
 630              		.size	ybuf.8872, 4
 631              	ybuf.8872:
 632 0000 00000000 		.space	4
 633              		.section	.rodata.spi1cfg,"a",%progbits
 634              		.align	2
 635              		.set	.LANCHOR7,. + 0
 636              		.type	spi1cfg, %object
 637              		.size	spi1cfg, 12
 638              	spi1cfg:
 639 0000 00000000 		.word	0
 640 0004 00100240 		.word	1073876992
 641 0008 0300     		.short	3
 642 000a 1B00     		.short	27
 643              		.section	.bss.gX,"aw",%nobits
 644              		.set	.LANCHOR3,. + 0
 645              		.type	gX, %object
 646              		.size	gX, 1
 647              	gX:
 648 0000 00       		.space	1
 649              		.section	.bss.gY,"aw",%nobits
 650              		.set	.LANCHOR4,. + 0
 651              		.type	gY, %object
 652              		.size	gY, 1
 653              	gY:
 654 0000 00       		.space	1
 655              		.section	.bss.gZ,"aw",%nobits
 656              		.set	.LANCHOR5,. + 0
 657              		.type	gZ, %object
 658              		.size	gZ, 1
 659              	gZ:
 660 0000 00       		.space	1
 661              		.section	.rodata.str1.4,"aMS",%progbits,1
 662              		.align	2
 663              	.LC0:
 664 0000 4D454D53 		.ascii	"MEMSreader\000"
 664      72656164 
 664      657200
 665 000b 00       		.space	1
 666              	.LC1:
 667 000c 696E666F 		.ascii	"info\000"
 667      00
 668 0011 000000   		.space	3
 669              	.LC2:
 670 0014 73797374 		.ascii	"systime\000"
 670      696D6500 
ARM GAS  /tmp/cciqiTkw.s 			page 13


 671              	.LC3:
 672 001c 64617465 		.ascii	"date\000"
 672      00
 673 0021 000000   		.space	3
 674              	.LC4:
 675 0024 6D656D00 		.ascii	"mem\000"
 676              	.LC5:
 677 0028 74687265 		.ascii	"threads\000"
 677      61647300 
 678              	.LC6:
 679 0030 6E6F7661 		.ascii	"novatest\000"
 679      74657374 
 679      00
 680 0039 000000   		.space	3
 681              	.LC7:
 682 003c 3A466972 		.ascii	":FirmWareDate\000"
 682      6D576172 
 682      65446174 
 682      6500
 683 004a 0000     		.space	2
 684              	.LC8:
 685 004c 3A475644 		.ascii	":GVD\000"
 685      00
 686 0051 000000   		.space	3
 687              	.LC9:
 688 0054 3A47564E 		.ascii	":GVN\000"
 688      00
 689 0059 000000   		.space	3
 690              	.LC10:
 691 005c 3A475650 		.ascii	":GVP\000"
 691      00
 692 0061 000000   		.space	3
 693              	.LC11:
 694 0064 3A475654 		.ascii	":GVT\000"
 694      00
 695 0069 000000   		.space	3
 696              	.LC12:
 697 006c 3A475646 		.ascii	":GVF\000"
 697      00
 698 0071 000000   		.space	3
 699              	.LC13:
 700 0074 3A474D00 		.ascii	":GM\000"
 701              	.LC14:
 702 0078 3A536100 		.ascii	":Sa\000"
 703              	.LC15:
 704 007c 3A537A00 		.ascii	":Sz\000"
 705              	.LC16:
 706 0080 3A537200 		.ascii	":Sr\000"
 707              	.LC17:
 708 0084 3A536400 		.ascii	":Sd\000"
 709              	.LC18:
 710 0088 3A536700 		.ascii	":Sg\000"
 711              	.LC19:
 712 008c 3A537400 		.ascii	":St\000"
 713              	.LC20:
 714 0090 3A534C00 		.ascii	":SL\000"
 715              	.LC21:
ARM GAS  /tmp/cciqiTkw.s 			page 14


 716 0094 3A534300 		.ascii	":SC\000"
 717              	.LC22:
 718 0098 3A534700 		.ascii	":SG\000"
 719              	.LC23:
 720 009c 3A474100 		.ascii	":GA\000"
 721              	.LC24:
 722 00a0 3A475A00 		.ascii	":GZ\000"
 723              	.LC25:
 724 00a4 3A475200 		.ascii	":GR\000"
 725              	.LC26:
 726 00a8 3A474400 		.ascii	":GD\000"
 727              	.LC27:
 728 00ac 3A477200 		.ascii	":Gr\000"
 729              	.LC28:
 730 00b0 3A476400 		.ascii	":Gd\000"
 731              	.LC29:
 732 00b4 3A476700 		.ascii	":Gg\000"
 733              	.LC30:
 734 00b8 3A477400 		.ascii	":Gt\000"
 735              	.LC31:
 736 00bc 3A476300 		.ascii	":Gc\000"
 737              	.LC32:
 738 00c0 3A474C00 		.ascii	":GL\000"
 739              	.LC33:
 740 00c4 3A474300 		.ascii	":GC\000"
 741              	.LC34:
 742 00c8 3A474700 		.ascii	":GG\000"
 743              	.LC35:
 744 00cc 3A4D4100 		.ascii	":MA\000"
 745              	.LC36:
 746 00d0 3A4D6500 		.ascii	":Me\000"
 747              	.LC37:
 748 00d4 3A4D6E00 		.ascii	":Mn\000"
 749              	.LC38:
 750 00d8 3A4D7300 		.ascii	":Ms\000"
 751              	.LC39:
 752 00dc 3A4D7700 		.ascii	":Mw\000"
 753              	.LC40:
 754 00e0 3A4D5300 		.ascii	":MS\000"
 755              	.LC41:
 756 00e4 3A5100   		.ascii	":Q\000"
 757 00e7 00       		.space	1
 758              	.LC42:
 759 00e8 3A434D00 		.ascii	":CM\000"
 760              		.section	.rodata.pwmcfg,"a",%progbits
 761              		.align	2
 762              		.set	.LANCHOR8,. + 0
 763              		.type	pwmcfg, %object
 764              		.size	pwmcfg, 48
 765              	pwmcfg:
 766 0000 A0860100 		.word	100000
 767 0004 8000     		.short	128
 768 0006 0000     		.space	2
 769 0008 00000000 		.word	0
 770 000c 01000000 		.word	1
 771 0010 00000000 		.word	0
 772 0014 01000000 		.word	1
ARM GAS  /tmp/cciqiTkw.s 			page 15


 773 0018 00000000 		.word	0
 774 001c 01000000 		.word	1
 775 0020 00000000 		.word	0
 776 0024 01000000 		.word	1
 777 0028 00000000 		.word	0
 778 002c 0000     		.short	0
 779 002e 0000     		.space	2
 780              		.section	.rodata.shell_cfg1,"a",%progbits
 781              		.align	2
 782              		.set	.LANCHOR10,. + 0
 783              		.type	shell_cfg1, %object
 784              		.size	shell_cfg1, 8
 785              	shell_cfg1:
 786 0000 00000000 		.word	SDU1
 787 0004 00000000 		.word	LX200commands
 788              		.section	.bss.zbuf.8873,"aw",%nobits
 789              		.align	2
 790              		.set	.LANCHOR2,. + 0
 791              		.type	zbuf.8873, %object
 792              		.size	zbuf.8873, 4
 793              	zbuf.8873:
 794 0000 00000000 		.space	4
 795              		.section	.bss.xbuf.8871,"aw",%nobits
 796              		.align	2
 797              		.set	.LANCHOR0,. + 0
 798              		.type	xbuf.8871, %object
 799              		.size	xbuf.8871, 4
 800              	xbuf.8871:
 801 0000 00000000 		.space	4
 802              		.section	.data.ACK,"aw",%progbits
 803              		.align	2
 804              		.type	ACK, %object
 805              		.size	ACK, 1
 806              	ACK:
 807 0000 06       		.byte	6
 808 0001 000000   		.text
 809              	.Letext0:
 810              		.file 2 "/usr/bin/../lib/gcc/arm-none-eabi/4.7.4/include/stddef.h"
 811              		.file 3 "/usr/bin/../lib/gcc/arm-none-eabi/4.7.4/../../../../arm-none-eabi/include/stdint.h"
 812              		.file 4 "../../os/ports/GCC/ARMCMx/chtypes.h"
 813              		.file 5 "../../os/kernel/include/chlists.h"
 814              		.file 6 "../../os/kernel/include/chthreads.h"
 815              		.file 7 "../../os/ports/GCC/ARMCMx/chcore_v7m.h"
 816              		.file 8 "../../os/kernel/include/chvt.h"
 817              		.file 9 "../../os/kernel/include/chschd.h"
 818              		.file 10 "../../os/kernel/include/chmtx.h"
 819              		.file 11 "../../os/kernel/include/chevents.h"
 820              		.file 12 "../../os/kernel/include/chqueues.h"
 821              		.file 13 "../../os/kernel/include/chstreams.h"
 822              		.file 14 "../../os/hal/platforms/STM32F4xx/stm32f4xx.h"
 823              		.file 15 "../../os/hal/platforms/STM32/stm32.h"
 824              		.file 16 "../../os/hal/platforms/STM32F4xx/stm32_dma.h"
 825              		.file 17 "../../os/hal/platforms/STM32/GPIOv2/pal_lld.h"
 826              		.file 18 "../../os/hal/include/pwm.h"
 827              		.file 19 "../../os/hal/platforms/STM32/pwm_lld.h"
 828              		.file 20 "../../os/hal/include/serial.h"
 829              		.file 21 "../../os/hal/platforms/STM32/USARTv1/serial_lld.h"
ARM GAS  /tmp/cciqiTkw.s 			page 16


 830              		.file 22 "../../os/hal/include/spi.h"
 831              		.file 23 "../../os/hal/platforms/STM32/SPIv1/spi_lld.h"
 832              		.file 24 "../../os/hal/include/usb.h"
 833              		.file 25 "../../os/hal/platforms/STM32/OTGv1/usb_lld.h"
 834              		.file 26 "../../os/hal/platforms/STM32/OTGv1/stm32_otg.h"
 835              		.file 27 "../../os/hal/include/serial_usb.h"
 836              		.file 28 "lx200Shell.h"
 837              		.file 29 "lx200ShellCMD.h"
 838              		.file 30 "../../os/ports/common/ARMCMx/CMSIS/include/core_cm4.h"
 839              		.file 31 "usbcfg.h"
 840              		.file 32 "../../os/various/devices_lib/accel/lis302dl.h"
 841              		.file 33 "../../os/hal/include/hal.h"
 842              		.file 34 "../../os/kernel/include/chsys.h"
 843              		.file 35 "../../os/kernel/include/chdynamic.h"