ARM GAS  /tmp/ccHP3WMY.s 			page 1


   1              		.syntax unified
   2              		.cpu cortex-m4
   3              		.fpu softvfp
   4              		.eabi_attribute 20, 1
   5              		.eabi_attribute 21, 1
   6              		.eabi_attribute 23, 3
   7              		.eabi_attribute 24, 1
   8              		.eabi_attribute 25, 1
   9              		.eabi_attribute 26, 1
  10              		.eabi_attribute 30, 2
  11              		.eabi_attribute 34, 1
  12              		.eabi_attribute 18, 4
  13              		.thumb
  14              		.file	"parabolic_motion.c"
  15              		.text
  16              	.Ltext0:
  17              		.cfi_sections	.debug_frame
  18              		.global	__aeabi_dmul
  19              		.global	__aeabi_ddiv
  20              		.global	__aeabi_dadd
  21              		.global	__aeabi_dsub
  22              		.section	.text.ln_solve_barker,"ax",%progbits
  23              		.align	2
  24              		.p2align 4,,15
  25              		.global	ln_solve_barker
  26              		.thumb
  27              		.thumb_func
  28              		.type	ln_solve_barker, %function
  29              	ln_solve_barker:
  30              	.LFB0:
  31              		.file 1 "./libnova/src/parabolic_motion.c"
  32              		.loc 1 38 0
  33              		.cfi_startproc
  34              		@ args = 0, pretend = 0, frame = 0
  35              		@ frame_needed = 0, uses_anonymous_args = 0
  36              	.LVL0:
  37 0000 F8B5     		push	{r3, r4, r5, r6, r7, lr}
  38              	.LCFI0:
  39              		.cfi_def_cfa_offset 24
  40              		.cfi_offset 3, -24
  41              		.cfi_offset 4, -20
  42              		.cfi_offset 5, -16
  43              		.cfi_offset 6, -12
  44              		.cfi_offset 7, -8
  45              		.cfi_offset 14, -4
  46              		.loc 1 38 0
  47 0002 0646     		mov	r6, r0
  48 0004 0F46     		mov	r7, r1
  49 0006 1446     		mov	r4, r2
  50 0008 1D46     		mov	r5, r3
  51              		.loc 1 43 0
  52 000a FFF7FEFF 		bl	sqrt
  53              	.LVL1:
  54 000e 3246     		mov	r2, r6
  55 0010 3B46     		mov	r3, r7
  56 0012 FFF7FEFF 		bl	__aeabi_dmul
  57              	.LVL2:
ARM GAS  /tmp/ccHP3WMY.s 			page 2


  58 0016 0246     		mov	r2, r0
  59 0018 0B46     		mov	r3, r1
  60 001a 1BA1     		adr	r1, .L2
  61 001c D1E90001 		ldrd	r0, [r1]
  62 0020 FFF7FEFF 		bl	__aeabi_ddiv
  63              	.LVL3:
  64 0024 2246     		mov	r2, r4
  65 0026 2B46     		mov	r3, r5
  66 0028 FFF7FEFF 		bl	__aeabi_dmul
  67              	.LVL4:
  68              		.loc 1 46 0
  69 002c 0023     		movs	r3, #0
  70 002e 0022     		movs	r2, #0
  71 0030 C3F6E073 		movt	r3, 16352
  72 0034 FFF7FEFF 		bl	__aeabi_dmul
  73              	.LVL5:
  74              		.loc 1 47 0
  75 0038 0246     		mov	r2, r0
  76 003a 0B46     		mov	r3, r1
  77              		.loc 1 46 0
  78 003c 0446     		mov	r4, r0
  79 003e 0D46     		mov	r5, r1
  80              	.LVL6:
  81              		.loc 1 47 0
  82 0040 FFF7FEFF 		bl	__aeabi_dmul
  83              	.LVL7:
  84 0044 0023     		movs	r3, #0
  85 0046 0022     		movs	r2, #0
  86 0048 C3F6F073 		movt	r3, 16368
  87 004c FFF7FEFF 		bl	__aeabi_dadd
  88              	.LVL8:
  89 0050 FFF7FEFF 		bl	sqrt
  90              	.LVL9:
  91 0054 2246     		mov	r2, r4
  92 0056 2B46     		mov	r3, r5
  93 0058 FFF7FEFF 		bl	__aeabi_dadd
  94              	.LVL10:
  95 005c FFF7FEFF 		bl	cbrt
  96              	.LVL11:
  97 0060 0D46     		mov	r5, r1
  98              		.loc 1 48 0
  99 0062 0B46     		mov	r3, r1
 100 0064 0021     		movs	r1, #0
 101              		.loc 1 47 0
 102 0066 0446     		mov	r4, r0
 103              	.LVL12:
 104              		.loc 1 48 0
 105 0068 0246     		mov	r2, r0
 106 006a C3F6F071 		movt	r1, 16368
 107 006e 0020     		movs	r0, #0
 108 0070 FFF7FEFF 		bl	__aeabi_ddiv
 109              	.LVL13:
 110 0074 0246     		mov	r2, r0
 111 0076 0B46     		mov	r3, r1
 112 0078 2046     		mov	r0, r4
 113 007a 2946     		mov	r1, r5
 114 007c FFF7FEFF 		bl	__aeabi_dsub
ARM GAS  /tmp/ccHP3WMY.s 			page 3


 115              	.LVL14:
 116              		.loc 1 49 0
 117 0080 F8BD     		pop	{r3, r4, r5, r6, r7, pc}
 118              	.L3:
 119 0082 00BFAFF3 		.align	3
 119      0080
 120              	.L2:
 121 0088 08ADA13A 		.word	983674120
 122 008c F8AEA23F 		.word	1067626232
 123              		.cfi_endproc
 124              	.LFE0:
 125              		.size	ln_solve_barker, .-ln_solve_barker
 126              		.section	.text.ln_get_par_true_anomaly,"ax",%progbits
 127              		.align	2
 128              		.p2align 4,,15
 129              		.global	ln_get_par_true_anomaly
 130              		.thumb
 131              		.thumb_func
 132              		.type	ln_get_par_true_anomaly, %function
 133              	ln_get_par_true_anomaly:
 134              	.LFB1:
 135              		.loc 1 60 0
 136              		.cfi_startproc
 137              		@ args = 0, pretend = 0, frame = 0
 138              		@ frame_needed = 0, uses_anonymous_args = 0
 139              	.LVL15:
 140 0000 08B5     		push	{r3, lr}
 141              	.LCFI1:
 142              		.cfi_def_cfa_offset 8
 143              		.cfi_offset 3, -8
 144              		.cfi_offset 14, -4
 145              		.loc 1 64 0
 146 0002 FFF7FEFF 		bl	ln_solve_barker
 147              	.LVL16:
 148              		.loc 1 65 0
 149 0006 FFF7FEFF 		bl	atan
 150              	.LVL17:
 151 000a 0246     		mov	r2, r0
 152 000c 0B46     		mov	r3, r1
 153 000e FFF7FEFF 		bl	__aeabi_dadd
 154              	.LVL18:
 155              		.loc 1 67 0
 156 0012 FFF7FEFF 		bl	ln_rad_to_deg
 157              	.LVL19:
 158              		.loc 1 68 0
 159 0016 BDE80840 		pop	{r3, lr}
 160              		.loc 1 67 0
 161 001a FFF7FEBF 		b	ln_range_degrees
 162              	.LVL20:
 163              		.cfi_endproc
 164              	.LFE1:
 165              		.size	ln_get_par_true_anomaly, .-ln_get_par_true_anomaly
 166 001e 00BF     		.section	.text.ln_get_par_radius_vector,"ax",%progbits
 167              		.align	2
 168              		.p2align 4,,15
 169              		.global	ln_get_par_radius_vector
 170              		.thumb
ARM GAS  /tmp/ccHP3WMY.s 			page 4


 171              		.thumb_func
 172              		.type	ln_get_par_radius_vector, %function
 173              	ln_get_par_radius_vector:
 174              	.LFB2:
 175              		.loc 1 79 0
 176              		.cfi_startproc
 177              		@ args = 0, pretend = 0, frame = 0
 178              		@ frame_needed = 0, uses_anonymous_args = 0
 179              	.LVL21:
 180 0000 38B5     		push	{r3, r4, r5, lr}
 181              	.LCFI2:
 182              		.cfi_def_cfa_offset 16
 183              		.cfi_offset 3, -16
 184              		.cfi_offset 4, -12
 185              		.cfi_offset 5, -8
 186              		.cfi_offset 14, -4
 187              		.loc 1 79 0
 188 0002 0446     		mov	r4, r0
 189 0004 0D46     		mov	r5, r1
 190              		.loc 1 82 0
 191 0006 FFF7FEFF 		bl	ln_solve_barker
 192              	.LVL22:
 193              		.loc 1 83 0
 194 000a 0246     		mov	r2, r0
 195 000c 0B46     		mov	r3, r1
 196 000e FFF7FEFF 		bl	__aeabi_dmul
 197              	.LVL23:
 198 0012 0023     		movs	r3, #0
 199 0014 0022     		movs	r2, #0
 200 0016 C3F6F073 		movt	r3, 16368
 201 001a FFF7FEFF 		bl	__aeabi_dadd
 202              	.LVL24:
 203 001e 2246     		mov	r2, r4
 204 0020 2B46     		mov	r3, r5
 205 0022 FFF7FEFF 		bl	__aeabi_dmul
 206              	.LVL25:
 207              		.loc 1 84 0
 208 0026 38BD     		pop	{r3, r4, r5, pc}
 209              		.cfi_endproc
 210              	.LFE2:
 211              		.size	ln_get_par_radius_vector, .-ln_get_par_radius_vector
 212 0028 AFF30080 		.section	.text.ln_get_par_helio_rect_posn,"ax",%progbits
 212      AFF30080 
 213              		.align	2
 214              		.p2align 4,,15
 215              		.global	ln_get_par_helio_rect_posn
 216              		.thumb
 217              		.thumb_func
 218              		.type	ln_get_par_helio_rect_posn, %function
 219              	ln_get_par_helio_rect_posn:
 220              	.LFB3:
 221              		.loc 1 96 0
 222              		.cfi_startproc
 223              		@ args = 4, pretend = 0, frame = 64
 224              		@ frame_needed = 0, uses_anonymous_args = 0
 225              	.LVL26:
 226 0000 2DE9F04F 		push	{r4, r5, r6, r7, r8, r9, sl, fp, lr}
ARM GAS  /tmp/ccHP3WMY.s 			page 5


 227              	.LCFI3:
 228              		.cfi_def_cfa_offset 36
 229              		.cfi_offset 4, -36
 230              		.cfi_offset 5, -32
 231              		.cfi_offset 6, -28
 232              		.cfi_offset 7, -24
 233              		.cfi_offset 8, -20
 234              		.cfi_offset 9, -16
 235              		.cfi_offset 10, -12
 236              		.cfi_offset 11, -8
 237              		.cfi_offset 14, -4
 238 0004 0646     		mov	r6, r0
 239 0006 91B0     		sub	sp, sp, #68
 240              	.LCFI4:
 241              		.cfi_def_cfa_offset 104
 242              		.loc 1 106 0
 243 0008 1046     		mov	r0, r2
 244              	.LVL27:
 245 000a 1946     		mov	r1, r3
 246 000c D6E90823 		ldrd	r2, [r6, #32]
 247              	.LVL28:
 248 0010 FFF7FEFF 		bl	__aeabi_dsub
 249              	.LVL29:
 250 0014 CDE90801 		strd	r0, [sp, #32]
 251              	.LVL30:
 252              		.loc 1 113 0
 253 0018 D6E90601 		ldrd	r0, [r6, #24]
 254              	.LVL31:
 255 001c FFF7FEFF 		bl	ln_deg_to_rad
 256              	.LVL32:
 257 0020 FFF7FEFF 		bl	sin
 258              	.LVL33:
 259 0024 8046     		mov	r8, r0
 260 0026 0F46     		mov	r7, r1
 261              	.LVL34:
 262              		.loc 1 114 0
 263 0028 D6E90601 		ldrd	r0, [r6, #24]
 264              	.LVL35:
 265 002c FFF7FEFF 		bl	ln_deg_to_rad
 266              	.LVL36:
 267 0030 FFF7FEFF 		bl	cos
 268              	.LVL37:
 269 0034 CDE90001 		strd	r0, [sp]
 270              	.LVL38:
 271              		.loc 1 115 0
 272 0038 D6E90201 		ldrd	r0, [r6, #8]
 273              	.LVL39:
 274 003c FFF7FEFF 		bl	ln_deg_to_rad
 275              	.LVL40:
 276 0040 FFF7FEFF 		bl	sin
 277              	.LVL41:
 278 0044 CDE90201 		strd	r0, [sp, #8]
 279              	.LVL42:
 280              		.loc 1 116 0
 281 0048 D6E90201 		ldrd	r0, [r6, #8]
 282              	.LVL43:
 283 004c FFF7FEFF 		bl	ln_deg_to_rad
ARM GAS  /tmp/ccHP3WMY.s 			page 6


 284              	.LVL44:
 285 0050 FFF7FEFF 		bl	cos
 286              	.LVL45:
 287              		.loc 1 118 0
 288 0054 90A3     		adr	r3, .L7
 289 0056 D3E90023 		ldrd	r2, [r3]
 290              		.loc 1 116 0
 291 005a 8246     		mov	sl, r0
 292 005c 8B46     		mov	fp, r1
 293              	.LVL46:
 294              		.loc 1 118 0
 295 005e 4046     		mov	r0, r8
 296 0060 3946     		mov	r1, r7
 297 0062 FFF7FEFF 		bl	__aeabi_dmul
 298              	.LVL47:
 299              		.loc 1 119 0
 300 0066 8EA3     		adr	r3, .L7+8
 301 0068 D3E90023 		ldrd	r2, [r3]
 302              		.loc 1 118 0
 303 006c CDE90401 		strd	r0, [sp, #16]
 304              	.LVL48:
 305              		.loc 1 119 0
 306 0070 4046     		mov	r0, r8
 307              	.LVL49:
 308 0072 3946     		mov	r1, r7
 309 0074 FFF7FEFF 		bl	__aeabi_dmul
 310              	.LVL50:
 311              		.loc 1 118 0
 312 0078 4446     		mov	r4, r8
 313              		.loc 1 120 0
 314 007a 07F10043 		add	r3, r7, #-2147483648
 315              		.loc 1 119 0
 316 007e CDE90601 		strd	r0, [sp, #24]
 317              	.LVL51:
 318              		.loc 1 120 0
 319 0082 5246     		mov	r2, sl
 320 0084 2046     		mov	r0, r4
 321              	.LVL52:
 322 0086 1946     		mov	r1, r3
 323 0088 5B46     		mov	r3, fp
 324 008a FFF7FEFF 		bl	__aeabi_dmul
 325              	.LVL53:
 326              		.loc 1 121 0
 327 008e 5246     		mov	r2, sl
 328 0090 5B46     		mov	r3, fp
 329              		.loc 1 120 0
 330 0092 CDE90A01 		strd	r0, [sp, #40]
 331              	.LVL54:
 332              		.loc 1 121 0
 333 0096 DDE90001 		ldrd	r0, [sp]
 334              	.LVL55:
 335 009a FFF7FEFF 		bl	__aeabi_dmul
 336              	.LVL56:
 337 009e 7EA3     		adr	r3, .L7
 338 00a0 D3E90023 		ldrd	r2, [r3]
 339 00a4 0746     		mov	r7, r0
 340              	.LVL57:
ARM GAS  /tmp/ccHP3WMY.s 			page 7


 341 00a6 0C46     		mov	r4, r1
 342 00a8 FFF7FEFF 		bl	__aeabi_dmul
 343              	.LVL58:
 344 00ac 7CA3     		adr	r3, .L7+8
 345 00ae D3E90023 		ldrd	r2, [r3]
 346 00b2 8046     		mov	r8, r0
 347 00b4 8946     		mov	r9, r1
 348 00b6 DDE90201 		ldrd	r0, [sp, #8]
 349 00ba FFF7FEFF 		bl	__aeabi_dmul
 350              	.LVL59:
 351 00be 0246     		mov	r2, r0
 352 00c0 0B46     		mov	r3, r1
 353 00c2 4046     		mov	r0, r8
 354 00c4 4946     		mov	r1, r9
 355 00c6 FFF7FEFF 		bl	__aeabi_dsub
 356              	.LVL60:
 357              		.loc 1 122 0
 358 00ca 75A3     		adr	r3, .L7+8
 359 00cc D3E90023 		ldrd	r2, [r3]
 360              		.loc 1 121 0
 361 00d0 8046     		mov	r8, r0
 362 00d2 8946     		mov	r9, r1
 363              	.LVL61:
 364              		.loc 1 122 0
 365 00d4 3846     		mov	r0, r7
 366 00d6 2146     		mov	r1, r4
 367 00d8 FFF7FEFF 		bl	__aeabi_dmul
 368              	.LVL62:
 369 00dc 6EA3     		adr	r3, .L7
 370 00de D3E90023 		ldrd	r2, [r3]
 371 00e2 0746     		mov	r7, r0
 372 00e4 0D46     		mov	r5, r1
 373 00e6 DDE90201 		ldrd	r0, [sp, #8]
 374 00ea FFF7FEFF 		bl	__aeabi_dmul
 375              	.LVL63:
 376 00ee 0246     		mov	r2, r0
 377 00f0 0B46     		mov	r3, r1
 378 00f2 3846     		mov	r0, r7
 379 00f4 2946     		mov	r1, r5
 380 00f6 FFF7FEFF 		bl	__aeabi_dadd
 381              	.LVL64:
 382              		.loc 1 125 0
 383 00fa DDE90A23 		ldrd	r2, [sp, #40]
 384              		.loc 1 122 0
 385 00fe 8246     		mov	sl, r0
 386              	.LVL65:
 387 0100 8B46     		mov	fp, r1
 388              	.LVL66:
 389              		.loc 1 125 0
 390 0102 DDE90001 		ldrd	r0, [sp]
 391 0106 FFF7FEFF 		bl	atan2
 392              	.LVL67:
 393              		.loc 1 126 0
 394 010a 4246     		mov	r2, r8
 395 010c 4B46     		mov	r3, r9
 396              		.loc 1 125 0
 397 010e CDE90201 		strd	r0, [sp, #8]
ARM GAS  /tmp/ccHP3WMY.s 			page 8


 398              	.LVL68:
 399              		.loc 1 126 0
 400 0112 DDE90401 		ldrd	r0, [sp, #16]
 401              	.LVL69:
 402 0116 FFF7FEFF 		bl	atan2
 403              	.LVL70:
 404              		.loc 1 127 0
 405 011a 5246     		mov	r2, sl
 406 011c 5B46     		mov	r3, fp
 407              		.loc 1 126 0
 408 011e CDE90C01 		strd	r0, [sp, #48]
 409              	.LVL71:
 410              		.loc 1 127 0
 411 0122 DDE90601 		ldrd	r0, [sp, #24]
 412              	.LVL72:
 413 0126 FFF7FEFF 		bl	atan2
 414              	.LVL73:
 415 012a CDE90E01 		strd	r0, [sp, #56]
 416              	.LVL74:
 417              		.loc 1 128 0
 418 012e DDE90001 		ldrd	r0, [sp]
 419              	.LVL75:
 420 0132 0246     		mov	r2, r0
 421 0134 0B46     		mov	r3, r1
 422 0136 FFF7FEFF 		bl	__aeabi_dmul
 423              	.LVL76:
 424 013a 0446     		mov	r4, r0
 425 013c 0F46     		mov	r7, r1
 426 013e DDE90A01 		ldrd	r0, [sp, #40]
 427 0142 0246     		mov	r2, r0
 428 0144 0B46     		mov	r3, r1
 429 0146 FFF7FEFF 		bl	__aeabi_dmul
 430              	.LVL77:
 431 014a 0246     		mov	r2, r0
 432 014c 0B46     		mov	r3, r1
 433 014e 2046     		mov	r0, r4
 434 0150 3946     		mov	r1, r7
 435 0152 FFF7FEFF 		bl	__aeabi_dadd
 436              	.LVL78:
 437 0156 FFF7FEFF 		bl	sqrt
 438              	.LVL79:
 439 015a CDE90001 		strd	r0, [sp]
 440              	.LVL80:
 441              		.loc 1 129 0
 442 015e DDE90401 		ldrd	r0, [sp, #16]
 443              	.LVL81:
 444 0162 0246     		mov	r2, r0
 445 0164 0B46     		mov	r3, r1
 446 0166 FFF7FEFF 		bl	__aeabi_dmul
 447              	.LVL82:
 448 016a 4246     		mov	r2, r8
 449 016c 0446     		mov	r4, r0
 450 016e 0D46     		mov	r5, r1
 451 0170 4B46     		mov	r3, r9
 452 0172 4046     		mov	r0, r8
 453 0174 4946     		mov	r1, r9
 454 0176 FFF7FEFF 		bl	__aeabi_dmul
ARM GAS  /tmp/ccHP3WMY.s 			page 9


 455              	.LVL83:
 456 017a 0246     		mov	r2, r0
 457 017c 0B46     		mov	r3, r1
 458 017e 2046     		mov	r0, r4
 459 0180 2946     		mov	r1, r5
 460 0182 FFF7FEFF 		bl	__aeabi_dadd
 461              	.LVL84:
 462 0186 FFF7FEFF 		bl	sqrt
 463              	.LVL85:
 464 018a CDE90401 		strd	r0, [sp, #16]
 465              	.LVL86:
 466              		.loc 1 130 0
 467 018e DDE90601 		ldrd	r0, [sp, #24]
 468              	.LVL87:
 469 0192 0246     		mov	r2, r0
 470 0194 0B46     		mov	r3, r1
 471 0196 FFF7FEFF 		bl	__aeabi_dmul
 472              	.LVL88:
 473 019a 5246     		mov	r2, sl
 474 019c 0746     		mov	r7, r0
 475 019e 0C46     		mov	r4, r1
 476 01a0 5B46     		mov	r3, fp
 477 01a2 5046     		mov	r0, sl
 478 01a4 5946     		mov	r1, fp
 479 01a6 FFF7FEFF 		bl	__aeabi_dmul
 480              	.LVL89:
 481 01aa 0246     		mov	r2, r0
 482 01ac 0B46     		mov	r3, r1
 483 01ae 3846     		mov	r0, r7
 484 01b0 2146     		mov	r1, r4
 485 01b2 FFF7FEFF 		bl	__aeabi_dadd
 486              	.LVL90:
 487 01b6 FFF7FEFF 		bl	sqrt
 488              	.LVL91:
 489              		.loc 1 133 0
 490 01ba DDE90823 		ldrd	r2, [sp, #32]
 491              		.loc 1 130 0
 492 01be CDE90601 		strd	r0, [sp, #24]
 493              	.LVL92:
 494              		.loc 1 133 0
 495 01c2 D6E90001 		ldrd	r0, [r6]
 496              	.LVL93:
 497 01c6 FFF7FEFF 		bl	ln_get_par_true_anomaly
 498              	.LVL94:
 499              		.loc 1 136 0
 500 01ca DDE90823 		ldrd	r2, [sp, #32]
 501              		.loc 1 133 0
 502 01ce 0446     		mov	r4, r0
 503 01d0 0D46     		mov	r5, r1
 504              	.LVL95:
 505              		.loc 1 136 0
 506 01d2 D6E90001 		ldrd	r0, [r6]
 507 01d6 FFF7FEFF 		bl	ln_get_par_radius_vector
 508              	.LVL96:
 509              		.loc 1 139 0
 510 01da DDE90023 		ldrd	r2, [sp]
 511              		.loc 1 136 0
ARM GAS  /tmp/ccHP3WMY.s 			page 10


 512 01de 8246     		mov	sl, r0
 513              	.LVL97:
 514 01e0 8B46     		mov	fp, r1
 515              	.LVL98:
 516              		.loc 1 139 0
 517 01e2 FFF7FEFF 		bl	__aeabi_dmul
 518              	.LVL99:
 519 01e6 D6E90423 		ldrd	r2, [r6, #16]
 520 01ea 8046     		mov	r8, r0
 521              	.LVL100:
 522 01ec 8946     		mov	r9, r1
 523 01ee 2046     		mov	r0, r4
 524 01f0 2946     		mov	r1, r5
 525 01f2 FFF7FEFF 		bl	__aeabi_dadd
 526              	.LVL101:
 527 01f6 FFF7FEFF 		bl	ln_deg_to_rad
 528              	.LVL102:
 529 01fa DDE90223 		ldrd	r2, [sp, #8]
 530 01fe FFF7FEFF 		bl	__aeabi_dadd
 531              	.LVL103:
 532 0202 FFF7FEFF 		bl	sin
 533              	.LVL104:
 534 0206 0246     		mov	r2, r0
 535 0208 0B46     		mov	r3, r1
 536 020a 4046     		mov	r0, r8
 537 020c 4946     		mov	r1, r9
 538 020e FFF7FEFF 		bl	__aeabi_dmul
 539              	.LVL105:
 540 0212 1A9F     		ldr	r7, [sp, #104]
 541              		.loc 1 140 0
 542 0214 DDE90423 		ldrd	r2, [sp, #16]
 543              		.loc 1 139 0
 544 0218 C7E90001 		strd	r0, [r7]
 545              		.loc 1 140 0
 546 021c 5046     		mov	r0, sl
 547 021e 5946     		mov	r1, fp
 548 0220 FFF7FEFF 		bl	__aeabi_dmul
 549              	.LVL106:
 550 0224 D6E90423 		ldrd	r2, [r6, #16]
 551 0228 8046     		mov	r8, r0
 552 022a 8946     		mov	r9, r1
 553 022c 2046     		mov	r0, r4
 554 022e 2946     		mov	r1, r5
 555 0230 FFF7FEFF 		bl	__aeabi_dadd
 556              	.LVL107:
 557 0234 FFF7FEFF 		bl	ln_deg_to_rad
 558              	.LVL108:
 559 0238 DDE90C23 		ldrd	r2, [sp, #48]
 560 023c FFF7FEFF 		bl	__aeabi_dadd
 561              	.LVL109:
 562 0240 FFF7FEFF 		bl	sin
 563              	.LVL110:
 564 0244 0246     		mov	r2, r0
 565 0246 0B46     		mov	r3, r1
 566 0248 4046     		mov	r0, r8
 567 024a 4946     		mov	r1, r9
 568 024c FFF7FEFF 		bl	__aeabi_dmul
ARM GAS  /tmp/ccHP3WMY.s 			page 11


 569              	.LVL111:
 570              		.loc 1 141 0
 571 0250 DDE90623 		ldrd	r2, [sp, #24]
 572              		.loc 1 140 0
 573 0254 C7E90201 		strd	r0, [r7, #8]
 574              		.loc 1 141 0
 575 0258 5046     		mov	r0, sl
 576 025a 5946     		mov	r1, fp
 577 025c FFF7FEFF 		bl	__aeabi_dmul
 578              	.LVL112:
 579 0260 D6E90423 		ldrd	r2, [r6, #16]
 580 0264 8046     		mov	r8, r0
 581 0266 8946     		mov	r9, r1
 582 0268 2046     		mov	r0, r4
 583 026a 2946     		mov	r1, r5
 584 026c FFF7FEFF 		bl	__aeabi_dadd
 585              	.LVL113:
 586 0270 FFF7FEFF 		bl	ln_deg_to_rad
 587              	.LVL114:
 588 0274 DDE90E23 		ldrd	r2, [sp, #56]
 589 0278 FFF7FEFF 		bl	__aeabi_dadd
 590              	.LVL115:
 591 027c FFF7FEFF 		bl	sin
 592              	.LVL116:
 593 0280 0246     		mov	r2, r0
 594 0282 0B46     		mov	r3, r1
 595 0284 4046     		mov	r0, r8
 596 0286 4946     		mov	r1, r9
 597 0288 FFF7FEFF 		bl	__aeabi_dmul
 598              	.LVL117:
 599 028c C7E90401 		strd	r0, [r7, #16]
 600              		.loc 1 142 0
 601 0290 11B0     		add	sp, sp, #68
 602 0292 BDE8F08F 		pop	{r4, r5, r6, r7, r8, r9, sl, fp, pc}
 603              	.L8:
 604 0296 00BF     		.align	3
 605              	.L7:
 606 0298 D59C5E57 		.word	1465818325
 607 029c 035CED3F 		.word	1072520195
 608 02a0 BF6A0751 		.word	1359440575
 609 02a4 2E75D93F 		.word	1071215918
 610              		.cfi_endproc
 611              	.LFE3:
 612              		.size	ln_get_par_helio_rect_posn, .-ln_get_par_helio_rect_posn
 613 02a8 AFF30080 		.section	.text.ln_get_par_body_equ_coords,"ax",%progbits
 613      AFF30080 
 614              		.align	2
 615              		.p2align 4,,15
 616              		.global	ln_get_par_body_equ_coords
 617              		.thumb
 618              		.thumb_func
 619              		.type	ln_get_par_body_equ_coords, %function
 620              	ln_get_par_body_equ_coords:
 621              	.LFB5:
 622              		.loc 1 180 0
 623              		.cfi_startproc
 624              		@ args = 0, pretend = 0, frame = 48
ARM GAS  /tmp/ccHP3WMY.s 			page 12


 625              		@ frame_needed = 0, uses_anonymous_args = 0
 626              	.LVL118:
 627 0000 2DE9F047 		push	{r4, r5, r6, r7, r8, r9, sl, lr}
 628              	.LCFI5:
 629              		.cfi_def_cfa_offset 32
 630              		.cfi_offset 4, -32
 631              		.cfi_offset 5, -28
 632              		.cfi_offset 6, -24
 633              		.cfi_offset 7, -20
 634              		.cfi_offset 8, -16
 635              		.cfi_offset 9, -12
 636              		.cfi_offset 10, -8
 637              		.cfi_offset 14, -4
 638 0004 8EB0     		sub	sp, sp, #56
 639              	.LCFI6:
 640              		.cfi_def_cfa_offset 88
 641              		.loc 1 180 0
 642 0006 0446     		mov	r4, r0
 643              		.loc 1 186 0
 644 0008 02AE     		add	r6, sp, #8
 645              		.loc 1 180 0
 646 000a 0D46     		mov	r5, r1
 647 000c 1746     		mov	r7, r2
 648 000e 9A46     		mov	sl, r3
 649              		.loc 1 186 0
 650 0010 1046     		mov	r0, r2
 651              	.LVL119:
 652 0012 0B46     		mov	r3, r1
 653              	.LVL120:
 654 0014 2246     		mov	r2, r4
 655              	.LVL121:
 656 0016 0096     		str	r6, [sp, #0]
 657 0018 FFF7FEFF 		bl	ln_get_par_helio_rect_posn
 658              	.LVL122:
 659              		.loc 1 187 0
 660 001c 08AA     		add	r2, sp, #32
 661 001e 2046     		mov	r0, r4
 662 0020 2946     		mov	r1, r5
 663 0022 FFF7FEFF 		bl	ln_get_solar_geo_coords
 664              	.LVL123:
 665              		.loc 1 190 0
 666 0026 3046     		mov	r0, r6
 667 0028 08A9     		add	r1, sp, #32
 668 002a FFF7FEFF 		bl	ln_get_rect_distance
 669              	.LVL124:
 670              		.loc 1 191 0
 671 002e FFF7FEFF 		bl	ln_get_light_time
 672              	.LVL125:
 673 0032 0246     		mov	r2, r0
 674 0034 0B46     		mov	r3, r1
 675              	.LVL126:
 676              		.loc 1 194 0
 677 0036 2046     		mov	r0, r4
 678 0038 2946     		mov	r1, r5
 679 003a FFF7FEFF 		bl	__aeabi_dsub
 680              	.LVL127:
 681 003e 0096     		str	r6, [sp, #0]
ARM GAS  /tmp/ccHP3WMY.s 			page 13


 682 0040 0246     		mov	r2, r0
 683 0042 0B46     		mov	r3, r1
 684 0044 3846     		mov	r0, r7
 685 0046 FFF7FEFF 		bl	ln_get_par_helio_rect_posn
 686              	.LVL128:
 687              		.loc 1 197 0
 688 004a DDE90223 		ldrd	r2, [sp, #8]
 689 004e DDE90801 		ldrd	r0, [sp, #32]
 690 0052 FFF7FEFF 		bl	__aeabi_dadd
 691              	.LVL129:
 692              		.loc 1 198 0
 693 0056 DDE90423 		ldrd	r2, [sp, #16]
 694              		.loc 1 197 0
 695 005a 0646     		mov	r6, r0
 696 005c 0F46     		mov	r7, r1
 697              	.LVL130:
 698              		.loc 1 198 0
 699 005e DDE90A01 		ldrd	r0, [sp, #40]
 700 0062 FFF7FEFF 		bl	__aeabi_dadd
 701              	.LVL131:
 702              		.loc 1 199 0
 703 0066 DDE90623 		ldrd	r2, [sp, #24]
 704              		.loc 1 198 0
 705 006a 0446     		mov	r4, r0
 706 006c 0D46     		mov	r5, r1
 707              	.LVL132:
 708              		.loc 1 199 0
 709 006e DDE90C01 		ldrd	r0, [sp, #48]
 710 0072 FFF7FEFF 		bl	__aeabi_dadd
 711              	.LVL133:
 712              		.loc 1 201 0
 713 0076 3246     		mov	r2, r6
 714 0078 3B46     		mov	r3, r7
 715              		.loc 1 199 0
 716 007a 8046     		mov	r8, r0
 717 007c 8946     		mov	r9, r1
 718              	.LVL134:
 719              		.loc 1 201 0
 720 007e 2046     		mov	r0, r4
 721 0080 2946     		mov	r1, r5
 722 0082 FFF7FEFF 		bl	atan2
 723              	.LVL135:
 724 0086 FFF7FEFF 		bl	ln_rad_to_deg
 725              	.LVL136:
 726 008a FFF7FEFF 		bl	ln_range_degrees
 727              	.LVL137:
 728              		.loc 1 202 0
 729 008e 3246     		mov	r2, r6
 730              		.loc 1 201 0
 731 0090 CAE90001 		strd	r0, [sl]
 732              		.loc 1 202 0
 733 0094 3B46     		mov	r3, r7
 734 0096 3046     		mov	r0, r6
 735 0098 3946     		mov	r1, r7
 736 009a FFF7FEFF 		bl	__aeabi_dmul
 737              	.LVL138:
 738 009e 2246     		mov	r2, r4
ARM GAS  /tmp/ccHP3WMY.s 			page 14


 739 00a0 0646     		mov	r6, r0
 740              	.LVL139:
 741 00a2 0F46     		mov	r7, r1
 742 00a4 2B46     		mov	r3, r5
 743 00a6 2046     		mov	r0, r4
 744 00a8 2946     		mov	r1, r5
 745 00aa FFF7FEFF 		bl	__aeabi_dmul
 746              	.LVL140:
 747 00ae 0246     		mov	r2, r0
 748 00b0 0B46     		mov	r3, r1
 749 00b2 3046     		mov	r0, r6
 750 00b4 3946     		mov	r1, r7
 751 00b6 FFF7FEFF 		bl	__aeabi_dadd
 752              	.LVL141:
 753 00ba FFF7FEFF 		bl	sqrt
 754              	.LVL142:
 755 00be 0246     		mov	r2, r0
 756 00c0 0B46     		mov	r3, r1
 757 00c2 4046     		mov	r0, r8
 758 00c4 4946     		mov	r1, r9
 759 00c6 FFF7FEFF 		bl	atan2
 760              	.LVL143:
 761 00ca FFF7FEFF 		bl	ln_rad_to_deg
 762              	.LVL144:
 763 00ce CAE90201 		strd	r0, [sl, #8]
 764              		.loc 1 203 0
 765 00d2 0EB0     		add	sp, sp, #56
 766 00d4 BDE8F087 		pop	{r4, r5, r6, r7, r8, r9, sl, pc}
 767              		.cfi_endproc
 768              	.LFE5:
 769              		.size	ln_get_par_body_equ_coords, .-ln_get_par_body_equ_coords
 770              		.section	.text.ln_get_par_geo_rect_posn,"ax",%progbits
 771              		.align	2
 772              		.p2align 4,,15
 773              		.global	ln_get_par_geo_rect_posn
 774              		.thumb
 775              		.thumb_func
 776              		.type	ln_get_par_geo_rect_posn, %function
 777              	ln_get_par_geo_rect_posn:
 778              	.LFB4:
 779              		.loc 1 154 0
 780              		.cfi_startproc
 781              		@ args = 4, pretend = 0, frame = 72
 782              		@ frame_needed = 0, uses_anonymous_args = 0
 783              	.LVL145:
 784 0000 70B5     		push	{r4, r5, r6, lr}
 785              	.LCFI7:
 786              		.cfi_def_cfa_offset 16
 787              		.cfi_offset 4, -16
 788              		.cfi_offset 5, -12
 789              		.cfi_offset 6, -8
 790              		.cfi_offset 14, -4
 791 0002 94B0     		sub	sp, sp, #80
 792              	.LCFI8:
 793              		.cfi_def_cfa_offset 96
 794              		.loc 1 159 0
 795 0004 02A9     		add	r1, sp, #8
ARM GAS  /tmp/ccHP3WMY.s 			page 15


 796              		.loc 1 154 0
 797 0006 1D46     		mov	r5, r3
 798 0008 1446     		mov	r4, r2
 799              		.loc 1 159 0
 800 000a 0091     		str	r1, [sp, #0]
 801              		.loc 1 154 0
 802 000c 189E     		ldr	r6, [sp, #96]
 803              		.loc 1 159 0
 804 000e FFF7FEFF 		bl	ln_get_par_helio_rect_posn
 805              	.LVL146:
 806              		.loc 1 162 0
 807 0012 0EAA     		add	r2, sp, #56
 808 0014 2046     		mov	r0, r4
 809 0016 2946     		mov	r1, r5
 810 0018 FFF7FEFF 		bl	ln_get_earth_helio_coords
 811              	.LVL147:
 812              		.loc 1 164 0
 813 001c 0EA8     		add	r0, sp, #56
 814 001e 08A9     		add	r1, sp, #32
 815 0020 FFF7FEFF 		bl	ln_get_rect_from_helio
 816              	.LVL148:
 817              		.loc 1 165 0
 818 0024 DDE90823 		ldrd	r2, [sp, #32]
 819 0028 DDE90201 		ldrd	r0, [sp, #8]
 820 002c FFF7FEFF 		bl	__aeabi_dsub
 821              	.LVL149:
 822              		.loc 1 166 0
 823 0030 DDE90A23 		ldrd	r2, [sp, #40]
 824              		.loc 1 165 0
 825 0034 C6E90001 		strd	r0, [r6]
 826              		.loc 1 166 0
 827 0038 DDE90401 		ldrd	r0, [sp, #16]
 828 003c FFF7FEFF 		bl	__aeabi_dsub
 829              	.LVL150:
 830              		.loc 1 167 0
 831 0040 DDE90C23 		ldrd	r2, [sp, #48]
 832              		.loc 1 166 0
 833 0044 C6E90201 		strd	r0, [r6, #8]
 834              		.loc 1 167 0
 835 0048 DDE90601 		ldrd	r0, [sp, #24]
 836 004c FFF7FEFF 		bl	__aeabi_dsub
 837              	.LVL151:
 838 0050 C6E90401 		strd	r0, [r6, #16]
 839              		.loc 1 168 0
 840 0054 14B0     		add	sp, sp, #80
 841 0056 70BD     		pop	{r4, r5, r6, pc}
 842              		.cfi_endproc
 843              	.LFE4:
 844              		.size	ln_get_par_geo_rect_posn, .-ln_get_par_geo_rect_posn
 845 0058 AFF30080 		.section	.text.ln_get_par_body_earth_dist,"ax",%progbits
 845      AFF30080 
 846              		.align	2
 847              		.p2align 4,,15
 848              		.global	ln_get_par_body_earth_dist
 849              		.thumb
 850              		.thumb_func
 851              		.type	ln_get_par_body_earth_dist, %function
ARM GAS  /tmp/ccHP3WMY.s 			page 16


 852              	ln_get_par_body_earth_dist:
 853              	.LFB6:
 854              		.loc 1 216 0
 855              		.cfi_startproc
 856              		@ args = 0, pretend = 0, frame = 48
 857              		@ frame_needed = 0, uses_anonymous_args = 0
 858              	.LVL152:
 859 0000 70B5     		push	{r4, r5, r6, lr}
 860              	.LCFI9:
 861              		.cfi_def_cfa_offset 16
 862              		.cfi_offset 4, -16
 863              		.cfi_offset 5, -12
 864              		.cfi_offset 6, -8
 865              		.cfi_offset 14, -4
 866 0002 8EB0     		sub	sp, sp, #56
 867              	.LCFI10:
 868              		.cfi_def_cfa_offset 72
 869              		.loc 1 216 0
 870 0004 0446     		mov	r4, r0
 871              		.loc 1 220 0
 872 0006 02AE     		add	r6, sp, #8
 873 0008 1046     		mov	r0, r2
 874              	.LVL153:
 875 000a 0B46     		mov	r3, r1
 876 000c 2246     		mov	r2, r4
 877              	.LVL154:
 878 000e 0096     		str	r6, [sp, #0]
 879              		.loc 1 216 0
 880 0010 0D46     		mov	r5, r1
 881              		.loc 1 220 0
 882 0012 FFF7FEFF 		bl	ln_get_par_geo_rect_posn
 883              	.LVL155:
 884              		.loc 1 221 0
 885 0016 0022     		movs	r2, #0
 886 0018 0023     		movs	r3, #0
 887              		.loc 1 226 0
 888 001a 3046     		mov	r0, r6
 889 001c 08A9     		add	r1, sp, #32
 890              		.loc 1 221 0
 891 001e CDE90823 		strd	r2, [sp, #32]
 892              		.loc 1 222 0
 893 0022 CDE90A23 		strd	r2, [sp, #40]
 894              		.loc 1 223 0
 895 0026 CDE90C23 		strd	r2, [sp, #48]
 896              		.loc 1 226 0
 897 002a FFF7FEFF 		bl	ln_get_rect_distance
 898              	.LVL156:
 899              		.loc 1 227 0
 900 002e 0EB0     		add	sp, sp, #56
 901 0030 70BD     		pop	{r4, r5, r6, pc}
 902              		.cfi_endproc
 903              	.LFE6:
 904              		.size	ln_get_par_body_earth_dist, .-ln_get_par_body_earth_dist
 905              		.section	.text.ln_get_par_body_solar_dist,"ax",%progbits
 906              		.align	2
 907              		.p2align 4,,15
 908              		.global	ln_get_par_body_solar_dist
ARM GAS  /tmp/ccHP3WMY.s 			page 17


 909              		.thumb
 910              		.thumb_func
 911              		.type	ln_get_par_body_solar_dist, %function
 912              	ln_get_par_body_solar_dist:
 913              	.LFB7:
 914              		.loc 1 238 0
 915              		.cfi_startproc
 916              		@ args = 0, pretend = 0, frame = 48
 917              		@ frame_needed = 0, uses_anonymous_args = 0
 918              	.LVL157:
 919 0000 70B5     		push	{r4, r5, r6, lr}
 920              	.LCFI11:
 921              		.cfi_def_cfa_offset 16
 922              		.cfi_offset 4, -16
 923              		.cfi_offset 5, -12
 924              		.cfi_offset 6, -8
 925              		.cfi_offset 14, -4
 926 0002 8EB0     		sub	sp, sp, #56
 927              	.LCFI12:
 928              		.cfi_def_cfa_offset 72
 929              		.loc 1 238 0
 930 0004 0446     		mov	r4, r0
 931              		.loc 1 242 0
 932 0006 02AE     		add	r6, sp, #8
 933 0008 1046     		mov	r0, r2
 934              	.LVL158:
 935 000a 0B46     		mov	r3, r1
 936 000c 2246     		mov	r2, r4
 937              	.LVL159:
 938 000e 0096     		str	r6, [sp, #0]
 939              		.loc 1 238 0
 940 0010 0D46     		mov	r5, r1
 941              		.loc 1 242 0
 942 0012 FFF7FEFF 		bl	ln_get_par_helio_rect_posn
 943              	.LVL160:
 944              		.loc 1 243 0
 945 0016 0022     		movs	r2, #0
 946 0018 0023     		movs	r3, #0
 947              		.loc 1 248 0
 948 001a 3046     		mov	r0, r6
 949 001c 08A9     		add	r1, sp, #32
 950              		.loc 1 243 0
 951 001e CDE90823 		strd	r2, [sp, #32]
 952              		.loc 1 244 0
 953 0022 CDE90A23 		strd	r2, [sp, #40]
 954              		.loc 1 245 0
 955 0026 CDE90C23 		strd	r2, [sp, #48]
 956              		.loc 1 248 0
 957 002a FFF7FEFF 		bl	ln_get_rect_distance
 958              	.LVL161:
 959              		.loc 1 249 0
 960 002e 0EB0     		add	sp, sp, #56
 961 0030 70BD     		pop	{r4, r5, r6, pc}
 962              		.cfi_endproc
 963              	.LFE7:
 964              		.size	ln_get_par_body_solar_dist, .-ln_get_par_body_solar_dist
 965              		.section	.text.ln_get_par_body_phase_angle,"ax",%progbits
ARM GAS  /tmp/ccHP3WMY.s 			page 18


 966              		.align	2
 967              		.p2align 4,,15
 968              		.global	ln_get_par_body_phase_angle
 969              		.thumb
 970              		.thumb_func
 971              		.type	ln_get_par_body_phase_angle, %function
 972              	ln_get_par_body_phase_angle:
 973              	.LFB8:
 974              		.loc 1 259 0
 975              		.cfi_startproc
 976              		@ args = 0, pretend = 0, frame = 0
 977              		@ frame_needed = 0, uses_anonymous_args = 0
 978              	.LVL162:
 979 0000 2DE9F84F 		push	{r3, r4, r5, r6, r7, r8, r9, sl, fp, lr}
 980              	.LCFI13:
 981              		.cfi_def_cfa_offset 40
 982              		.cfi_offset 3, -40
 983              		.cfi_offset 4, -36
 984              		.cfi_offset 5, -32
 985              		.cfi_offset 6, -28
 986              		.cfi_offset 7, -24
 987              		.cfi_offset 8, -20
 988              		.cfi_offset 9, -16
 989              		.cfi_offset 10, -12
 990              		.cfi_offset 11, -8
 991              		.cfi_offset 14, -4
 992              		.loc 1 268 0
 993 0004 D2E90067 		ldrd	r6, [r2]
 994              		.loc 1 259 0
 995 0008 9046     		mov	r8, r2
 996              		.loc 1 265 0
 997 000a D2E90823 		ldrd	r2, [r2, #32]
 998              	.LVL163:
 999              		.loc 1 259 0
 1000 000e 0446     		mov	r4, r0
 1001 0010 0D46     		mov	r5, r1
 1002              	.LVL164:
 1003              		.loc 1 265 0
 1004 0012 FFF7FEFF 		bl	__aeabi_dsub
 1005              	.LVL165:
 1006 0016 0B46     		mov	r3, r1
 1007 0018 0246     		mov	r2, r0
 1008              		.loc 1 268 0
 1009 001a 3946     		mov	r1, r7
 1010 001c 3046     		mov	r0, r6
 1011 001e FFF7FEFF 		bl	ln_get_par_radius_vector
 1012              	.LVL166:
 1013 0022 0646     		mov	r6, r0
 1014 0024 0F46     		mov	r7, r1
 1015              	.LVL167:
 1016              		.loc 1 271 0
 1017 0026 2046     		mov	r0, r4
 1018 0028 2946     		mov	r1, r5
 1019 002a FFF7FEFF 		bl	ln_get_earth_solar_dist
 1020              	.LVL168:
 1021              		.loc 1 272 0
 1022 002e 4246     		mov	r2, r8
ARM GAS  /tmp/ccHP3WMY.s 			page 19


 1023              		.loc 1 271 0
 1024 0030 8246     		mov	sl, r0
 1025 0032 8B46     		mov	fp, r1
 1026              	.LVL169:
 1027              		.loc 1 272 0
 1028 0034 2046     		mov	r0, r4
 1029 0036 2946     		mov	r1, r5
 1030 0038 FFF7FEFF 		bl	ln_get_par_body_solar_dist
 1031              	.LVL170:
 1032              		.loc 1 274 0
 1033 003c 3246     		mov	r2, r6
 1034              		.loc 1 272 0
 1035 003e 0446     		mov	r4, r0
 1036 0040 0D46     		mov	r5, r1
 1037              	.LVL171:
 1038              		.loc 1 274 0
 1039 0042 3B46     		mov	r3, r7
 1040 0044 3046     		mov	r0, r6
 1041 0046 3946     		mov	r1, r7
 1042 0048 FFF7FEFF 		bl	__aeabi_dmul
 1043              	.LVL172:
 1044 004c 2246     		mov	r2, r4
 1045 004e 8046     		mov	r8, r0
 1046              	.LVL173:
 1047 0050 8946     		mov	r9, r1
 1048 0052 2B46     		mov	r3, r5
 1049 0054 2046     		mov	r0, r4
 1050 0056 2946     		mov	r1, r5
 1051 0058 FFF7FEFF 		bl	__aeabi_dmul
 1052              	.LVL174:
 1053 005c 0246     		mov	r2, r0
 1054 005e 0B46     		mov	r3, r1
 1055 0060 4046     		mov	r0, r8
 1056 0062 4946     		mov	r1, r9
 1057 0064 FFF7FEFF 		bl	__aeabi_dadd
 1058              	.LVL175:
 1059 0068 5246     		mov	r2, sl
 1060 006a 8046     		mov	r8, r0
 1061 006c 8946     		mov	r9, r1
 1062 006e 5B46     		mov	r3, fp
 1063 0070 5046     		mov	r0, sl
 1064 0072 5946     		mov	r1, fp
 1065 0074 FFF7FEFF 		bl	__aeabi_dmul
 1066              	.LVL176:
 1067 0078 0246     		mov	r2, r0
 1068 007a 0B46     		mov	r3, r1
 1069 007c 4046     		mov	r0, r8
 1070 007e 4946     		mov	r1, r9
 1071 0080 FFF7FEFF 		bl	__aeabi_dsub
 1072              	.LVL177:
 1073 0084 3246     		mov	r2, r6
 1074 0086 8046     		mov	r8, r0
 1075 0088 8946     		mov	r9, r1
 1076 008a 3B46     		mov	r3, r7
 1077 008c 3046     		mov	r0, r6
 1078 008e 3946     		mov	r1, r7
 1079 0090 FFF7FEFF 		bl	__aeabi_dadd
ARM GAS  /tmp/ccHP3WMY.s 			page 20


 1080              	.LVL178:
 1081 0094 2246     		mov	r2, r4
 1082 0096 2B46     		mov	r3, r5
 1083 0098 FFF7FEFF 		bl	__aeabi_dmul
 1084              	.LVL179:
 1085 009c 0246     		mov	r2, r0
 1086 009e 0B46     		mov	r3, r1
 1087 00a0 4046     		mov	r0, r8
 1088 00a2 4946     		mov	r1, r9
 1089 00a4 FFF7FEFF 		bl	__aeabi_ddiv
 1090              	.LVL180:
 1091              		.loc 1 275 0
 1092 00a8 FFF7FEFF 		bl	acos
 1093              	.LVL181:
 1094 00ac FFF7FEFF 		bl	ln_rad_to_deg
 1095              	.LVL182:
 1096              		.loc 1 276 0
 1097 00b0 BDE8F84F 		pop	{r3, r4, r5, r6, r7, r8, r9, sl, fp, lr}
 1098              		.loc 1 275 0
 1099 00b4 FFF7FEBF 		b	ln_range_degrees
 1100              	.LVL183:
 1101              		.cfi_endproc
 1102              	.LFE8:
 1103              		.size	ln_get_par_body_phase_angle, .-ln_get_par_body_phase_angle
 1104 00b8 AFF30080 		.section	.text.ln_get_par_body_elong,"ax",%progbits
 1104      AFF30080 
 1105              		.align	2
 1106              		.p2align 4,,15
 1107              		.global	ln_get_par_body_elong
 1108              		.thumb
 1109              		.thumb_func
 1110              		.type	ln_get_par_body_elong, %function
 1111              	ln_get_par_body_elong:
 1112              	.LFB9:
 1113              		.loc 1 286 0
 1114              		.cfi_startproc
 1115              		@ args = 0, pretend = 0, frame = 0
 1116              		@ frame_needed = 0, uses_anonymous_args = 0
 1117              	.LVL184:
 1118 0000 2DE9F84F 		push	{r3, r4, r5, r6, r7, r8, r9, sl, fp, lr}
 1119              	.LCFI14:
 1120              		.cfi_def_cfa_offset 40
 1121              		.cfi_offset 3, -40
 1122              		.cfi_offset 4, -36
 1123              		.cfi_offset 5, -32
 1124              		.cfi_offset 6, -28
 1125              		.cfi_offset 7, -24
 1126              		.cfi_offset 8, -20
 1127              		.cfi_offset 9, -16
 1128              		.cfi_offset 10, -12
 1129              		.cfi_offset 11, -8
 1130              		.cfi_offset 14, -4
 1131              		.loc 1 295 0
 1132 0004 D2E90067 		ldrd	r6, [r2]
 1133              		.loc 1 286 0
 1134 0008 9046     		mov	r8, r2
 1135              		.loc 1 292 0
ARM GAS  /tmp/ccHP3WMY.s 			page 21


 1136 000a D2E90823 		ldrd	r2, [r2, #32]
 1137              	.LVL185:
 1138              		.loc 1 286 0
 1139 000e 0446     		mov	r4, r0
 1140 0010 0D46     		mov	r5, r1
 1141              	.LVL186:
 1142              		.loc 1 292 0
 1143 0012 FFF7FEFF 		bl	__aeabi_dsub
 1144              	.LVL187:
 1145 0016 0B46     		mov	r3, r1
 1146 0018 0246     		mov	r2, r0
 1147              		.loc 1 295 0
 1148 001a 3946     		mov	r1, r7
 1149 001c 3046     		mov	r0, r6
 1150 001e FFF7FEFF 		bl	ln_get_par_radius_vector
 1151              	.LVL188:
 1152 0022 8246     		mov	sl, r0
 1153 0024 8B46     		mov	fp, r1
 1154              	.LVL189:
 1155              		.loc 1 298 0
 1156 0026 2046     		mov	r0, r4
 1157 0028 2946     		mov	r1, r5
 1158 002a FFF7FEFF 		bl	ln_get_earth_solar_dist
 1159              	.LVL190:
 1160              		.loc 1 299 0
 1161 002e 4246     		mov	r2, r8
 1162              		.loc 1 298 0
 1163 0030 0646     		mov	r6, r0
 1164 0032 0F46     		mov	r7, r1
 1165              	.LVL191:
 1166              		.loc 1 299 0
 1167 0034 2046     		mov	r0, r4
 1168 0036 2946     		mov	r1, r5
 1169 0038 FFF7FEFF 		bl	ln_get_par_body_solar_dist
 1170              	.LVL192:
 1171              		.loc 1 301 0
 1172 003c 3246     		mov	r2, r6
 1173              		.loc 1 299 0
 1174 003e 0446     		mov	r4, r0
 1175 0040 0D46     		mov	r5, r1
 1176              	.LVL193:
 1177              		.loc 1 301 0
 1178 0042 3B46     		mov	r3, r7
 1179 0044 3046     		mov	r0, r6
 1180 0046 3946     		mov	r1, r7
 1181 0048 FFF7FEFF 		bl	__aeabi_dmul
 1182              	.LVL194:
 1183 004c 2246     		mov	r2, r4
 1184 004e 8046     		mov	r8, r0
 1185              	.LVL195:
 1186 0050 8946     		mov	r9, r1
 1187 0052 2B46     		mov	r3, r5
 1188 0054 2046     		mov	r0, r4
 1189 0056 2946     		mov	r1, r5
 1190 0058 FFF7FEFF 		bl	__aeabi_dmul
 1191              	.LVL196:
 1192 005c 0246     		mov	r2, r0
ARM GAS  /tmp/ccHP3WMY.s 			page 22


 1193 005e 0B46     		mov	r3, r1
 1194 0060 4046     		mov	r0, r8
 1195 0062 4946     		mov	r1, r9
 1196 0064 FFF7FEFF 		bl	__aeabi_dadd
 1197              	.LVL197:
 1198 0068 5246     		mov	r2, sl
 1199 006a 8046     		mov	r8, r0
 1200 006c 8946     		mov	r9, r1
 1201 006e 5B46     		mov	r3, fp
 1202 0070 5046     		mov	r0, sl
 1203 0072 5946     		mov	r1, fp
 1204 0074 FFF7FEFF 		bl	__aeabi_dmul
 1205              	.LVL198:
 1206 0078 0246     		mov	r2, r0
 1207 007a 0B46     		mov	r3, r1
 1208 007c 4046     		mov	r0, r8
 1209 007e 4946     		mov	r1, r9
 1210 0080 FFF7FEFF 		bl	__aeabi_dsub
 1211              	.LVL199:
 1212 0084 3246     		mov	r2, r6
 1213 0086 8046     		mov	r8, r0
 1214 0088 8946     		mov	r9, r1
 1215 008a 3B46     		mov	r3, r7
 1216 008c 3046     		mov	r0, r6
 1217 008e 3946     		mov	r1, r7
 1218 0090 FFF7FEFF 		bl	__aeabi_dadd
 1219              	.LVL200:
 1220 0094 2246     		mov	r2, r4
 1221 0096 2B46     		mov	r3, r5
 1222 0098 FFF7FEFF 		bl	__aeabi_dmul
 1223              	.LVL201:
 1224 009c 0246     		mov	r2, r0
 1225 009e 0B46     		mov	r3, r1
 1226 00a0 4046     		mov	r0, r8
 1227 00a2 4946     		mov	r1, r9
 1228 00a4 FFF7FEFF 		bl	__aeabi_ddiv
 1229              	.LVL202:
 1230              		.loc 1 302 0
 1231 00a8 FFF7FEFF 		bl	acos
 1232              	.LVL203:
 1233 00ac FFF7FEFF 		bl	ln_rad_to_deg
 1234              	.LVL204:
 1235              		.loc 1 303 0
 1236 00b0 BDE8F84F 		pop	{r3, r4, r5, r6, r7, r8, r9, sl, fp, lr}
 1237              		.loc 1 302 0
 1238 00b4 FFF7FEBF 		b	ln_range_degrees
 1239              	.LVL205:
 1240              		.cfi_endproc
 1241              	.LFE9:
 1242              		.size	ln_get_par_body_elong, .-ln_get_par_body_elong
 1243 00b8 AFF30080 		.section	.text.ln_get_par_body_rst_horizon,"ax",%progbits
 1243      AFF30080 
 1244              		.align	2
 1245              		.p2align 4,,15
 1246              		.global	ln_get_par_body_rst_horizon
 1247              		.thumb
 1248              		.thumb_func
ARM GAS  /tmp/ccHP3WMY.s 			page 23


 1249              		.type	ln_get_par_body_rst_horizon, %function
 1250              	ln_get_par_body_rst_horizon:
 1251              	.LFB11:
 1252              		.loc 1 338 0
 1253              		.cfi_startproc
 1254              		@ args = 12, pretend = 0, frame = 0
 1255              		@ frame_needed = 0, uses_anonymous_args = 0
 1256              	.LVL206:
 1257 0000 30B5     		push	{r4, r5, lr}
 1258              	.LCFI15:
 1259              		.cfi_def_cfa_offset 12
 1260              		.cfi_offset 4, -12
 1261              		.cfi_offset 5, -8
 1262              		.cfi_offset 14, -4
 1263 0002 87B0     		sub	sp, sp, #28
 1264              	.LCFI16:
 1265              		.cfi_def_cfa_offset 40
 1266              		.loc 1 339 0
 1267 0004 DDE90A45 		ldrd	r4, [sp, #40]
 1268 0008 0093     		str	r3, [sp, #0]
 1269 000a 0C9B     		ldr	r3, [sp, #48]
 1270              	.LVL207:
 1271 000c 0493     		str	r3, [sp, #16]
 1272 000e 40F20003 		movw	r3, #:lower16:ln_get_par_body_equ_coords
 1273 0012 CDE90245 		strd	r4, [sp, #8]
 1274 0016 C0F20003 		movt	r3, #:upper16:ln_get_par_body_equ_coords
 1275 001a FFF7FEFF 		bl	ln_get_motion_body_rst_horizon
 1276              	.LVL208:
 1277              		.loc 1 340 0
 1278 001e 07B0     		add	sp, sp, #28
 1279 0020 30BD     		pop	{r4, r5, pc}
 1280              		.cfi_endproc
 1281              	.LFE11:
 1282              		.size	ln_get_par_body_rst_horizon, .-ln_get_par_body_rst_horizon
 1283 0022 00BFAFF3 		.section	.text.ln_get_par_body_rst,"ax",%progbits
 1283      0080AFF3 
 1283      0080AFF3 
 1283      0080
 1284              		.align	2
 1285              		.p2align 4,,15
 1286              		.global	ln_get_par_body_rst
 1287              		.thumb
 1288              		.thumb_func
 1289              		.type	ln_get_par_body_rst, %function
 1290              	ln_get_par_body_rst:
 1291              	.LFB10:
 1292              		.loc 1 319 0
 1293              		.cfi_startproc
 1294              		@ args = 4, pretend = 0, frame = 0
 1295              		@ frame_needed = 0, uses_anonymous_args = 0
 1296              	.LVL209:
 1297 0000 30B5     		push	{r4, r5, lr}
 1298              	.LCFI17:
 1299              		.cfi_def_cfa_offset 12
 1300              		.cfi_offset 4, -12
 1301              		.cfi_offset 5, -8
 1302              		.cfi_offset 14, -4
ARM GAS  /tmp/ccHP3WMY.s 			page 24


 1303              		.loc 1 320 0
 1304 0002 07A5     		adr	r5, .L17
 1305 0004 D5E90045 		ldrd	r4, [r5]
 1306              		.loc 1 319 0
 1307 0008 85B0     		sub	sp, sp, #20
 1308              	.LCFI18:
 1309              		.cfi_def_cfa_offset 32
 1310              		.loc 1 320 0
 1311 000a CDE90045 		strd	r4, [sp]
 1312 000e 089C     		ldr	r4, [sp, #32]
 1313 0010 0294     		str	r4, [sp, #8]
 1314 0012 FFF7FEFF 		bl	ln_get_par_body_rst_horizon
 1315              	.LVL210:
 1316              		.loc 1 321 0
 1317 0016 05B0     		add	sp, sp, #20
 1318 0018 30BD     		pop	{r4, r5, pc}
 1319              	.L18:
 1320 001a 00BFAFF3 		.align	3
 1320      0080
 1321              	.L17:
 1322 0020 1895D409 		.word	164926744
 1323 0024 6822E2BF 		.word	-1075699096
 1324              		.cfi_endproc
 1325              	.LFE10:
 1326              		.size	ln_get_par_body_rst, .-ln_get_par_body_rst
 1327 0028 AFF30080 		.section	.text.ln_get_par_body_next_rst_horizon,"ax",%progbits
 1327      AFF30080 
 1328              		.align	2
 1329              		.p2align 4,,15
 1330              		.global	ln_get_par_body_next_rst_horizon
 1331              		.thumb
 1332              		.thumb_func
 1333              		.type	ln_get_par_body_next_rst_horizon, %function
 1334              	ln_get_par_body_next_rst_horizon:
 1335              	.LFB13:
 1336              		.loc 1 379 0
 1337              		.cfi_startproc
 1338              		@ args = 12, pretend = 0, frame = 0
 1339              		@ frame_needed = 0, uses_anonymous_args = 0
 1340              	.LVL211:
 1341 0000 30B5     		push	{r4, r5, lr}
 1342              	.LCFI19:
 1343              		.cfi_def_cfa_offset 12
 1344              		.cfi_offset 4, -12
 1345              		.cfi_offset 5, -8
 1346              		.cfi_offset 14, -4
 1347 0002 87B0     		sub	sp, sp, #28
 1348              	.LCFI20:
 1349              		.cfi_def_cfa_offset 40
 1350              		.loc 1 380 0
 1351 0004 DDE90A45 		ldrd	r4, [sp, #40]
 1352 0008 0093     		str	r3, [sp, #0]
 1353 000a 0C9B     		ldr	r3, [sp, #48]
 1354              	.LVL212:
 1355 000c 0493     		str	r3, [sp, #16]
 1356 000e 40F20003 		movw	r3, #:lower16:ln_get_par_body_equ_coords
 1357 0012 CDE90245 		strd	r4, [sp, #8]
ARM GAS  /tmp/ccHP3WMY.s 			page 25


 1358 0016 C0F20003 		movt	r3, #:upper16:ln_get_par_body_equ_coords
 1359 001a FFF7FEFF 		bl	ln_get_motion_body_next_rst_horizon
 1360              	.LVL213:
 1361              		.loc 1 381 0
 1362 001e 07B0     		add	sp, sp, #28
 1363 0020 30BD     		pop	{r4, r5, pc}
 1364              		.cfi_endproc
 1365              	.LFE13:
 1366              		.size	ln_get_par_body_next_rst_horizon, .-ln_get_par_body_next_rst_horizon
 1367 0022 00BFAFF3 		.section	.text.ln_get_par_body_next_rst,"ax",%progbits
 1367      0080AFF3 
 1367      0080AFF3 
 1367      0080
 1368              		.align	2
 1369              		.p2align 4,,15
 1370              		.global	ln_get_par_body_next_rst
 1371              		.thumb
 1372              		.thumb_func
 1373              		.type	ln_get_par_body_next_rst, %function
 1374              	ln_get_par_body_next_rst:
 1375              	.LFB12:
 1376              		.loc 1 358 0
 1377              		.cfi_startproc
 1378              		@ args = 4, pretend = 0, frame = 0
 1379              		@ frame_needed = 0, uses_anonymous_args = 0
 1380              	.LVL214:
 1381 0000 30B5     		push	{r4, r5, lr}
 1382              	.LCFI21:
 1383              		.cfi_def_cfa_offset 12
 1384              		.cfi_offset 4, -12
 1385              		.cfi_offset 5, -8
 1386              		.cfi_offset 14, -4
 1387              		.loc 1 359 0
 1388 0002 07A5     		adr	r5, .L21
 1389 0004 D5E90045 		ldrd	r4, [r5]
 1390              		.loc 1 358 0
 1391 0008 85B0     		sub	sp, sp, #20
 1392              	.LCFI22:
 1393              		.cfi_def_cfa_offset 32
 1394              		.loc 1 359 0
 1395 000a CDE90045 		strd	r4, [sp]
 1396 000e 089C     		ldr	r4, [sp, #32]
 1397 0010 0294     		str	r4, [sp, #8]
 1398 0012 FFF7FEFF 		bl	ln_get_par_body_next_rst_horizon
 1399              	.LVL215:
 1400              		.loc 1 360 0
 1401 0016 05B0     		add	sp, sp, #20
 1402 0018 30BD     		pop	{r4, r5, pc}
 1403              	.L22:
 1404 001a 00BFAFF3 		.align	3
 1404      0080
 1405              	.L21:
 1406 0020 1895D409 		.word	164926744
 1407 0024 6822E2BF 		.word	-1075699096
 1408              		.cfi_endproc
 1409              	.LFE12:
 1410              		.size	ln_get_par_body_next_rst, .-ln_get_par_body_next_rst
ARM GAS  /tmp/ccHP3WMY.s 			page 26


 1411 0028 AFF30080 		.section	.text.ln_get_par_body_next_rst_horizon_future,"ax",%progbits
 1411      AFF30080 
 1412              		.align	2
 1413              		.p2align 4,,15
 1414              		.global	ln_get_par_body_next_rst_horizon_future
 1415              		.thumb
 1416              		.thumb_func
 1417              		.type	ln_get_par_body_next_rst_horizon_future, %function
 1418              	ln_get_par_body_next_rst_horizon_future:
 1419              	.LFB14:
 1420              		.loc 1 401 0
 1421              		.cfi_startproc
 1422              		@ args = 16, pretend = 0, frame = 0
 1423              		@ frame_needed = 0, uses_anonymous_args = 0
 1424              	.LVL216:
 1425 0000 30B5     		push	{r4, r5, lr}
 1426              	.LCFI23:
 1427              		.cfi_def_cfa_offset 12
 1428              		.cfi_offset 4, -12
 1429              		.cfi_offset 5, -8
 1430              		.cfi_offset 14, -4
 1431 0002 87B0     		sub	sp, sp, #28
 1432              	.LCFI24:
 1433              		.cfi_def_cfa_offset 40
 1434              		.loc 1 402 0
 1435 0004 DDE90A45 		ldrd	r4, [sp, #40]
 1436 0008 0093     		str	r3, [sp, #0]
 1437 000a 0C9B     		ldr	r3, [sp, #48]
 1438              	.LVL217:
 1439 000c 0493     		str	r3, [sp, #16]
 1440 000e 0D9B     		ldr	r3, [sp, #52]
 1441 0010 0593     		str	r3, [sp, #20]
 1442 0012 40F20003 		movw	r3, #:lower16:ln_get_par_body_equ_coords
 1443 0016 CDE90245 		strd	r4, [sp, #8]
 1444 001a C0F20003 		movt	r3, #:upper16:ln_get_par_body_equ_coords
 1445 001e FFF7FEFF 		bl	ln_get_motion_body_next_rst_horizon_future
 1446              	.LVL218:
 1447              		.loc 1 403 0
 1448 0022 07B0     		add	sp, sp, #28
 1449 0024 30BD     		pop	{r4, r5, pc}
 1450              		.cfi_endproc
 1451              	.LFE14:
 1452              		.size	ln_get_par_body_next_rst_horizon_future, .-ln_get_par_body_next_rst_horizon_future
 1453 0026 00BFAFF3 		.text
 1453      0080AFF3 
 1453      0080
 1454              	.Letext0:
 1455              		.file 2 "./libnova/src/libnova/ln_types.h"
 1456              		.file 3 "/usr/bin/../lib/gcc/arm-none-eabi/4.7.4/../../../../arm-none-eabi/include/math.h"
 1457              		.file 4 "./libnova/src/libnova/utility.h"
 1458              		.file 5 "./libnova/src/libnova/solar.h"
 1459              		.file 6 "./libnova/src/libnova/earth.h"
 1460              		.file 7 "./libnova/src/libnova/transform.h"
 1461              		.file 8 "./libnova/src/libnova/rise_set.h"