ARM GAS  /tmp/ccI9Dq53.s 			page 1


   1              		.syntax unified
   2              		.cpu cortex-m4
   3              		.fpu softvfp
   4              		.eabi_attribute 20, 1
   5              		.eabi_attribute 21, 1
   6              		.eabi_attribute 23, 3
   7              		.eabi_attribute 24, 1
   8              		.eabi_attribute 25, 1
   9              		.eabi_attribute 26, 1
  10              		.eabi_attribute 30, 2
  11              		.eabi_attribute 34, 1
  12              		.eabi_attribute 18, 4
  13              		.thumb
  14              		.file	"parallax.c"
  15              		.text
  16              	.Ltext0:
  17              		.cfi_sections	.debug_frame
  18              		.global	__aeabi_dmul
  19              		.global	__aeabi_ddiv
  20              		.global	__aeabi_dadd
  21              		.global	__aeabi_dcmpgt
  22              		.section	.text.get_topocentric,"ax",%progbits
  23              		.align	2
  24              		.p2align 4,,15
  25              		.global	get_topocentric
  26              		.thumb
  27              		.thumb_func
  28              		.type	get_topocentric, %function
  29              	get_topocentric:
  30              	.LFB0:
  31              		.file 1 "./libnova/src/parallax.c"
  32              		.loc 1 27 0
  33              		.cfi_startproc
  34              		@ args = 8, pretend = 0, frame = 24
  35              		@ frame_needed = 0, uses_anonymous_args = 0
  36              	.LVL0:
  37 0000 2DE9F047 		push	{r4, r5, r6, r7, r8, r9, sl, lr}
  38              	.LCFI0:
  39              		.cfi_def_cfa_offset 32
  40              		.cfi_offset 4, -32
  41              		.cfi_offset 5, -28
  42              		.cfi_offset 6, -24
  43              		.cfi_offset 7, -20
  44              		.cfi_offset 8, -16
  45              		.cfi_offset 9, -12
  46              		.cfi_offset 10, -8
  47              		.cfi_offset 14, -4
  48 0004 86B0     		sub	sp, sp, #24
  49              	.LCFI1:
  50              		.cfi_def_cfa_offset 56
  51              		.loc 1 27 0
  52 0006 8246     		mov	sl, r0
  53              		.loc 1 29 0
  54 0008 D0E90201 		ldrd	r0, [r0, #8]
  55              	.LVL1:
  56              		.loc 1 27 0
  57 000c 1646     		mov	r6, r2
ARM GAS  /tmp/ccI9Dq53.s 			page 2


  58 000e 1F46     		mov	r7, r3
  59 0010 DDF83890 		ldr	r9, [sp, #56]
  60 0014 DDF83C80 		ldr	r8, [sp, #60]
  61              		.loc 1 29 0
  62 0018 FFF7FEFF 		bl	ln_deg_to_rad
  63              	.LVL2:
  64 001c CDE90001 		strd	r0, [sp]
  65              	.LVL3:
  66              		.loc 1 30 0
  67 0020 FFF7FEFF 		bl	tan
  68              	.LVL4:
  69 0024 32A3     		adr	r3, .L8
  70 0026 D3E90023 		ldrd	r2, [r3]
  71 002a FFF7FEFF 		bl	__aeabi_dmul
  72              	.LVL5:
  73 002e FFF7FEFF 		bl	atan
  74              	.LVL6:
  75 0032 CDE90201 		strd	r0, [sp, #8]
  76              	.LVL7:
  77              		.loc 1 31 0
  78 0036 FFF7FEFF 		bl	sin
  79              	.LVL8:
  80 003a 2FA3     		adr	r3, .L8+8
  81 003c D3E90023 		ldrd	r2, [r3]
  82 0040 0446     		mov	r4, r0
  83 0042 0D46     		mov	r5, r1
  84 0044 3046     		mov	r0, r6
  85 0046 3946     		mov	r1, r7
  86 0048 FFF7FEFF 		bl	__aeabi_ddiv
  87              	.LVL9:
  88 004c 0646     		mov	r6, r0
  89 004e 0F46     		mov	r7, r1
  90 0050 DDE90001 		ldrd	r0, [sp]
  91 0054 FFF7FEFF 		bl	sin
  92              	.LVL10:
  93 0058 25A3     		adr	r3, .L8
  94 005a D3E90023 		ldrd	r2, [r3]
  95 005e CDE90401 		strd	r0, [sp, #16]
  96 0062 2046     		mov	r0, r4
  97 0064 2946     		mov	r1, r5
  98 0066 FFF7FEFF 		bl	__aeabi_dmul
  99              	.LVL11:
 100 006a DDE90423 		ldrd	r2, [sp, #16]
 101 006e 0446     		mov	r4, r0
 102 0070 0D46     		mov	r5, r1
 103 0072 3046     		mov	r0, r6
 104 0074 3946     		mov	r1, r7
 105 0076 FFF7FEFF 		bl	__aeabi_dmul
 106              	.LVL12:
 107 007a 0246     		mov	r2, r0
 108 007c 0B46     		mov	r3, r1
 109 007e 2046     		mov	r0, r4
 110 0080 2946     		mov	r1, r5
 111 0082 FFF7FEFF 		bl	__aeabi_dadd
 112              	.LVL13:
 113 0086 C9E90001 		strd	r0, [r9]
 114              		.loc 1 32 0
ARM GAS  /tmp/ccI9Dq53.s 			page 3


 115 008a DDE90201 		ldrd	r0, [sp, #8]
 116 008e FFF7FEFF 		bl	cos
 117              	.LVL14:
 118 0092 0446     		mov	r4, r0
 119 0094 0D46     		mov	r5, r1
 120 0096 DDE90001 		ldrd	r0, [sp]
 121 009a FFF7FEFF 		bl	cos
 122              	.LVL15:
 123 009e 0246     		mov	r2, r0
 124 00a0 0B46     		mov	r3, r1
 125 00a2 3046     		mov	r0, r6
 126 00a4 3946     		mov	r1, r7
 127 00a6 FFF7FEFF 		bl	__aeabi_dmul
 128              	.LVL16:
 129 00aa 0246     		mov	r2, r0
 130 00ac 0B46     		mov	r3, r1
 131 00ae 2046     		mov	r0, r4
 132 00b0 2946     		mov	r1, r5
 133 00b2 FFF7FEFF 		bl	__aeabi_dadd
 134              	.LVL17:
 135 00b6 C8E90001 		strd	r0, [r8]
 136              		.loc 1 34 0
 137 00ba 0023     		movs	r3, #0
 138 00bc 0022     		movs	r2, #0
 139 00be DAE90201 		ldrd	r0, [sl, #8]
 140 00c2 FFF7FEFF 		bl	__aeabi_dcmpgt
 141              	.LVL18:
 142              		.loc 1 35 0
 143 00c6 D9F80430 		ldr	r3, [r9, #4]
 144              		.loc 1 34 0
 145 00ca 60B1     		cbz	r0, .L6
 146              		.loc 1 35 0
 147 00cc 23F00041 		bic	r1, r3, #-2147483648
 148 00d0 C9F80410 		str	r1, [r9, #4]
 149              	.L4:
 150              		.loc 1 39 0
 151 00d4 D8F80420 		ldr	r2, [r8, #4]
 152 00d8 22F00043 		bic	r3, r2, #-2147483648
 153 00dc C8F80430 		str	r3, [r8, #4]
 154              		.loc 1 40 0
 155 00e0 06B0     		add	sp, sp, #24
 156 00e2 BDE8F087 		pop	{r4, r5, r6, r7, r8, r9, sl, pc}
 157              	.L6:
 158              		.loc 1 37 0
 159 00e6 43F00040 		orr	r0, r3, #-2147483648
 160 00ea C9F80400 		str	r0, [r9, #4]
 161 00ee F1E7     		b	.L4
 162              	.L9:
 163              		.align	3
 164              	.L8:
 165 00f0 D868D6A5 		.word	2782292184
 166 00f4 88E4EF3F 		.word	1072686216
 167 00f8 00000000 		.word	0
 168 00fc A7545841 		.word	1096307879
 169              		.cfi_endproc
 170              	.LFE0:
 171              		.size	get_topocentric, .-get_topocentric
ARM GAS  /tmp/ccI9Dq53.s 			page 4


 172              		.global	__aeabi_dsub
 173              		.section	.text.ln_get_parallax_ha,"ax",%progbits
 174              		.align	2
 175              		.p2align 4,,15
 176              		.global	ln_get_parallax_ha
 177              		.thumb
 178              		.thumb_func
 179              		.type	ln_get_parallax_ha, %function
 180              	ln_get_parallax_ha:
 181              	.LFB2:
 182              		.loc 1 88 0
 183              		.cfi_startproc
 184              		@ args = 28, pretend = 0, frame = 40
 185              		@ frame_needed = 0, uses_anonymous_args = 0
 186              	.LVL19:
 187 0000 2DE9F04F 		push	{r4, r5, r6, r7, r8, r9, sl, fp, lr}
 188              	.LCFI2:
 189              		.cfi_def_cfa_offset 36
 190              		.cfi_offset 4, -36
 191              		.cfi_offset 5, -32
 192              		.cfi_offset 6, -28
 193              		.cfi_offset 7, -24
 194              		.cfi_offset 8, -20
 195              		.cfi_offset 9, -16
 196              		.cfi_offset 10, -12
 197              		.cfi_offset 11, -8
 198              		.cfi_offset 14, -4
 199 0004 8DB0     		sub	sp, sp, #52
 200              	.LCFI3:
 201              		.cfi_def_cfa_offset 88
 202              		.loc 1 88 0
 203 0006 1D46     		mov	r5, r3
 204              		.loc 1 90 0
 205 0008 0AA9     		add	r1, sp, #40
 206 000a 08AB     		add	r3, sp, #32
 207              		.loc 1 88 0
 208 000c 8146     		mov	r9, r0
 209 000e 1446     		mov	r4, r2
 210              		.loc 1 90 0
 211 0010 1698     		ldr	r0, [sp, #88]
 212              	.LVL20:
 213 0012 0093     		str	r3, [sp, #0]
 214 0014 0191     		str	r1, [sp, #4]
 215 0016 DDE91823 		ldrd	r2, [sp, #96]
 216              	.LVL21:
 217              		.loc 1 88 0
 218 001a DDF87080 		ldr	r8, [sp, #112]
 219              		.loc 1 90 0
 220 001e FFF7FEFF 		bl	get_topocentric
 221              	.LVL22:
 222              		.loc 1 91 0
 223 0022 2246     		mov	r2, r4
 224 0024 2B46     		mov	r3, r5
 225 0026 50A1     		adr	r1, .L11
 226 0028 D1E90001 		ldrd	r0, [r1]
 227 002c FFF7FEFF 		bl	__aeabi_ddiv
 228              	.LVL23:
ARM GAS  /tmp/ccI9Dq53.s 			page 5


 229 0030 4FA3     		adr	r3, .L11+8
 230 0032 D3E90023 		ldrd	r2, [r3]
 231 0036 FFF7FEFF 		bl	__aeabi_ddiv
 232              	.LVL24:
 233 003a FFF7FEFF 		bl	ln_deg_to_rad
 234              	.LVL25:
 235 003e FFF7FEFF 		bl	sin
 236              	.LVL26:
 237              		.loc 1 94 0
 238 0042 4DA3     		adr	r3, .L11+16
 239 0044 D3E90023 		ldrd	r2, [r3]
 240              		.loc 1 91 0
 241 0048 8246     		mov	sl, r0
 242 004a 8B46     		mov	fp, r1
 243              	.LVL27:
 244              		.loc 1 94 0
 245 004c DDE91A01 		ldrd	r0, [sp, #104]
 246 0050 FFF7FEFF 		bl	__aeabi_dmul
 247              	.LVL28:
 248 0054 0646     		mov	r6, r0
 249 0056 0F46     		mov	r7, r1
 250              	.LVL29:
 251              		.loc 1 96 0
 252 0058 FFF7FEFF 		bl	sin
 253              	.LVL30:
 254 005c 0446     		mov	r4, r0
 255 005e 0D46     		mov	r5, r1
 256              	.LVL31:
 257              		.loc 1 97 0
 258 0060 3046     		mov	r0, r6
 259 0062 3946     		mov	r1, r7
 260 0064 FFF7FEFF 		bl	cos
 261              	.LVL32:
 262 0068 CDE90201 		strd	r0, [sp, #8]
 263              	.LVL33:
 264              		.loc 1 99 0
 265 006c D9E90201 		ldrd	r0, [r9, #8]
 266              	.LVL34:
 267 0070 FFF7FEFF 		bl	ln_deg_to_rad
 268              	.LVL35:
 269 0074 CDE90601 		strd	r0, [sp, #24]
 270              	.LVL36:
 271              		.loc 1 100 0
 272 0078 FFF7FEFF 		bl	cos
 273              	.LVL37:
 274              		.loc 1 102 0
 275 007c 0B9E     		ldr	r6, [sp, #44]
 276              	.LVL38:
 277 007e 0A9F     		ldr	r7, [sp, #40]
 278 0080 06F10043 		add	r3, r6, #-2147483648
 279              		.loc 1 100 0
 280 0084 CDE90401 		strd	r0, [sp, #16]
 281              	.LVL39:
 282              		.loc 1 102 0
 283 0088 5246     		mov	r2, sl
 284 008a 3846     		mov	r0, r7
 285              	.LVL40:
ARM GAS  /tmp/ccI9Dq53.s 			page 6


 286 008c 1946     		mov	r1, r3
 287 008e 5B46     		mov	r3, fp
 288 0090 FFF7FEFF 		bl	__aeabi_dmul
 289              	.LVL41:
 290 0094 2246     		mov	r2, r4
 291 0096 2B46     		mov	r3, r5
 292 0098 FFF7FEFF 		bl	__aeabi_dmul
 293              	.LVL42:
 294 009c 3A46     		mov	r2, r7
 295 009e 0446     		mov	r4, r0
 296              	.LVL43:
 297 00a0 0D46     		mov	r5, r1
 298 00a2 3346     		mov	r3, r6
 299 00a4 5046     		mov	r0, sl
 300 00a6 5946     		mov	r1, fp
 301 00a8 FFF7FEFF 		bl	__aeabi_dmul
 302              	.LVL44:
 303 00ac DDE90223 		ldrd	r2, [sp, #8]
 304 00b0 FFF7FEFF 		bl	__aeabi_dmul
 305              	.LVL45:
 306 00b4 0246     		mov	r2, r0
 307 00b6 0B46     		mov	r3, r1
 308 00b8 DDE90401 		ldrd	r0, [sp, #16]
 309 00bc FFF7FEFF 		bl	__aeabi_dsub
 310              	.LVL46:
 311 00c0 0246     		mov	r2, r0
 312 00c2 0B46     		mov	r3, r1
 313 00c4 2046     		mov	r0, r4
 314 00c6 2946     		mov	r1, r5
 315 00c8 FFF7FEFF 		bl	atan2
 316              	.LVL47:
 317 00cc 0446     		mov	r4, r0
 318 00ce 0D46     		mov	r5, r1
 319 00d0 C8E90045 		strd	r4, [r8]
 320              		.loc 1 103 0
 321 00d4 DDE90601 		ldrd	r0, [sp, #24]
 322 00d8 FFF7FEFF 		bl	sin
 323              	.LVL48:
 324 00dc 0646     		mov	r6, r0
 325 00de 0F46     		mov	r7, r1
 326 00e0 2046     		mov	r0, r4
 327 00e2 2946     		mov	r1, r5
 328 00e4 FFF7FEFF 		bl	cos
 329              	.LVL49:
 330 00e8 DDE90823 		ldrd	r2, [sp, #32]
 331 00ec 0446     		mov	r4, r0
 332 00ee 0D46     		mov	r5, r1
 333 00f0 5046     		mov	r0, sl
 334 00f2 5946     		mov	r1, fp
 335 00f4 FFF7FEFF 		bl	__aeabi_dmul
 336              	.LVL50:
 337 00f8 0246     		mov	r2, r0
 338 00fa 0B46     		mov	r3, r1
 339 00fc 3046     		mov	r0, r6
 340 00fe 3946     		mov	r1, r7
 341 0100 FFF7FEFF 		bl	__aeabi_dsub
 342              	.LVL51:
ARM GAS  /tmp/ccI9Dq53.s 			page 7


 343 0104 2246     		mov	r2, r4
 344 0106 2B46     		mov	r3, r5
 345 0108 FFF7FEFF 		bl	__aeabi_dmul
 346              	.LVL52:
 347 010c DDE90A23 		ldrd	r2, [sp, #40]
 348 0110 0446     		mov	r4, r0
 349 0112 0D46     		mov	r5, r1
 350 0114 5046     		mov	r0, sl
 351 0116 5946     		mov	r1, fp
 352 0118 FFF7FEFF 		bl	__aeabi_dmul
 353              	.LVL53:
 354 011c DDE90223 		ldrd	r2, [sp, #8]
 355 0120 FFF7FEFF 		bl	__aeabi_dmul
 356              	.LVL54:
 357 0124 0246     		mov	r2, r0
 358 0126 0B46     		mov	r3, r1
 359 0128 DDE90401 		ldrd	r0, [sp, #16]
 360 012c FFF7FEFF 		bl	__aeabi_dsub
 361              	.LVL55:
 362 0130 0246     		mov	r2, r0
 363 0132 0B46     		mov	r3, r1
 364 0134 2046     		mov	r0, r4
 365 0136 2946     		mov	r1, r5
 366 0138 FFF7FEFF 		bl	atan2
 367              	.LVL56:
 368 013c C8E90201 		strd	r0, [r8, #8]
 369              		.loc 1 105 0
 370 0140 D8E90001 		ldrd	r0, [r8]
 371 0144 FFF7FEFF 		bl	ln_rad_to_deg
 372              	.LVL57:
 373 0148 C8E90001 		strd	r0, [r8]
 374              		.loc 1 106 0
 375 014c D8E90201 		ldrd	r0, [r8, #8]
 376 0150 FFF7FEFF 		bl	ln_rad_to_deg
 377              	.LVL58:
 378 0154 D9E90223 		ldrd	r2, [r9, #8]
 379 0158 FFF7FEFF 		bl	__aeabi_dsub
 380              	.LVL59:
 381 015c C8E90201 		strd	r0, [r8, #8]
 382              		.loc 1 107 0
 383 0160 0DB0     		add	sp, sp, #52
 384 0162 BDE8F08F 		pop	{r4, r5, r6, r7, r8, r9, sl, fp, pc}
 385              	.L12:
 386 0166 00BF     		.align	3
 387              	.L11:
 388 0168 4A0C022B 		.word	721554506
 389 016c 87962140 		.word	1075943047
 390 0170 00000000 		.word	0
 391 0174 0020AC40 		.word	1085022208
 392 0178 65732D38 		.word	942502757
 393 017c 52C1D03F 		.word	1070645586
 394              		.cfi_endproc
 395              	.LFE2:
 396              		.size	ln_get_parallax_ha, .-ln_get_parallax_ha
 397              		.section	.text.ln_get_parallax,"ax",%progbits
 398              		.align	2
 399              		.p2align 4,,15
ARM GAS  /tmp/ccI9Dq53.s 			page 8


 400              		.global	ln_get_parallax
 401              		.thumb
 402              		.thumb_func
 403              		.type	ln_get_parallax, %function
 404              	ln_get_parallax:
 405              	.LFB1:
 406              		.loc 1 61 0
 407              		.cfi_startproc
 408              		@ args = 28, pretend = 0, frame = 8
 409              		@ frame_needed = 0, uses_anonymous_args = 0
 410              	.LVL60:
 411 0000 2DE9D04F 		push	{r4, r6, r7, r8, r9, sl, fp, lr}
 412              	.LCFI4:
 413              		.cfi_def_cfa_offset 32
 414              		.cfi_offset 4, -32
 415              		.cfi_offset 6, -28
 416              		.cfi_offset 7, -24
 417              		.cfi_offset 8, -20
 418              		.cfi_offset 9, -16
 419              		.cfi_offset 10, -12
 420              		.cfi_offset 11, -8
 421              		.cfi_offset 14, -4
 422 0004 82B0     		sub	sp, sp, #8
 423              	.LCFI5:
 424              		.cfi_def_cfa_offset 40
 425              		.loc 1 61 0
 426 0006 8246     		mov	sl, r0
 427              		.loc 1 63 0
 428 0008 DDE90E01 		ldrd	r0, [sp, #56]
 429              	.LVL61:
 430              		.loc 1 61 0
 431 000c 0A9C     		ldr	r4, [sp, #40]
 432 000e DDF840B0 		ldr	fp, [sp, #64]
 433 0012 DDE90C89 		ldrd	r8, [sp, #48]
 434 0016 CDE90023 		strd	r2, [sp]
 435              		.loc 1 63 0
 436 001a FFF7FEFF 		bl	ln_get_apparent_sidereal_time
 437              	.LVL62:
 438 001e DAE90023 		ldrd	r2, [sl]
 439 0022 0646     		mov	r6, r0
 440 0024 0F46     		mov	r7, r1
 441              	.LVL63:
 442 0026 D4E90001 		ldrd	r0, [r4]
 443              		.loc 1 64 0
 444 002a 0A94     		str	r4, [sp, #40]
 445 002c CDE90C89 		strd	r8, [sp, #48]
 446              		.loc 1 63 0
 447 0030 FFF7FEFF 		bl	__aeabi_dsub
 448              	.LVL64:
 449 0034 0023     		movs	r3, #0
 450 0036 0022     		movs	r2, #0
 451 0038 C4F22E03 		movt	r3, 16430
 452 003c FFF7FEFF 		bl	__aeabi_ddiv
 453              	.LVL65:
 454 0040 0246     		mov	r2, r0
 455 0042 0B46     		mov	r3, r1
 456 0044 3046     		mov	r0, r6
ARM GAS  /tmp/ccI9Dq53.s 			page 9


 457 0046 3946     		mov	r1, r7
 458 0048 FFF7FEFF 		bl	__aeabi_dadd
 459              	.LVL66:
 460              		.loc 1 64 0
 461 004c DDE90023 		ldrd	r2, [sp]
 462 0050 CDE90E01 		strd	r0, [sp, #56]
 463 0054 5046     		mov	r0, sl
 464 0056 CDF840B0 		str	fp, [sp, #64]
 465              		.loc 1 65 0
 466 005a 02B0     		add	sp, sp, #8
 467 005c BDE8D04F 		pop	{r4, r6, r7, r8, r9, sl, fp, lr}
 468              		.loc 1 64 0
 469 0060 FFF7FEBF 		b	ln_get_parallax_ha
 470              	.LVL67:
 471              		.cfi_endproc
 472              	.LFE1:
 473              		.size	ln_get_parallax, .-ln_get_parallax
 474 0064 AFF30080 		.text
 474      AFF30080 
 474      AFF30080 
 475              	.Letext0:
 476              		.file 2 "./libnova/src/libnova/ln_types.h"
 477              		.file 3 "./libnova/src/libnova/utility.h"
 478              		.file 4 "/usr/bin/../lib/gcc/arm-none-eabi/4.7.4/../../../../arm-none-eabi/include/math.h"
 479              		.file 5 "./libnova/src/libnova/sidereal_time.h"