ARM GAS  /tmp/ccDhibM6.s 			page 1


   1              		.syntax unified
   2              		.cpu cortex-m4
   3              		.fpu softvfp
   4              		.eabi_attribute 20, 1
   5              		.eabi_attribute 21, 1
   6              		.eabi_attribute 23, 3
   7              		.eabi_attribute 24, 1
   8              		.eabi_attribute 25, 1
   9              		.eabi_attribute 26, 1
  10              		.eabi_attribute 30, 2
  11              		.eabi_attribute 34, 1
  12              		.eabi_attribute 18, 4
  13              		.thumb
  14              		.file	"pluto.c"
  15              		.text
  16              	.Ltext0:
  17              		.cfi_sections	.debug_frame
  18              		.global	__aeabi_dcmpeq
  19              		.global	__aeabi_dsub
  20              		.global	__aeabi_ddiv
  21              		.global	__aeabi_dmul
  22              		.global	__aeabi_dadd
  23              		.section	.text.ln_get_pluto_helio_coords,"ax",%progbits
  24              		.align	2
  25              		.p2align 4,,15
  26              		.global	ln_get_pluto_helio_coords
  27              		.thumb
  28              		.thumb_func
  29              		.type	ln_get_pluto_helio_coords, %function
  30              	ln_get_pluto_helio_coords:
  31              	.LFB1:
  32              		.file 1 "./libnova/src/pluto.c"
  33              		.loc 1 297 0
  34              		.cfi_startproc
  35              		@ args = 0, pretend = 0, frame = 80
  36              		@ frame_needed = 0, uses_anonymous_args = 0
  37              	.LVL0:
  38 0000 2DE9F04F 		push	{r4, r5, r6, r7, r8, r9, sl, fp, lr}
  39              	.LCFI0:
  40              		.cfi_def_cfa_offset 36
  41              		.cfi_offset 4, -36
  42              		.cfi_offset 5, -32
  43              		.cfi_offset 6, -28
  44              		.cfi_offset 7, -24
  45              		.cfi_offset 8, -20
  46              		.cfi_offset 9, -16
  47              		.cfi_offset 10, -12
  48              		.cfi_offset 11, -8
  49              		.cfi_offset 14, -4
  50              		.loc 1 304 0
  51 0004 40F20004 		movw	r4, #:lower16:.LANCHOR0
  52              		.loc 1 297 0
  53 0008 95B0     		sub	sp, sp, #84
  54              	.LCFI1:
  55              		.cfi_def_cfa_offset 120
  56              		.loc 1 304 0
  57 000a C0F20004 		movt	r4, #:upper16:.LANCHOR0
ARM GAS  /tmp/ccDhibM6.s 			page 2


  58              		.loc 1 297 0
  59 000e 0F92     		str	r2, [sp, #60]
  60              		.loc 1 304 0
  61 0010 D4E90023 		ldrd	r2, [r4]
  62              	.LVL1:
  63              		.loc 1 297 0
  64 0014 CDE91001 		strd	r0, [sp, #64]
  65              		.loc 1 304 0
  66 0018 FFF7FEFF 		bl	__aeabi_dcmpeq
  67              	.LVL2:
  68 001c 0028     		cmp	r0, #0
  69 001e 40F07781 		bne	.L10
  70              	.LVL3:
  71              	.LBB4:
  72              	.LBB5:
  73              		.loc 1 313 0
  74 0022 99A3     		adr	r3, .L11
  75 0024 D3E90023 		ldrd	r2, [r3]
  76 0028 DDE91001 		ldrd	r0, [sp, #64]
  77 002c FFF7FEFF 		bl	__aeabi_dsub
  78              	.LVL4:
  79 0030 97A3     		adr	r3, .L11+8
  80 0032 D3E90023 		ldrd	r2, [r3]
  81 0036 FFF7FEFF 		bl	__aeabi_ddiv
  82              	.LVL5:
  83              		.loc 1 316 0
  84 003a 97A3     		adr	r3, .L11+16
  85 003c D3E90023 		ldrd	r2, [r3]
  86              		.loc 1 313 0
  87 0040 0646     		mov	r6, r0
  88 0042 0D46     		mov	r5, r1
  89              		.loc 1 316 0
  90 0044 FFF7FEFF 		bl	__aeabi_dmul
  91              	.LVL6:
  92 0048 95A3     		adr	r3, .L11+24
  93 004a D3E90023 		ldrd	r2, [r3]
  94 004e FFF7FEFF 		bl	__aeabi_dadd
  95              	.LVL7:
  96              		.loc 1 317 0
  97 0052 95A3     		adr	r3, .L11+32
  98 0054 D3E90023 		ldrd	r2, [r3]
  99              		.loc 1 316 0
 100 0058 CDE90801 		strd	r0, [sp, #32]
 101              	.LVL8:
 102              		.loc 1 317 0
 103 005c 3046     		mov	r0, r6
 104              	.LVL9:
 105 005e 2946     		mov	r1, r5
 106 0060 FFF7FEFF 		bl	__aeabi_dmul
 107              	.LVL10:
 108 0064 92A3     		adr	r3, .L11+40
 109 0066 D3E90023 		ldrd	r2, [r3]
 110 006a FFF7FEFF 		bl	__aeabi_dadd
 111              	.LVL11:
 112 006e A04F     		ldr	r7, .L11+104
 113 0070 A04C     		ldr	r4, .L11+108
 114 0072 0E97     		str	r7, [sp, #56]
ARM GAS  /tmp/ccDhibM6.s 			page 3


 115 0074 CDE90A01 		strd	r0, [sp, #40]
 116              	.LVL12:
 117              		.loc 1 318 0
 118 0078 8FA3     		adr	r3, .L11+48
 119 007a D3E90023 		ldrd	r2, [r3]
 120 007e 3046     		mov	r0, r6
 121              	.LVL13:
 122 0080 2946     		mov	r1, r5
 123 0082 0194     		str	r4, [sp, #4]
 124 0084 FFF7FEFF 		bl	__aeabi_dmul
 125              	.LVL14:
 126              	.LBE5:
 127              	.LBE4:
 128              		.loc 1 298 0
 129 0088 0022     		movs	r2, #0
 130 008a 0023     		movs	r3, #0
 131 008c CDE90223 		strd	r2, [sp, #8]
 132              	.LBB9:
 133              	.LBB6:
 134              		.loc 1 318 0
 135 0090 8BA3     		adr	r3, .L11+56
 136 0092 D3E90023 		ldrd	r2, [r3]
 137 0096 CDE91201 		strd	r0, [sp, #72]
 138 009a FFF7FEFF 		bl	__aeabi_dadd
 139              	.LVL15:
 140              	.LBE6:
 141              	.LBE9:
 142              		.loc 1 298 0
 143 009e DDE90223 		ldrd	r2, [sp, #8]
 144              	.LBB10:
 145              	.LBB7:
 146              		.loc 1 318 0
 147 00a2 CDE90C01 		strd	r0, [sp, #48]
 148              	.LVL16:
 149              	.LBE7:
 150              	.LBE10:
 151              		.loc 1 298 0
 152 00a6 CDE90623 		strd	r2, [sp, #24]
 153 00aa CDE90423 		strd	r2, [sp, #16]
 154 00ae DFF854A2 		ldr	sl, .L11+124
 155 00b2 DFF854B2 		ldr	fp, .L11+128
 156              	.LVL17:
 157              	.L5:
 158              	.LBB11:
 159              	.LBB8:
 160              		.loc 1 322 0
 161 00b6 5AE90423 		ldrd	r2, [sl, #-16]
 162 00ba DDE90801 		ldrd	r0, [sp, #32]
 163 00be FFF7FEFF 		bl	__aeabi_dmul
 164              	.LVL18:
 165 00c2 5AE90223 		ldrd	r2, [sl, #-8]
 166 00c6 0646     		mov	r6, r0
 167 00c8 0D46     		mov	r5, r1
 168 00ca DDE90A01 		ldrd	r0, [sp, #40]
 169 00ce FFF7FEFF 		bl	__aeabi_dmul
 170              	.LVL19:
 171 00d2 0246     		mov	r2, r0
ARM GAS  /tmp/ccDhibM6.s 			page 4


 172 00d4 0B46     		mov	r3, r1
 173 00d6 3046     		mov	r0, r6
 174 00d8 2946     		mov	r1, r5
 175 00da FFF7FEFF 		bl	__aeabi_dadd
 176              	.LVL20:
 177 00de FAE80623 		ldrd	r2, [sl], #24
 178 00e2 0746     		mov	r7, r0
 179 00e4 0C46     		mov	r4, r1
 180 00e6 DDE90C01 		ldrd	r0, [sp, #48]
 181 00ea FFF7FEFF 		bl	__aeabi_dmul
 182              	.LVL21:
 183 00ee 0246     		mov	r2, r0
 184 00f0 0B46     		mov	r3, r1
 185 00f2 3846     		mov	r0, r7
 186 00f4 2146     		mov	r1, r4
 187 00f6 FFF7FEFF 		bl	__aeabi_dadd
 188              	.LVL22:
 189 00fa 0446     		mov	r4, r0
 190 00fc 0D46     		mov	r5, r1
 191              	.LVL23:
 192              		.loc 1 323 0
 193 00fe FFF7FEFF 		bl	ln_deg_to_rad
 194              	.LVL24:
 195 0102 FFF7FEFF 		bl	sin
 196              	.LVL25:
 197 0106 0646     		mov	r6, r0
 198 0108 0F46     		mov	r7, r1
 199              	.LVL26:
 200              		.loc 1 324 0
 201 010a 2046     		mov	r0, r4
 202 010c 2946     		mov	r1, r5
 203 010e FFF7FEFF 		bl	ln_deg_to_rad
 204              	.LVL27:
 205 0112 FFF7FEFF 		bl	cos
 206              	.LVL28:
 207              		.loc 1 327 0
 208 0116 DDF838C0 		ldr	ip, [sp, #56]
 209              		.loc 1 324 0
 210 011a 0446     		mov	r4, r0
 211              	.LVL29:
 212 011c 0D46     		mov	r5, r1
 213              	.LVL30:
 214              		.loc 1 327 0
 215 011e 5CE90223 		ldrd	r2, [ip, #-8]
 216 0122 3046     		mov	r0, r6
 217 0124 3946     		mov	r1, r7
 218 0126 FFF7FEFF 		bl	__aeabi_dmul
 219              	.LVL31:
 220 012a DDF838C0 		ldr	ip, [sp, #56]
 221 012e FCE80423 		ldrd	r2, [ip], #16
 222 0132 8046     		mov	r8, r0
 223 0134 8946     		mov	r9, r1
 224 0136 2046     		mov	r0, r4
 225 0138 2946     		mov	r1, r5
 226 013a CDF838C0 		str	ip, [sp, #56]
 227 013e FFF7FEFF 		bl	__aeabi_dmul
 228              	.LVL32:
ARM GAS  /tmp/ccDhibM6.s 			page 5


 229 0142 0246     		mov	r2, r0
 230 0144 0B46     		mov	r3, r1
 231 0146 4046     		mov	r0, r8
 232 0148 4946     		mov	r1, r9
 233 014a FFF7FEFF 		bl	__aeabi_dadd
 234              	.LVL33:
 235 014e 0246     		mov	r2, r0
 236 0150 0B46     		mov	r3, r1
 237 0152 DDE90401 		ldrd	r0, [sp, #16]
 238 0156 FFF7FEFF 		bl	__aeabi_dadd
 239              	.LVL34:
 240              		.loc 1 330 0
 241 015a DDF80480 		ldr	r8, [sp, #4]
 242              		.loc 1 327 0
 243 015e CDE90401 		strd	r0, [sp, #16]
 244              	.LVL35:
 245              		.loc 1 330 0
 246 0162 58E90223 		ldrd	r2, [r8, #-8]
 247 0166 3046     		mov	r0, r6
 248              	.LVL36:
 249 0168 3946     		mov	r1, r7
 250 016a FFF7FEFF 		bl	__aeabi_dmul
 251              	.LVL37:
 252 016e DDF804C0 		ldr	ip, [sp, #4]
 253 0172 FCE80423 		ldrd	r2, [ip], #16
 254 0176 8046     		mov	r8, r0
 255 0178 8946     		mov	r9, r1
 256 017a 2046     		mov	r0, r4
 257 017c 2946     		mov	r1, r5
 258 017e CDF804C0 		str	ip, [sp, #4]
 259 0182 FFF7FEFF 		bl	__aeabi_dmul
 260              	.LVL38:
 261 0186 0246     		mov	r2, r0
 262 0188 0B46     		mov	r3, r1
 263 018a 4046     		mov	r0, r8
 264 018c 4946     		mov	r1, r9
 265 018e FFF7FEFF 		bl	__aeabi_dadd
 266              	.LVL39:
 267 0192 0246     		mov	r2, r0
 268 0194 0B46     		mov	r3, r1
 269 0196 DDE90601 		ldrd	r0, [sp, #24]
 270 019a FFF7FEFF 		bl	__aeabi_dadd
 271              	.LVL40:
 272              		.loc 1 333 0
 273 019e 5BE90223 		ldrd	r2, [fp, #-8]
 274              		.loc 1 330 0
 275 01a2 CDE90601 		strd	r0, [sp, #24]
 276              	.LVL41:
 277              		.loc 1 333 0
 278 01a6 3046     		mov	r0, r6
 279              	.LVL42:
 280 01a8 3946     		mov	r1, r7
 281 01aa FFF7FEFF 		bl	__aeabi_dmul
 282              	.LVL43:
 283 01ae FBE80423 		ldrd	r2, [fp], #16
 284 01b2 0646     		mov	r6, r0
 285              	.LVL44:
ARM GAS  /tmp/ccDhibM6.s 			page 6


 286 01b4 0F46     		mov	r7, r1
 287 01b6 2046     		mov	r0, r4
 288 01b8 2946     		mov	r1, r5
 289 01ba FFF7FEFF 		bl	__aeabi_dmul
 290              	.LVL45:
 291 01be 0246     		mov	r2, r0
 292 01c0 0B46     		mov	r3, r1
 293 01c2 3046     		mov	r0, r6
 294 01c4 3946     		mov	r1, r7
 295 01c6 FFF7FEFF 		bl	__aeabi_dadd
 296              	.LVL46:
 297 01ca 0246     		mov	r2, r0
 298 01cc 0B46     		mov	r3, r1
 299 01ce DDE90201 		ldrd	r0, [sp, #8]
 300 01d2 FFF7FEFF 		bl	__aeabi_dadd
 301              	.LVL47:
 302              		.loc 1 321 0
 303 01d6 DFF834E1 		ldr	lr, .L11+132
 304 01da F245     		cmp	sl, lr
 305              		.loc 1 333 0
 306 01dc CDE90201 		strd	r0, [sp, #8]
 307              	.LVL48:
 308              		.loc 1 321 0
 309 01e0 7FF469AF 		bne	.L5
 310              		.loc 1 337 0
 311 01e4 38A3     		adr	r3, .L11+64
 312 01e6 D3E90023 		ldrd	r2, [r3]
 313 01ea DDE91201 		ldrd	r0, [sp, #72]
 314              	.LVL49:
 315 01ee FFF7FEFF 		bl	__aeabi_dadd
 316              	.LVL50:
 317 01f2 37A3     		adr	r3, .L11+72
 318 01f4 D3E90023 		ldrd	r2, [r3]
 319 01f8 0446     		mov	r4, r0
 320              	.LVL51:
 321 01fa 0D46     		mov	r5, r1
 322 01fc DDE90401 		ldrd	r0, [sp, #16]
 323 0200 FFF7FEFF 		bl	__aeabi_dmul
 324              	.LVL52:
 325 0204 0246     		mov	r2, r0
 326 0206 0B46     		mov	r3, r1
 327 0208 2046     		mov	r0, r4
 328 020a 2946     		mov	r1, r5
 329 020c FFF7FEFF 		bl	__aeabi_dadd
 330              	.LVL53:
 331 0210 0446     		mov	r4, r0
 332 0212 0F98     		ldr	r0, [sp, #60]
 333 0214 0D46     		mov	r5, r1
 334              		.loc 1 338 0
 335 0216 2EA3     		adr	r3, .L11+72
 336 0218 D3E90023 		ldrd	r2, [r3]
 337              		.loc 1 337 0
 338 021c C0E90045 		strd	r4, [r0]
 339              		.loc 1 338 0
 340 0220 DDE90601 		ldrd	r0, [sp, #24]
 341 0224 FFF7FEFF 		bl	__aeabi_dmul
 342              	.LVL54:
ARM GAS  /tmp/ccDhibM6.s 			page 7


 343 0228 2BA3     		adr	r3, .L11+80
 344 022a D3E90023 		ldrd	r2, [r3]
 345 022e FFF7FEFF 		bl	__aeabi_dsub
 346              	.LVL55:
 347 0232 DDF83CC0 		ldr	ip, [sp, #60]
 348 0236 0646     		mov	r6, r0
 349 0238 0F46     		mov	r7, r1
 350 023a CCE90267 		strd	r6, [ip, #8]
 351              		.loc 1 339 0
 352 023e 28A3     		adr	r3, .L11+88
 353 0240 D3E90023 		ldrd	r2, [r3]
 354 0244 DDE90201 		ldrd	r0, [sp, #8]
 355 0248 FFF7FEFF 		bl	__aeabi_dmul
 356              	.LVL56:
 357 024c 26A3     		adr	r3, .L11+96
 358 024e D3E90023 		ldrd	r2, [r3]
 359 0252 FFF7FEFF 		bl	__aeabi_dadd
 360              	.LVL57:
 361 0256 DDF83CC0 		ldr	ip, [sp, #60]
 362              		.loc 1 342 0
 363 025a DDE91023 		ldrd	r2, [sp, #64]
 364              		.loc 1 339 0
 365 025e CCE90401 		strd	r0, [ip, #16]
 366              		.loc 1 342 0
 367 0262 40F2000C 		movw	ip, #:lower16:.LANCHOR0
 368 0266 C0F2000C 		movt	ip, #:upper16:.LANCHOR0
 369 026a CCE90023 		strd	r2, [ip]
 370              		.loc 1 343 0
 371 026e 224B     		ldr	r3, .L11+112
 372              		.loc 1 344 0
 373 0270 224A     		ldr	r2, .L11+116
 374              		.loc 1 343 0
 375 0272 C3E90045 		strd	r4, [r3]
 376              		.loc 1 345 0
 377 0276 224B     		ldr	r3, .L11+120
 378              		.loc 1 344 0
 379 0278 C2E90067 		strd	r6, [r2]
 380              		.loc 1 345 0
 381 027c C3E90001 		strd	r0, [r3]
 382              	.LVL58:
 383              	.L1:
 384              	.LBE8:
 385              	.LBE11:
 386              		.loc 1 346 0
 387 0280 15B0     		add	sp, sp, #84
 388 0282 BDE8F08F 		pop	{r4, r5, r6, r7, r8, r9, sl, fp, pc}
 389              	.L12:
 390 0286 00BF     		.align	3
 391              	.L11:
 392 0288 00000080 		.word	2147483648
 393 028c 2CB44241 		.word	1094890540
 394 0290 00000000 		.word	0
 395 0294 A0D5E140 		.word	1088542112
 396 0298 F90FE9B7 		.word	3085504505
 397 029c CFB5A740 		.word	1084732879
 398 02a0 CDCCCCCC 		.word	3435973837
 399 02a4 CC2C4140 		.word	1078013132
ARM GAS  /tmp/ccDhibM6.s 			page 8


 400 02a8 24B9FC87 		.word	2281486628
 401 02ac 74189340 		.word	1083381876
 402 02b0 0AD7A370 		.word	1889785610
 403 02b4 3D0A4940 		.word	1078528573
 404 02b8 1F85EB51 		.word	1374389535
 405 02bc B81E6240 		.word	1080172216
 406 02c0 1F85EB51 		.word	1374389535
 407 02c4 B8DE6D40 		.word	1080942264
 408 02c8 C7B8E2E2 		.word	3806509255
 409 02cc A8DE6D40 		.word	1080942248
 410 02d0 8DEDB5A0 		.word	2696277389
 411 02d4 F7C6B03E 		.word	1051772663
 412 02d8 2C9D0FCF 		.word	3473906988
 413 02dc 12440F40 		.word	1074742290
 414 02e0 48AFBC9A 		.word	2596056904
 415 02e4 F2D77A3E 		.word	1048238066
 416 02e8 76734C71 		.word	1900835702
 417 02ec B05C4440 		.word	1078222000
 418 02f0 08000000 		.word	.LANCHOR5+8
 419 02f4 08000000 		.word	.LANCHOR6+8
 420 02f8 00000000 		.word	.LANCHOR1
 421 02fc 00000000 		.word	.LANCHOR2
 422 0300 00000000 		.word	.LANCHOR3
 423 0304 10000000 		.word	.LANCHOR4+16
 424 0308 08000000 		.word	.LANCHOR7+8
 425 030c 18040000 		.word	.LANCHOR4+1048
 426              	.L10:
 427              		.loc 1 307 0
 428 0310 084E     		ldr	r6, .L13
 429              		.loc 1 306 0
 430 0312 0949     		ldr	r1, .L13+4
 431              		.loc 1 308 0
 432 0314 094C     		ldr	r4, .L13+8
 433              		.loc 1 307 0
 434 0316 D6E90023 		ldrd	r2, [r6]
 435              		.loc 1 306 0
 436 031a D1E90001 		ldrd	r0, [r1]
 437              		.loc 1 308 0
 438 031e D4E90045 		ldrd	r4, [r4]
 439              		.loc 1 306 0
 440 0322 0F9E     		ldr	r6, [sp, #60]
 441 0324 C6E90001 		strd	r0, [r6]
 442              		.loc 1 307 0
 443 0328 C6E90223 		strd	r2, [r6, #8]
 444              		.loc 1 308 0
 445 032c C6E90445 		strd	r4, [r6, #16]
 446              		.loc 1 309 0
 447 0330 A6E7     		b	.L1
 448              	.L14:
 449 0332 00BF     		.align	2
 450              	.L13:
 451 0334 00000000 		.word	.LANCHOR2
 452 0338 00000000 		.word	.LANCHOR1
 453 033c 00000000 		.word	.LANCHOR3
 454              		.cfi_endproc
 455              	.LFE1:
 456              		.size	ln_get_pluto_helio_coords, .-ln_get_pluto_helio_coords
ARM GAS  /tmp/ccDhibM6.s 			page 9


 457              		.global	__aeabi_dcmpgt
 458              		.global	__aeabi_dcmplt
 459              		.section	.text.ln_get_pluto_equ_coords,"ax",%progbits
 460              		.align	2
 461              		.p2align 4,,15
 462              		.global	ln_get_pluto_equ_coords
 463              		.thumb
 464              		.thumb_func
 465              		.type	ln_get_pluto_equ_coords, %function
 466              	ln_get_pluto_equ_coords:
 467              	.LFB0:
 468              		.loc 1 247 0
 469              		.cfi_startproc
 470              		@ args = 0, pretend = 0, frame = 128
 471              		@ frame_needed = 0, uses_anonymous_args = 0
 472              	.LVL59:
 473 0000 2DE9F04F 		push	{r4, r5, r6, r7, r8, r9, sl, fp, lr}
 474              	.LCFI2:
 475              		.cfi_def_cfa_offset 36
 476              		.cfi_offset 4, -36
 477              		.cfi_offset 5, -32
 478              		.cfi_offset 6, -28
 479              		.cfi_offset 7, -24
 480              		.cfi_offset 8, -20
 481              		.cfi_offset 9, -16
 482              		.cfi_offset 10, -12
 483              		.cfi_offset 11, -8
 484              		.cfi_offset 14, -4
 485 0004 A1B0     		sub	sp, sp, #132
 486              	.LCFI3:
 487              		.cfi_def_cfa_offset 168
 488              		.loc 1 247 0
 489 0006 CDE90401 		strd	r0, [sp, #16]
 490 000a 0792     		str	r2, [sp, #28]
 491              		.loc 1 254 0
 492 000c 08AA     		add	r2, sp, #32
 493              	.LVL60:
 494 000e FFF7FEFF 		bl	ln_get_solar_geom_coords
 495              	.LVL61:
 496              		.loc 1 255 0
 497 0012 08A8     		add	r0, sp, #32
 498 0014 14A9     		add	r1, sp, #80
 499 0016 FFF7FEFF 		bl	ln_get_rect_from_helio
 500              	.LVL62:
 501              		.loc 1 251 0
 502 001a 0026     		movs	r6, #0
 503 001c 0027     		movs	r7, #0
 504 001e 01E0     		b	.L16
 505              	.LVL63:
 506              	.L17:
 507              		.loc 1 247 0 discriminator 1
 508 0020 4646     		mov	r6, r8
 509              	.LVL64:
 510 0022 4F46     		mov	r7, r9
 511              	.LVL65:
 512              	.L16:
 513              		.loc 1 259 0 discriminator 1
ARM GAS  /tmp/ccDhibM6.s 			page 10


 514 0024 3B46     		mov	r3, r7
 515 0026 3246     		mov	r2, r6
 516 0028 DDE90401 		ldrd	r0, [sp, #16]
 517 002c FFF7FEFF 		bl	__aeabi_dsub
 518              	.LVL66:
 519 0030 0EAA     		add	r2, sp, #56
 520 0032 FFF7FEFF 		bl	ln_get_pluto_helio_coords
 521              	.LVL67:
 522              		.loc 1 260 0 discriminator 1
 523 0036 0EA8     		add	r0, sp, #56
 524 0038 1AA9     		add	r1, sp, #104
 525 003a FFF7FEFF 		bl	ln_get_rect_from_helio
 526              	.LVL68:
 527              		.loc 1 263 0 discriminator 1
 528 003e DDE91A23 		ldrd	r2, [sp, #104]
 529 0042 DDE91401 		ldrd	r0, [sp, #80]
 530 0046 FFF7FEFF 		bl	__aeabi_dadd
 531              	.LVL69:
 532              		.loc 1 264 0 discriminator 1
 533 004a DDE91C23 		ldrd	r2, [sp, #112]
 534              		.loc 1 263 0 discriminator 1
 535 004e 8246     		mov	sl, r0
 536 0050 8B46     		mov	fp, r1
 537              	.LVL70:
 538              		.loc 1 264 0 discriminator 1
 539 0052 DDE91601 		ldrd	r0, [sp, #88]
 540 0056 FFF7FEFF 		bl	__aeabi_dadd
 541              	.LVL71:
 542              		.loc 1 265 0 discriminator 1
 543 005a DDE91E23 		ldrd	r2, [sp, #120]
 544              		.loc 1 264 0 discriminator 1
 545 005e CDE90001 		strd	r0, [sp]
 546              	.LVL72:
 547              		.loc 1 265 0 discriminator 1
 548 0062 DDE91801 		ldrd	r0, [sp, #96]
 549              	.LVL73:
 550 0066 FFF7FEFF 		bl	__aeabi_dadd
 551              	.LVL74:
 552              		.loc 1 267 0 discriminator 1
 553 006a 5246     		mov	r2, sl
 554              		.loc 1 265 0 discriminator 1
 555 006c 0446     		mov	r4, r0
 556 006e 0D46     		mov	r5, r1
 557              	.LVL75:
 558              		.loc 1 267 0 discriminator 1
 559 0070 5B46     		mov	r3, fp
 560 0072 5046     		mov	r0, sl
 561 0074 5946     		mov	r1, fp
 562 0076 FFF7FEFF 		bl	__aeabi_dmul
 563              	.LVL76:
 564 007a 8046     		mov	r8, r0
 565 007c 8946     		mov	r9, r1
 566 007e DDE90001 		ldrd	r0, [sp]
 567 0082 0246     		mov	r2, r0
 568 0084 0B46     		mov	r3, r1
 569 0086 FFF7FEFF 		bl	__aeabi_dmul
 570              	.LVL77:
ARM GAS  /tmp/ccDhibM6.s 			page 11


 571 008a 0246     		mov	r2, r0
 572 008c 0B46     		mov	r3, r1
 573 008e 4046     		mov	r0, r8
 574 0090 4946     		mov	r1, r9
 575 0092 FFF7FEFF 		bl	__aeabi_dadd
 576              	.LVL78:
 577 0096 2246     		mov	r2, r4
 578 0098 8046     		mov	r8, r0
 579 009a 8946     		mov	r9, r1
 580 009c 2B46     		mov	r3, r5
 581 009e 2046     		mov	r0, r4
 582 00a0 2946     		mov	r1, r5
 583 00a2 FFF7FEFF 		bl	__aeabi_dmul
 584              	.LVL79:
 585 00a6 0246     		mov	r2, r0
 586 00a8 0B46     		mov	r3, r1
 587 00aa 4046     		mov	r0, r8
 588 00ac 4946     		mov	r1, r9
 589 00ae FFF7FEFF 		bl	__aeabi_dadd
 590              	.LVL80:
 591              		.loc 1 268 0 discriminator 1
 592 00b2 FFF7FEFF 		bl	sqrt
 593              	.LVL81:
 594              		.loc 1 269 0 discriminator 1
 595 00b6 22A3     		adr	r3, .L18
 596 00b8 D3E90023 		ldrd	r2, [r3]
 597              		.loc 1 268 0 discriminator 1
 598 00bc CDE90201 		strd	r0, [sp, #8]
 599              		.loc 1 269 0 discriminator 1
 600 00c0 FFF7FEFF 		bl	__aeabi_dmul
 601              	.LVL82:
 602              		.loc 1 270 0 discriminator 1
 603 00c4 3246     		mov	r2, r6
 604 00c6 3B46     		mov	r3, r7
 605              		.loc 1 269 0 discriminator 1
 606 00c8 8046     		mov	r8, r0
 607 00ca 8946     		mov	r9, r1
 608              	.LVL83:
 609              		.loc 1 270 0 discriminator 1
 610 00cc FFF7FEFF 		bl	__aeabi_dsub
 611              	.LVL84:
 612              		.loc 1 271 0 discriminator 1
 613 00d0 1DA3     		adr	r3, .L18+8
 614 00d2 D3E90023 		ldrd	r2, [r3]
 615              		.loc 1 270 0 discriminator 1
 616 00d6 0646     		mov	r6, r0
 617              	.LVL85:
 618 00d8 0F46     		mov	r7, r1
 619              	.LVL86:
 620              		.loc 1 271 0 discriminator 1
 621 00da FFF7FEFF 		bl	__aeabi_dcmpgt
 622              	.LVL87:
 623 00de 1CA3     		adr	r3, .L18+16
 624 00e0 D3E90023 		ldrd	r2, [r3]
 625 00e4 0028     		cmp	r0, #0
 626 00e6 9BD1     		bne	.L17
 627              		.loc 1 271 0 is_stmt 0 discriminator 2
ARM GAS  /tmp/ccDhibM6.s 			page 12


 628 00e8 3046     		mov	r0, r6
 629 00ea 3946     		mov	r1, r7
 630 00ec FFF7FEFF 		bl	__aeabi_dcmplt
 631              	.LVL88:
 632 00f0 0028     		cmp	r0, #0
 633 00f2 95D1     		bne	.L17
 634              		.loc 1 273 0 is_stmt 1
 635 00f4 5246     		mov	r2, sl
 636 00f6 5B46     		mov	r3, fp
 637 00f8 DDE90001 		ldrd	r0, [sp]
 638 00fc FFF7FEFF 		bl	atan2
 639              	.LVL89:
 640              		.loc 1 274 0
 641 0100 DDE90223 		ldrd	r2, [sp, #8]
 642              		.loc 1 273 0
 643 0104 0646     		mov	r6, r0
 644              	.LVL90:
 645 0106 0F46     		mov	r7, r1
 646              	.LVL91:
 647              		.loc 1 274 0
 648 0108 2046     		mov	r0, r4
 649 010a 2946     		mov	r1, r5
 650 010c FFF7FEFF 		bl	__aeabi_ddiv
 651              	.LVL92:
 652              		.loc 1 275 0
 653 0110 FFF7FEFF 		bl	asin
 654              	.LVL93:
 655 0114 0446     		mov	r4, r0
 656              	.LVL94:
 657 0116 0D46     		mov	r5, r1
 658              	.LVL95:
 659              		.loc 1 278 0
 660 0118 3046     		mov	r0, r6
 661 011a 3946     		mov	r1, r7
 662 011c FFF7FEFF 		bl	ln_rad_to_deg
 663              	.LVL96:
 664 0120 FFF7FEFF 		bl	ln_range_degrees
 665              	.LVL97:
 666 0124 079B     		ldr	r3, [sp, #28]
 667 0126 C3E90001 		strd	r0, [r3]
 668              		.loc 1 279 0
 669 012a 2046     		mov	r0, r4
 670 012c 2946     		mov	r1, r5
 671 012e FFF7FEFF 		bl	ln_rad_to_deg
 672              	.LVL98:
 673 0132 079A     		ldr	r2, [sp, #28]
 674 0134 C2E90201 		strd	r0, [r2, #8]
 675              		.loc 1 280 0
 676 0138 21B0     		add	sp, sp, #132
 677 013a BDE8F08F 		pop	{r4, r5, r6, r7, r8, r9, sl, fp, pc}
 678              	.L19:
 679 013e 00BF     		.align	3
 680              	.L18:
 681 0140 7B8774E3 		.word	3816064891
 682 0144 11A8773F 		.word	1064806417
 683 0148 2D431CEB 		.word	3944497965
 684 014c E2361A3F 		.word	1058682594
ARM GAS  /tmp/ccDhibM6.s 			page 13


 685 0150 2D431CEB 		.word	3944497965
 686 0154 E2361ABF 		.word	-1088801054
 687              		.cfi_endproc
 688              	.LFE0:
 689              		.size	ln_get_pluto_equ_coords, .-ln_get_pluto_equ_coords
 690 0158 AFF30080 		.section	.text.ln_get_pluto_earth_dist,"ax",%progbits
 690      AFF30080 
 691              		.align	2
 692              		.p2align 4,,15
 693              		.global	ln_get_pluto_earth_dist
 694              		.thumb
 695              		.thumb_func
 696              		.type	ln_get_pluto_earth_dist, %function
 697              	ln_get_pluto_earth_dist:
 698              	.LFB2:
 699              		.loc 1 356 0
 700              		.cfi_startproc
 701              		@ args = 0, pretend = 0, frame = 96
 702              		@ frame_needed = 0, uses_anonymous_args = 0
 703              	.LVL99:
 704 0000 2DE9F043 		push	{r4, r5, r6, r7, r8, r9, lr}
 705              	.LCFI4:
 706              		.cfi_def_cfa_offset 28
 707              		.cfi_offset 4, -28
 708              		.cfi_offset 5, -24
 709              		.cfi_offset 6, -20
 710              		.cfi_offset 7, -16
 711              		.cfi_offset 8, -12
 712              		.cfi_offset 9, -8
 713              		.cfi_offset 14, -4
 714 0004 99B0     		sub	sp, sp, #100
 715              	.LCFI5:
 716              		.cfi_def_cfa_offset 128
 717              		.loc 1 356 0
 718 0006 0446     		mov	r4, r0
 719 0008 0D46     		mov	r5, r1
 720              		.loc 1 362 0
 721 000a 6A46     		mov	r2, sp
 722 000c FFF7FEFF 		bl	ln_get_pluto_helio_coords
 723              	.LVL100:
 724              		.loc 1 363 0
 725 0010 06AA     		add	r2, sp, #24
 726 0012 2046     		mov	r0, r4
 727 0014 2946     		mov	r1, r5
 728 0016 FFF7FEFF 		bl	ln_get_earth_helio_coords
 729              	.LVL101:
 730              		.loc 1 366 0
 731 001a 6846     		mov	r0, sp
 732 001c 0CA9     		add	r1, sp, #48
 733 001e FFF7FEFF 		bl	ln_get_rect_from_helio
 734              	.LVL102:
 735              		.loc 1 367 0
 736 0022 06A8     		add	r0, sp, #24
 737 0024 12A9     		add	r1, sp, #72
 738 0026 FFF7FEFF 		bl	ln_get_rect_from_helio
 739              	.LVL103:
 740              		.loc 1 370 0
ARM GAS  /tmp/ccDhibM6.s 			page 14


 741 002a DDE91223 		ldrd	r2, [sp, #72]
 742 002e DDE90C01 		ldrd	r0, [sp, #48]
 743 0032 FFF7FEFF 		bl	__aeabi_dsub
 744              	.LVL104:
 745              		.loc 1 371 0
 746 0036 DDE91423 		ldrd	r2, [sp, #80]
 747              		.loc 1 370 0
 748 003a 0446     		mov	r4, r0
 749 003c 0D46     		mov	r5, r1
 750              	.LVL105:
 751              		.loc 1 371 0
 752 003e DDE90E01 		ldrd	r0, [sp, #56]
 753 0042 FFF7FEFF 		bl	__aeabi_dsub
 754              	.LVL106:
 755              		.loc 1 372 0
 756 0046 DDE91623 		ldrd	r2, [sp, #88]
 757              		.loc 1 371 0
 758 004a 8046     		mov	r8, r0
 759 004c 8946     		mov	r9, r1
 760              	.LVL107:
 761              		.loc 1 372 0
 762 004e DDE91001 		ldrd	r0, [sp, #64]
 763 0052 FFF7FEFF 		bl	__aeabi_dsub
 764              	.LVL108:
 765              		.loc 1 373 0
 766 0056 2246     		mov	r2, r4
 767              		.loc 1 372 0
 768 0058 0646     		mov	r6, r0
 769 005a 0F46     		mov	r7, r1
 770              	.LVL109:
 771              		.loc 1 373 0
 772 005c 2B46     		mov	r3, r5
 773 005e 2046     		mov	r0, r4
 774 0060 2946     		mov	r1, r5
 775 0062 FFF7FEFF 		bl	__aeabi_dmul
 776              	.LVL110:
 777              		.loc 1 374 0
 778 0066 4246     		mov	r2, r8
 779              		.loc 1 373 0
 780 0068 0446     		mov	r4, r0
 781              	.LVL111:
 782 006a 0D46     		mov	r5, r1
 783              		.loc 1 374 0
 784 006c 4B46     		mov	r3, r9
 785 006e 4046     		mov	r0, r8
 786 0070 4946     		mov	r1, r9
 787 0072 FFF7FEFF 		bl	__aeabi_dmul
 788              	.LVL112:
 789 0076 0246     		mov	r2, r0
 790 0078 0B46     		mov	r3, r1
 791              		.loc 1 377 0
 792 007a 2046     		mov	r0, r4
 793 007c 2946     		mov	r1, r5
 794 007e FFF7FEFF 		bl	__aeabi_dadd
 795              	.LVL113:
 796              		.loc 1 375 0
 797 0082 3246     		mov	r2, r6
ARM GAS  /tmp/ccDhibM6.s 			page 15


 798              		.loc 1 377 0
 799 0084 0446     		mov	r4, r0
 800 0086 0D46     		mov	r5, r1
 801              		.loc 1 375 0
 802 0088 3B46     		mov	r3, r7
 803 008a 3046     		mov	r0, r6
 804 008c 3946     		mov	r1, r7
 805 008e FFF7FEFF 		bl	__aeabi_dmul
 806              	.LVL114:
 807 0092 0246     		mov	r2, r0
 808 0094 0B46     		mov	r3, r1
 809              		.loc 1 377 0
 810 0096 2046     		mov	r0, r4
 811 0098 2946     		mov	r1, r5
 812 009a FFF7FEFF 		bl	__aeabi_dadd
 813              	.LVL115:
 814 009e FFF7FEFF 		bl	sqrt
 815              	.LVL116:
 816              		.loc 1 378 0
 817 00a2 19B0     		add	sp, sp, #100
 818 00a4 BDE8F083 		pop	{r4, r5, r6, r7, r8, r9, pc}
 819              		.cfi_endproc
 820              	.LFE2:
 821              		.size	ln_get_pluto_earth_dist, .-ln_get_pluto_earth_dist
 822 00a8 AFF30080 		.section	.text.ln_get_pluto_solar_dist,"ax",%progbits
 822      AFF30080 
 823              		.align	2
 824              		.p2align 4,,15
 825              		.global	ln_get_pluto_solar_dist
 826              		.thumb
 827              		.thumb_func
 828              		.type	ln_get_pluto_solar_dist, %function
 829              	ln_get_pluto_solar_dist:
 830              	.LFB3:
 831              		.loc 1 388 0
 832              		.cfi_startproc
 833              		@ args = 0, pretend = 0, frame = 24
 834              		@ frame_needed = 0, uses_anonymous_args = 0
 835              	.LVL117:
 836 0000 00B5     		push	{lr}
 837              	.LCFI6:
 838              		.cfi_def_cfa_offset 4
 839              		.cfi_offset 14, -4
 840 0002 87B0     		sub	sp, sp, #28
 841              	.LCFI7:
 842              		.cfi_def_cfa_offset 32
 843              		.loc 1 392 0
 844 0004 6A46     		mov	r2, sp
 845 0006 FFF7FEFF 		bl	ln_get_pluto_helio_coords
 846              	.LVL118:
 847              		.loc 1 394 0
 848 000a DDE90401 		ldrd	r0, [sp, #16]
 849 000e 07B0     		add	sp, sp, #28
 850 0010 00BD     		pop	{pc}
 851              		.cfi_endproc
 852              	.LFE3:
 853              		.size	ln_get_pluto_solar_dist, .-ln_get_pluto_solar_dist
ARM GAS  /tmp/ccDhibM6.s 			page 16


 854 0012 00BFAFF3 		.section	.text.ln_get_pluto_magnitude,"ax",%progbits
 854      0080AFF3 
 854      0080AFF3 
 854      0080
 855              		.align	2
 856              		.p2align 4,,15
 857              		.global	ln_get_pluto_magnitude
 858              		.thumb
 859              		.thumb_func
 860              		.type	ln_get_pluto_magnitude, %function
 861              	ln_get_pluto_magnitude:
 862              	.LFB4:
 863              		.loc 1 404 0
 864              		.cfi_startproc
 865              		@ args = 0, pretend = 0, frame = 0
 866              		@ frame_needed = 0, uses_anonymous_args = 0
 867              	.LVL119:
 868 0000 F8B5     		push	{r3, r4, r5, r6, r7, lr}
 869              	.LCFI8:
 870              		.cfi_def_cfa_offset 24
 871              		.cfi_offset 3, -24
 872              		.cfi_offset 4, -20
 873              		.cfi_offset 5, -16
 874              		.cfi_offset 6, -12
 875              		.cfi_offset 7, -8
 876              		.cfi_offset 14, -4
 877              		.loc 1 404 0
 878 0002 0646     		mov	r6, r0
 879 0004 0F46     		mov	r7, r1
 880              		.loc 1 408 0
 881 0006 FFF7FEFF 		bl	ln_get_pluto_solar_dist
 882              	.LVL120:
 883 000a 0446     		mov	r4, r0
 884 000c 0D46     		mov	r5, r1
 885              	.LVL121:
 886              		.loc 1 409 0
 887 000e 3046     		mov	r0, r6
 888 0010 3946     		mov	r1, r7
 889 0012 FFF7FEFF 		bl	ln_get_pluto_earth_dist
 890              	.LVL122:
 891 0016 0246     		mov	r2, r0
 892 0018 0B46     		mov	r3, r1
 893              	.LVL123:
 894              		.loc 1 411 0
 895 001a 2046     		mov	r0, r4
 896 001c 2946     		mov	r1, r5
 897 001e FFF7FEFF 		bl	__aeabi_dmul
 898              	.LVL124:
 899 0022 FFF7FEFF 		bl	log10
 900              	.LVL125:
 901 0026 0023     		movs	r3, #0
 902 0028 0022     		movs	r2, #0
 903 002a C4F21403 		movt	r3, 16404
 904 002e FFF7FEFF 		bl	__aeabi_dmul
 905              	.LVL126:
 906 0032 0023     		movs	r3, #0
 907 0034 0022     		movs	r2, #0
ARM GAS  /tmp/ccDhibM6.s 			page 17


 908 0036 C3F6F073 		movt	r3, 16368
 909 003a FFF7FEFF 		bl	__aeabi_dsub
 910              	.LVL127:
 911              		.loc 1 412 0
 912 003e F8BD     		pop	{r3, r4, r5, r6, r7, pc}
 913              		.cfi_endproc
 914              	.LFE4:
 915              		.size	ln_get_pluto_magnitude, .-ln_get_pluto_magnitude
 916              		.section	.text.ln_get_pluto_disk,"ax",%progbits
 917              		.align	2
 918              		.p2align 4,,15
 919              		.global	ln_get_pluto_disk
 920              		.thumb
 921              		.thumb_func
 922              		.type	ln_get_pluto_disk, %function
 923              	ln_get_pluto_disk:
 924              	.LFB5:
 925              		.loc 1 423 0
 926              		.cfi_startproc
 927              		@ args = 0, pretend = 0, frame = 0
 928              		@ frame_needed = 0, uses_anonymous_args = 0
 929              	.LVL128:
 930 0000 2DE9F84F 		push	{r3, r4, r5, r6, r7, r8, r9, sl, fp, lr}
 931              	.LCFI9:
 932              		.cfi_def_cfa_offset 40
 933              		.cfi_offset 3, -40
 934              		.cfi_offset 4, -36
 935              		.cfi_offset 5, -32
 936              		.cfi_offset 6, -28
 937              		.cfi_offset 7, -24
 938              		.cfi_offset 8, -20
 939              		.cfi_offset 9, -16
 940              		.cfi_offset 10, -12
 941              		.cfi_offset 11, -8
 942              		.cfi_offset 14, -4
 943              		.loc 1 423 0
 944 0004 0646     		mov	r6, r0
 945 0006 0F46     		mov	r7, r1
 946              		.loc 1 427 0
 947 0008 FFF7FEFF 		bl	ln_get_earth_solar_dist
 948              	.LVL129:
 949 000c 8046     		mov	r8, r0
 950 000e 8946     		mov	r9, r1
 951              	.LVL130:
 952              		.loc 1 428 0
 953 0010 3046     		mov	r0, r6
 954 0012 3946     		mov	r1, r7
 955 0014 FFF7FEFF 		bl	ln_get_pluto_solar_dist
 956              	.LVL131:
 957 0018 0446     		mov	r4, r0
 958 001a 0D46     		mov	r5, r1
 959              	.LVL132:
 960              		.loc 1 429 0
 961 001c 3046     		mov	r0, r6
 962 001e 3946     		mov	r1, r7
 963 0020 FFF7FEFF 		bl	ln_get_pluto_earth_dist
 964              	.LVL133:
ARM GAS  /tmp/ccDhibM6.s 			page 18


 965 0024 0646     		mov	r6, r0
 966 0026 0F46     		mov	r7, r1
 967              	.LVL134:
 968              		.loc 1 432 0
 969 0028 3246     		mov	r2, r6
 970 002a 3B46     		mov	r3, r7
 971 002c 2046     		mov	r0, r4
 972 002e 2946     		mov	r1, r5
 973 0030 FFF7FEFF 		bl	__aeabi_dadd
 974              	.LVL135:
 975 0034 0246     		mov	r2, r0
 976 0036 0B46     		mov	r3, r1
 977 0038 FFF7FEFF 		bl	__aeabi_dmul
 978              	.LVL136:
 979 003c 4246     		mov	r2, r8
 980 003e 8246     		mov	sl, r0
 981 0040 8B46     		mov	fp, r1
 982 0042 4B46     		mov	r3, r9
 983 0044 4046     		mov	r0, r8
 984 0046 4946     		mov	r1, r9
 985 0048 FFF7FEFF 		bl	__aeabi_dmul
 986              	.LVL137:
 987 004c 0246     		mov	r2, r0
 988 004e 0B46     		mov	r3, r1
 989 0050 5046     		mov	r0, sl
 990 0052 5946     		mov	r1, fp
 991 0054 FFF7FEFF 		bl	__aeabi_dsub
 992              	.LVL138:
 993 0058 0023     		movs	r3, #0
 994 005a 8046     		mov	r8, r0
 995              	.LVL139:
 996 005c 8946     		mov	r9, r1
 997 005e 0022     		movs	r2, #0
 998 0060 2046     		mov	r0, r4
 999 0062 2946     		mov	r1, r5
 1000 0064 C4F21003 		movt	r3, 16400
 1001 0068 FFF7FEFF 		bl	__aeabi_dmul
 1002              	.LVL140:
 1003 006c 3246     		mov	r2, r6
 1004 006e 3B46     		mov	r3, r7
 1005 0070 FFF7FEFF 		bl	__aeabi_dmul
 1006              	.LVL141:
 1007 0074 0246     		mov	r2, r0
 1008 0076 0B46     		mov	r3, r1
 1009 0078 4046     		mov	r0, r8
 1010 007a 4946     		mov	r1, r9
 1011 007c FFF7FEFF 		bl	__aeabi_ddiv
 1012              	.LVL142:
 1013              		.loc 1 433 0
 1014 0080 BDE8F88F 		pop	{r3, r4, r5, r6, r7, r8, r9, sl, fp, pc}
 1015              		.cfi_endproc
 1016              	.LFE5:
 1017              		.size	ln_get_pluto_disk, .-ln_get_pluto_disk
 1018 0084 AFF30080 		.section	.text.ln_get_pluto_phase,"ax",%progbits
 1018      AFF30080 
 1018      AFF30080 
 1019              		.align	2
ARM GAS  /tmp/ccDhibM6.s 			page 19


 1020              		.p2align 4,,15
 1021              		.global	ln_get_pluto_phase
 1022              		.thumb
 1023              		.thumb_func
 1024              		.type	ln_get_pluto_phase, %function
 1025              	ln_get_pluto_phase:
 1026              	.LFB6:
 1027              		.loc 1 444 0
 1028              		.cfi_startproc
 1029              		@ args = 0, pretend = 0, frame = 0
 1030              		@ frame_needed = 0, uses_anonymous_args = 0
 1031              	.LVL143:
 1032 0000 2DE9F84F 		push	{r3, r4, r5, r6, r7, r8, r9, sl, fp, lr}
 1033              	.LCFI10:
 1034              		.cfi_def_cfa_offset 40
 1035              		.cfi_offset 3, -40
 1036              		.cfi_offset 4, -36
 1037              		.cfi_offset 5, -32
 1038              		.cfi_offset 6, -28
 1039              		.cfi_offset 7, -24
 1040              		.cfi_offset 8, -20
 1041              		.cfi_offset 9, -16
 1042              		.cfi_offset 10, -12
 1043              		.cfi_offset 11, -8
 1044              		.cfi_offset 14, -4
 1045              		.loc 1 444 0
 1046 0004 0446     		mov	r4, r0
 1047 0006 0D46     		mov	r5, r1
 1048              		.loc 1 448 0
 1049 0008 FFF7FEFF 		bl	ln_get_earth_solar_dist
 1050              	.LVL144:
 1051 000c 8246     		mov	sl, r0
 1052 000e 8B46     		mov	fp, r1
 1053              	.LVL145:
 1054              		.loc 1 449 0
 1055 0010 2046     		mov	r0, r4
 1056 0012 2946     		mov	r1, r5
 1057 0014 FFF7FEFF 		bl	ln_get_pluto_solar_dist
 1058              	.LVL146:
 1059 0018 0646     		mov	r6, r0
 1060 001a 0F46     		mov	r7, r1
 1061              	.LVL147:
 1062              		.loc 1 450 0
 1063 001c 2046     		mov	r0, r4
 1064 001e 2946     		mov	r1, r5
 1065 0020 FFF7FEFF 		bl	ln_get_pluto_earth_dist
 1066              	.LVL148:
 1067              		.loc 1 453 0
 1068 0024 3246     		mov	r2, r6
 1069              		.loc 1 450 0
 1070 0026 0446     		mov	r4, r0
 1071 0028 0D46     		mov	r5, r1
 1072              	.LVL149:
 1073              		.loc 1 453 0
 1074 002a 3B46     		mov	r3, r7
 1075 002c 3046     		mov	r0, r6
 1076 002e 3946     		mov	r1, r7
ARM GAS  /tmp/ccDhibM6.s 			page 20


 1077 0030 FFF7FEFF 		bl	__aeabi_dmul
 1078              	.LVL150:
 1079 0034 2246     		mov	r2, r4
 1080 0036 8046     		mov	r8, r0
 1081 0038 8946     		mov	r9, r1
 1082 003a 2B46     		mov	r3, r5
 1083 003c 2046     		mov	r0, r4
 1084 003e 2946     		mov	r1, r5
 1085 0040 FFF7FEFF 		bl	__aeabi_dmul
 1086              	.LVL151:
 1087 0044 0246     		mov	r2, r0
 1088 0046 0B46     		mov	r3, r1
 1089 0048 4046     		mov	r0, r8
 1090 004a 4946     		mov	r1, r9
 1091 004c FFF7FEFF 		bl	__aeabi_dadd
 1092              	.LVL152:
 1093 0050 5246     		mov	r2, sl
 1094 0052 8046     		mov	r8, r0
 1095 0054 8946     		mov	r9, r1
 1096 0056 5B46     		mov	r3, fp
 1097 0058 5046     		mov	r0, sl
 1098 005a 5946     		mov	r1, fp
 1099 005c FFF7FEFF 		bl	__aeabi_dmul
 1100              	.LVL153:
 1101 0060 0246     		mov	r2, r0
 1102 0062 0B46     		mov	r3, r1
 1103 0064 4046     		mov	r0, r8
 1104 0066 4946     		mov	r1, r9
 1105 0068 FFF7FEFF 		bl	__aeabi_dsub
 1106              	.LVL154:
 1107 006c 3246     		mov	r2, r6
 1108 006e 8046     		mov	r8, r0
 1109 0070 8946     		mov	r9, r1
 1110 0072 3B46     		mov	r3, r7
 1111 0074 3046     		mov	r0, r6
 1112 0076 3946     		mov	r1, r7
 1113 0078 FFF7FEFF 		bl	__aeabi_dadd
 1114              	.LVL155:
 1115 007c 2246     		mov	r2, r4
 1116 007e 2B46     		mov	r3, r5
 1117 0080 FFF7FEFF 		bl	__aeabi_dmul
 1118              	.LVL156:
 1119 0084 0246     		mov	r2, r0
 1120 0086 0B46     		mov	r3, r1
 1121 0088 4046     		mov	r0, r8
 1122 008a 4946     		mov	r1, r9
 1123 008c FFF7FEFF 		bl	__aeabi_ddiv
 1124              	.LVL157:
 1125              		.loc 1 454 0
 1126 0090 FFF7FEFF 		bl	acos
 1127              	.LVL158:
 1128              		.loc 1 456 0
 1129 0094 BDE8F84F 		pop	{r3, r4, r5, r6, r7, r8, r9, sl, fp, lr}
 1130              		.loc 1 455 0
 1131 0098 FFF7FEBF 		b	ln_rad_to_deg
 1132              	.LVL159:
 1133              		.cfi_endproc
ARM GAS  /tmp/ccDhibM6.s 			page 21


 1134              	.LFE6:
 1135              		.size	ln_get_pluto_phase, .-ln_get_pluto_phase
 1136 009c AFF30080 		.section	.text.ln_get_pluto_rst,"ax",%progbits
 1137              		.align	2
 1138              		.p2align 4,,15
 1139              		.global	ln_get_pluto_rst
 1140              		.thumb
 1141              		.thumb_func
 1142              		.type	ln_get_pluto_rst, %function
 1143              	ln_get_pluto_rst:
 1144              	.LFB7:
 1145              		.loc 1 472 0
 1146              		.cfi_startproc
 1147              		@ args = 0, pretend = 0, frame = 0
 1148              		@ frame_needed = 0, uses_anonymous_args = 0
 1149              	.LVL160:
 1150 0000 30B5     		push	{r4, r5, lr}
 1151              	.LCFI11:
 1152              		.cfi_def_cfa_offset 12
 1153              		.cfi_offset 4, -12
 1154              		.cfi_offset 5, -8
 1155              		.cfi_offset 14, -4
 1156              		.loc 1 473 0
 1157 0002 07A5     		adr	r5, .L26
 1158 0004 D5E90045 		ldrd	r4, [r5]
 1159              		.loc 1 472 0
 1160 0008 85B0     		sub	sp, sp, #20
 1161              	.LCFI12:
 1162              		.cfi_def_cfa_offset 32
 1163              		.loc 1 473 0
 1164 000a CDE90045 		strd	r4, [sp]
 1165 000e 0293     		str	r3, [sp, #8]
 1166 0010 40F20003 		movw	r3, #:lower16:ln_get_pluto_equ_coords
 1167              	.LVL161:
 1168 0014 C0F20003 		movt	r3, #:upper16:ln_get_pluto_equ_coords
 1169 0018 FFF7FEFF 		bl	ln_get_body_rst_horizon
 1170              	.LVL162:
 1171              		.loc 1 474 0
 1172 001c 05B0     		add	sp, sp, #20
 1173 001e 30BD     		pop	{r4, r5, pc}
 1174              	.L27:
 1175              		.align	3
 1176              	.L26:
 1177 0020 1895D409 		.word	164926744
 1178 0024 6822E2BF 		.word	-1075699096
 1179              		.cfi_endproc
 1180              	.LFE7:
 1181              		.size	ln_get_pluto_rst, .-ln_get_pluto_rst
 1182 0028 AFF30080 		.section	.text.ln_get_pluto_sdiam,"ax",%progbits
 1182      AFF30080 
 1183              		.align	2
 1184              		.p2align 4,,15
 1185              		.global	ln_get_pluto_sdiam
 1186              		.thumb
 1187              		.thumb_func
 1188              		.type	ln_get_pluto_sdiam, %function
 1189              	ln_get_pluto_sdiam:
ARM GAS  /tmp/ccDhibM6.s 			page 22


 1190              	.LFB8:
 1191              		.loc 1 485 0
 1192              		.cfi_startproc
 1193              		@ args = 0, pretend = 0, frame = 0
 1194              		@ frame_needed = 0, uses_anonymous_args = 0
 1195              	.LVL163:
 1196 0000 08B5     		push	{r3, lr}
 1197              	.LCFI13:
 1198              		.cfi_def_cfa_offset 8
 1199              		.cfi_offset 3, -8
 1200              		.cfi_offset 14, -4
 1201              		.loc 1 489 0
 1202 0002 FFF7FEFF 		bl	ln_get_pluto_earth_dist
 1203              	.LVL164:
 1204 0006 0246     		mov	r2, r0
 1205 0008 0B46     		mov	r3, r1
 1206              	.LVL165:
 1207              		.loc 1 490 0
 1208 000a 03A1     		adr	r1, .L29
 1209 000c D1E90001 		ldrd	r0, [r1]
 1210 0010 FFF7FEFF 		bl	__aeabi_ddiv
 1211              	.LVL166:
 1212              		.loc 1 491 0
 1213 0014 08BD     		pop	{r3, pc}
 1214              	.L30:
 1215 0016 00BF     		.align	3
 1216              	.L29:
 1217 0018 8FC2F528 		.word	687194767
 1218 001c 5C8F0040 		.word	1073778524
 1219              		.cfi_endproc
 1220              	.LFE8:
 1221              		.size	ln_get_pluto_sdiam, .-ln_get_pluto_sdiam
 1222              		.section	.text.ln_get_pluto_rect_helio,"ax",%progbits
 1223              		.align	2
 1224              		.p2align 4,,15
 1225              		.global	ln_get_pluto_rect_helio
 1226              		.thumb
 1227              		.thumb_func
 1228              		.type	ln_get_pluto_rect_helio, %function
 1229              	ln_get_pluto_rect_helio:
 1230              	.LFB9:
 1231              		.loc 1 501 0
 1232              		.cfi_startproc
 1233              		@ args = 0, pretend = 0, frame = 24
 1234              		@ frame_needed = 0, uses_anonymous_args = 0
 1235              	.LVL167:
 1236 0000 10B5     		push	{r4, lr}
 1237              	.LCFI14:
 1238              		.cfi_def_cfa_offset 8
 1239              		.cfi_offset 4, -8
 1240              		.cfi_offset 14, -4
 1241 0002 86B0     		sub	sp, sp, #24
 1242              	.LCFI15:
 1243              		.cfi_def_cfa_offset 32
 1244              		.loc 1 501 0
 1245 0004 1446     		mov	r4, r2
 1246              		.loc 1 504 0
ARM GAS  /tmp/ccDhibM6.s 			page 23


 1247 0006 6A46     		mov	r2, sp
 1248              	.LVL168:
 1249 0008 FFF7FEFF 		bl	ln_get_pluto_helio_coords
 1250              	.LVL169:
 1251              		.loc 1 505 0
 1252 000c 6846     		mov	r0, sp
 1253 000e 2146     		mov	r1, r4
 1254 0010 FFF7FEFF 		bl	ln_get_rect_from_helio
 1255              	.LVL170:
 1256              		.loc 1 506 0
 1257 0014 06B0     		add	sp, sp, #24
 1258 0016 10BD     		pop	{r4, pc}
 1259              		.cfi_endproc
 1260              	.LFE9:
 1261              		.size	ln_get_pluto_rect_helio, .-ln_get_pluto_rect_helio
 1262 0018 AFF30080 		.section	.rodata.radius,"a",%progbits
 1262      AFF30080 
 1263              		.align	3
 1264              		.set	.LANCHOR7,. + 0
 1265              		.type	radius, %object
 1266              		.size	radius, 688
 1267              	radius:
 1268 0000 000000F8 		.word	4160749568
 1269 0004 48E28F41 		.word	1099948616
 1270 0008 00000010 		.word	268435456
 1271 000c 7C709041 		.word	1099985020
 1272 0010 000000E0 		.word	3758096384
 1273 0014 298F66C1 		.word	-1050243287
 1274 0018 00000000 		.word	0
 1275 001c E84B14C1 		.word	-1055634456
 1276 0020 00000000 		.word	0
 1277 0024 5B4F3841 		.word	1094209371
 1278 0028 00000000 		.word	0
 1279 002c AAF435C1 		.word	-1053428566
 1280 0030 00000000 		.word	0
 1281 0034 0003D2C0 		.word	-1059978496
 1282 0038 00000000 		.word	0
 1283 003c 507E1D41 		.word	1092451920
 1284 0040 00000000 		.word	0
 1285 0044 901BF0C0 		.word	-1058006128
 1286 0048 00000000 		.word	0
 1287 004c 70DBF4C0 		.word	-1057694864
 1288 0050 00000000 		.word	0
 1289 0054 8071DE40 		.word	1088319872
 1290 0058 00000000 		.word	0
 1291 005c 0090B7C0 		.word	-1061711872
 1292 0060 00000000 		.word	0
 1293 0064 00A2B6C0 		.word	-1061772800
 1294 0068 00000000 		.word	0
 1295 006c 40A4D540 		.word	1087743040
 1296 0070 00000000 		.word	0
 1297 0074 00F9B140 		.word	1085405440
 1298 0078 00000000 		.word	0
 1299 007c 0080AF40 		.word	1085243392
 1300 0080 00000000 		.word	0
 1301 0084 00049BC0 		.word	-1063582720
 1302 0088 00000000 		.word	0
ARM GAS  /tmp/ccDhibM6.s 			page 24


 1303 008c 00406D40 		.word	1080901632
 1304 0090 00000000 		.word	0
 1305 0094 00F079C0 		.word	-1065750528
 1306 0098 00000000 		.word	0
 1307 009c 00F08540 		.word	1082519552
 1308 00a0 00000000 		.word	0
 1309 00a4 00E06D40 		.word	1080942592
 1310 00a8 00000000 		.word	0
 1311 00ac 00988640 		.word	1082562560
 1312 00b0 00000000 		.word	0
 1313 00b4 00C05040 		.word	1079033856
 1314 00b8 00000000 		.word	0
 1315 00bc 00C050C0 		.word	-1068449792
 1316 00c0 00000000 		.word	0
 1317 00c4 00289040 		.word	1083189248
 1318 00c8 00000000 		.word	0
 1319 00cc 00307CC0 		.word	-1065603072
 1320 00d0 00000000 		.word	0
 1321 00d4 002060C0 		.word	-1067442176
 1322 00d8 00000000 		.word	0
 1323 00dc 00807F40 		.word	1082097664
 1324 00e0 00000000 		.word	0
 1325 00e4 00007E40 		.word	1081999360
 1326 00e8 00000000 		.word	0
 1327 00ec 00E06CC0 		.word	-1066606592
 1328 00f0 00000000 		.word	0
 1329 00f4 00000040 		.word	1073741824
 1330 00f8 00000000 		.word	0
 1331 00fc 00907BC0 		.word	-1065644032
 1332 0100 00000000 		.word	0
 1333 0104 003EAAC0 		.word	-1062584832
 1334 0108 00000000 		.word	0
 1335 010c 00907040 		.word	1081118720
 1336 0110 00000000 		.word	0
 1337 0114 00B0BE40 		.word	1086238720
 1338 0118 00000000 		.word	0
 1339 011c 0098BEC0 		.word	-1061251072
 1340 0120 00000000 		.word	0
 1341 0124 00004240 		.word	1078067200
 1342 0128 00000000 		.word	0
 1343 012c 6058E640 		.word	1088837728
 1344 0130 00000000 		.word	0
 1345 0134 80EBC040 		.word	1086385024
 1346 0138 00000000 		.word	0
 1347 013c 80B1C040 		.word	1086370176
 1348 0140 00000000 		.word	0
 1349 0144 004889C0 		.word	-1064744960
 1350 0148 00000000 		.word	0
 1351 014c 000888C0 		.word	-1064826880
 1352 0150 00000000 		.word	0
 1353 0154 00707040 		.word	1081110528
 1354 0158 00000000 		.word	0
 1355 015c 000062C0 		.word	-1067319296
 1356 0160 00000000 		.word	0
 1357 0164 00805FC0 		.word	-1067483136
 1358 0168 00000000 		.word	0
 1359 016c 00004040 		.word	1077936128
ARM GAS  /tmp/ccDhibM6.s 			page 25


 1360 0170 00000000 		.word	0
 1361 0174 008041C0 		.word	-1069449216
 1362 0178 00000000 		.word	0
 1363 017c 000030C0 		.word	-1070596096
 1364 0180 00000000 		.word	0
 1365 0184 000033C0 		.word	-1070399488
 1366 0188 00000000 		.word	0
 1367 018c 000010C0 		.word	-1072693248
 1368 0190 00000000 		.word	0
 1369 0194 00002EC0 		.word	-1070727168
 1370 0198 00000000 		.word	0
 1371 019c 00002040 		.word	1075838976
 1372 01a0 00000000 		.word	0
 1373 01a4 000010C0 		.word	-1072693248
 1374 01a8 00000000 		.word	0
 1375 01ac 00002840 		.word	1076363264
 1376 01b0 00000000 		.word	0
 1377 01b4 00001440 		.word	1075052544
 1378 01b8 00000000 		.word	0
 1379 01bc 00001840 		.word	1075314688
 1380 01c0 00000000 		.word	0
 1381 01c4 00000840 		.word	1074266112
 1382 01c8 00000000 		.word	0
 1383 01cc 0000F03F 		.word	1072693248
 1384 01d0 00000000 		.word	0
 1385 01d4 00001840 		.word	1075314688
 1386 01d8 00000000 		.word	0
 1387 01dc 000000C0 		.word	-1073741824
 1388 01e0 00000000 		.word	0
 1389 01e4 00000040 		.word	1073741824
 1390 01e8 00000000 		.word	0
 1391 01ec 00000040 		.word	1073741824
 1392 01f0 00000000 		.word	0
 1393 01f4 000000C0 		.word	-1073741824
 1394 01f8 00000000 		.word	0
 1395 01fc 000000C0 		.word	-1073741824
 1396 0200 00000000 		.word	0
 1397 0204 00002C40 		.word	1076625408
 1398 0208 00000000 		.word	0
 1399 020c 00002A40 		.word	1076494336
 1400 0210 00000000 		.word	0
 1401 0214 00804FC0 		.word	-1068531712
 1402 0218 00000000 		.word	0
 1403 021c 00002A40 		.word	1076494336
 1404 0220 00000000 		.word	0
 1405 0224 00006140 		.word	1080098816
 1406 0228 00000000 		.word	0
 1407 022c 00806DC0 		.word	-1066565632
 1408 0230 00000000 		.word	0
 1409 0234 00107140 		.word	1081151488
 1410 0238 00000000 		.word	0
 1411 023c 00A49040 		.word	1083220992
 1412 0240 00000000 		.word	0
 1413 0244 00606F40 		.word	1081040896
 1414 0248 00000000 		.word	0
 1415 024c 00A06240 		.word	1080205312
 1416 0250 00000000 		.word	0
ARM GAS  /tmp/ccDhibM6.s 			page 26


 1417 0254 000039C0 		.word	-1070006272
 1418 0258 00000000 		.word	0
 1419 025c 000022C0 		.word	-1071513600
 1420 0260 00000000 		.word	0
 1421 0264 00002240 		.word	1075970048
 1422 0268 00000000 		.word	0
 1423 026c 000000C0 		.word	-1073741824
 1424 0270 00000000 		.word	0
 1425 0274 000020C0 		.word	-1071644672
 1426 0278 00000000 		.word	0
 1427 027c 00001C40 		.word	1075576832
 1428 0280 00000000 		.word	0
 1429 0284 00000040 		.word	1073741824
 1430 0288 00000000 		.word	0
 1431 028c 000024C0 		.word	-1071382528
 1432 0290 00000000 		.word	0
 1433 0294 00003340 		.word	1077084160
 1434 0298 00000000 		.word	0
 1435 029c 00804140 		.word	1078034432
 1436 02a0 00000000 		.word	0
 1437 02a4 00002440 		.word	1076101120
 1438 02a8 00000000 		.word	0
 1439 02ac 00000040 		.word	1073741824
 1440              		.section	.bss.cB,"aw",%nobits
 1441              		.align	3
 1442              		.set	.LANCHOR2,. + 0
 1443              		.type	cB, %object
 1444              		.size	cB, 8
 1445              	cB:
 1446 0000 00000000 		.space	8
 1446      00000000 
 1447              		.section	.bss.cL,"aw",%nobits
 1448              		.align	3
 1449              		.set	.LANCHOR1,. + 0
 1450              		.type	cL, %object
 1451              		.size	cL, 8
 1452              	cL:
 1453 0000 00000000 		.space	8
 1453      00000000 
 1454              		.section	.rodata.latitude,"a",%progbits
 1455              		.align	3
 1456              		.set	.LANCHOR6,. + 0
 1457              		.type	latitude, %object
 1458              		.size	latitude, 688
 1459              	latitude:
 1460 0000 00000000 		.word	0
 1461 0004 0DCD54C1 		.word	-1051407091
 1462 0008 000000C0 		.word	3221225472
 1463 000c F18F6CC1 		.word	-1049849871
 1464 0010 00000000 		.word	0
 1465 0014 42EA4A41 		.word	1095428674
 1466 0018 00000000 		.word	0
 1467 001c 56863941 		.word	1094288982
 1468 0020 00000000 		.word	0
 1469 0024 7C0830C1 		.word	-1053816708
 1470 0028 00000000 		.word	0
 1471 002c 7CFF1341 		.word	1091829628
ARM GAS  /tmp/ccDhibM6.s 			page 27


 1472 0030 00000000 		.word	0
 1473 0034 10D00541 		.word	1090899984
 1474 0038 00000000 		.word	0
 1475 003c E4D411C1 		.word	-1055795996
 1476 0040 00000000 		.word	0
 1477 0044 8036D240 		.word	1087518336
 1478 0048 00000000 		.word	0
 1479 004c 407FF840 		.word	1090027328
 1480 0050 00000000 		.word	0
 1481 0054 40FADDC0 		.word	-1059194304
 1482 0058 00000000 		.word	0
 1483 005c C037D9C0 		.word	-1059506240
 1484 0060 00000000 		.word	0
 1485 0064 000EB340 		.word	1085476352
 1486 0068 00000000 		.word	0
 1487 006c 00F8C540 		.word	1086715904
 1488 0070 00000000 		.word	0
 1489 0074 00406C40 		.word	1080836096
 1490 0078 00000000 		.word	0
 1491 007c 000050C0 		.word	-1068498944
 1492 0080 00000000 		.word	0
 1493 0084 00B89F40 		.word	1084209152
 1494 0088 00000000 		.word	0
 1495 008c 00208AC0 		.word	-1064689664
 1496 0090 00000000 		.word	0
 1497 0094 00405140 		.word	1079066624
 1498 0098 00000000 		.word	0
 1499 009c 00E082C0 		.word	-1065164800
 1500 00a0 00000000 		.word	0
 1501 00a4 00E06EC0 		.word	-1066475520
 1502 00a8 00000000 		.word	0
 1503 00ac 00B881C0 		.word	-1065240576
 1504 00b0 00000000 		.word	0
 1505 00b4 00804CC0 		.word	-1068728320
 1506 00b8 00000000 		.word	0
 1507 00bc 0000F03F 		.word	1072693248
 1508 00c0 00000000 		.word	0
 1509 00c4 00805EC0 		.word	-1067548672
 1510 00c8 00000000 		.word	0
 1511 00cc 00E06540 		.word	1080418304
 1512 00d0 00000000 		.word	0
 1513 00d4 008048C0 		.word	-1068990464
 1514 00d8 00000000 		.word	0
 1515 00dc 008064C0 		.word	-1067155456
 1516 00e0 00000000 		.word	0
 1517 00e4 00A068C0 		.word	-1066885120
 1518 00e8 00000000 		.word	0
 1519 00ec 00E06840 		.word	1080614912
 1520 00f0 00000000 		.word	0
 1521 00f4 000039C0 		.word	-1070006272
 1522 00f8 00000000 		.word	0
 1523 00fc 00206B40 		.word	1080762368
 1524 0100 00000000 		.word	0
 1525 0104 00688240 		.word	1082288128
 1526 0108 00000000 		.word	0
 1527 010c 00006FC0 		.word	-1066467328
 1528 0110 00000000 		.word	0
ARM GAS  /tmp/ccDhibM6.s 			page 28


 1529 0114 00D070C0 		.word	-1066348544
 1530 0118 00000000 		.word	0
 1531 011c 00388640 		.word	1082537984
 1532 0120 00000000 		.word	0
 1533 0124 00206740 		.word	1080500224
 1534 0128 00000000 		.word	0
 1535 012c 00206840 		.word	1080565760
 1536 0130 00000000 		.word	0
 1537 0134 00B07340 		.word	1081323520
 1538 0138 00000000 		.word	0
 1539 013c 00388940 		.word	1082734592
 1540 0140 00000000 		.word	0
 1541 0144 004060C0 		.word	-1067433984
 1542 0148 00000000 		.word	0
 1543 014c 008045C0 		.word	-1069187072
 1544 0150 00000000 		.word	0
 1545 0154 00001440 		.word	1075052544
 1546 0158 00000000 		.word	0
 1547 015c 00000840 		.word	1074266112
 1548 0160 00000000 		.word	0
 1549 0164 00000040 		.word	1073741824
 1550 0168 00000000 		.word	0
 1551 016c 00003140 		.word	1076953088
 1552 0170 00000000 		.word	0
 1553 0174 00000040 		.word	1073741824
 1554 0178 00000000 		.word	0
 1555 017c 00001440 		.word	1075052544
 1556 0180 00000000 		.word	0
 1557 0184 00000040 		.word	1073741824
 1558 0188 00000000 		.word	0
 1559 018c 00000840 		.word	1074266112
 1560 0190 00000000 		.word	0
 1561 0194 00000840 		.word	1074266112
 1562 0198 00000000 		.word	0
 1563 019c 0000F03F 		.word	1072693248
 1564 01a0 00000000 		.word	0
 1565 01a4 00000040 		.word	1073741824
 1566 01a8 00000000 		.word	0
 1567 01ac 0000F0BF 		.word	-1074790400
 1568 01b0 00000000 		.word	0
 1569 01b4 0000F03F 		.word	1072693248
 1570 01b8 00000000 		.word	0
 1571 01bc 0000F0BF 		.word	-1074790400
 1572 01c0 00000000 		.word	0
 1573 01c4 00000000 		.word	0
 1574 01c8 00000000 		.word	0
 1575 01cc 0000F0BF 		.word	-1074790400
 1576 01d0 00000000 		.word	0
 1577 01d4 00000000 		.word	0
 1578 01d8 00000000 		.word	0
 1579 01dc 00000000 		.word	0
 1580 01e0 00000000 		.word	0
 1581 01e4 00000000 		.word	0
 1582 01e8 00000000 		.word	0
 1583 01ec 000000C0 		.word	-1073741824
 1584 01f0 00000000 		.word	0
 1585 01f4 00000040 		.word	1073741824
ARM GAS  /tmp/ccDhibM6.s 			page 29


 1586 01f8 00000000 		.word	0
 1587 01fc 00000040 		.word	1073741824
 1588 0200 00000000 		.word	0
 1589 0204 00001CC0 		.word	-1071906816
 1590 0208 00000000 		.word	0
 1591 020c 00000000 		.word	0
 1592 0210 00000000 		.word	0
 1593 0214 00002440 		.word	1076101120
 1594 0218 00000000 		.word	0
 1595 021c 000020C0 		.word	-1071644672
 1596 0220 00000000 		.word	0
 1597 0224 000008C0 		.word	-1073217536
 1598 0228 00000000 		.word	0
 1599 022c 00003440 		.word	1077149696
 1600 0230 00000000 		.word	0
 1601 0234 00001840 		.word	1075314688
 1602 0238 00000000 		.word	0
 1603 023c 00001440 		.word	1075052544
 1604 0240 00000000 		.word	0
 1605 0244 00002C40 		.word	1076625408
 1606 0248 00000000 		.word	0
 1607 024c 00003140 		.word	1076953088
 1608 0250 00000000 		.word	0
 1609 0254 000000C0 		.word	-1073741824
 1610 0258 00000000 		.word	0
 1611 025c 00000000 		.word	0
 1612 0260 00000000 		.word	0
 1613 0264 00000000 		.word	0
 1614 0268 00000000 		.word	0
 1615 026c 00000000 		.word	0
 1616 0270 00000000 		.word	0
 1617 0274 00000000 		.word	0
 1618 0278 00000000 		.word	0
 1619 027c 00000000 		.word	0
 1620 0280 00000000 		.word	0
 1621 0284 00000000 		.word	0
 1622 0288 00000000 		.word	0
 1623 028c 0000F03F 		.word	1072693248
 1624 0290 00000000 		.word	0
 1625 0294 00000000 		.word	0
 1626 0298 00000000 		.word	0
 1627 029c 00000000 		.word	0
 1628 02a0 00000000 		.word	0
 1629 02a4 0000F03F 		.word	1072693248
 1630 02a8 00000000 		.word	0
 1631 02ac 00000000 		.word	0
 1632              		.section	.bss.cR,"aw",%nobits
 1633              		.align	3
 1634              		.set	.LANCHOR3,. + 0
 1635              		.type	cR, %object
 1636              		.size	cR, 8
 1637              	cR:
 1638 0000 00000000 		.space	8
 1638      00000000 
 1639              		.section	.bss.cJD,"aw",%nobits
 1640              		.align	3
 1641              		.set	.LANCHOR0,. + 0
ARM GAS  /tmp/ccDhibM6.s 			page 30


 1642              		.type	cJD, %object
 1643              		.size	cJD, 8
 1644              	cJD:
 1645 0000 00000000 		.space	8
 1645      00000000 
 1646              		.section	.rodata.longitude,"a",%progbits
 1647              		.align	3
 1648              		.set	.LANCHOR5,. + 0
 1649              		.type	longitude, %object
 1650              		.size	longitude, 688
 1651              	longitude:
 1652 0000 000000D0 		.word	3489660928
 1653 0004 EFE172C1 		.word	-1049435665
 1654 0008 00000070 		.word	1879048192
 1655 000c 34EE7241 		.word	1098051124
 1656 0010 00000000 		.word	0
 1657 0014 F0602B41 		.word	1093361904
 1658 0018 00000040 		.word	1073741824
 1659 001c B3E652C1 		.word	-1051531597
 1660 0020 00000000 		.word	0
 1661 0024 9AA62241 		.word	1092789914
 1662 0028 00000000 		.word	0
 1663 002c 937A3241 		.word	1093827219
 1664 0030 00000000 		.word	0
 1665 0034 ECD314C1 		.word	-1055599636
 1666 0038 00000000 		.word	0
 1667 003c 882407C1 		.word	-1056496504
 1668 0040 00000000 		.word	0
 1669 0044 7090FF40 		.word	1090490480
 1670 0048 00000000 		.word	0
 1671 004c 0016E1C0 		.word	-1058990592
 1672 0050 00000000 		.word	0
 1673 0054 80A2E2C0 		.word	-1058889088
 1674 0058 00000000 		.word	0
 1675 005c 402BDE40 		.word	1088301888
 1676 0060 00000000 		.word	0
 1677 0064 80F6D340 		.word	1087633024
 1678 0068 00000000 		.word	0
 1679 006c 8081C3C0 		.word	-1060929152
 1680 0070 00000000 		.word	0
 1681 0074 00BEAFC0 		.word	-1062224384
 1682 0078 00000000 		.word	0
 1683 007c 00CFB3C0 		.word	-1061957888
 1684 0080 00000000 		.word	0
 1685 0084 0080B7C0 		.word	-1061715968
 1686 0088 00000000 		.word	0
 1687 008c 0010AAC0 		.word	-1062596608
 1688 0090 00000000 		.word	0
 1689 0094 00E8AEC0 		.word	-1062279168
 1690 0098 00000000 		.word	0
 1691 009c 00BEA740 		.word	1084734976
 1692 00a0 00000000 		.word	0
 1693 00a4 00D884C0 		.word	-1065035776
 1694 00a8 00000000 		.word	0
 1695 00ac 00E8AB40 		.word	1085007872
 1696 00b0 00000000 		.word	0
 1697 00b4 00F09340 		.word	1083437056
ARM GAS  /tmp/ccDhibM6.s 			page 31


 1698 00b8 00000000 		.word	0
 1699 00bc 00507F40 		.word	1082085376
 1700 00c0 00000000 		.word	0
 1701 00c4 00009240 		.word	1083310080
 1702 00c8 00000000 		.word	0
 1703 00cc 00A88CC0 		.word	-1064523776
 1704 00d0 00000000 		.word	0
 1705 00d4 00B08340 		.word	1082372096
 1706 00d8 00000000 		.word	0
 1707 00dc 00F493C0 		.word	-1064045568
 1708 00e0 00000000 		.word	0
 1709 00e4 0016A440 		.word	1084495360
 1710 00e8 00000000 		.word	0
 1711 00ec 00B07CC0 		.word	-1065570304
 1712 00f0 00000000 		.word	0
 1713 00f4 00188C40 		.word	1082923008
 1714 00f8 00000000 		.word	0
 1715 00fc 00A496C0 		.word	-1063869440
 1716 0100 00000000 		.word	0
 1717 0104 00C08FC0 		.word	-1064321024
 1718 0108 00000000 		.word	0
 1719 010c 004C9040 		.word	1083198464
 1720 0110 00000000 		.word	0
 1721 0114 004EA2C0 		.word	-1063105024
 1722 0118 00000000 		.word	0
 1723 011c 00A08FC0 		.word	-1064329216
 1724 0120 00000000 		.word	0
 1725 0124 0082BB40 		.word	1086030336
 1726 0128 00000000 		.word	0
 1727 012c 00A08840 		.word	1082695680
 1728 0130 00000000 		.word	0
 1729 0134 00BC9240 		.word	1083358208
 1730 0138 00000000 		.word	0
 1731 013c 002075C0 		.word	-1066065920
 1732 0140 00000000 		.word	0
 1733 0144 00207A40 		.word	1081745408
 1734 0148 00000000 		.word	0
 1735 014c 00C050C0 		.word	-1068449792
 1736 0150 00000000 		.word	0
 1737 0154 00005E40 		.word	1079902208
 1738 0158 00000000 		.word	0
 1739 015c 002071C0 		.word	-1066328064
 1740 0160 00000000 		.word	0
 1741 0164 00004EC0 		.word	-1068630016
 1742 0168 00000000 		.word	0
 1743 016c 00E063C0 		.word	-1067196416
 1744 0170 00000000 		.word	0
 1745 0174 008054C0 		.word	-1068204032
 1746 0178 00000000 		.word	0
 1747 017c 00003DC0 		.word	-1069744128
 1748 0180 00000000 		.word	0
 1749 0184 000042C0 		.word	-1069416448
 1750 0188 00000000 		.word	0
 1751 018c 000034C0 		.word	-1070333952
 1752 0190 00000000 		.word	0
 1753 0194 000044C0 		.word	-1069285376
 1754 0198 00000000 		.word	0
ARM GAS  /tmp/ccDhibM6.s 			page 32


 1755 019c 00001C40 		.word	1075576832
 1756 01a0 00000000 		.word	0
 1757 01a4 00002CC0 		.word	-1070858240
 1758 01a8 00000000 		.word	0
 1759 01ac 00003640 		.word	1077280768
 1760 01b0 00000000 		.word	0
 1761 01b4 00001040 		.word	1074790400
 1762 01b8 00000000 		.word	0
 1763 01bc 00002A40 		.word	1076494336
 1764 01c0 00000000 		.word	0
 1765 01c4 00001440 		.word	1075052544
 1766 01c8 00000000 		.word	0
 1767 01cc 00000040 		.word	1073741824
 1768 01d0 00000000 		.word	0
 1769 01d4 0000F0BF 		.word	-1074790400
 1770 01d8 00000000 		.word	0
 1771 01dc 00000000 		.word	0
 1772 01e0 00000000 		.word	0
 1773 01e4 00000040 		.word	1073741824
 1774 01e8 00000000 		.word	0
 1775 01ec 00000000 		.word	0
 1776 01f0 00000000 		.word	0
 1777 01f4 000010C0 		.word	-1072693248
 1778 01f8 00000000 		.word	0
 1779 01fc 00001440 		.word	1075052544
 1780 0200 00000000 		.word	0
 1781 0204 00001040 		.word	1074790400
 1782 0208 00000000 		.word	0
 1783 020c 00001CC0 		.word	-1071906816
 1784 0210 00000000 		.word	0
 1785 0214 00002C40 		.word	1076625408
 1786 0218 00000000 		.word	0
 1787 021c 00003840 		.word	1077411840
 1788 0220 00000000 		.word	0
 1789 0224 008048C0 		.word	-1068990464
 1790 0228 00000000 		.word	0
 1791 022c 000041C0 		.word	-1069481984
 1792 0230 00000000 		.word	0
 1793 0234 00606440 		.word	1080320000
 1794 0238 00000000 		.word	0
 1795 023c 000048C0 		.word	-1069023232
 1796 0240 00000000 		.word	0
 1797 0244 00002240 		.word	1075970048
 1798 0248 00000000 		.word	0
 1799 024c 00003840 		.word	1077411840
 1800 0250 00000000 		.word	0
 1801 0254 000010C0 		.word	-1072693248
 1802 0258 00000000 		.word	0
 1803 025c 0000F03F 		.word	1072693248
 1804 0260 00000000 		.word	0
 1805 0264 000008C0 		.word	-1073217536
 1806 0268 00000000 		.word	0
 1807 026c 0000F03F 		.word	1072693248
 1808 0270 00000000 		.word	0
 1809 0274 0000F03F 		.word	1072693248
 1810 0278 00000000 		.word	0
 1811 027c 00000840 		.word	1074266112
ARM GAS  /tmp/ccDhibM6.s 			page 33


 1812 0280 00000000 		.word	0
 1813 0284 000008C0 		.word	-1073217536
 1814 0288 00000000 		.word	0
 1815 028c 0000F0BF 		.word	-1074790400
 1816 0290 00000000 		.word	0
 1817 0294 00001440 		.word	1075052544
 1818 0298 00000000 		.word	0
 1819 029c 000008C0 		.word	-1073217536
 1820 02a0 00000000 		.word	0
 1821 02a4 00000000 		.word	0
 1822 02a8 00000000 		.word	0
 1823 02ac 00000000 		.word	0
 1824              		.section	.rodata.argument,"a",%progbits
 1825              		.align	3
 1826              		.set	.LANCHOR4,. + 0
 1827              		.type	argument, %object
 1828              		.size	argument, 1032
 1829              	argument:
 1830 0000 00000000 		.word	0
 1831 0004 00000000 		.word	0
 1832 0008 00000000 		.word	0
 1833 000c 00000000 		.word	0
 1834 0010 00000000 		.word	0
 1835 0014 0000F03F 		.word	1072693248
 1836 0018 00000000 		.word	0
 1837 001c 00000000 		.word	0
 1838 0020 00000000 		.word	0
 1839 0024 00000000 		.word	0
 1840 0028 00000000 		.word	0
 1841 002c 00000040 		.word	1073741824
 1842 0030 00000000 		.word	0
 1843 0034 00000000 		.word	0
 1844 0038 00000000 		.word	0
 1845 003c 00000000 		.word	0
 1846 0040 00000000 		.word	0
 1847 0044 00000840 		.word	1074266112
 1848 0048 00000000 		.word	0
 1849 004c 00000000 		.word	0
 1850 0050 00000000 		.word	0
 1851 0054 00000000 		.word	0
 1852 0058 00000000 		.word	0
 1853 005c 00001040 		.word	1074790400
 1854 0060 00000000 		.word	0
 1855 0064 00000000 		.word	0
 1856 0068 00000000 		.word	0
 1857 006c 00000000 		.word	0
 1858 0070 00000000 		.word	0
 1859 0074 00001440 		.word	1075052544
 1860 0078 00000000 		.word	0
 1861 007c 00000000 		.word	0
 1862 0080 00000000 		.word	0
 1863 0084 00000000 		.word	0
 1864 0088 00000000 		.word	0
 1865 008c 00001840 		.word	1075314688
 1866 0090 00000000 		.word	0
 1867 0094 00000000 		.word	0
 1868 0098 00000000 		.word	0
ARM GAS  /tmp/ccDhibM6.s 			page 34


 1869 009c 0000F03F 		.word	1072693248
 1870 00a0 00000000 		.word	0
 1871 00a4 0000F0BF 		.word	-1074790400
 1872 00a8 00000000 		.word	0
 1873 00ac 00000000 		.word	0
 1874 00b0 00000000 		.word	0
 1875 00b4 0000F03F 		.word	1072693248
 1876 00b8 00000000 		.word	0
 1877 00bc 00000000 		.word	0
 1878 00c0 00000000 		.word	0
 1879 00c4 00000000 		.word	0
 1880 00c8 00000000 		.word	0
 1881 00cc 0000F03F 		.word	1072693248
 1882 00d0 00000000 		.word	0
 1883 00d4 0000F03F 		.word	1072693248
 1884 00d8 00000000 		.word	0
 1885 00dc 00000000 		.word	0
 1886 00e0 00000000 		.word	0
 1887 00e4 0000F03F 		.word	1072693248
 1888 00e8 00000000 		.word	0
 1889 00ec 00000040 		.word	1073741824
 1890 00f0 00000000 		.word	0
 1891 00f4 00000000 		.word	0
 1892 00f8 00000000 		.word	0
 1893 00fc 0000F03F 		.word	1072693248
 1894 0100 00000000 		.word	0
 1895 0104 00000840 		.word	1074266112
 1896 0108 00000000 		.word	0
 1897 010c 00000000 		.word	0
 1898 0110 00000000 		.word	0
 1899 0114 00000040 		.word	1073741824
 1900 0118 00000000 		.word	0
 1901 011c 000000C0 		.word	-1073741824
 1902 0120 00000000 		.word	0
 1903 0124 00000000 		.word	0
 1904 0128 00000000 		.word	0
 1905 012c 00000040 		.word	1073741824
 1906 0130 00000000 		.word	0
 1907 0134 0000F0BF 		.word	-1074790400
 1908 0138 00000000 		.word	0
 1909 013c 00000000 		.word	0
 1910 0140 00000000 		.word	0
 1911 0144 00000040 		.word	1073741824
 1912 0148 00000000 		.word	0
 1913 014c 00000000 		.word	0
 1914 0150 00000000 		.word	0
 1915 0154 0000F03F 		.word	1072693248
 1916 0158 00000000 		.word	0
 1917 015c 0000F0BF 		.word	-1074790400
 1918 0160 00000000 		.word	0
 1919 0164 00000000 		.word	0
 1920 0168 00000000 		.word	0
 1921 016c 0000F03F 		.word	1072693248
 1922 0170 00000000 		.word	0
 1923 0174 0000F0BF 		.word	-1074790400
 1924 0178 00000000 		.word	0
 1925 017c 0000F03F 		.word	1072693248
ARM GAS  /tmp/ccDhibM6.s 			page 35


 1926 0180 00000000 		.word	0
 1927 0184 0000F03F 		.word	1072693248
 1928 0188 00000000 		.word	0
 1929 018c 00000000 		.word	0
 1930 0190 00000000 		.word	0
 1931 0194 000008C0 		.word	-1073217536
 1932 0198 00000000 		.word	0
 1933 019c 0000F03F 		.word	1072693248
 1934 01a0 00000000 		.word	0
 1935 01a4 00000000 		.word	0
 1936 01a8 00000000 		.word	0
 1937 01ac 000000C0 		.word	-1073741824
 1938 01b0 00000000 		.word	0
 1939 01b4 0000F03F 		.word	1072693248
 1940 01b8 00000000 		.word	0
 1941 01bc 00000000 		.word	0
 1942 01c0 00000000 		.word	0
 1943 01c4 0000F0BF 		.word	-1074790400
 1944 01c8 00000000 		.word	0
 1945 01cc 0000F03F 		.word	1072693248
 1946 01d0 00000000 		.word	0
 1947 01d4 00000000 		.word	0
 1948 01d8 00000000 		.word	0
 1949 01dc 00000000 		.word	0
 1950 01e0 00000000 		.word	0
 1951 01e4 0000F03F 		.word	1072693248
 1952 01e8 00000000 		.word	0
 1953 01ec 00000000 		.word	0
 1954 01f0 00000000 		.word	0
 1955 01f4 0000F03F 		.word	1072693248
 1956 01f8 00000000 		.word	0
 1957 01fc 0000F03F 		.word	1072693248
 1958 0200 00000000 		.word	0
 1959 0204 00000000 		.word	0
 1960 0208 00000000 		.word	0
 1961 020c 00000040 		.word	1073741824
 1962 0210 00000000 		.word	0
 1963 0214 0000F03F 		.word	1072693248
 1964 0218 00000000 		.word	0
 1965 021c 00000000 		.word	0
 1966 0220 00000000 		.word	0
 1967 0224 00000840 		.word	1074266112
 1968 0228 00000000 		.word	0
 1969 022c 0000F03F 		.word	1072693248
 1970 0230 00000000 		.word	0
 1971 0234 00000000 		.word	0
 1972 0238 00000000 		.word	0
 1973 023c 00001040 		.word	1074790400
 1974 0240 00000000 		.word	0
 1975 0244 0000F03F 		.word	1072693248
 1976 0248 00000000 		.word	0
 1977 024c 0000F03F 		.word	1072693248
 1978 0250 00000000 		.word	0
 1979 0254 000008C0 		.word	-1073217536
 1980 0258 00000000 		.word	0
 1981 025c 0000F03F 		.word	1072693248
 1982 0260 00000000 		.word	0
ARM GAS  /tmp/ccDhibM6.s 			page 36


 1983 0264 0000F03F 		.word	1072693248
 1984 0268 00000000 		.word	0
 1985 026c 000000C0 		.word	-1073741824
 1986 0270 00000000 		.word	0
 1987 0274 0000F03F 		.word	1072693248
 1988 0278 00000000 		.word	0
 1989 027c 0000F03F 		.word	1072693248
 1990 0280 00000000 		.word	0
 1991 0284 0000F0BF 		.word	-1074790400
 1992 0288 00000000 		.word	0
 1993 028c 0000F03F 		.word	1072693248
 1994 0290 00000000 		.word	0
 1995 0294 0000F03F 		.word	1072693248
 1996 0298 00000000 		.word	0
 1997 029c 00000000 		.word	0
 1998 02a0 00000000 		.word	0
 1999 02a4 0000F03F 		.word	1072693248
 2000 02a8 00000000 		.word	0
 2001 02ac 0000F03F 		.word	1072693248
 2002 02b0 00000000 		.word	0
 2003 02b4 0000F03F 		.word	1072693248
 2004 02b8 00000000 		.word	0
 2005 02bc 0000F03F 		.word	1072693248
 2006 02c0 00000000 		.word	0
 2007 02c4 0000F03F 		.word	1072693248
 2008 02c8 00000000 		.word	0
 2009 02cc 00000840 		.word	1074266112
 2010 02d0 00000000 		.word	0
 2011 02d4 00000040 		.word	1073741824
 2012 02d8 00000000 		.word	0
 2013 02dc 00000000 		.word	0
 2014 02e0 00000000 		.word	0
 2015 02e4 000018C0 		.word	-1072168960
 2016 02e8 00000000 		.word	0
 2017 02ec 00000040 		.word	1073741824
 2018 02f0 00000000 		.word	0
 2019 02f4 00000000 		.word	0
 2020 02f8 00000000 		.word	0
 2021 02fc 000014C0 		.word	-1072431104
 2022 0300 00000000 		.word	0
 2023 0304 00000040 		.word	1073741824
 2024 0308 00000000 		.word	0
 2025 030c 00000000 		.word	0
 2026 0310 00000000 		.word	0
 2027 0314 000010C0 		.word	-1072693248
 2028 0318 00000000 		.word	0
 2029 031c 00000040 		.word	1073741824
 2030 0320 00000000 		.word	0
 2031 0324 00000000 		.word	0
 2032 0328 00000000 		.word	0
 2033 032c 000008C0 		.word	-1073217536
 2034 0330 00000000 		.word	0
 2035 0334 00000040 		.word	1073741824
 2036 0338 00000000 		.word	0
 2037 033c 00000000 		.word	0
 2038 0340 00000000 		.word	0
 2039 0344 000000C0 		.word	-1073741824
ARM GAS  /tmp/ccDhibM6.s 			page 37


 2040 0348 00000000 		.word	0
 2041 034c 00000040 		.word	1073741824
 2042 0350 00000000 		.word	0
 2043 0354 00000000 		.word	0
 2044 0358 00000000 		.word	0
 2045 035c 0000F0BF 		.word	-1074790400
 2046 0360 00000000 		.word	0
 2047 0364 00000040 		.word	1073741824
 2048 0368 00000000 		.word	0
 2049 036c 00000000 		.word	0
 2050 0370 00000000 		.word	0
 2051 0374 00000000 		.word	0
 2052 0378 00000000 		.word	0
 2053 037c 00000040 		.word	1073741824
 2054 0380 00000000 		.word	0
 2055 0384 00000000 		.word	0
 2056 0388 00000000 		.word	0
 2057 038c 0000F03F 		.word	1072693248
 2058 0390 00000000 		.word	0
 2059 0394 00000040 		.word	1073741824
 2060 0398 00000000 		.word	0
 2061 039c 00000000 		.word	0
 2062 03a0 00000000 		.word	0
 2063 03a4 00000040 		.word	1073741824
 2064 03a8 00000000 		.word	0
 2065 03ac 00000040 		.word	1073741824
 2066 03b0 00000000 		.word	0
 2067 03b4 00000000 		.word	0
 2068 03b8 00000000 		.word	0
 2069 03bc 00000840 		.word	1074266112
 2070 03c0 00000000 		.word	0
 2071 03c4 00000840 		.word	1074266112
 2072 03c8 00000000 		.word	0
 2073 03cc 00000000 		.word	0
 2074 03d0 00000000 		.word	0
 2075 03d4 000000C0 		.word	-1073741824
 2076 03d8 00000000 		.word	0
 2077 03dc 00000840 		.word	1074266112
 2078 03e0 00000000 		.word	0
 2079 03e4 00000000 		.word	0
 2080 03e8 00000000 		.word	0
 2081 03ec 0000F0BF 		.word	-1074790400
 2082 03f0 00000000 		.word	0
 2083 03f4 00000840 		.word	1074266112
 2084 03f8 00000000 		.word	0
 2085 03fc 00000000 		.word	0
 2086 0400 00000000 		.word	0
 2087 0404 00000000 		.word	0
 2088              		.text
 2089              	.Letext0:
 2090              		.file 2 "./libnova/src/libnova/ln_types.h"
 2091              		.file 3 "/usr/bin/../lib/gcc/arm-none-eabi/4.7.4/../../../../arm-none-eabi/include/math.h"
 2092              		.file 4 "./libnova/src/libnova/solar.h"
 2093              		.file 5 "./libnova/src/libnova/transform.h"
 2094              		.file 6 "./libnova/src/libnova/utility.h"
 2095              		.file 7 "./libnova/src/libnova/earth.h"
 2096              		.file 8 "./libnova/src/libnova/rise_set.h"
ARM GAS  /tmp/ccDhibM6.s 			page 38

