ARM GAS  /tmp/ccgcOwAe.s 			page 1


   1              		.syntax unified
   2              		.cpu cortex-m4
   3              		.fpu softvfp
   4              		.eabi_attribute 20, 1
   5              		.eabi_attribute 21, 1
   6              		.eabi_attribute 23, 3
   7              		.eabi_attribute 24, 1
   8              		.eabi_attribute 25, 1
   9              		.eabi_attribute 26, 1
  10              		.eabi_attribute 30, 2
  11              		.eabi_attribute 34, 1
  12              		.eabi_attribute 18, 4
  13              		.thumb
  14              		.file	"precession.c"
  15              		.text
  16              	.Ltext0:
  17              		.cfi_sections	.debug_frame
  18              		.global	__aeabi_dsub
  19              		.global	__aeabi_ddiv
  20              		.global	__aeabi_dmul
  21              		.global	__aeabi_dadd
  22              		.global	__aeabi_dcmpgt
  23              		.global	__aeabi_dcmplt
  24              		.section	.text.ln_get_equ_prec,"ax",%progbits
  25              		.align	2
  26              		.p2align 4,,15
  27              		.global	ln_get_equ_prec
  28              		.thumb
  29              		.thumb_func
  30              		.type	ln_get_equ_prec, %function
  31              	ln_get_equ_prec:
  32              	.LFB0:
  33              		.file 1 "./libnova/src/precession.c"
  34              		.loc 1 65 0
  35              		.cfi_startproc
  36              		@ args = 4, pretend = 0, frame = 40
  37              		@ frame_needed = 0, uses_anonymous_args = 0
  38              	.LVL0:
  39 0000 2DE9F04F 		push	{r4, r5, r6, r7, r8, r9, sl, fp, lr}
  40              	.LCFI0:
  41              		.cfi_def_cfa_offset 36
  42              		.cfi_offset 4, -36
  43              		.cfi_offset 5, -32
  44              		.cfi_offset 6, -28
  45              		.cfi_offset 7, -24
  46              		.cfi_offset 8, -20
  47              		.cfi_offset 9, -16
  48              		.cfi_offset 10, -12
  49              		.cfi_offset 11, -8
  50              		.cfi_offset 14, -4
  51 0004 0646     		mov	r6, r0
  52 0006 8BB0     		sub	sp, sp, #44
  53              	.LCFI1:
  54              		.cfi_def_cfa_offset 80
  55              		.loc 1 69 0
  56 0008 D0E90001 		ldrd	r0, [r0]
  57              	.LVL1:
ARM GAS  /tmp/ccgcOwAe.s 			page 2


  58              		.loc 1 65 0
  59 000c 1446     		mov	r4, r2
  60 000e 1D46     		mov	r5, r3
  61              		.loc 1 69 0
  62 0010 FFF7FEFF 		bl	ln_deg_to_rad
  63              	.LVL2:
  64 0014 CDE90401 		strd	r0, [sp, #16]
  65              	.LVL3:
  66              		.loc 1 70 0
  67 0018 D6E90201 		ldrd	r0, [r6, #8]
  68              	.LVL4:
  69 001c FFF7FEFF 		bl	ln_deg_to_rad
  70              	.LVL5:
  71              		.loc 1 73 0
  72 0020 97A3     		adr	r3, .L11
  73 0022 D3E90023 		ldrd	r2, [r3]
  74              		.loc 1 70 0
  75 0026 CDE90201 		strd	r0, [sp, #8]
  76              	.LVL6:
  77              		.loc 1 73 0
  78 002a 2046     		mov	r0, r4
  79              	.LVL7:
  80 002c 2946     		mov	r1, r5
  81 002e FFF7FEFF 		bl	__aeabi_dsub
  82              	.LVL8:
  83 0032 95A3     		adr	r3, .L11+8
  84 0034 D3E90023 		ldrd	r2, [r3]
  85 0038 FFF7FEFF 		bl	__aeabi_ddiv
  86              	.LVL9:
  87              		.loc 1 74 0
  88 003c 94A3     		adr	r3, .L11+16
  89 003e D3E90023 		ldrd	r2, [r3]
  90 0042 FFF7FEFF 		bl	__aeabi_dmul
  91              	.LVL10:
  92              		.loc 1 75 0
  93 0046 0246     		mov	r2, r0
  94 0048 0B46     		mov	r3, r1
  95              		.loc 1 74 0
  96 004a 0446     		mov	r4, r0
  97 004c 0D46     		mov	r5, r1
  98              	.LVL11:
  99              		.loc 1 75 0
 100 004e FFF7FEFF 		bl	__aeabi_dmul
 101              	.LVL12:
 102              		.loc 1 76 0
 103 0052 2246     		mov	r2, r4
 104 0054 2B46     		mov	r3, r5
 105              		.loc 1 75 0
 106 0056 8246     		mov	sl, r0
 107 0058 8B46     		mov	fp, r1
 108              	.LVL13:
 109              		.loc 1 76 0
 110 005a FFF7FEFF 		bl	__aeabi_dmul
 111              	.LVL14:
 112              		.loc 1 77 0
 113 005e 8EA3     		adr	r3, .L11+24
 114 0060 D3E90023 		ldrd	r2, [r3]
ARM GAS  /tmp/ccgcOwAe.s 			page 3


 115              		.loc 1 76 0
 116 0064 0646     		mov	r6, r0
 117              	.LVL15:
 118 0066 0F46     		mov	r7, r1
 119              	.LVL16:
 120              		.loc 1 77 0
 121 0068 2046     		mov	r0, r4
 122 006a 2946     		mov	r1, r5
 123 006c FFF7FEFF 		bl	__aeabi_dmul
 124              	.LVL17:
 125 0070 8BA3     		adr	r3, .L11+32
 126 0072 D3E90023 		ldrd	r2, [r3]
 127 0076 8046     		mov	r8, r0
 128 0078 8946     		mov	r9, r1
 129 007a 5046     		mov	r0, sl
 130 007c 5946     		mov	r1, fp
 131 007e FFF7FEFF 		bl	__aeabi_dmul
 132              	.LVL18:
 133 0082 0246     		mov	r2, r0
 134 0084 0B46     		mov	r3, r1
 135 0086 4046     		mov	r0, r8
 136 0088 4946     		mov	r1, r9
 137 008a FFF7FEFF 		bl	__aeabi_dadd
 138              	.LVL19:
 139 008e 86A3     		adr	r3, .L11+40
 140 0090 D3E90023 		ldrd	r2, [r3]
 141 0094 CDE90001 		strd	r0, [sp]
 142 0098 3046     		mov	r0, r6
 143 009a 3946     		mov	r1, r7
 144 009c FFF7FEFF 		bl	__aeabi_dmul
 145              	.LVL20:
 146 00a0 0246     		mov	r2, r0
 147 00a2 0B46     		mov	r3, r1
 148 00a4 DDE90001 		ldrd	r0, [sp]
 149 00a8 FFF7FEFF 		bl	__aeabi_dadd
 150              	.LVL21:
 151              		.loc 1 78 0
 152 00ac 80A3     		adr	r3, .L11+48
 153 00ae D3E90023 		ldrd	r2, [r3]
 154              		.loc 1 77 0
 155 00b2 CDE90001 		strd	r0, [sp]
 156              	.LVL22:
 157              		.loc 1 78 0
 158 00b6 3046     		mov	r0, r6
 159              	.LVL23:
 160 00b8 3946     		mov	r1, r7
 161 00ba FFF7FEFF 		bl	__aeabi_dmul
 162              	.LVL24:
 163 00be 7EA3     		adr	r3, .L11+56
 164 00c0 D3E90023 		ldrd	r2, [r3]
 165 00c4 0646     		mov	r6, r0
 166              	.LVL25:
 167 00c6 0F46     		mov	r7, r1
 168 00c8 5046     		mov	r0, sl
 169 00ca 5946     		mov	r1, fp
 170 00cc FFF7FEFF 		bl	__aeabi_dmul
 171              	.LVL26:
ARM GAS  /tmp/ccgcOwAe.s 			page 4


 172 00d0 0246     		mov	r2, r0
 173 00d2 0B46     		mov	r3, r1
 174 00d4 4046     		mov	r0, r8
 175 00d6 4946     		mov	r1, r9
 176 00d8 FFF7FEFF 		bl	__aeabi_dadd
 177              	.LVL27:
 178 00dc 3246     		mov	r2, r6
 179 00de 3B46     		mov	r3, r7
 180 00e0 FFF7FEFF 		bl	__aeabi_dadd
 181              	.LVL28:
 182              		.loc 1 79 0
 183 00e4 76A3     		adr	r3, .L11+64
 184 00e6 D3E90023 		ldrd	r2, [r3]
 185              		.loc 1 78 0
 186 00ea 8046     		mov	r8, r0
 187 00ec 8946     		mov	r9, r1
 188              	.LVL29:
 189              		.loc 1 79 0
 190 00ee 2046     		mov	r0, r4
 191 00f0 2946     		mov	r1, r5
 192 00f2 FFF7FEFF 		bl	__aeabi_dmul
 193              	.LVL30:
 194 00f6 74A3     		adr	r3, .L11+72
 195 00f8 D3E90023 		ldrd	r2, [r3]
 196 00fc 0446     		mov	r4, r0
 197              	.LVL31:
 198 00fe 0D46     		mov	r5, r1
 199 0100 5046     		mov	r0, sl
 200 0102 5946     		mov	r1, fp
 201 0104 FFF7FEFF 		bl	__aeabi_dmul
 202              	.LVL32:
 203 0108 0246     		mov	r2, r0
 204 010a 0B46     		mov	r3, r1
 205 010c 2046     		mov	r0, r4
 206 010e 2946     		mov	r1, r5
 207 0110 FFF7FEFF 		bl	__aeabi_dsub
 208              	.LVL33:
 209 0114 3246     		mov	r2, r6
 210 0116 3B46     		mov	r3, r7
 211 0118 FFF7FEFF 		bl	__aeabi_dsub
 212              	.LVL34:
 213 011c 0446     		mov	r4, r0
 214 011e 0D46     		mov	r5, r1
 215              	.LVL35:
 216              		.loc 1 80 0
 217 0120 DDE90001 		ldrd	r0, [sp]
 218 0124 FFF7FEFF 		bl	ln_deg_to_rad
 219              	.LVL36:
 220 0128 0646     		mov	r6, r0
 221 012a 0F46     		mov	r7, r1
 222              	.LVL37:
 223              		.loc 1 81 0
 224 012c 4046     		mov	r0, r8
 225 012e 4946     		mov	r1, r9
 226 0130 FFF7FEFF 		bl	ln_deg_to_rad
 227              	.LVL38:
 228 0134 CDE90601 		strd	r0, [sp, #24]
ARM GAS  /tmp/ccgcOwAe.s 			page 5


 229              	.LVL39:
 230              		.loc 1 82 0
 231 0138 2046     		mov	r0, r4
 232              	.LVL40:
 233 013a 2946     		mov	r1, r5
 234 013c FFF7FEFF 		bl	ln_deg_to_rad
 235              	.LVL41:
 236 0140 8046     		mov	r8, r0
 237 0142 8946     		mov	r9, r1
 238              	.LVL42:
 239              		.loc 1 85 0
 240 0144 DDE90201 		ldrd	r0, [sp, #8]
 241 0148 FFF7FEFF 		bl	cos
 242              	.LVL43:
 243 014c 3246     		mov	r2, r6
 244 014e 3B46     		mov	r3, r7
 245 0150 0446     		mov	r4, r0
 246 0152 0D46     		mov	r5, r1
 247 0154 DDE90401 		ldrd	r0, [sp, #16]
 248 0158 FFF7FEFF 		bl	__aeabi_dadd
 249              	.LVL44:
 250 015c 0646     		mov	r6, r0
 251              	.LVL45:
 252 015e 0F46     		mov	r7, r1
 253 0160 FFF7FEFF 		bl	sin
 254              	.LVL46:
 255 0164 0246     		mov	r2, r0
 256 0166 0B46     		mov	r3, r1
 257 0168 2046     		mov	r0, r4
 258 016a 2946     		mov	r1, r5
 259 016c FFF7FEFF 		bl	__aeabi_dmul
 260              	.LVL47:
 261 0170 8246     		mov	sl, r0
 262              	.LVL48:
 263 0172 8B46     		mov	fp, r1
 264              	.LVL49:
 265              		.loc 1 86 0
 266 0174 4046     		mov	r0, r8
 267 0176 4946     		mov	r1, r9
 268 0178 FFF7FEFF 		bl	cos
 269              	.LVL50:
 270 017c CDE90401 		strd	r0, [sp, #16]
 271 0180 3046     		mov	r0, r6
 272 0182 3946     		mov	r1, r7
 273 0184 FFF7FEFF 		bl	cos
 274              	.LVL51:
 275 0188 CDE90001 		strd	r0, [sp]
 276 018c 4046     		mov	r0, r8
 277 018e 4946     		mov	r1, r9
 278 0190 FFF7FEFF 		bl	sin
 279              	.LVL52:
 280 0194 CDE90801 		strd	r0, [sp, #32]
 281 0198 DDE90201 		ldrd	r0, [sp, #8]
 282 019c FFF7FEFF 		bl	sin
 283              	.LVL53:
 284 01a0 DDE90423 		ldrd	r2, [sp, #16]
 285 01a4 8046     		mov	r8, r0
ARM GAS  /tmp/ccgcOwAe.s 			page 6


 286              	.LVL54:
 287 01a6 8946     		mov	r9, r1
 288 01a8 2046     		mov	r0, r4
 289 01aa 2946     		mov	r1, r5
 290 01ac FFF7FEFF 		bl	__aeabi_dmul
 291              	.LVL55:
 292 01b0 DDE90023 		ldrd	r2, [sp]
 293 01b4 FFF7FEFF 		bl	__aeabi_dmul
 294              	.LVL56:
 295 01b8 4246     		mov	r2, r8
 296 01ba 0646     		mov	r6, r0
 297 01bc 0F46     		mov	r7, r1
 298 01be 4B46     		mov	r3, r9
 299 01c0 DDE90801 		ldrd	r0, [sp, #32]
 300 01c4 FFF7FEFF 		bl	__aeabi_dmul
 301              	.LVL57:
 302 01c8 0246     		mov	r2, r0
 303 01ca 0B46     		mov	r3, r1
 304 01cc 3046     		mov	r0, r6
 305 01ce 3946     		mov	r1, r7
 306 01d0 FFF7FEFF 		bl	__aeabi_dsub
 307              	.LVL58:
 308 01d4 0646     		mov	r6, r0
 309 01d6 0F46     		mov	r7, r1
 310              	.LVL59:
 311              		.loc 1 89 0
 312 01d8 3246     		mov	r2, r6
 313 01da 3B46     		mov	r3, r7
 314 01dc 5046     		mov	r0, sl
 315 01de 5946     		mov	r1, fp
 316 01e0 FFF7FEFF 		bl	atan2
 317              	.LVL60:
 318 01e4 DDE90623 		ldrd	r2, [sp, #24]
 319 01e8 FFF7FEFF 		bl	__aeabi_dadd
 320              	.LVL61:
 321              		.loc 1 92 0
 322 01ec 38A3     		adr	r3, .L11+80
 323 01ee D3E90023 		ldrd	r2, [r3]
 324              		.loc 1 89 0
 325 01f2 CDE90601 		strd	r0, [sp, #24]
 326              	.LVL62:
 327              		.loc 1 92 0
 328 01f6 DDE90201 		ldrd	r0, [sp, #8]
 329              	.LVL63:
 330 01fa FFF7FEFF 		bl	__aeabi_dcmpgt
 331              	.LVL64:
 332 01fe 40B9     		cbnz	r0, .L2
 333              		.loc 1 92 0 is_stmt 0 discriminator 1
 334 0200 DDE90201 		ldrd	r0, [sp, #8]
 335 0204 34A3     		adr	r3, .L11+88
 336 0206 D3E90023 		ldrd	r2, [r3]
 337 020a FFF7FEFF 		bl	__aeabi_dcmplt
 338              	.LVL65:
 339 020e 0028     		cmp	r0, #0
 340 0210 69D0     		beq	.L8
 341              	.L2:
 342              		.loc 1 94 0 is_stmt 1
ARM GAS  /tmp/ccgcOwAe.s 			page 7


 343 0212 5246     		mov	r2, sl
 344 0214 5B46     		mov	r3, fp
 345 0216 5046     		mov	r0, sl
 346 0218 5946     		mov	r1, fp
 347 021a FFF7FEFF 		bl	__aeabi_dmul
 348              	.LVL66:
 349 021e 3246     		mov	r2, r6
 350 0220 0446     		mov	r4, r0
 351              	.LVL67:
 352 0222 0D46     		mov	r5, r1
 353 0224 3B46     		mov	r3, r7
 354 0226 3046     		mov	r0, r6
 355 0228 3946     		mov	r1, r7
 356 022a FFF7FEFF 		bl	__aeabi_dmul
 357              	.LVL68:
 358 022e 0246     		mov	r2, r0
 359 0230 0B46     		mov	r3, r1
 360 0232 2046     		mov	r0, r4
 361 0234 2946     		mov	r1, r5
 362 0236 FFF7FEFF 		bl	__aeabi_dadd
 363              	.LVL69:
 364 023a FFF7FEFF 		bl	sqrt
 365              	.LVL70:
 366 023e FFF7FEFF 		bl	acos
 367              	.LVL71:
 368              		.loc 1 95 0
 369 0242 0022     		movs	r2, #0
 370              		.loc 1 94 0
 371 0244 0546     		mov	r5, r0
 372 0246 0C46     		mov	r4, r1
 373              	.LVL72:
 374              		.loc 1 95 0
 375 0248 0023     		movs	r3, #0
 376 024a DDE90201 		ldrd	r0, [sp, #8]
 377              	.LVL73:
 378 024e FFF7FEFF 		bl	__aeabi_dcmplt
 379              	.LVL74:
 380 0252 0028     		cmp	r0, #0
 381 0254 44D1     		bne	.L10
 382              	.LVL75:
 383              	.L5:
 384              		.loc 1 103 0
 385 0256 DDE90601 		ldrd	r0, [sp, #24]
 386 025a FFF7FEFF 		bl	ln_rad_to_deg
 387              	.LVL76:
 388 025e FFF7FEFF 		bl	ln_range_degrees
 389              	.LVL77:
 390              		.loc 1 104 0
 391 0262 2346     		mov	r3, r4
 392              		.loc 1 103 0
 393 0264 149C     		ldr	r4, [sp, #80]
 394              	.LVL78:
 395 0266 C4E90001 		strd	r0, [r4]
 396              		.loc 1 104 0
 397 026a 2846     		mov	r0, r5
 398 026c 1946     		mov	r1, r3
 399 026e FFF7FEFF 		bl	ln_rad_to_deg
ARM GAS  /tmp/ccgcOwAe.s 			page 8


 400              	.LVL79:
 401 0272 C4E90201 		strd	r0, [r4, #8]
 402              		.loc 1 105 0
 403 0276 0BB0     		add	sp, sp, #44
 404 0278 BDE8F08F 		pop	{r4, r5, r6, r7, r8, r9, sl, fp, pc}
 405              	.L12:
 406 027c AFF30080 		.align	3
 407              	.L11:
 408 0280 00000080 		.word	2147483648
 409 0284 2CB44241 		.word	1094890540
 410 0288 00000000 		.word	0
 411 028c A0D5E140 		.word	1088542112
 412 0290 DFBC9A78 		.word	2023406815
 413 0294 5634323F 		.word	1060254806
 414 0298 849ECDAA 		.word	2865602180
 415 029c 6F04A240 		.word	1084359791
 416 02a0 3541D47D 		.word	2111062325
 417 02a4 0052D33F 		.word	1070813696
 418 02a8 8CD99255 		.word	1435687308
 419 02ac 116E923F 		.word	1066561041
 420 02b0 BF81C98D 		.word	2378793407
 421 02b4 226BA53F 		.word	1067805474
 422 02b8 4F5DF92C 		.word	754539855
 423 02bc CF83F13F 		.word	1072792527
 424 02c0 4ED1915C 		.word	1553060174
 425 02c4 3E519F40 		.word	1084182846
 426 02c8 58A835CD 		.word	3442845784
 427 02cc 3B4EDB3F 		.word	1071337019
 428 02d0 E0F09C76 		.word	1989996768
 429 02d4 2F1BF43F 		.word	1072962351
 430 02d8 E0F09C76 		.word	1989996768
 431 02dc 2F1BF4BF 		.word	-1074521297
 432              	.LVL80:
 433              	.L10:
 434              		.loc 1 96 0
 435 02e0 04F10044 		add	r4, r4, #-2147483648
 436              	.LVL81:
 437 02e4 B7E7     		b	.L5
 438              	.LVL82:
 439              	.L8:
 440              		.loc 1 87 0
 441 02e6 DDE90823 		ldrd	r2, [sp, #32]
 442 02ea 2046     		mov	r0, r4
 443 02ec 2946     		mov	r1, r5
 444 02ee FFF7FEFF 		bl	__aeabi_dmul
 445              	.LVL83:
 446 02f2 0246     		mov	r2, r0
 447 02f4 0B46     		mov	r3, r1
 448 02f6 DDE90001 		ldrd	r0, [sp]
 449 02fa FFF7FEFF 		bl	__aeabi_dmul
 450              	.LVL84:
 451 02fe 4246     		mov	r2, r8
 452 0300 0446     		mov	r4, r0
 453              	.LVL85:
 454 0302 0D46     		mov	r5, r1
 455 0304 4B46     		mov	r3, r9
 456 0306 DDE90401 		ldrd	r0, [sp, #16]
ARM GAS  /tmp/ccgcOwAe.s 			page 9


 457 030a FFF7FEFF 		bl	__aeabi_dmul
 458              	.LVL86:
 459 030e 0246     		mov	r2, r0
 460 0310 0B46     		mov	r3, r1
 461 0312 2046     		mov	r0, r4
 462 0314 2946     		mov	r1, r5
 463 0316 FFF7FEFF 		bl	__aeabi_dadd
 464              	.LVL87:
 465              		.loc 1 99 0
 466 031a FFF7FEFF 		bl	asin
 467              	.LVL88:
 468 031e 0546     		mov	r5, r0
 469 0320 0C46     		mov	r4, r1
 470              	.LVL89:
 471 0322 98E7     		b	.L5
 472              		.cfi_endproc
 473              	.LFE0:
 474              		.size	ln_get_equ_prec, .-ln_get_equ_prec
 475 0324 AFF30080 		.section	.text.ln_get_equ_prec2,"ax",%progbits
 475      AFF30080 
 475      AFF30080 
 476              		.align	2
 477              		.p2align 4,,15
 478              		.global	ln_get_equ_prec2
 479              		.thumb
 480              		.thumb_func
 481              		.type	ln_get_equ_prec2, %function
 482              	ln_get_equ_prec2:
 483              	.LFB1:
 484              		.loc 1 120 0
 485              		.cfi_startproc
 486              		@ args = 12, pretend = 0, frame = 48
 487              		@ frame_needed = 0, uses_anonymous_args = 0
 488              	.LVL90:
 489 0000 2DE9F04F 		push	{r4, r5, r6, r7, r8, r9, sl, fp, lr}
 490              	.LCFI2:
 491              		.cfi_def_cfa_offset 36
 492              		.cfi_offset 4, -36
 493              		.cfi_offset 5, -32
 494              		.cfi_offset 6, -28
 495              		.cfi_offset 7, -24
 496              		.cfi_offset 8, -20
 497              		.cfi_offset 9, -16
 498              		.cfi_offset 10, -12
 499              		.cfi_offset 11, -8
 500              		.cfi_offset 14, -4
 501 0004 0446     		mov	r4, r0
 502 0006 8DB0     		sub	sp, sp, #52
 503              	.LCFI3:
 504              		.cfi_def_cfa_offset 88
 505              		.loc 1 124 0
 506 0008 D0E90001 		ldrd	r0, [r0]
 507              	.LVL91:
 508              		.loc 1 120 0
 509 000c 1646     		mov	r6, r2
 510 000e 1F46     		mov	r7, r3
 511              		.loc 1 124 0
ARM GAS  /tmp/ccgcOwAe.s 			page 10


 512 0010 FFF7FEFF 		bl	ln_deg_to_rad
 513              	.LVL92:
 514 0014 CDE90801 		strd	r0, [sp, #32]
 515              	.LVL93:
 516              		.loc 1 125 0
 517 0018 D4E90201 		ldrd	r0, [r4, #8]
 518              	.LVL94:
 519 001c FFF7FEFF 		bl	ln_deg_to_rad
 520              	.LVL95:
 521              		.loc 1 128 0
 522 0020 A1A3     		adr	r3, .L22
 523 0022 D3E90023 		ldrd	r2, [r3]
 524              		.loc 1 125 0
 525 0026 CDE90401 		strd	r0, [sp, #16]
 526              	.LVL96:
 527              		.loc 1 128 0
 528 002a 3046     		mov	r0, r6
 529              	.LVL97:
 530 002c 3946     		mov	r1, r7
 531 002e FFF7FEFF 		bl	__aeabi_dsub
 532              	.LVL98:
 533 0032 9FA3     		adr	r3, .L22+8
 534 0034 D3E90023 		ldrd	r2, [r3]
 535 0038 FFF7FEFF 		bl	__aeabi_ddiv
 536              	.LVL99:
 537              		.loc 1 129 0
 538 003c 9EA3     		adr	r3, .L22+16
 539 003e D3E90023 		ldrd	r2, [r3]
 540 0042 FFF7FEFF 		bl	__aeabi_dmul
 541              	.LVL100:
 542              		.loc 1 130 0
 543 0046 3246     		mov	r2, r6
 544              		.loc 1 129 0
 545 0048 0446     		mov	r4, r0
 546              	.LVL101:
 547 004a 0D46     		mov	r5, r1
 548              	.LVL102:
 549              		.loc 1 130 0
 550 004c 3B46     		mov	r3, r7
 551 004e DDE91601 		ldrd	r0, [sp, #88]
 552 0052 FFF7FEFF 		bl	__aeabi_dsub
 553              	.LVL103:
 554 0056 96A3     		adr	r3, .L22+8
 555 0058 D3E90023 		ldrd	r2, [r3]
 556 005c FFF7FEFF 		bl	__aeabi_ddiv
 557              	.LVL104:
 558              		.loc 1 131 0
 559 0060 95A3     		adr	r3, .L22+16
 560 0062 D3E90023 		ldrd	r2, [r3]
 561 0066 FFF7FEFF 		bl	__aeabi_dmul
 562              	.LVL105:
 563              		.loc 1 132 0
 564 006a 2246     		mov	r2, r4
 565              		.loc 1 131 0
 566 006c 8246     		mov	sl, r0
 567 006e 8B46     		mov	fp, r1
 568              	.LVL106:
ARM GAS  /tmp/ccgcOwAe.s 			page 11


 569              		.loc 1 132 0
 570 0070 2B46     		mov	r3, r5
 571 0072 2046     		mov	r0, r4
 572 0074 2946     		mov	r1, r5
 573 0076 FFF7FEFF 		bl	__aeabi_dmul
 574              	.LVL107:
 575              		.loc 1 133 0
 576 007a 5246     		mov	r2, sl
 577              		.loc 1 132 0
 578 007c CDE90601 		strd	r0, [sp, #24]
 579              	.LVL108:
 580              		.loc 1 133 0
 581 0080 5B46     		mov	r3, fp
 582 0082 5046     		mov	r0, sl
 583              	.LVL109:
 584 0084 5946     		mov	r1, fp
 585 0086 FFF7FEFF 		bl	__aeabi_dmul
 586              	.LVL110:
 587              		.loc 1 134 0
 588 008a 5246     		mov	r2, sl
 589 008c 5B46     		mov	r3, fp
 590              		.loc 1 133 0
 591 008e CDE90001 		strd	r0, [sp]
 592              	.LVL111:
 593              		.loc 1 134 0
 594 0092 FFF7FEFF 		bl	__aeabi_dmul
 595              	.LVL112:
 596              		.loc 1 135 0
 597 0096 8AA3     		adr	r3, .L22+24
 598 0098 D3E90023 		ldrd	r2, [r3]
 599              		.loc 1 134 0
 600 009c CDE90201 		strd	r0, [sp, #8]
 601              	.LVL113:
 602              		.loc 1 135 0
 603 00a0 2046     		mov	r0, r4
 604              	.LVL114:
 605 00a2 2946     		mov	r1, r5
 606 00a4 FFF7FEFF 		bl	__aeabi_dmul
 607              	.LVL115:
 608 00a8 87A3     		adr	r3, .L22+32
 609 00aa D3E90023 		ldrd	r2, [r3]
 610 00ae FFF7FEFF 		bl	__aeabi_dadd
 611              	.LVL116:
 612 00b2 87A3     		adr	r3, .L22+40
 613 00b4 D3E90023 		ldrd	r2, [r3]
 614 00b8 0646     		mov	r6, r0
 615 00ba 0F46     		mov	r7, r1
 616 00bc DDE90601 		ldrd	r0, [sp, #24]
 617 00c0 FFF7FEFF 		bl	__aeabi_dmul
 618              	.LVL117:
 619 00c4 0246     		mov	r2, r0
 620 00c6 0B46     		mov	r3, r1
 621 00c8 3046     		mov	r0, r6
 622 00ca 3946     		mov	r1, r7
 623 00cc FFF7FEFF 		bl	__aeabi_dsub
 624              	.LVL118:
 625 00d0 5246     		mov	r2, sl
ARM GAS  /tmp/ccgcOwAe.s 			page 12


 626 00d2 5B46     		mov	r3, fp
 627 00d4 FFF7FEFF 		bl	__aeabi_dmul
 628              	.LVL119:
 629 00d8 7FA3     		adr	r3, .L22+48
 630 00da D3E90023 		ldrd	r2, [r3]
 631 00de 0646     		mov	r6, r0
 632 00e0 0F46     		mov	r7, r1
 633 00e2 2046     		mov	r0, r4
 634 00e4 2946     		mov	r1, r5
 635 00e6 FFF7FEFF 		bl	__aeabi_dmul
 636              	.LVL120:
 637 00ea 0246     		mov	r2, r0
 638 00ec 0B46     		mov	r3, r1
 639 00ee 7CA1     		adr	r1, .L22+56
 640 00f0 D1E90001 		ldrd	r0, [r1]
 641 00f4 FFF7FEFF 		bl	__aeabi_dsub
 642              	.LVL121:
 643 00f8 DDE90023 		ldrd	r2, [sp]
 644 00fc FFF7FEFF 		bl	__aeabi_dmul
 645              	.LVL122:
 646 0100 0246     		mov	r2, r0
 647 0102 0B46     		mov	r3, r1
 648 0104 3046     		mov	r0, r6
 649 0106 3946     		mov	r1, r7
 650 0108 FFF7FEFF 		bl	__aeabi_dadd
 651              	.LVL123:
 652 010c 76A3     		adr	r3, .L22+64
 653 010e D3E90023 		ldrd	r2, [r3]
 654 0112 8046     		mov	r8, r0
 655 0114 8946     		mov	r9, r1
 656 0116 DDE90201 		ldrd	r0, [sp, #8]
 657 011a FFF7FEFF 		bl	__aeabi_dmul
 658              	.LVL124:
 659 011e 0246     		mov	r2, r0
 660 0120 0B46     		mov	r3, r1
 661 0122 4046     		mov	r0, r8
 662 0124 4946     		mov	r1, r9
 663 0126 FFF7FEFF 		bl	__aeabi_dadd
 664              	.LVL125:
 665              		.loc 1 136 0
 666 012a 71A3     		adr	r3, .L22+72
 667 012c D3E90023 		ldrd	r2, [r3]
 668              		.loc 1 135 0
 669 0130 CDE90A01 		strd	r0, [sp, #40]
 670              	.LVL126:
 671              		.loc 1 136 0
 672 0134 2046     		mov	r0, r4
 673              	.LVL127:
 674 0136 2946     		mov	r1, r5
 675 0138 FFF7FEFF 		bl	__aeabi_dmul
 676              	.LVL128:
 677 013c 6EA3     		adr	r3, .L22+80
 678 013e D3E90023 		ldrd	r2, [r3]
 679 0142 FFF7FEFF 		bl	__aeabi_dadd
 680              	.LVL129:
 681 0146 DDE90023 		ldrd	r2, [sp]
 682 014a FFF7FEFF 		bl	__aeabi_dmul
ARM GAS  /tmp/ccgcOwAe.s 			page 13


 683              	.LVL130:
 684 014e 0246     		mov	r2, r0
 685 0150 0B46     		mov	r3, r1
 686 0152 3046     		mov	r0, r6
 687 0154 3946     		mov	r1, r7
 688 0156 FFF7FEFF 		bl	__aeabi_dadd
 689              	.LVL131:
 690 015a 69A3     		adr	r3, .L22+88
 691 015c D3E90023 		ldrd	r2, [r3]
 692 0160 0646     		mov	r6, r0
 693 0162 0F46     		mov	r7, r1
 694 0164 DDE90201 		ldrd	r0, [sp, #8]
 695 0168 FFF7FEFF 		bl	__aeabi_dmul
 696              	.LVL132:
 697 016c 0246     		mov	r2, r0
 698 016e 0B46     		mov	r3, r1
 699 0170 3046     		mov	r0, r6
 700 0172 3946     		mov	r1, r7
 701 0174 FFF7FEFF 		bl	__aeabi_dadd
 702              	.LVL133:
 703              		.loc 1 137 0
 704 0178 63A3     		adr	r3, .L22+96
 705 017a D3E90023 		ldrd	r2, [r3]
 706              		.loc 1 136 0
 707 017e 0646     		mov	r6, r0
 708 0180 0F46     		mov	r7, r1
 709              	.LVL134:
 710              		.loc 1 137 0
 711 0182 2046     		mov	r0, r4
 712 0184 2946     		mov	r1, r5
 713 0186 FFF7FEFF 		bl	__aeabi_dmul
 714              	.LVL135:
 715 018a 0246     		mov	r2, r0
 716 018c 0B46     		mov	r3, r1
 717 018e 60A1     		adr	r1, .L22+104
 718 0190 D1E90001 		ldrd	r0, [r1]
 719 0194 FFF7FEFF 		bl	__aeabi_dsub
 720              	.LVL136:
 721 0198 5FA3     		adr	r3, .L22+112
 722 019a D3E90023 		ldrd	r2, [r3]
 723 019e 8046     		mov	r8, r0
 724 01a0 8946     		mov	r9, r1
 725 01a2 DDE90601 		ldrd	r0, [sp, #24]
 726 01a6 FFF7FEFF 		bl	__aeabi_dmul
 727              	.LVL137:
 728 01aa 0246     		mov	r2, r0
 729 01ac 0B46     		mov	r3, r1
 730 01ae 4046     		mov	r0, r8
 731 01b0 4946     		mov	r1, r9
 732 01b2 FFF7FEFF 		bl	__aeabi_dsub
 733              	.LVL138:
 734 01b6 5246     		mov	r2, sl
 735 01b8 5B46     		mov	r3, fp
 736 01ba FFF7FEFF 		bl	__aeabi_dmul
 737              	.LVL139:
 738 01be 56A3     		adr	r3, .L22+112
 739 01c0 D3E90023 		ldrd	r2, [r3]
ARM GAS  /tmp/ccgcOwAe.s 			page 14


 740 01c4 8246     		mov	sl, r0
 741              	.LVL140:
 742 01c6 8B46     		mov	fp, r1
 743 01c8 2046     		mov	r0, r4
 744 01ca 2946     		mov	r1, r5
 745 01cc FFF7FEFF 		bl	__aeabi_dmul
 746              	.LVL141:
 747 01d0 53A3     		adr	r3, .L22+120
 748 01d2 D3E90023 		ldrd	r2, [r3]
 749 01d6 FFF7FEFF 		bl	__aeabi_dadd
 750              	.LVL142:
 751 01da DDE90023 		ldrd	r2, [sp]
 752 01de FFF7FEFF 		bl	__aeabi_dmul
 753              	.LVL143:
 754 01e2 0246     		mov	r2, r0
 755 01e4 0B46     		mov	r3, r1
 756 01e6 5046     		mov	r0, sl
 757 01e8 5946     		mov	r1, fp
 758 01ea FFF7FEFF 		bl	__aeabi_dsub
 759              	.LVL144:
 760 01ee 4EA3     		adr	r3, .L22+128
 761 01f0 D3E90023 		ldrd	r2, [r3]
 762 01f4 0446     		mov	r4, r0
 763              	.LVL145:
 764 01f6 0D46     		mov	r5, r1
 765 01f8 DDE90201 		ldrd	r0, [sp, #8]
 766 01fc FFF7FEFF 		bl	__aeabi_dmul
 767              	.LVL146:
 768 0200 0246     		mov	r2, r0
 769 0202 0B46     		mov	r3, r1
 770 0204 2046     		mov	r0, r4
 771 0206 2946     		mov	r1, r5
 772 0208 FFF7FEFF 		bl	__aeabi_dsub
 773              	.LVL147:
 774 020c 0446     		mov	r4, r0
 775 020e 0D46     		mov	r5, r1
 776              	.LVL148:
 777              		.loc 1 138 0
 778 0210 DDE90A01 		ldrd	r0, [sp, #40]
 779 0214 FFF7FEFF 		bl	ln_deg_to_rad
 780              	.LVL149:
 781 0218 8046     		mov	r8, r0
 782 021a 8946     		mov	r9, r1
 783              	.LVL150:
 784              		.loc 1 139 0
 785 021c 3046     		mov	r0, r6
 786 021e 3946     		mov	r1, r7
 787 0220 FFF7FEFF 		bl	ln_deg_to_rad
 788              	.LVL151:
 789 0224 CDE90A01 		strd	r0, [sp, #40]
 790              	.LVL152:
 791              		.loc 1 140 0
 792 0228 2046     		mov	r0, r4
 793              	.LVL153:
 794 022a 2946     		mov	r1, r5
 795 022c FFF7FEFF 		bl	ln_deg_to_rad
 796              	.LVL154:
ARM GAS  /tmp/ccgcOwAe.s 			page 15


 797 0230 0646     		mov	r6, r0
 798 0232 0F46     		mov	r7, r1
 799              	.LVL155:
 800              		.loc 1 143 0
 801 0234 DDE90401 		ldrd	r0, [sp, #16]
 802 0238 FFF7FEFF 		bl	cos
 803              	.LVL156:
 804 023c 4246     		mov	r2, r8
 805 023e 4B46     		mov	r3, r9
 806 0240 0446     		mov	r4, r0
 807 0242 0D46     		mov	r5, r1
 808 0244 DDE90801 		ldrd	r0, [sp, #32]
 809 0248 FFF7FEFF 		bl	__aeabi_dadd
 810              	.LVL157:
 811 024c 8046     		mov	r8, r0
 812              	.LVL158:
 813 024e 8946     		mov	r9, r1
 814 0250 FFF7FEFF 		bl	sin
 815              	.LVL159:
 816 0254 0246     		mov	r2, r0
 817 0256 0B46     		mov	r3, r1
 818 0258 2046     		mov	r0, r4
 819 025a 2946     		mov	r1, r5
 820 025c FFF7FEFF 		bl	__aeabi_dmul
 821              	.LVL160:
 822 0260 8246     		mov	sl, r0
 823 0262 8B46     		mov	fp, r1
 824              	.LVL161:
 825              		.loc 1 144 0
 826 0264 3046     		mov	r0, r6
 827 0266 3946     		mov	r1, r7
 828 0268 FFF7FEFF 		bl	cos
 829              	.LVL162:
 830 026c CDE90001 		strd	r0, [sp]
 831 0270 4046     		mov	r0, r8
 832 0272 4946     		mov	r1, r9
 833 0274 FFF7FEFF 		bl	cos
 834              	.LVL163:
 835 0278 CDE90201 		strd	r0, [sp, #8]
 836 027c 3046     		mov	r0, r6
 837 027e 3946     		mov	r1, r7
 838 0280 FFF7FEFF 		bl	sin
 839              	.LVL164:
 840 0284 CDE90601 		strd	r0, [sp, #24]
 841 0288 DDE90401 		ldrd	r0, [sp, #16]
 842 028c FFF7FEFF 		bl	sin
 843              	.LVL165:
 844 0290 DDE90023 		ldrd	r2, [sp]
 845 0294 8046     		mov	r8, r0
 846 0296 8946     		mov	r9, r1
 847 0298 2046     		mov	r0, r4
 848 029a 2946     		mov	r1, r5
 849 029c FFF7FEFF 		bl	__aeabi_dmul
 850              	.LVL166:
 851 02a0 DDE90223 		ldrd	r2, [sp, #8]
 852 02a4 44E0     		b	.L23
 853              	.L24:
ARM GAS  /tmp/ccgcOwAe.s 			page 16


 854 02a6 00BF     		.align	3
 855              	.L22:
 856 02a8 00000080 		.word	2147483648
 857 02ac 2CB44241 		.word	1094890540
 858 02b0 00000000 		.word	0
 859 02b4 A0D5E140 		.word	1088542112
 860 02b8 DFBC9A78 		.word	2023406815
 861 02bc 5634323F 		.word	1060254806
 862 02c0 9C6D6E4C 		.word	1282305436
 863 02c4 4F58F63F 		.word	1073109071
 864 02c8 849ECDAA 		.word	2865602180
 865 02cc 6F04A240 		.word	1084359791
 866 02d0 F78F85E8 		.word	3901067255
 867 02d4 1038223F 		.word	1059207184
 868 02d8 3677F4BF 		.word	3220469558
 869 02dc 5C8B363F 		.word	1060539228
 870 02e0 3541D47D 		.word	2111062325
 871 02e4 0052D33F 		.word	1070813696
 872 02e8 8CD99255 		.word	1435687308
 873 02ec 116E923F 		.word	1066561041
 874 02f0 FA9CBB5D 		.word	1572576506
 875 02f4 2F4D113F 		.word	1058098479
 876 02f8 4F5DF92C 		.word	754539855
 877 02fc CF83F13F 		.word	1072792527
 878 0300 49A0C1A6 		.word	2797707337
 879 0304 CEA3923F 		.word	1066574798
 880 0308 58A835CD 		.word	3442845784
 881 030c 3B4EEB3F 		.word	1072385595
 882 0310 4ED1915C 		.word	1553060174
 883 0314 3E519F40 		.word	1084182846
 884 0318 B96C74CE 		.word	3463736505
 885 031c 4F712C3F 		.word	1059877199
 886 0320 58A835CD 		.word	3442845784
 887 0324 3B4EDB3F 		.word	1071337019
 888 0328 BF81C98D 		.word	2378793407
 889 032c 226BA53F 		.word	1067805474
 890              	.L23:
 891 0330 FFF7FEFF 		bl	__aeabi_dmul
 892              	.LVL167:
 893 0334 4246     		mov	r2, r8
 894 0336 0646     		mov	r6, r0
 895              	.LVL168:
 896 0338 0F46     		mov	r7, r1
 897 033a 4B46     		mov	r3, r9
 898 033c DDE90601 		ldrd	r0, [sp, #24]
 899 0340 FFF7FEFF 		bl	__aeabi_dmul
 900              	.LVL169:
 901 0344 0246     		mov	r2, r0
 902 0346 0B46     		mov	r3, r1
 903 0348 3046     		mov	r0, r6
 904 034a 3946     		mov	r1, r7
 905 034c FFF7FEFF 		bl	__aeabi_dsub
 906              	.LVL170:
 907 0350 0646     		mov	r6, r0
 908 0352 0F46     		mov	r7, r1
 909              	.LVL171:
 910              		.loc 1 147 0
ARM GAS  /tmp/ccgcOwAe.s 			page 17


 911 0354 3246     		mov	r2, r6
 912 0356 3B46     		mov	r3, r7
 913 0358 5046     		mov	r0, sl
 914 035a 5946     		mov	r1, fp
 915 035c FFF7FEFF 		bl	atan2
 916              	.LVL172:
 917 0360 DDE90A23 		ldrd	r2, [sp, #40]
 918 0364 FFF7FEFF 		bl	__aeabi_dadd
 919              	.LVL173:
 920              		.loc 1 150 0
 921 0368 35A3     		adr	r3, .L25
 922 036a D3E90023 		ldrd	r2, [r3]
 923              		.loc 1 147 0
 924 036e CDE90801 		strd	r0, [sp, #32]
 925              	.LVL174:
 926              		.loc 1 150 0
 927 0372 DDE90401 		ldrd	r0, [sp, #16]
 928              	.LVL175:
 929 0376 FFF7FEFF 		bl	__aeabi_dcmpgt
 930              	.LVL176:
 931 037a 40B9     		cbnz	r0, .L14
 932              		.loc 1 150 0 is_stmt 0 discriminator 1
 933 037c DDE90401 		ldrd	r0, [sp, #16]
 934 0380 31A3     		adr	r3, .L25+8
 935 0382 D3E90023 		ldrd	r2, [r3]
 936 0386 FFF7FEFF 		bl	__aeabi_dcmplt
 937              	.LVL177:
 938 038a 0028     		cmp	r0, #0
 939 038c 36D0     		beq	.L20
 940              	.L14:
 941              		.loc 1 152 0 is_stmt 1
 942 038e 5246     		mov	r2, sl
 943 0390 5B46     		mov	r3, fp
 944 0392 5046     		mov	r0, sl
 945 0394 5946     		mov	r1, fp
 946 0396 FFF7FEFF 		bl	__aeabi_dmul
 947              	.LVL178:
 948 039a 3246     		mov	r2, r6
 949 039c 0446     		mov	r4, r0
 950              	.LVL179:
 951 039e 0D46     		mov	r5, r1
 952 03a0 3B46     		mov	r3, r7
 953 03a2 3046     		mov	r0, r6
 954 03a4 3946     		mov	r1, r7
 955 03a6 FFF7FEFF 		bl	__aeabi_dmul
 956              	.LVL180:
 957 03aa 0246     		mov	r2, r0
 958 03ac 0B46     		mov	r3, r1
 959 03ae 2046     		mov	r0, r4
 960 03b0 2946     		mov	r1, r5
 961 03b2 FFF7FEFF 		bl	__aeabi_dadd
 962              	.LVL181:
 963 03b6 FFF7FEFF 		bl	sqrt
 964              	.LVL182:
 965 03ba FFF7FEFF 		bl	acos
 966              	.LVL183:
 967              		.loc 1 153 0
ARM GAS  /tmp/ccgcOwAe.s 			page 18


 968 03be 0022     		movs	r2, #0
 969              		.loc 1 152 0
 970 03c0 0546     		mov	r5, r0
 971 03c2 0C46     		mov	r4, r1
 972              	.LVL184:
 973              		.loc 1 153 0
 974 03c4 0023     		movs	r3, #0
 975 03c6 DDE90401 		ldrd	r0, [sp, #16]
 976              	.LVL185:
 977 03ca FFF7FEFF 		bl	__aeabi_dcmplt
 978              	.LVL186:
 979 03ce 90B9     		cbnz	r0, .L21
 980              	.LVL187:
 981              	.L17:
 982              		.loc 1 161 0
 983 03d0 DDE90801 		ldrd	r0, [sp, #32]
 984 03d4 FFF7FEFF 		bl	ln_rad_to_deg
 985              	.LVL188:
 986 03d8 FFF7FEFF 		bl	ln_range_degrees
 987              	.LVL189:
 988              		.loc 1 162 0
 989 03dc 2346     		mov	r3, r4
 990              		.loc 1 161 0
 991 03de 189C     		ldr	r4, [sp, #96]
 992              	.LVL190:
 993 03e0 C4E90001 		strd	r0, [r4]
 994              		.loc 1 162 0
 995 03e4 2846     		mov	r0, r5
 996 03e6 1946     		mov	r1, r3
 997 03e8 FFF7FEFF 		bl	ln_rad_to_deg
 998              	.LVL191:
 999 03ec C4E90201 		strd	r0, [r4, #8]
 1000              		.loc 1 163 0
 1001 03f0 0DB0     		add	sp, sp, #52
 1002 03f2 BDE8F08F 		pop	{r4, r5, r6, r7, r8, r9, sl, fp, pc}
 1003              	.LVL192:
 1004              	.L21:
 1005              		.loc 1 154 0
 1006 03f6 04F10044 		add	r4, r4, #-2147483648
 1007              	.LVL193:
 1008 03fa E9E7     		b	.L17
 1009              	.LVL194:
 1010              	.L20:
 1011              		.loc 1 145 0
 1012 03fc DDE90623 		ldrd	r2, [sp, #24]
 1013 0400 2046     		mov	r0, r4
 1014 0402 2946     		mov	r1, r5
 1015 0404 FFF7FEFF 		bl	__aeabi_dmul
 1016              	.LVL195:
 1017 0408 0246     		mov	r2, r0
 1018 040a 0B46     		mov	r3, r1
 1019 040c DDE90201 		ldrd	r0, [sp, #8]
 1020 0410 FFF7FEFF 		bl	__aeabi_dmul
 1021              	.LVL196:
 1022 0414 4246     		mov	r2, r8
 1023 0416 0446     		mov	r4, r0
 1024              	.LVL197:
ARM GAS  /tmp/ccgcOwAe.s 			page 19


 1025 0418 0D46     		mov	r5, r1
 1026 041a 4B46     		mov	r3, r9
 1027 041c DDE90001 		ldrd	r0, [sp]
 1028 0420 FFF7FEFF 		bl	__aeabi_dmul
 1029              	.LVL198:
 1030 0424 0246     		mov	r2, r0
 1031 0426 0B46     		mov	r3, r1
 1032 0428 2046     		mov	r0, r4
 1033 042a 2946     		mov	r1, r5
 1034 042c FFF7FEFF 		bl	__aeabi_dadd
 1035              	.LVL199:
 1036              		.loc 1 157 0
 1037 0430 FFF7FEFF 		bl	asin
 1038              	.LVL200:
 1039 0434 0546     		mov	r5, r0
 1040 0436 0C46     		mov	r4, r1
 1041              	.LVL201:
 1042 0438 CAE7     		b	.L17
 1043              	.L26:
 1044 043a 00BFAFF3 		.align	3
 1044      0080
 1045              	.L25:
 1046 0440 E0F09C76 		.word	1989996768
 1047 0444 2F1BF43F 		.word	1072962351
 1048 0448 E0F09C76 		.word	1989996768
 1049 044c 2F1BF4BF 		.word	-1074521297
 1050              		.cfi_endproc
 1051              	.LFE1:
 1052              		.size	ln_get_equ_prec2, .-ln_get_equ_prec2
 1053              		.section	.text.ln_get_ecl_prec,"ax",%progbits
 1054              		.align	2
 1055              		.p2align 4,,15
 1056              		.global	ln_get_ecl_prec
 1057              		.thumb
 1058              		.thumb_func
 1059              		.type	ln_get_ecl_prec, %function
 1060              	ln_get_ecl_prec:
 1061              	.LFB2:
 1062              		.loc 1 178 0
 1063              		.cfi_startproc
 1064              		@ args = 4, pretend = 0, frame = 0
 1065              		@ frame_needed = 0, uses_anonymous_args = 0
 1066              		@ link register save eliminated.
 1067              	.LVL202:
 1068 0000 7047     		bx	lr
 1069              		.cfi_endproc
 1070              	.LFE2:
 1071              		.size	ln_get_ecl_prec, .-ln_get_ecl_prec
 1072 0002 00BFAFF3 		.text
 1072      0080AFF3 
 1072      0080AFF3 
 1072      0080
 1073              	.Letext0:
 1074              		.file 2 "./libnova/src/libnova/ln_types.h"
 1075              		.file 3 "/usr/bin/../lib/gcc/arm-none-eabi/4.7.4/../../../../arm-none-eabi/include/math.h"
 1076              		.file 4 "./libnova/src/libnova/utility.h"