ARM GAS  /tmp/ccPpcZJf.s 			page 1


   1              		.syntax unified
   2              		.cpu cortex-m4
   3              		.fpu softvfp
   4              		.eabi_attribute 20, 1
   5              		.eabi_attribute 21, 1
   6              		.eabi_attribute 23, 3
   7              		.eabi_attribute 24, 1
   8              		.eabi_attribute 25, 1
   9              		.eabi_attribute 26, 1
  10              		.eabi_attribute 30, 2
  11              		.eabi_attribute 34, 1
  12              		.eabi_attribute 18, 4
  13              		.thumb
  14              		.file	"proper_motion.c"
  15              		.text
  16              	.Ltext0:
  17              		.cfi_sections	.debug_frame
  18              		.global	__aeabi_dsub
  19              		.global	__aeabi_ddiv
  20              		.global	__aeabi_dmul
  21              		.global	__aeabi_dadd
  22              		.section	.text.ln_get_equ_pm_epoch,"ax",%progbits
  23              		.align	2
  24              		.p2align 4,,15
  25              		.global	ln_get_equ_pm_epoch
  26              		.thumb
  27              		.thumb_func
  28              		.type	ln_get_equ_pm_epoch, %function
  29              	ln_get_equ_pm_epoch:
  30              	.LFB1:
  31              		.file 1 "./libnova/src/proper_motion.c"
  32              		.loc 1 55 0
  33              		.cfi_startproc
  34              		@ args = 12, pretend = 0, frame = 0
  35              		@ frame_needed = 0, uses_anonymous_args = 0
  36              	.LVL0:
  37 0000 2DE9F047 		push	{r4, r5, r6, r7, r8, r9, sl, lr}
  38              	.LCFI0:
  39              		.cfi_def_cfa_offset 32
  40              		.cfi_offset 4, -32
  41              		.cfi_offset 5, -28
  42              		.cfi_offset 6, -24
  43              		.cfi_offset 7, -20
  44              		.cfi_offset 8, -16
  45              		.cfi_offset 9, -12
  46              		.cfi_offset 10, -8
  47              		.cfi_offset 14, -4
  48              		.loc 1 55 0
  49 0004 8146     		mov	r9, r0
  50 0006 8A46     		mov	sl, r1
  51              		.loc 1 58 0
  52 0008 1046     		mov	r0, r2
  53              	.LVL1:
  54 000a 1946     		mov	r1, r3
  55              	.LVL2:
  56 000c DDE90823 		ldrd	r2, [sp, #32]
  57              	.LVL3:
ARM GAS  /tmp/ccPpcZJf.s 			page 2


  58 0010 FFF7FEFF 		bl	__aeabi_dsub
  59              	.LVL4:
  60 0014 16A3     		adr	r3, .L2
  61 0016 D3E90023 		ldrd	r2, [r3]
  62 001a FFF7FEFF 		bl	__aeabi_ddiv
  63              	.LVL5:
  64              		.loc 1 61 0
  65 001e DAE90023 		ldrd	r2, [sl]
  66              		.loc 1 58 0
  67 0022 0646     		mov	r6, r0
  68 0024 0F46     		mov	r7, r1
  69              	.LVL6:
  70              		.loc 1 61 0
  71 0026 FFF7FEFF 		bl	__aeabi_dmul
  72              	.LVL7:
  73 002a D9E90023 		ldrd	r2, [r9]
  74 002e FFF7FEFF 		bl	__aeabi_dadd
  75              	.LVL8:
  76              		.loc 1 55 0
  77 0032 DDF82880 		ldr	r8, [sp, #40]
  78              		.loc 1 61 0
  79 0036 0446     		mov	r4, r0
  80 0038 0D46     		mov	r5, r1
  81              		.loc 1 62 0
  82 003a DAE90223 		ldrd	r2, [sl, #8]
  83              		.loc 1 61 0
  84 003e C8E90045 		strd	r4, [r8]
  85              		.loc 1 62 0
  86 0042 3046     		mov	r0, r6
  87 0044 3946     		mov	r1, r7
  88 0046 FFF7FEFF 		bl	__aeabi_dmul
  89              	.LVL9:
  90 004a 0246     		mov	r2, r0
  91 004c 0B46     		mov	r3, r1
  92 004e D9E90201 		ldrd	r0, [r9, #8]
  93 0052 FFF7FEFF 		bl	__aeabi_dadd
  94              	.LVL10:
  95 0056 C8E90201 		strd	r0, [r8, #8]
  96              		.loc 1 65 0
  97 005a 2046     		mov	r0, r4
  98 005c 2946     		mov	r1, r5
  99 005e FFF7FEFF 		bl	ln_range_degrees
 100              	.LVL11:
 101 0062 C8E90001 		strd	r0, [r8]
 102 0066 BDE8F087 		pop	{r4, r5, r6, r7, r8, r9, sl, pc}
 103              	.L3:
 104 006a 00BFAFF3 		.align	3
 104      0080
 105              	.L2:
 106 0070 00000000 		.word	0
 107 0074 00D47640 		.word	1081529344
 108              		.cfi_endproc
 109              	.LFE1:
 110              		.size	ln_get_equ_pm_epoch, .-ln_get_equ_pm_epoch
 111 0078 AFF30080 		.section	.text.ln_get_equ_pm,"ax",%progbits
 111      AFF30080 
 112              		.align	2
ARM GAS  /tmp/ccPpcZJf.s 			page 3


 113              		.p2align 4,,15
 114              		.global	ln_get_equ_pm
 115              		.thumb
 116              		.thumb_func
 117              		.type	ln_get_equ_pm, %function
 118              	ln_get_equ_pm:
 119              	.LFB0:
 120              		.loc 1 38 0
 121              		.cfi_startproc
 122              		@ args = 4, pretend = 0, frame = 0
 123              		@ frame_needed = 0, uses_anonymous_args = 0
 124              	.LVL12:
 125 0000 30B5     		push	{r4, r5, lr}
 126              	.LCFI1:
 127              		.cfi_def_cfa_offset 12
 128              		.cfi_offset 4, -12
 129              		.cfi_offset 5, -8
 130              		.cfi_offset 14, -4
 131              		.loc 1 39 0
 132 0002 07A5     		adr	r5, .L5
 133 0004 D5E90045 		ldrd	r4, [r5]
 134              		.loc 1 38 0
 135 0008 85B0     		sub	sp, sp, #20
 136              	.LCFI2:
 137              		.cfi_def_cfa_offset 32
 138              		.loc 1 39 0
 139 000a CDE90045 		strd	r4, [sp]
 140 000e 089C     		ldr	r4, [sp, #32]
 141 0010 0294     		str	r4, [sp, #8]
 142 0012 FFF7FEFF 		bl	ln_get_equ_pm_epoch
 143              	.LVL13:
 144              		.loc 1 40 0
 145 0016 05B0     		add	sp, sp, #20
 146 0018 30BD     		pop	{r4, r5, pc}
 147              	.L6:
 148 001a 00BFAFF3 		.align	3
 148      0080
 149              	.L5:
 150 0020 00000080 		.word	2147483648
 151 0024 2CB44241 		.word	1094890540
 152              		.cfi_endproc
 153              	.LFE0:
 154              		.size	ln_get_equ_pm, .-ln_get_equ_pm
 155 0028 AFF30080 		.text
 155      AFF30080 
 156              	.Letext0:
 157              		.file 2 "./libnova/src/libnova/ln_types.h"
 158              		.file 3 "./libnova/src/libnova/utility.h"