ARM GAS  /tmp/ccs3DJSi.s 			page 1


   1              		.syntax unified
   2              		.cpu cortex-m4
   3              		.fpu softvfp
   4              		.eabi_attribute 20, 1
   5              		.eabi_attribute 21, 1
   6              		.eabi_attribute 23, 3
   7              		.eabi_attribute 24, 1
   8              		.eabi_attribute 25, 1
   9              		.eabi_attribute 26, 1
  10              		.eabi_attribute 30, 2
  11              		.eabi_attribute 34, 1
  12              		.eabi_attribute 18, 4
  13              		.thumb
  14              		.file	"refraction.c"
  15              		.text
  16              	.Ltext0:
  17              		.cfi_sections	.debug_frame
  18              		.global	__aeabi_dadd
  19              		.global	__aeabi_ddiv
  20              		.global	__aeabi_dmul
  21              		.global	__aeabi_dsub
  22              		.section	.text.ln_get_refraction_adj,"ax",%progbits
  23              		.align	2
  24              		.p2align 4,,15
  25              		.global	ln_get_refraction_adj
  26              		.thumb
  27              		.thumb_func
  28              		.type	ln_get_refraction_adj, %function
  29              	ln_get_refraction_adj:
  30              	.LFB0:
  31              		.file 1 "./libnova/src/refraction.c"
  32              		.loc 1 36 0
  33              		.cfi_startproc
  34              		@ args = 8, pretend = 0, frame = 0
  35              		@ frame_needed = 0, uses_anonymous_args = 0
  36              	.LVL0:
  37 0000 F8B5     		push	{r3, r4, r5, r6, r7, lr}
  38              	.LCFI0:
  39              		.cfi_def_cfa_offset 24
  40              		.cfi_offset 3, -24
  41              		.cfi_offset 4, -20
  42              		.cfi_offset 5, -16
  43              		.cfi_offset 6, -12
  44              		.cfi_offset 7, -8
  45              		.cfi_offset 14, -4
  46              		.loc 1 36 0
  47 0002 1646     		mov	r6, r2
  48 0004 1F46     		mov	r7, r3
  49              		.loc 1 40 0
  50 0006 36A3     		adr	r3, .L2
  51 0008 D3E90023 		ldrd	r2, [r3]
  52              	.LVL1:
  53              		.loc 1 36 0
  54 000c 0446     		mov	r4, r0
  55 000e 0D46     		mov	r5, r1
  56              		.loc 1 40 0
  57 0010 FFF7FEFF 		bl	__aeabi_dadd
ARM GAS  /tmp/ccs3DJSi.s 			page 2


  58              	.LVL2:
  59 0014 0246     		mov	r2, r0
  60 0016 0B46     		mov	r3, r1
  61 0018 33A1     		adr	r1, .L2+8
  62 001a D1E90001 		ldrd	r0, [r1]
  63 001e FFF7FEFF 		bl	__aeabi_ddiv
  64              	.LVL3:
  65 0022 2246     		mov	r2, r4
  66 0024 2B46     		mov	r3, r5
  67 0026 FFF7FEFF 		bl	__aeabi_dadd
  68              	.LVL4:
  69 002a FFF7FEFF 		bl	ln_deg_to_rad
  70              	.LVL5:
  71 002e FFF7FEFF 		bl	tan
  72              	.LVL6:
  73 0032 0B46     		mov	r3, r1
  74 0034 0021     		movs	r1, #0
  75 0036 0246     		mov	r2, r0
  76 0038 C3F6F071 		movt	r1, 16368
  77 003c 0020     		movs	r0, #0
  78 003e FFF7FEFF 		bl	__aeabi_ddiv
  79              	.LVL7:
  80              		.loc 1 41 0
  81 0042 0023     		movs	r3, #0
  82 0044 0022     		movs	r2, #0
  83 0046 C4F24E03 		movt	r3, 16462
  84              		.loc 1 40 0
  85 004a 0446     		mov	r4, r0
  86 004c 0D46     		mov	r5, r1
  87              	.LVL8:
  88              		.loc 1 41 0
  89 004e FFF7FEFF 		bl	__aeabi_ddiv
  90              	.LVL9:
  91 0052 27A3     		adr	r3, .L2+16
  92 0054 D3E90023 		ldrd	r2, [r3]
  93 0058 FFF7FEFF 		bl	__aeabi_dmul
  94              	.LVL10:
  95 005c 0023     		movs	r3, #0
  96 005e 0022     		movs	r2, #0
  97 0060 C4F22A03 		movt	r3, 16426
  98 0064 FFF7FEFF 		bl	__aeabi_dadd
  99              	.LVL11:
 100 0068 FFF7FEFF 		bl	ln_deg_to_rad
 101              	.LVL12:
 102 006c FFF7FEFF 		bl	sin
 103              	.LVL13:
 104 0070 21A3     		adr	r3, .L2+24
 105 0072 D3E90023 		ldrd	r2, [r3]
 106 0076 FFF7FEFF 		bl	__aeabi_dmul
 107              	.LVL14:
 108 007a 0246     		mov	r2, r0
 109 007c 0B46     		mov	r3, r1
 110 007e 2046     		mov	r0, r4
 111 0080 2946     		mov	r1, r5
 112 0082 FFF7FEFF 		bl	__aeabi_dsub
 113              	.LVL15:
 114              		.loc 1 44 0
ARM GAS  /tmp/ccs3DJSi.s 			page 3


 115 0086 4FF41043 		mov	r3, #36864
 116              		.loc 1 41 0
 117 008a 0446     		mov	r4, r0
 118              	.LVL16:
 119 008c 0D46     		mov	r5, r1
 120              	.LVL17:
 121              		.loc 1 44 0
 122 008e 0022     		movs	r2, #0
 123 0090 3046     		mov	r0, r6
 124 0092 3946     		mov	r1, r7
 125 0094 C4F28F03 		movt	r3, 16527
 126 0098 FFF7FEFF 		bl	__aeabi_ddiv
 127              	.LVL18:
 128 009c 18A3     		adr	r3, .L2+32
 129 009e D3E90023 		ldrd	r2, [r3]
 130 00a2 0646     		mov	r6, r0
 131 00a4 0F46     		mov	r7, r1
 132 00a6 DDE90601 		ldrd	r0, [sp, #24]
 133 00aa FFF7FEFF 		bl	__aeabi_dadd
 134              	.LVL19:
 135 00ae 0246     		mov	r2, r0
 136 00b0 0B46     		mov	r3, r1
 137 00b2 15A1     		adr	r1, .L2+40
 138 00b4 D1E90001 		ldrd	r0, [r1]
 139 00b8 FFF7FEFF 		bl	__aeabi_ddiv
 140              	.LVL20:
 141 00bc 0246     		mov	r2, r0
 142 00be 0B46     		mov	r3, r1
 143 00c0 3046     		mov	r0, r6
 144 00c2 3946     		mov	r1, r7
 145 00c4 FFF7FEFF 		bl	__aeabi_dmul
 146              	.LVL21:
 147 00c8 2246     		mov	r2, r4
 148 00ca 2B46     		mov	r3, r5
 149 00cc FFF7FEFF 		bl	__aeabi_dmul
 150              	.LVL22:
 151              		.loc 1 47 0
 152 00d0 0023     		movs	r3, #0
 153 00d2 0022     		movs	r2, #0
 154 00d4 C4F24E03 		movt	r3, 16462
 155 00d8 FFF7FEFF 		bl	__aeabi_ddiv
 156              	.LVL23:
 157              		.loc 1 50 0
 158 00dc F8BD     		pop	{r3, r4, r5, r6, r7, pc}
 159              	.L3:
 160 00de 00BF     		.align	3
 161              	.L2:
 162 00e0 9A999999 		.word	2576980378
 163 00e4 99991140 		.word	1074895257
 164 00e8 3D0AD7A3 		.word	2748779069
 165 00ec 703D1D40 		.word	1075658096
 166 00f0 66666666 		.word	1717986918
 167 00f4 66662D40 		.word	1076717158
 168 00f8 B81E85EB 		.word	3951369912
 169 00fc 51B8AE3F 		.word	1068415057
 170 0100 00000000 		.word	0
 171 0104 00107140 		.word	1081151488
ARM GAS  /tmp/ccs3DJSi.s 			page 4


 172 0108 00000000 		.word	0
 173 010c 00B07140 		.word	1081192448
 174              		.cfi_endproc
 175              	.LFE0:
 176              		.size	ln_get_refraction_adj, .-ln_get_refraction_adj
 177              		.text
 178              	.Letext0:
 179              		.file 2 "./libnova/src/libnova/utility.h"
 180              		.file 3 "/usr/bin/../lib/gcc/arm-none-eabi/4.7.4/../../../../arm-none-eabi/include/math.h"