ARM GAS  /tmp/ccj4yzJk.s 			page 1


   1              		.syntax unified
   2              		.cpu cortex-m4
   3              		.fpu softvfp
   4              		.eabi_attribute 20, 1
   5              		.eabi_attribute 21, 1
   6              		.eabi_attribute 23, 3
   7              		.eabi_attribute 24, 1
   8              		.eabi_attribute 25, 1
   9              		.eabi_attribute 26, 1
  10              		.eabi_attribute 30, 2
  11              		.eabi_attribute 34, 1
  12              		.eabi_attribute 18, 4
  13              		.thumb
  14              		.file	"rise_set.c"
  15              		.text
  16              	.Ltext0:
  17              		.cfi_sections	.debug_frame
  18              		.global	__aeabi_dcmpgt
  19              		.global	__aeabi_dadd
  20              		.global	__aeabi_dsub
  21              		.global	__aeabi_dcmplt
  22              		.section	.text.check_coords,"ax",%progbits
  23              		.align	2
  24              		.p2align 4,,15
  25              		.global	check_coords
  26              		.thumb
  27              		.thumb_func
  28              		.type	check_coords, %function
  29              	check_coords:
  30              	.LFB0:
  31              		.file 1 "./libnova/src/rise_set.c"
  32              		.loc 1 28 0
  33              		.cfi_startproc
  34              		@ args = 12, pretend = 0, frame = 0
  35              		@ frame_needed = 0, uses_anonymous_args = 0
  36              	.LVL0:
  37 0000 70B5     		push	{r4, r5, r6, lr}
  38              	.LCFI0:
  39              		.cfi_def_cfa_offset 16
  40              		.cfi_offset 4, -16
  41              		.cfi_offset 5, -12
  42              		.cfi_offset 6, -8
  43              		.cfi_offset 14, -4
  44              		.loc 1 31 0
  45 0002 1446     		mov	r4, r2
  46 0004 23F00045 		bic	r5, r3, #-2147483648
  47 0008 0023     		movs	r3, #0
  48              		.loc 1 28 0
  49 000a 0646     		mov	r6, r0
  50              		.loc 1 31 0
  51 000c 0022     		movs	r2, #0
  52              	.LVL1:
  53 000e C3F6F073 		movt	r3, 16368
  54 0012 2046     		mov	r0, r4
  55              	.LVL2:
  56 0014 2946     		mov	r1, r5
  57 0016 FFF7FEFF 		bl	__aeabi_dcmpgt
ARM GAS  /tmp/ccj4yzJk.s 			page 2


  58              	.LVL3:
  59 001a 0028     		cmp	r0, #0
  60 001c 37D0     		beq	.L2
  61              		.loc 1 35 0
  62 001e 0699     		ldr	r1, [sp, #24]
  63 0020 4FF40043 		mov	r3, #32768
  64 0024 0022     		movs	r2, #0
  65 0026 C4F25603 		movt	r3, 16470
  66 002a D1E90201 		ldrd	r0, [r1, #8]
  67 002e FFF7FEFF 		bl	__aeabi_dadd
  68              	.LVL4:
  69 0032 D6E90223 		ldrd	r2, [r6, #8]
  70 0036 FFF7FEFF 		bl	__aeabi_dsub
  71              	.LVL5:
  72              		.loc 1 37 0
  73 003a 4FF40043 		mov	r3, #32768
  74 003e 0022     		movs	r2, #0
  75 0040 C4F25603 		movt	r3, 16470
  76              		.loc 1 35 0
  77 0044 0446     		mov	r4, r0
  78 0046 0D46     		mov	r5, r1
  79              	.LVL6:
  80              		.loc 1 37 0
  81 0048 FFF7FEFF 		bl	__aeabi_dcmpgt
  82              	.LVL7:
  83 004c 50B1     		cbz	r0, .L4
  84              		.loc 1 38 0
  85 004e 4FF40041 		mov	r1, #32768
  86 0052 2246     		mov	r2, r4
  87 0054 2B46     		mov	r3, r5
  88 0056 0020     		movs	r0, #0
  89 0058 C4F26601 		movt	r1, 16486
  90 005c FFF7FEFF 		bl	__aeabi_dsub
  91              	.LVL8:
  92 0060 0446     		mov	r4, r0
  93              	.LVL9:
  94 0062 0D46     		mov	r5, r1
  95              	.LVL10:
  96              	.L4:
  97              		.loc 1 39 0
  98 0064 4FF40043 		mov	r3, #32768
  99 0068 2046     		mov	r0, r4
 100 006a 2946     		mov	r1, r5
 101 006c 0022     		movs	r2, #0
 102 006e CCF25603 		movt	r3, 49238
 103 0072 FFF7FEFF 		bl	__aeabi_dcmplt
 104              	.LVL11:
 105 0076 58B9     		cbnz	r0, .L17
 106              	.L6:
 107              		.loc 1 41 0
 108 0078 2046     		mov	r0, r4
 109 007a 2946     		mov	r1, r5
 110 007c DDE90423 		ldrd	r2, [sp, #16]
 111 0080 FFF7FEFF 		bl	__aeabi_dcmplt
 112              	.LVL12:
 113              		.loc 1 44 0
 114 0084 0028     		cmp	r0, #0
ARM GAS  /tmp/ccj4yzJk.s 			page 3


 115 0086 14BF     		ite	ne
 116 0088 4FF0FF30 		movne	r0, #-1
 117 008c 0120     		moveq	r0, #1
 118              	.LVL13:
 119              	.L2:
 120              		.loc 1 47 0
 121 008e 70BD     		pop	{r4, r5, r6, pc}
 122              	.LVL14:
 123              	.L17:
 124              		.loc 1 40 0
 125 0090 4FF40041 		mov	r1, #32768
 126 0094 2246     		mov	r2, r4
 127 0096 2B46     		mov	r3, r5
 128 0098 0020     		movs	r0, #0
 129 009a CCF26601 		movt	r1, 49254
 130 009e FFF7FEFF 		bl	__aeabi_dsub
 131              	.LVL15:
 132 00a2 0446     		mov	r4, r0
 133              	.LVL16:
 134 00a4 0D46     		mov	r5, r1
 135              	.LVL17:
 136 00a6 E7E7     		b	.L6
 137              		.cfi_endproc
 138              	.LFE0:
 139              		.size	check_coords, .-check_coords
 140              		.global	__aeabi_d2iz
 141              		.global	__aeabi_i2d
 142              		.global	__aeabi_dmul
 143              		.global	__aeabi_ddiv
 144 00a8 AFF30080 		.section	.text.ln_get_object_rst_horizon,"ax",%progbits
 144      AFF30080 
 145              		.align	2
 146              		.p2align 4,,15
 147              		.global	ln_get_object_rst_horizon
 148              		.thumb
 149              		.thumb_func
 150              		.type	ln_get_object_rst_horizon, %function
 151              	ln_get_object_rst_horizon:
 152              	.LFB2:
 153              		.loc 1 83 0
 154              		.cfi_startproc
 155              		@ args = 12, pretend = 0, frame = 72
 156              		@ frame_needed = 0, uses_anonymous_args = 0
 157              	.LVL18:
 158 0000 2DE9F04F 		push	{r4, r5, r6, r7, r8, r9, sl, fp, lr}
 159              	.LCFI1:
 160              		.cfi_def_cfa_offset 36
 161              		.cfi_offset 4, -36
 162              		.cfi_offset 5, -32
 163              		.cfi_offset 6, -28
 164              		.cfi_offset 7, -24
 165              		.cfi_offset 8, -20
 166              		.cfi_offset 9, -16
 167              		.cfi_offset 10, -12
 168              		.cfi_offset 11, -8
 169              		.cfi_offset 14, -4
 170 0004 93B0     		sub	sp, sp, #76
ARM GAS  /tmp/ccj4yzJk.s 			page 4


 171              	.LCFI2:
 172              		.cfi_def_cfa_offset 112
 173              		.loc 1 83 0
 174 0006 1646     		mov	r6, r2
 175 0008 1F46     		mov	r7, r3
 176              		.loc 1 93 0
 177 000a FFF7FEFF 		bl	__aeabi_d2iz
 178              	.LVL19:
 179              		.loc 1 94 0
 180 000e FFF7FEFF 		bl	__aeabi_i2d
 181              	.LVL20:
 182 0012 0023     		movs	r3, #0
 183 0014 0022     		movs	r2, #0
 184 0016 C3F6E073 		movt	r3, 16352
 185 001a FFF7FEFF 		bl	__aeabi_dadd
 186              	.LVL21:
 187 001e CDE90801 		strd	r0, [sp, #32]
 188              	.LVL22:
 189              		.loc 1 95 0
 190 0022 FFF7FEFF 		bl	ln_get_apparent_sidereal_time
 191              	.LVL23:
 192 0026 8246     		mov	sl, r0
 193 0028 8B46     		mov	fp, r1
 194              	.LVL24:
 195              		.loc 1 99 0
 196 002a DDE91C01 		ldrd	r0, [sp, #112]
 197 002e FFF7FEFF 		bl	ln_deg_to_rad
 198              	.LVL25:
 199 0032 FFF7FEFF 		bl	sin
 200              	.LVL26:
 201 0036 0446     		mov	r4, r0
 202 0038 0D46     		mov	r5, r1
 203              		.loc 1 100 0
 204 003a D6E90201 		ldrd	r0, [r6, #8]
 205 003e FFF7FEFF 		bl	ln_deg_to_rad
 206              	.LVL27:
 207 0042 FFF7FEFF 		bl	sin
 208              	.LVL28:
 209 0046 8046     		mov	r8, r0
 210 0048 8946     		mov	r9, r1
 211 004a D7E90201 		ldrd	r0, [r7, #8]
 212 004e FFF7FEFF 		bl	ln_deg_to_rad
 213              	.LVL29:
 214 0052 FFF7FEFF 		bl	sin
 215              	.LVL30:
 216 0056 0246     		mov	r2, r0
 217 0058 0B46     		mov	r3, r1
 218 005a 4046     		mov	r0, r8
 219 005c 4946     		mov	r1, r9
 220 005e FFF7FEFF 		bl	__aeabi_dmul
 221              	.LVL31:
 222 0062 0246     		mov	r2, r0
 223 0064 0B46     		mov	r3, r1
 224              		.loc 1 99 0
 225 0066 2046     		mov	r0, r4
 226 0068 2946     		mov	r1, r5
 227 006a FFF7FEFF 		bl	__aeabi_dsub
ARM GAS  /tmp/ccj4yzJk.s 			page 5


 228              	.LVL32:
 229 006e 0446     		mov	r4, r0
 230 0070 0D46     		mov	r5, r1
 231              	.LVL33:
 232              		.loc 1 101 0
 233 0072 D6E90201 		ldrd	r0, [r6, #8]
 234 0076 FFF7FEFF 		bl	ln_deg_to_rad
 235              	.LVL34:
 236 007a FFF7FEFF 		bl	cos
 237              	.LVL35:
 238 007e 8046     		mov	r8, r0
 239 0080 8946     		mov	r9, r1
 240 0082 D7E90201 		ldrd	r0, [r7, #8]
 241 0086 FFF7FEFF 		bl	ln_deg_to_rad
 242              	.LVL36:
 243 008a FFF7FEFF 		bl	cos
 244              	.LVL37:
 245 008e 0246     		mov	r2, r0
 246 0090 0B46     		mov	r3, r1
 247 0092 4046     		mov	r0, r8
 248 0094 4946     		mov	r1, r9
 249 0096 FFF7FEFF 		bl	__aeabi_dmul
 250              	.LVL38:
 251 009a 0246     		mov	r2, r0
 252 009c 0B46     		mov	r3, r1
 253              	.LVL39:
 254              		.loc 1 103 0
 255 009e 2046     		mov	r0, r4
 256 00a0 2946     		mov	r1, r5
 257 00a2 FFF7FEFF 		bl	__aeabi_ddiv
 258              	.LVL40:
 259              	.LBB44:
 260              	.LBB45:
 261              		.loc 1 31 0
 262 00a6 21F00043 		bic	r3, r1, #-2147483648
 263              	.LBE45:
 264              	.LBE44:
 265              		.loc 1 103 0
 266 00aa 0C46     		mov	r4, r1
 267              	.LVL41:
 268              	.LBB49:
 269              	.LBB46:
 270              		.loc 1 31 0
 271 00ac 1946     		mov	r1, r3
 272              	.LVL42:
 273 00ae 0023     		movs	r3, #0
 274 00b0 0022     		movs	r2, #0
 275 00b2 C3F6F073 		movt	r3, 16368
 276              	.LBE46:
 277              	.LBE49:
 278              		.loc 1 103 0
 279 00b6 0546     		mov	r5, r0
 280              	.LBB50:
 281              	.LBB47:
 282              		.loc 1 31 0
 283 00b8 FFF7FEFF 		bl	__aeabi_dcmpgt
 284              	.LVL43:
ARM GAS  /tmp/ccj4yzJk.s 			page 6


 285              		.loc 1 35 0
 286 00bc 0022     		movs	r2, #0
 287              		.loc 1 31 0
 288 00be 0028     		cmp	r0, #0
 289 00c0 45D0     		beq	.L51
 290              		.loc 1 35 0
 291 00c2 4FF40043 		mov	r3, #32768
 292 00c6 C4F25603 		movt	r3, 16470
 293 00ca D7E90201 		ldrd	r0, [r7, #8]
 294 00ce FFF7FEFF 		bl	__aeabi_dadd
 295              	.LVL44:
 296 00d2 D6E90223 		ldrd	r2, [r6, #8]
 297 00d6 FFF7FEFF 		bl	__aeabi_dsub
 298              	.LVL45:
 299              		.loc 1 37 0
 300 00da 4FF40043 		mov	r3, #32768
 301 00de 0022     		movs	r2, #0
 302 00e0 C4F25603 		movt	r3, 16470
 303              		.loc 1 35 0
 304 00e4 0446     		mov	r4, r0
 305              	.LVL46:
 306 00e6 0D46     		mov	r5, r1
 307              	.LVL47:
 308              		.loc 1 37 0
 309 00e8 FFF7FEFF 		bl	__aeabi_dcmpgt
 310              	.LVL48:
 311 00ec 50B1     		cbz	r0, .L21
 312              		.loc 1 38 0
 313 00ee 4FF40041 		mov	r1, #32768
 314 00f2 2246     		mov	r2, r4
 315 00f4 2B46     		mov	r3, r5
 316 00f6 0020     		movs	r0, #0
 317 00f8 C4F26601 		movt	r1, 16486
 318 00fc FFF7FEFF 		bl	__aeabi_dsub
 319              	.LVL49:
 320 0100 0446     		mov	r4, r0
 321              	.LVL50:
 322 0102 0D46     		mov	r5, r1
 323              	.LVL51:
 324              	.L21:
 325              		.loc 1 39 0
 326 0104 4FF40043 		mov	r3, #32768
 327 0108 2046     		mov	r0, r4
 328 010a 2946     		mov	r1, r5
 329 010c 0022     		movs	r2, #0
 330 010e CCF25603 		movt	r3, 49238
 331 0112 FFF7FEFF 		bl	__aeabi_dcmplt
 332              	.LVL52:
 333 0116 70B9     		cbnz	r0, .L56
 334              	.L23:
 335              		.loc 1 41 0
 336 0118 2246     		mov	r2, r4
 337 011a DDE91C01 		ldrd	r0, [sp, #112]
 338 011e 2B46     		mov	r3, r5
 339 0120 FFF7FEFF 		bl	__aeabi_dcmpgt
 340              	.LVL53:
 341              		.loc 1 44 0
ARM GAS  /tmp/ccj4yzJk.s 			page 7


 342 0124 0028     		cmp	r0, #0
 343 0126 14BF     		ite	ne
 344 0128 4FF0FF32 		movne	r2, #-1
 345 012c 0122     		moveq	r2, #1
 346              	.LVL54:
 347              	.L52:
 348              	.LBE47:
 349              	.LBE50:
 350              		.loc 1 173 0
 351 012e 1046     		mov	r0, r2
 352 0130 13B0     		add	sp, sp, #76
 353 0132 BDE8F08F 		pop	{r4, r5, r6, r7, r8, r9, sl, fp, pc}
 354              	.LVL55:
 355              	.L56:
 356              	.LBB51:
 357              	.LBB48:
 358              		.loc 1 40 0
 359 0136 4FF40041 		mov	r1, #32768
 360 013a 2246     		mov	r2, r4
 361 013c 2B46     		mov	r3, r5
 362 013e 0020     		movs	r0, #0
 363 0140 CCF26601 		movt	r1, 49254
 364 0144 FFF7FEFF 		bl	__aeabi_dsub
 365              	.LVL56:
 366 0148 0446     		mov	r4, r0
 367              	.LVL57:
 368 014a 0D46     		mov	r5, r1
 369              	.LVL58:
 370 014c E4E7     		b	.L23
 371              	.LVL59:
 372              	.L51:
 373              	.LBE48:
 374              	.LBE51:
 375              		.loc 1 96 0
 376 014e 0023     		movs	r3, #0
 377 0150 C4F22E03 		movt	r3, 16430
 378 0154 5046     		mov	r0, sl
 379 0156 5946     		mov	r1, fp
 380 0158 FFF7FEFF 		bl	__aeabi_dmul
 381              	.LVL60:
 382 015c 8046     		mov	r8, r0
 383 015e 8946     		mov	r9, r1
 384              		.loc 1 109 0
 385 0160 2846     		mov	r0, r5
 386 0162 2146     		mov	r1, r4
 387 0164 FFF7FEFF 		bl	acos
 388              	.LVL61:
 389              		.loc 1 110 0
 390 0168 FFF7FEFF 		bl	ln_rad_to_deg
 391              	.LVL62:
 392              		.loc 1 113 0
 393 016c D7E90045 		ldrd	r4, [r7]
 394              	.LVL63:
 395 0170 D6E900AB 		ldrd	sl, [r6]
 396              	.LVL64:
 397              		.loc 1 110 0
 398 0174 CDE90401 		strd	r0, [sp, #16]
ARM GAS  /tmp/ccj4yzJk.s 			page 8


 399              	.LVL65:
 400              		.loc 1 113 0
 401 0178 5246     		mov	r2, sl
 402 017a 5B46     		mov	r3, fp
 403 017c 2046     		mov	r0, r4
 404              	.LVL66:
 405 017e 2946     		mov	r1, r5
 406 0180 FFF7FEFF 		bl	__aeabi_dsub
 407              	.LVL67:
 408 0184 4246     		mov	r2, r8
 409 0186 4B46     		mov	r3, r9
 410 0188 FFF7FEFF 		bl	__aeabi_dsub
 411              	.LVL68:
 412 018c 4FF40043 		mov	r3, #32768
 413 0190 0022     		movs	r2, #0
 414 0192 C4F27603 		movt	r3, 16502
 415 0196 FFF7FEFF 		bl	__aeabi_ddiv
 416              	.LVL69:
 417              		.loc 1 114 0
 418 019a 4FF40043 		mov	r3, #32768
 419              		.loc 1 113 0
 420 019e CDE90601 		strd	r0, [sp, #24]
 421              	.LVL70:
 422              		.loc 1 114 0
 423 01a2 0022     		movs	r2, #0
 424 01a4 DDE90401 		ldrd	r0, [sp, #16]
 425              	.LVL71:
 426 01a8 C4F27603 		movt	r3, 16502
 427 01ac FFF7FEFF 		bl	__aeabi_ddiv
 428              	.LVL72:
 429 01b0 CDE90201 		strd	r0, [sp, #8]
 430 01b4 DDE90223 		ldrd	r2, [sp, #8]
 431 01b8 DDE90601 		ldrd	r0, [sp, #24]
 432 01bc FFF7FEFF 		bl	__aeabi_dsub
 433              	.LVL73:
 434              		.loc 1 115 0
 435 01c0 DDE90223 		ldrd	r2, [sp, #8]
 436              		.loc 1 114 0
 437 01c4 CDE90401 		strd	r0, [sp, #16]
 438              	.LVL74:
 439              		.loc 1 115 0
 440 01c8 DDE90601 		ldrd	r0, [sp, #24]
 441              	.LVL75:
 442 01cc FFF7FEFF 		bl	__aeabi_dadd
 443              	.LVL76:
 444              		.loc 1 118 0
 445 01d0 0023     		movs	r3, #0
 446              		.loc 1 115 0
 447 01d2 CDE90201 		strd	r0, [sp, #8]
 448              	.LVL77:
 449              		.loc 1 118 0
 450 01d6 0022     		movs	r2, #0
 451 01d8 DDE90601 		ldrd	r0, [sp, #24]
 452              	.LVL78:
 453 01dc C3F6F073 		movt	r3, 16368
 454 01e0 FFF7FEFF 		bl	__aeabi_dcmpgt
 455              	.LVL79:
ARM GAS  /tmp/ccj4yzJk.s 			page 9


 456 01e4 0028     		cmp	r0, #0
 457 01e6 00F0CF81 		beq	.L57
 458              		.loc 1 119 0
 459 01ea 0023     		movs	r3, #0
 460 01ec DDE90601 		ldrd	r0, [sp, #24]
 461 01f0 0022     		movs	r2, #0
 462 01f2 C3F6F073 		movt	r3, 16368
 463 01f6 FFF7FEFF 		bl	__aeabi_dsub
 464              	.LVL80:
 465 01fa CDE90601 		strd	r0, [sp, #24]
 466              	.LVL81:
 467              	.L27:
 468              		.loc 1 122 0
 469 01fe 0023     		movs	r3, #0
 470 0200 DDE90401 		ldrd	r0, [sp, #16]
 471 0204 0022     		movs	r2, #0
 472 0206 C3F6F073 		movt	r3, 16368
 473 020a FFF7FEFF 		bl	__aeabi_dcmpgt
 474              	.LVL82:
 475 020e 0028     		cmp	r0, #0
 476 0210 00F0E281 		beq	.L53
 477              		.loc 1 123 0
 478 0214 0023     		movs	r3, #0
 479 0216 DDE90401 		ldrd	r0, [sp, #16]
 480 021a 0022     		movs	r2, #0
 481 021c C3F6F073 		movt	r3, 16368
 482 0220 FFF7FEFF 		bl	__aeabi_dsub
 483              	.LVL83:
 484 0224 CDE90401 		strd	r0, [sp, #16]
 485              	.LVL84:
 486              	.L31:
 487              		.loc 1 126 0
 488 0228 0023     		movs	r3, #0
 489 022a DDE90201 		ldrd	r0, [sp, #8]
 490 022e 0022     		movs	r2, #0
 491 0230 C3F6F073 		movt	r3, 16368
 492 0234 FFF7FEFF 		bl	__aeabi_dcmpgt
 493              	.LVL85:
 494 0238 0028     		cmp	r0, #0
 495 023a 00F0B981 		beq	.L54
 496              		.loc 1 127 0
 497 023e 0023     		movs	r3, #0
 498 0240 DDE90201 		ldrd	r0, [sp, #8]
 499 0244 0022     		movs	r2, #0
 500 0246 C3F6F073 		movt	r3, 16368
 501 024a FFF7FEFF 		bl	__aeabi_dsub
 502              	.LVL86:
 503 024e CDE90201 		strd	r0, [sp, #8]
 504              	.LVL87:
 505              	.L35:
 506              		.loc 1 132 0
 507 0252 75A3     		adr	r3, .L58
 508 0254 D3E90023 		ldrd	r2, [r3]
 509 0258 DDE90601 		ldrd	r0, [sp, #24]
 510 025c FFF7FEFF 		bl	__aeabi_dmul
 511              	.LVL88:
 512 0260 4246     		mov	r2, r8
ARM GAS  /tmp/ccj4yzJk.s 			page 10


 513 0262 4B46     		mov	r3, r9
 514 0264 FFF7FEFF 		bl	__aeabi_dadd
 515              	.LVL89:
 516 0268 0246     		mov	r2, r0
 517 026a 0B46     		mov	r3, r1
 518              		.loc 1 137 0
 519 026c 5046     		mov	r0, sl
 520 026e 5946     		mov	r1, fp
 521 0270 FFF7FEFF 		bl	__aeabi_dadd
 522              	.LVL90:
 523 0274 2246     		mov	r2, r4
 524 0276 2B46     		mov	r3, r5
 525 0278 FFF7FEFF 		bl	__aeabi_dsub
 526              	.LVL91:
 527              		.loc 1 133 0
 528 027c 6AA3     		adr	r3, .L58
 529 027e D3E90023 		ldrd	r2, [r3]
 530              		.loc 1 137 0
 531 0282 CDE90A01 		strd	r0, [sp, #40]
 532              	.LVL92:
 533              		.loc 1 133 0
 534 0286 DDE90401 		ldrd	r0, [sp, #16]
 535              	.LVL93:
 536 028a FFF7FEFF 		bl	__aeabi_dmul
 537              	.LVL94:
 538 028e 4246     		mov	r2, r8
 539 0290 4B46     		mov	r3, r9
 540 0292 FFF7FEFF 		bl	__aeabi_dadd
 541              	.LVL95:
 542 0296 0246     		mov	r2, r0
 543 0298 0B46     		mov	r3, r1
 544              		.loc 1 138 0
 545 029a 5046     		mov	r0, sl
 546 029c 5946     		mov	r1, fp
 547 029e FFF7FEFF 		bl	__aeabi_dadd
 548              	.LVL96:
 549 02a2 2246     		mov	r2, r4
 550 02a4 2B46     		mov	r3, r5
 551 02a6 FFF7FEFF 		bl	__aeabi_dsub
 552              	.LVL97:
 553              		.loc 1 134 0
 554 02aa 5FA3     		adr	r3, .L58
 555 02ac D3E90023 		ldrd	r2, [r3]
 556              		.loc 1 138 0
 557 02b0 CDE90C01 		strd	r0, [sp, #48]
 558              	.LVL98:
 559              		.loc 1 134 0
 560 02b4 DDE90201 		ldrd	r0, [sp, #8]
 561              	.LVL99:
 562 02b8 FFF7FEFF 		bl	__aeabi_dmul
 563              	.LVL100:
 564 02bc 4246     		mov	r2, r8
 565 02be 4B46     		mov	r3, r9
 566 02c0 FFF7FEFF 		bl	__aeabi_dadd
 567              	.LVL101:
 568 02c4 0246     		mov	r2, r0
 569 02c6 0B46     		mov	r3, r1
ARM GAS  /tmp/ccj4yzJk.s 			page 11


 570              		.loc 1 139 0
 571 02c8 5046     		mov	r0, sl
 572 02ca 5946     		mov	r1, fp
 573 02cc FFF7FEFF 		bl	__aeabi_dadd
 574              	.LVL102:
 575 02d0 2246     		mov	r2, r4
 576 02d2 2B46     		mov	r3, r5
 577 02d4 FFF7FEFF 		bl	__aeabi_dsub
 578              	.LVL103:
 579 02d8 CDE90E01 		strd	r0, [sp, #56]
 580              	.LVL104:
 581              		.loc 1 142 0
 582 02dc D6E90201 		ldrd	r0, [r6, #8]
 583              	.LVL105:
 584 02e0 FFF7FEFF 		bl	ln_deg_to_rad
 585              	.LVL106:
 586 02e4 FFF7FEFF 		bl	sin
 587              	.LVL107:
 588 02e8 0446     		mov	r4, r0
 589 02ea 0D46     		mov	r5, r1
 590 02ec D7E90201 		ldrd	r0, [r7, #8]
 591 02f0 FFF7FEFF 		bl	ln_deg_to_rad
 592              	.LVL108:
 593 02f4 FFF7FEFF 		bl	sin
 594              	.LVL109:
 595 02f8 0246     		mov	r2, r0
 596 02fa 0B46     		mov	r3, r1
 597 02fc 2046     		mov	r0, r4
 598 02fe 2946     		mov	r1, r5
 599 0300 FFF7FEFF 		bl	__aeabi_dmul
 600              	.LVL110:
 601 0304 8246     		mov	sl, r0
 602 0306 8B46     		mov	fp, r1
 603              		.loc 1 143 0
 604 0308 D6E90201 		ldrd	r0, [r6, #8]
 605 030c FFF7FEFF 		bl	ln_deg_to_rad
 606              	.LVL111:
 607 0310 FFF7FEFF 		bl	cos
 608              	.LVL112:
 609 0314 0446     		mov	r4, r0
 610 0316 0D46     		mov	r5, r1
 611 0318 D7E90201 		ldrd	r0, [r7, #8]
 612 031c FFF7FEFF 		bl	ln_deg_to_rad
 613              	.LVL113:
 614 0320 FFF7FEFF 		bl	cos
 615              	.LVL114:
 616 0324 0246     		mov	r2, r0
 617 0326 0B46     		mov	r3, r1
 618 0328 2046     		mov	r0, r4
 619 032a 2946     		mov	r1, r5
 620 032c FFF7FEFF 		bl	__aeabi_dmul
 621              	.LVL115:
 622 0330 0446     		mov	r4, r0
 623 0332 0D46     		mov	r5, r1
 624              		.loc 1 144 0
 625 0334 DDE90C01 		ldrd	r0, [sp, #48]
 626 0338 FFF7FEFF 		bl	ln_deg_to_rad
ARM GAS  /tmp/ccj4yzJk.s 			page 12


 627              	.LVL116:
 628 033c FFF7FEFF 		bl	cos
 629              	.LVL117:
 630 0340 0246     		mov	r2, r0
 631 0342 0B46     		mov	r3, r1
 632              		.loc 1 143 0
 633 0344 2046     		mov	r0, r4
 634 0346 2946     		mov	r1, r5
 635 0348 FFF7FEFF 		bl	__aeabi_dmul
 636              	.LVL118:
 637 034c 0246     		mov	r2, r0
 638 034e 0B46     		mov	r3, r1
 639              		.loc 1 142 0
 640 0350 5046     		mov	r0, sl
 641 0352 5946     		mov	r1, fp
 642 0354 FFF7FEFF 		bl	__aeabi_dadd
 643              	.LVL119:
 644 0358 8246     		mov	sl, r0
 645 035a 8B46     		mov	fp, r1
 646              	.LVL120:
 647              		.loc 1 145 0
 648 035c D6E90201 		ldrd	r0, [r6, #8]
 649 0360 FFF7FEFF 		bl	ln_deg_to_rad
 650              	.LVL121:
 651 0364 FFF7FEFF 		bl	sin
 652              	.LVL122:
 653 0368 0446     		mov	r4, r0
 654 036a 0D46     		mov	r5, r1
 655 036c D7E90201 		ldrd	r0, [r7, #8]
 656 0370 FFF7FEFF 		bl	ln_deg_to_rad
 657              	.LVL123:
 658 0374 FFF7FEFF 		bl	sin
 659              	.LVL124:
 660 0378 0246     		mov	r2, r0
 661 037a 0B46     		mov	r3, r1
 662 037c 2046     		mov	r0, r4
 663 037e 2946     		mov	r1, r5
 664 0380 FFF7FEFF 		bl	__aeabi_dmul
 665              	.LVL125:
 666 0384 8046     		mov	r8, r0
 667              	.LVL126:
 668 0386 8946     		mov	r9, r1
 669              		.loc 1 146 0
 670 0388 D6E90201 		ldrd	r0, [r6, #8]
 671 038c FFF7FEFF 		bl	ln_deg_to_rad
 672              	.LVL127:
 673 0390 FFF7FEFF 		bl	cos
 674              	.LVL128:
 675 0394 0446     		mov	r4, r0
 676 0396 0D46     		mov	r5, r1
 677 0398 D7E90201 		ldrd	r0, [r7, #8]
 678 039c FFF7FEFF 		bl	ln_deg_to_rad
 679              	.LVL129:
 680 03a0 FFF7FEFF 		bl	cos
 681              	.LVL130:
 682 03a4 0246     		mov	r2, r0
 683 03a6 0B46     		mov	r3, r1
ARM GAS  /tmp/ccj4yzJk.s 			page 13


 684 03a8 2046     		mov	r0, r4
 685 03aa 2946     		mov	r1, r5
 686 03ac FFF7FEFF 		bl	__aeabi_dmul
 687              	.LVL131:
 688 03b0 0446     		mov	r4, r0
 689 03b2 0D46     		mov	r5, r1
 690              		.loc 1 147 0
 691 03b4 DDE90E01 		ldrd	r0, [sp, #56]
 692 03b8 FFF7FEFF 		bl	ln_deg_to_rad
 693              	.LVL132:
 694 03bc FFF7FEFF 		bl	cos
 695              	.LVL133:
 696 03c0 0246     		mov	r2, r0
 697 03c2 0B46     		mov	r3, r1
 698              		.loc 1 146 0
 699 03c4 2046     		mov	r0, r4
 700 03c6 2946     		mov	r1, r5
 701 03c8 FFF7FEFF 		bl	__aeabi_dmul
 702              	.LVL134:
 703 03cc 0246     		mov	r2, r0
 704 03ce 0B46     		mov	r3, r1
 705              		.loc 1 145 0
 706 03d0 4046     		mov	r0, r8
 707 03d2 4946     		mov	r1, r9
 708 03d4 FFF7FEFF 		bl	__aeabi_dadd
 709              	.LVL135:
 710 03d8 0446     		mov	r4, r0
 711 03da 0D46     		mov	r5, r1
 712              	.LVL136:
 713              		.loc 1 150 0
 714 03dc 5046     		mov	r0, sl
 715 03de 5946     		mov	r1, fp
 716 03e0 FFF7FEFF 		bl	ln_rad_to_deg
 717              	.LVL137:
 718 03e4 8246     		mov	sl, r0
 719              	.LVL138:
 720 03e6 8B46     		mov	fp, r1
 721              		.loc 1 151 0
 722 03e8 2046     		mov	r0, r4
 723 03ea 2946     		mov	r1, r5
 724 03ec FFF7FEFF 		bl	ln_rad_to_deg
 725              	.LVL139:
 726 03f0 CDE91001 		strd	r0, [sp, #64]
 727              	.LVL140:
 728              		.loc 1 154 0
 729 03f4 DDE90A01 		ldrd	r0, [sp, #40]
 730              	.LVL141:
 731 03f8 FFF7FEFF 		bl	ln_range_degrees
 732              	.LVL142:
 733              		.loc 1 155 0
 734 03fc 4FF40043 		mov	r3, #32768
 735 0400 DDE90A01 		ldrd	r0, [sp, #40]
 736 0404 0022     		movs	r2, #0
 737 0406 C4F26603 		movt	r3, 16486
 738 040a FFF7FEFF 		bl	__aeabi_dcmpgt
 739              	.LVL143:
 740 040e 78B1     		cbz	r0, .L37
ARM GAS  /tmp/ccj4yzJk.s 			page 14


 741              		.loc 1 156 0
 742 0410 4FF40043 		mov	r3, #32768
 743 0414 DDE90A01 		ldrd	r0, [sp, #40]
 744 0418 0022     		movs	r2, #0
 745 041a C4F27603 		movt	r3, 16502
 746 041e FFF7FEFF 		bl	__aeabi_dsub
 747              	.LVL144:
 748 0422 CDE90A01 		strd	r0, [sp, #40]
 749 0426 03E0     		b	.L59
 750              	.L60:
 751              		.align	3
 752              	.L58:
 753 0428 68E6C935 		.word	902424168
 754 042c C58F7640 		.word	1081511877
 755              	.L59:
 756              	.LVL145:
 757              	.L37:
 758              		.loc 1 159 0
 759 0430 DDE91C23 		ldrd	r2, [sp, #112]
 760 0434 5046     		mov	r0, sl
 761 0436 5946     		mov	r1, fp
 762 0438 FFF7FEFF 		bl	__aeabi_dsub
 763              	.LVL146:
 764 043c 8246     		mov	sl, r0
 765 043e 8B46     		mov	fp, r1
 766 0440 D7E90201 		ldrd	r0, [r7, #8]
 767 0444 FFF7FEFF 		bl	ln_deg_to_rad
 768              	.LVL147:
 769 0448 FFF7FEFF 		bl	cos
 770              	.LVL148:
 771 044c 8046     		mov	r8, r0
 772 044e 8946     		mov	r9, r1
 773 0450 D6E90201 		ldrd	r0, [r6, #8]
 774 0454 FFF7FEFF 		bl	ln_deg_to_rad
 775              	.LVL149:
 776 0458 FFF7FEFF 		bl	cos
 777              	.LVL150:
 778 045c 4FF40043 		mov	r3, #32768
 779 0460 0446     		mov	r4, r0
 780 0462 0D46     		mov	r5, r1
 781 0464 4046     		mov	r0, r8
 782 0466 4946     		mov	r1, r9
 783 0468 0022     		movs	r2, #0
 784 046a C4F27603 		movt	r3, 16502
 785 046e FFF7FEFF 		bl	__aeabi_dmul
 786              	.LVL151:
 787 0472 2246     		mov	r2, r4
 788 0474 2B46     		mov	r3, r5
 789 0476 FFF7FEFF 		bl	__aeabi_dmul
 790              	.LVL152:
 791 047a 0446     		mov	r4, r0
 792 047c 0D46     		mov	r5, r1
 793 047e DDE90C01 		ldrd	r0, [sp, #48]
 794 0482 FFF7FEFF 		bl	ln_deg_to_rad
 795              	.LVL153:
 796 0486 FFF7FEFF 		bl	sin
 797              	.LVL154:
ARM GAS  /tmp/ccj4yzJk.s 			page 15


 798 048a 0246     		mov	r2, r0
 799 048c 0B46     		mov	r3, r1
 800 048e 2046     		mov	r0, r4
 801 0490 2946     		mov	r1, r5
 802 0492 FFF7FEFF 		bl	__aeabi_dmul
 803              	.LVL155:
 804 0496 0246     		mov	r2, r0
 805 0498 0B46     		mov	r3, r1
 806 049a 5046     		mov	r0, sl
 807 049c 5946     		mov	r1, fp
 808 049e FFF7FEFF 		bl	__aeabi_ddiv
 809              	.LVL156:
 810              		.loc 1 160 0
 811 04a2 DDE91C23 		ldrd	r2, [sp, #112]
 812              		.loc 1 159 0
 813 04a6 8246     		mov	sl, r0
 814 04a8 8B46     		mov	fp, r1
 815              	.LVL157:
 816              		.loc 1 160 0
 817 04aa DDE91001 		ldrd	r0, [sp, #64]
 818 04ae FFF7FEFF 		bl	__aeabi_dsub
 819              	.LVL158:
 820 04b2 CDE90001 		strd	r0, [sp]
 821 04b6 D7E90201 		ldrd	r0, [r7, #8]
 822 04ba FFF7FEFF 		bl	ln_deg_to_rad
 823              	.LVL159:
 824 04be FFF7FEFF 		bl	cos
 825              	.LVL160:
 826 04c2 8046     		mov	r8, r0
 827 04c4 8946     		mov	r9, r1
 828 04c6 D6E90201 		ldrd	r0, [r6, #8]
 829 04ca FFF7FEFF 		bl	ln_deg_to_rad
 830              	.LVL161:
 831 04ce FFF7FEFF 		bl	cos
 832              	.LVL162:
 833 04d2 4FF40043 		mov	r3, #32768
 834 04d6 0646     		mov	r6, r0
 835              	.LVL163:
 836 04d8 0C46     		mov	r4, r1
 837 04da 4046     		mov	r0, r8
 838 04dc 4946     		mov	r1, r9
 839 04de 0022     		movs	r2, #0
 840 04e0 C4F27603 		movt	r3, 16502
 841 04e4 FFF7FEFF 		bl	__aeabi_dmul
 842              	.LVL164:
 843 04e8 3246     		mov	r2, r6
 844 04ea 2346     		mov	r3, r4
 845 04ec FFF7FEFF 		bl	__aeabi_dmul
 846              	.LVL165:
 847 04f0 0446     		mov	r4, r0
 848 04f2 0D46     		mov	r5, r1
 849 04f4 DDE90E01 		ldrd	r0, [sp, #56]
 850 04f8 FFF7FEFF 		bl	ln_deg_to_rad
 851              	.LVL166:
 852 04fc FFF7FEFF 		bl	sin
 853              	.LVL167:
 854              		.loc 1 164 0
ARM GAS  /tmp/ccj4yzJk.s 			page 16


 855 0500 5246     		mov	r2, sl
 856              		.loc 1 160 0
 857 0502 8046     		mov	r8, r0
 858 0504 8946     		mov	r9, r1
 859              	.LVL168:
 860              		.loc 1 164 0
 861 0506 5B46     		mov	r3, fp
 862 0508 DDE90401 		ldrd	r0, [sp, #16]
 863 050c FFF7FEFF 		bl	__aeabi_dadd
 864              	.LVL169:
 865 0510 0246     		mov	r2, r0
 866 0512 0B46     		mov	r3, r1
 867              		.loc 1 167 0
 868 0514 DDE90801 		ldrd	r0, [sp, #32]
 869 0518 FFF7FEFF 		bl	__aeabi_dadd
 870              	.LVL170:
 871 051c 1E9E     		ldr	r6, [sp, #120]
 872              		.loc 1 158 0
 873 051e 4FF40043 		mov	r3, #32768
 874 0522 0022     		movs	r2, #0
 875 0524 C4F27603 		movt	r3, 16502
 876              		.loc 1 167 0
 877 0528 C6E90001 		strd	r0, [r6]
 878              		.loc 1 158 0
 879 052c DDE90A01 		ldrd	r0, [sp, #40]
 880 0530 FFF7FEFF 		bl	__aeabi_ddiv
 881              	.LVL171:
 882 0534 0246     		mov	r2, r0
 883 0536 0B46     		mov	r3, r1
 884              		.loc 1 163 0
 885 0538 DDE90601 		ldrd	r0, [sp, #24]
 886 053c FFF7FEFF 		bl	__aeabi_dsub
 887              	.LVL172:
 888 0540 0246     		mov	r2, r0
 889 0542 0B46     		mov	r3, r1
 890              		.loc 1 168 0
 891 0544 DDE90801 		ldrd	r0, [sp, #32]
 892 0548 FFF7FEFF 		bl	__aeabi_dadd
 893              	.LVL173:
 894              		.loc 1 160 0
 895 054c 4246     		mov	r2, r8
 896              		.loc 1 168 0
 897 054e C6E90401 		strd	r0, [r6, #16]
 898              		.loc 1 160 0
 899 0552 4B46     		mov	r3, r9
 900 0554 2046     		mov	r0, r4
 901 0556 2946     		mov	r1, r5
 902 0558 FFF7FEFF 		bl	__aeabi_dmul
 903              	.LVL174:
 904 055c 0246     		mov	r2, r0
 905 055e 0B46     		mov	r3, r1
 906 0560 DDE90001 		ldrd	r0, [sp]
 907 0564 FFF7FEFF 		bl	__aeabi_ddiv
 908              	.LVL175:
 909 0568 0246     		mov	r2, r0
 910 056a 0B46     		mov	r3, r1
 911              		.loc 1 165 0
ARM GAS  /tmp/ccj4yzJk.s 			page 17


 912 056c DDE90201 		ldrd	r0, [sp, #8]
 913 0570 FFF7FEFF 		bl	__aeabi_dadd
 914              	.LVL176:
 915 0574 0246     		mov	r2, r0
 916 0576 0B46     		mov	r3, r1
 917              		.loc 1 169 0
 918 0578 DDE90801 		ldrd	r0, [sp, #32]
 919 057c FFF7FEFF 		bl	__aeabi_dadd
 920              	.LVL177:
 921              		.loc 1 172 0
 922 0580 0022     		movs	r2, #0
 923              		.loc 1 169 0
 924 0582 C6E90201 		strd	r0, [r6, #8]
 925              		.loc 1 172 0
 926 0586 D2E5     		b	.L52
 927              	.LVL178:
 928              	.L57:
 929              		.loc 1 120 0
 930 0588 DDE90601 		ldrd	r0, [sp, #24]
 931 058c 0022     		movs	r2, #0
 932 058e 0023     		movs	r3, #0
 933 0590 FFF7FEFF 		bl	__aeabi_dcmplt
 934              	.LVL179:
 935 0594 0028     		cmp	r0, #0
 936 0596 3FF432AE 		beq	.L27
 937              		.loc 1 121 0
 938 059a 0023     		movs	r3, #0
 939 059c DDE90601 		ldrd	r0, [sp, #24]
 940 05a0 0022     		movs	r2, #0
 941 05a2 C3F6F073 		movt	r3, 16368
 942 05a6 FFF7FEFF 		bl	__aeabi_dadd
 943              	.LVL180:
 944 05aa CDE90601 		strd	r0, [sp, #24]
 945              	.LVL181:
 946 05ae 26E6     		b	.L27
 947              	.LVL182:
 948              	.L54:
 949              		.loc 1 128 0
 950 05b0 DDE90201 		ldrd	r0, [sp, #8]
 951 05b4 0022     		movs	r2, #0
 952 05b6 0023     		movs	r3, #0
 953 05b8 FFF7FEFF 		bl	__aeabi_dcmplt
 954              	.LVL183:
 955 05bc 0028     		cmp	r0, #0
 956 05be 3FF448AE 		beq	.L35
 957              		.loc 1 129 0
 958 05c2 0023     		movs	r3, #0
 959 05c4 DDE90201 		ldrd	r0, [sp, #8]
 960 05c8 0022     		movs	r2, #0
 961 05ca C3F6F073 		movt	r3, 16368
 962 05ce FFF7FEFF 		bl	__aeabi_dadd
 963              	.LVL184:
 964 05d2 CDE90201 		strd	r0, [sp, #8]
 965              	.LVL185:
 966 05d6 3CE6     		b	.L35
 967              	.LVL186:
 968              	.L53:
ARM GAS  /tmp/ccj4yzJk.s 			page 18


 969              		.loc 1 124 0
 970 05d8 DDE90401 		ldrd	r0, [sp, #16]
 971 05dc 0022     		movs	r2, #0
 972 05de 0023     		movs	r3, #0
 973 05e0 FFF7FEFF 		bl	__aeabi_dcmplt
 974              	.LVL187:
 975 05e4 0028     		cmp	r0, #0
 976 05e6 3FF41FAE 		beq	.L31
 977              		.loc 1 125 0
 978 05ea 0023     		movs	r3, #0
 979 05ec DDE90401 		ldrd	r0, [sp, #16]
 980 05f0 0022     		movs	r2, #0
 981 05f2 C3F6F073 		movt	r3, 16368
 982 05f6 FFF7FEFF 		bl	__aeabi_dadd
 983              	.LVL188:
 984 05fa CDE90401 		strd	r0, [sp, #16]
 985              	.LVL189:
 986 05fe 13E6     		b	.L31
 987              		.cfi_endproc
 988              	.LFE2:
 989              		.size	ln_get_object_rst_horizon, .-ln_get_object_rst_horizon
 990              		.section	.text.ln_get_object_rst,"ax",%progbits
 991              		.align	2
 992              		.p2align 4,,15
 993              		.global	ln_get_object_rst
 994              		.thumb
 995              		.thumb_func
 996              		.type	ln_get_object_rst, %function
 997              	ln_get_object_rst:
 998              	.LFB1:
 999              		.loc 1 63 0
 1000              		.cfi_startproc
 1001              		@ args = 4, pretend = 0, frame = 0
 1002              		@ frame_needed = 0, uses_anonymous_args = 0
 1003              	.LVL190:
 1004 0000 30B5     		push	{r4, r5, lr}
 1005              	.LCFI3:
 1006              		.cfi_def_cfa_offset 12
 1007              		.cfi_offset 4, -12
 1008              		.cfi_offset 5, -8
 1009              		.cfi_offset 14, -4
 1010              		.loc 1 64 0
 1011 0002 07A5     		adr	r5, .L62
 1012 0004 D5E90045 		ldrd	r4, [r5]
 1013              		.loc 1 63 0
 1014 0008 85B0     		sub	sp, sp, #20
 1015              	.LCFI4:
 1016              		.cfi_def_cfa_offset 32
 1017              		.loc 1 64 0
 1018 000a CDE90045 		strd	r4, [sp]
 1019 000e 089C     		ldr	r4, [sp, #32]
 1020 0010 0294     		str	r4, [sp, #8]
 1021 0012 FFF7FEFF 		bl	ln_get_object_rst_horizon
 1022              	.LVL191:
 1023              		.loc 1 65 0
 1024 0016 05B0     		add	sp, sp, #20
 1025 0018 30BD     		pop	{r4, r5, pc}
ARM GAS  /tmp/ccj4yzJk.s 			page 19


 1026              	.L63:
 1027 001a 00BFAFF3 		.align	3
 1027      0080
 1028              	.L62:
 1029 0020 1895D409 		.word	164926744
 1030 0024 6822E2BF 		.word	-1075699096
 1031              		.cfi_endproc
 1032              	.LFE1:
 1033              		.size	ln_get_object_rst, .-ln_get_object_rst
 1034 0028 AFF30080 		.section	.text.set_next_rst,"ax",%progbits
 1034      AFF30080 
 1035              		.align	2
 1036              		.p2align 4,,15
 1037              		.global	set_next_rst
 1038              		.thumb
 1039              		.thumb_func
 1040              		.type	set_next_rst, %function
 1041              	set_next_rst:
 1042              	.LFB4:
 1043              		.loc 1 197 0
 1044              		.cfi_startproc
 1045              		@ args = 4, pretend = 0, frame = 0
 1046              		@ frame_needed = 0, uses_anonymous_args = 0
 1047              	.LVL192:
 1048 0000 F8B5     		push	{r3, r4, r5, r6, r7, lr}
 1049              	.LCFI5:
 1050              		.cfi_def_cfa_offset 24
 1051              		.cfi_offset 3, -24
 1052              		.cfi_offset 4, -20
 1053              		.cfi_offset 5, -16
 1054              		.cfi_offset 6, -12
 1055              		.cfi_offset 7, -8
 1056              		.cfi_offset 14, -4
 1057              		.loc 1 197 0
 1058 0002 0746     		mov	r7, r0
 1059              		.loc 1 198 0
 1060 0004 D0E90001 		ldrd	r0, [r0]
 1061              	.LVL193:
 1062              		.loc 1 197 0
 1063 0008 1446     		mov	r4, r2
 1064 000a 1D46     		mov	r5, r3
 1065              		.loc 1 198 0
 1066 000c FFF7FEFF 		bl	__aeabi_dadd
 1067              	.LVL194:
 1068              		.loc 1 197 0
 1069 0010 069E     		ldr	r6, [sp, #24]
 1070              		.loc 1 199 0
 1071 0012 2246     		mov	r2, r4
 1072 0014 2B46     		mov	r3, r5
 1073              		.loc 1 198 0
 1074 0016 C6E90001 		strd	r0, [r6]
 1075              		.loc 1 199 0
 1076 001a D7E90401 		ldrd	r0, [r7, #16]
 1077 001e FFF7FEFF 		bl	__aeabi_dadd
 1078              	.LVL195:
 1079              		.loc 1 200 0
 1080 0022 2246     		mov	r2, r4
ARM GAS  /tmp/ccj4yzJk.s 			page 20


 1081              		.loc 1 199 0
 1082 0024 C6E90401 		strd	r0, [r6, #16]
 1083              		.loc 1 200 0
 1084 0028 2B46     		mov	r3, r5
 1085 002a D7E90201 		ldrd	r0, [r7, #8]
 1086 002e FFF7FEFF 		bl	__aeabi_dadd
 1087              	.LVL196:
 1088 0032 C6E90201 		strd	r0, [r6, #8]
 1089 0036 F8BD     		pop	{r3, r4, r5, r6, r7, pc}
 1090              		.cfi_endproc
 1091              	.LFE4:
 1092              		.size	set_next_rst, .-set_next_rst
 1093 0038 AFF30080 		.section	.text.find_next,"ax",%progbits
 1093      AFF30080 
 1094              		.align	2
 1095              		.p2align 4,,15
 1096              		.global	find_next
 1097              		.thumb
 1098              		.thumb_func
 1099              		.type	find_next, %function
 1100              	find_next:
 1101              	.LFB5:
 1102              		.loc 1 204 0
 1103              		.cfi_startproc
 1104              		@ args = 16, pretend = 0, frame = 0
 1105              		@ frame_needed = 0, uses_anonymous_args = 0
 1106              	.LVL197:
 1107 0000 2DE9F843 		push	{r3, r4, r5, r6, r7, r8, r9, lr}
 1108              	.LCFI6:
 1109              		.cfi_def_cfa_offset 32
 1110              		.cfi_offset 3, -32
 1111              		.cfi_offset 4, -28
 1112              		.cfi_offset 5, -24
 1113              		.cfi_offset 6, -20
 1114              		.cfi_offset 7, -16
 1115              		.cfi_offset 8, -12
 1116              		.cfi_offset 9, -8
 1117              		.cfi_offset 14, -4
 1118              		.loc 1 204 0
 1119 0004 0646     		mov	r6, r0
 1120 0006 0F46     		mov	r7, r1
 1121 0008 1446     		mov	r4, r2
 1122 000a 1D46     		mov	r5, r3
 1123              		.loc 1 205 0
 1124 000c FFF7FEFF 		bl	__aeabi_dcmplt
 1125              	.LVL198:
 1126 0010 40B9     		cbnz	r0, .L66
 1127              		.loc 1 207 0
 1128 0012 3046     		mov	r0, r6
 1129 0014 3946     		mov	r1, r7
 1130 0016 DDE90823 		ldrd	r2, [sp, #32]
 1131 001a FFF7FEFF 		bl	__aeabi_dcmplt
 1132              	.LVL199:
 1133 001e 28B9     		cbnz	r0, .L71
 1134              		.loc 1 209 0
 1135 0020 DDE90A45 		ldrd	r4, [sp, #40]
 1136              	.L66:
ARM GAS  /tmp/ccj4yzJk.s 			page 21


 1137              		.loc 1 210 0
 1138 0024 2046     		mov	r0, r4
 1139 0026 2946     		mov	r1, r5
 1140 0028 BDE8F883 		pop	{r3, r4, r5, r6, r7, r8, r9, pc}
 1141              	.L71:
 1142              		.loc 1 208 0
 1143 002c DDE90845 		ldrd	r4, [sp, #32]
 1144 0030 F8E7     		b	.L66
 1145              		.cfi_endproc
 1146              	.LFE5:
 1147              		.size	find_next, .-find_next
 1148 0032 00BFAFF3 		.section	.text.ln_get_object_next_rst_horizon,"ax",%progbits
 1148      0080AFF3 
 1148      0080AFF3 
 1148      0080
 1149              		.align	2
 1150              		.p2align 4,,15
 1151              		.global	ln_get_object_next_rst_horizon
 1152              		.thumb
 1153              		.thumb_func
 1154              		.type	ln_get_object_next_rst_horizon, %function
 1155              	ln_get_object_next_rst_horizon:
 1156              	.LFB6:
 1157              		.loc 1 230 0
 1158              		.cfi_startproc
 1159              		@ args = 12, pretend = 0, frame = 88
 1160              		@ frame_needed = 0, uses_anonymous_args = 0
 1161              	.LVL200:
 1162 0000 2DE9F04F 		push	{r4, r5, r6, r7, r8, r9, sl, fp, lr}
 1163              	.LCFI7:
 1164              		.cfi_def_cfa_offset 36
 1165              		.cfi_offset 4, -36
 1166              		.cfi_offset 5, -32
 1167              		.cfi_offset 6, -28
 1168              		.cfi_offset 7, -24
 1169              		.cfi_offset 8, -20
 1170              		.cfi_offset 9, -16
 1171              		.cfi_offset 10, -12
 1172              		.cfi_offset 11, -8
 1173              		.cfi_offset 14, -4
 1174 0004 9BB0     		sub	sp, sp, #108
 1175              	.LCFI8:
 1176              		.cfi_def_cfa_offset 144
 1177              		.loc 1 233 0
 1178 0006 DDE92445 		ldrd	r4, [sp, #144]
 1179              		.loc 1 230 0
 1180 000a DDF89880 		ldr	r8, [sp, #152]
 1181              		.loc 1 233 0
 1182 000e CDE90045 		strd	r4, [sp]
 1183 0012 CDF80880 		str	r8, [sp, #8]
 1184              		.loc 1 230 0
 1185 0016 8246     		mov	sl, r0
 1186 0018 8B46     		mov	fp, r1
 1187 001a 1746     		mov	r7, r2
 1188 001c 1E46     		mov	r6, r3
 1189              		.loc 1 233 0
 1190 001e FFF7FEFF 		bl	ln_get_object_rst_horizon
ARM GAS  /tmp/ccj4yzJk.s 			page 22


 1191              	.LVL201:
 1192              		.loc 1 234 0
 1193 0022 8146     		mov	r9, r0
 1194 0024 0028     		cmp	r0, #0
 1195 0026 40F0A880 		bne	.L73
 1196              		.loc 1 238 0
 1197 002a D8E90045 		ldrd	r4, [r8]
 1198 002e 0023     		movs	r3, #0
 1199 0030 0022     		movs	r2, #0
 1200 0032 C3F6E073 		movt	r3, 16352
 1201 0036 5046     		mov	r0, sl
 1202              	.LVL202:
 1203 0038 5946     		mov	r1, fp
 1204 003a CDE90645 		strd	r4, [sp, #24]
 1205 003e FFF7FEFF 		bl	__aeabi_dadd
 1206              	.LVL203:
 1207 0042 0446     		mov	r4, r0
 1208 0044 0D46     		mov	r5, r1
 1209 0046 2246     		mov	r2, r4
 1210 0048 DDE90601 		ldrd	r0, [sp, #24]
 1211 004c 2B46     		mov	r3, r5
 1212 004e FFF7FEFF 		bl	__aeabi_dcmpgt
 1213              	.LVL204:
 1214 0052 98B9     		cbnz	r0, .L74
 1215              		.loc 1 238 0 is_stmt 0 discriminator 1
 1216 0054 D8E90423 		ldrd	r2, [r8, #16]
 1217 0058 2046     		mov	r0, r4
 1218 005a 2946     		mov	r1, r5
 1219 005c CDE90823 		strd	r2, [sp, #32]
 1220 0060 FFF7FEFF 		bl	__aeabi_dcmplt
 1221              	.LVL205:
 1222 0064 50B9     		cbnz	r0, .L74
 1223 0066 D8E90223 		ldrd	r2, [r8, #8]
 1224 006a 2046     		mov	r0, r4
 1225 006c 2946     		mov	r1, r5
 1226 006e CDE90A23 		strd	r2, [sp, #40]
 1227 0072 FFF7FEFF 		bl	__aeabi_dcmplt
 1228              	.LVL206:
 1229 0076 0028     		cmp	r0, #0
 1230 0078 00F0AA80 		beq	.L88
 1231              	.L74:
 1232              		.loc 1 239 0 is_stmt 1
 1233 007c 0023     		movs	r3, #0
 1234 007e 0022     		movs	r2, #0
 1235 0080 C3F6F073 		movt	r3, 16368
 1236 0084 5046     		mov	r0, sl
 1237 0086 5946     		mov	r1, fp
 1238 0088 FFF7FEFF 		bl	__aeabi_dsub
 1239              	.LVL207:
 1240 008c DDE92423 		ldrd	r2, [sp, #144]
 1241 0090 CDE90023 		strd	r2, [sp]
 1242 0094 0EAB     		add	r3, sp, #56
 1243 0096 0293     		str	r3, [sp, #8]
 1244 0098 3A46     		mov	r2, r7
 1245 009a 3346     		mov	r3, r6
 1246 009c FFF7FEFF 		bl	ln_get_object_rst_horizon
 1247              	.LVL208:
ARM GAS  /tmp/ccj4yzJk.s 			page 23


 1248 00a0 D8E90001 		ldrd	r0, [r8]
 1249 00a4 CDE90601 		strd	r0, [sp, #24]
 1250              	.L77:
 1251              		.loc 1 243 0
 1252 00a8 5046     		mov	r0, sl
 1253 00aa 5946     		mov	r1, fp
 1254 00ac DDE90623 		ldrd	r2, [sp, #24]
 1255 00b0 FFF7FEFF 		bl	__aeabi_dcmpgt
 1256              	.LVL209:
 1257 00b4 B8B9     		cbnz	r0, .L78
 1258              		.loc 1 243 0 is_stmt 0 discriminator 1
 1259 00b6 D8E90445 		ldrd	r4, [r8, #16]
 1260 00ba 5046     		mov	r0, sl
 1261 00bc 5946     		mov	r1, fp
 1262 00be 2246     		mov	r2, r4
 1263 00c0 2B46     		mov	r3, r5
 1264 00c2 CDE90845 		strd	r4, [sp, #32]
 1265 00c6 FFF7FEFF 		bl	__aeabi_dcmpgt
 1266              	.LVL210:
 1267 00ca 60B9     		cbnz	r0, .L78
 1268 00cc D8E90245 		ldrd	r4, [r8, #8]
 1269 00d0 5046     		mov	r0, sl
 1270 00d2 5946     		mov	r1, fp
 1271 00d4 2246     		mov	r2, r4
 1272 00d6 2B46     		mov	r3, r5
 1273 00d8 CDE90A45 		strd	r4, [sp, #40]
 1274 00dc FFF7FEFF 		bl	__aeabi_dcmpgt
 1275              	.LVL211:
 1276 00e0 0028     		cmp	r0, #0
 1277 00e2 00F09480 		beq	.L89
 1278              	.L78:
 1279              		.loc 1 244 0 is_stmt 1
 1280 00e6 0023     		movs	r3, #0
 1281 00e8 0022     		movs	r2, #0
 1282 00ea C3F6F073 		movt	r3, 16368
 1283 00ee 5046     		mov	r0, sl
 1284 00f0 5946     		mov	r1, fp
 1285 00f2 FFF7FEFF 		bl	__aeabi_dadd
 1286              	.LVL212:
 1287 00f6 DDE92445 		ldrd	r4, [sp, #144]
 1288 00fa CDE90045 		strd	r4, [sp]
 1289 00fe 14AD     		add	r5, sp, #80
 1290 0100 3A46     		mov	r2, r7
 1291 0102 3346     		mov	r3, r6
 1292 0104 0295     		str	r5, [sp, #8]
 1293 0106 FFF7FEFF 		bl	ln_get_object_rst_horizon
 1294              	.LVL213:
 1295 010a D8E90423 		ldrd	r2, [r8, #16]
 1296 010e D8E90067 		ldrd	r6, [r8]
 1297              	.LVL214:
 1298 0112 CDE90823 		strd	r2, [sp, #32]
 1299 0116 DDE91801 		ldrd	r0, [sp, #96]
 1300 011a D8E90245 		ldrd	r4, [r8, #8]
 1301 011e DDE91623 		ldrd	r2, [sp, #88]
 1302 0122 CDE90667 		strd	r6, [sp, #24]
 1303 0126 CDE90401 		strd	r0, [sp, #16]
 1304 012a DDE91467 		ldrd	r6, [sp, #80]
ARM GAS  /tmp/ccj4yzJk.s 			page 24


 1305 012e CDE90A45 		strd	r4, [sp, #40]
 1306 0132 CDE90C23 		strd	r2, [sp, #48]
 1307              	.LVL215:
 1308              	.L81:
 1309              		.loc 1 248 0
 1310 0136 DDE90E45 		ldrd	r4, [sp, #56]
 1311              	.LVL216:
 1312              	.LBB52:
 1313              	.LBB53:
 1314              		.loc 1 205 0
 1315 013a 5046     		mov	r0, sl
 1316 013c 5946     		mov	r1, fp
 1317 013e 2246     		mov	r2, r4
 1318 0140 2B46     		mov	r3, r5
 1319 0142 FFF7FEFF 		bl	__aeabi_dcmplt
 1320              	.LVL217:
 1321 0146 0028     		cmp	r0, #0
 1322 0148 2FD0     		beq	.L90
 1323              	.LVL218:
 1324              	.L82:
 1325              	.LBE53:
 1326              	.LBE52:
 1327              		.loc 1 249 0
 1328 014a DDE91267 		ldrd	r6, [sp, #72]
 1329              	.LVL219:
 1330              		.loc 1 248 0
 1331 014e C8E90045 		strd	r4, [r8]
 1332              	.LBB55:
 1333              	.LBB56:
 1334              		.loc 1 205 0
 1335 0152 5046     		mov	r0, sl
 1336 0154 5946     		mov	r1, fp
 1337 0156 3246     		mov	r2, r6
 1338 0158 3B46     		mov	r3, r7
 1339 015a FFF7FEFF 		bl	__aeabi_dcmplt
 1340              	.LVL220:
 1341 015e D0B1     		cbz	r0, .L91
 1342              	.LVL221:
 1343              	.L83:
 1344              	.LBE56:
 1345              	.LBE55:
 1346              		.loc 1 250 0
 1347 0160 DDE91045 		ldrd	r4, [sp, #64]
 1348              	.LVL222:
 1349              		.loc 1 249 0
 1350 0164 C8E90467 		strd	r6, [r8, #16]
 1351              	.LBB59:
 1352              	.LBB60:
 1353              		.loc 1 205 0
 1354 0168 5046     		mov	r0, sl
 1355 016a 5946     		mov	r1, fp
 1356 016c 2246     		mov	r2, r4
 1357 016e 2B46     		mov	r3, r5
 1358 0170 FFF7FEFF 		bl	__aeabi_dcmplt
 1359              	.LVL223:
 1360 0174 28B1     		cbz	r0, .L92
 1361              	.LVL224:
ARM GAS  /tmp/ccj4yzJk.s 			page 25


 1362              	.L84:
 1363              	.LBE60:
 1364              	.LBE59:
 1365              		.loc 1 250 0
 1366 0176 C8E90245 		strd	r4, [r8, #8]
 1367              	.LVL225:
 1368              	.L73:
 1369              		.loc 1 252 0
 1370 017a 4846     		mov	r0, r9
 1371 017c 1BB0     		add	sp, sp, #108
 1372 017e BDE8F08F 		pop	{r4, r5, r6, r7, r8, r9, sl, fp, pc}
 1373              	.LVL226:
 1374              	.L92:
 1375              	.LBB63:
 1376              	.LBB61:
 1377              		.loc 1 207 0
 1378 0182 5046     		mov	r0, sl
 1379 0184 5946     		mov	r1, fp
 1380 0186 DDE90A23 		ldrd	r2, [sp, #40]
 1381 018a FFF7FEFF 		bl	__aeabi_dcmplt
 1382              	.LVL227:
 1383 018e E0B1     		cbz	r0, .L93
 1384              		.loc 1 208 0
 1385 0190 DDE90A45 		ldrd	r4, [sp, #40]
 1386              	.LVL228:
 1387 0194 EFE7     		b	.L84
 1388              	.LVL229:
 1389              	.L91:
 1390              	.LBE61:
 1391              	.LBE63:
 1392              	.LBB64:
 1393              	.LBB57:
 1394              		.loc 1 207 0
 1395 0196 5046     		mov	r0, sl
 1396 0198 5946     		mov	r1, fp
 1397 019a DDE90823 		ldrd	r2, [sp, #32]
 1398 019e FFF7FEFF 		bl	__aeabi_dcmplt
 1399              	.LVL230:
 1400 01a2 78B1     		cbz	r0, .L94
 1401              		.loc 1 208 0
 1402 01a4 DDE90867 		ldrd	r6, [sp, #32]
 1403              	.LVL231:
 1404 01a8 DAE7     		b	.L83
 1405              	.LVL232:
 1406              	.L90:
 1407              	.LBE57:
 1408              	.LBE64:
 1409              	.LBB65:
 1410              	.LBB54:
 1411              		.loc 1 207 0
 1412 01aa 5046     		mov	r0, sl
 1413 01ac 5946     		mov	r1, fp
 1414 01ae DDE90623 		ldrd	r2, [sp, #24]
 1415 01b2 FFF7FEFF 		bl	__aeabi_dcmplt
 1416              	.LVL233:
 1417 01b6 10B1     		cbz	r0, .L95
 1418              		.loc 1 208 0
ARM GAS  /tmp/ccj4yzJk.s 			page 26


 1419 01b8 DDE90645 		ldrd	r4, [sp, #24]
 1420              	.LVL234:
 1421 01bc C5E7     		b	.L82
 1422              	.LVL235:
 1423              	.L95:
 1424              		.loc 1 209 0
 1425 01be 3446     		mov	r4, r6
 1426              	.LVL236:
 1427 01c0 3D46     		mov	r5, r7
 1428 01c2 C2E7     		b	.L82
 1429              	.LVL237:
 1430              	.L94:
 1431              	.LBE54:
 1432              	.LBE65:
 1433              	.LBB66:
 1434              	.LBB58:
 1435 01c4 DDE90467 		ldrd	r6, [sp, #16]
 1436              	.LVL238:
 1437 01c8 CAE7     		b	.L83
 1438              	.LVL239:
 1439              	.L93:
 1440              	.LBE58:
 1441              	.LBE66:
 1442              	.LBB67:
 1443              	.LBB62:
 1444 01ca DDE90C45 		ldrd	r4, [sp, #48]
 1445              	.LVL240:
 1446 01ce D2E7     		b	.L84
 1447              	.LVL241:
 1448              	.L88:
 1449              	.LBE62:
 1450              	.LBE67:
 1451              	.LBB68:
 1452              	.LBB69:
 1453              		.loc 1 198 0
 1454 01d0 0023     		movs	r3, #0
 1455 01d2 0022     		movs	r2, #0
 1456 01d4 C3F6F073 		movt	r3, 16368
 1457 01d8 DDE90601 		ldrd	r0, [sp, #24]
 1458 01dc FFF7FEFF 		bl	__aeabi_dsub
 1459              	.LVL242:
 1460              		.loc 1 199 0
 1461 01e0 0023     		movs	r3, #0
 1462 01e2 0022     		movs	r2, #0
 1463 01e4 C3F6F073 		movt	r3, 16368
 1464              		.loc 1 198 0
 1465 01e8 CDE90E01 		strd	r0, [sp, #56]
 1466              		.loc 1 199 0
 1467 01ec DDE90801 		ldrd	r0, [sp, #32]
 1468 01f0 FFF7FEFF 		bl	__aeabi_dsub
 1469              	.LVL243:
 1470              		.loc 1 200 0
 1471 01f4 0023     		movs	r3, #0
 1472              		.loc 1 199 0
 1473 01f6 CDE91201 		strd	r0, [sp, #72]
 1474              		.loc 1 200 0
 1475 01fa 0022     		movs	r2, #0
ARM GAS  /tmp/ccj4yzJk.s 			page 27


 1476 01fc C3F6F073 		movt	r3, 16368
 1477 0200 DDE90A01 		ldrd	r0, [sp, #40]
 1478 0204 FFF7FEFF 		bl	__aeabi_dsub
 1479              	.LVL244:
 1480 0208 CDE91001 		strd	r0, [sp, #64]
 1481 020c 4CE7     		b	.L77
 1482              	.LVL245:
 1483              	.L89:
 1484              	.LBE69:
 1485              	.LBE68:
 1486              	.LBB70:
 1487              	.LBB71:
 1488              		.loc 1 198 0
 1489 020e 0023     		movs	r3, #0
 1490 0210 0022     		movs	r2, #0
 1491 0212 C3F6F073 		movt	r3, 16368
 1492 0216 DDE90601 		ldrd	r0, [sp, #24]
 1493 021a FFF7FEFF 		bl	__aeabi_dadd
 1494              	.LVL246:
 1495              		.loc 1 199 0
 1496 021e 0023     		movs	r3, #0
 1497 0220 0022     		movs	r2, #0
 1498 0222 C3F6F073 		movt	r3, 16368
 1499              		.loc 1 198 0
 1500 0226 0646     		mov	r6, r0
 1501              	.LVL247:
 1502 0228 0F46     		mov	r7, r1
 1503              	.LVL248:
 1504              		.loc 1 199 0
 1505 022a DDE90801 		ldrd	r0, [sp, #32]
 1506 022e FFF7FEFF 		bl	__aeabi_dadd
 1507              	.LVL249:
 1508              		.loc 1 200 0
 1509 0232 0023     		movs	r3, #0
 1510              		.loc 1 199 0
 1511 0234 CDE90401 		strd	r0, [sp, #16]
 1512              		.loc 1 200 0
 1513 0238 0022     		movs	r2, #0
 1514 023a DDE90A01 		ldrd	r0, [sp, #40]
 1515 023e C3F6F073 		movt	r3, 16368
 1516 0242 FFF7FEFF 		bl	__aeabi_dadd
 1517              	.LVL250:
 1518 0246 CDE90C01 		strd	r0, [sp, #48]
 1519 024a 74E7     		b	.L81
 1520              	.LBE71:
 1521              	.LBE70:
 1522              		.cfi_endproc
 1523              	.LFE6:
 1524              		.size	ln_get_object_next_rst_horizon, .-ln_get_object_next_rst_horizon
 1525 024c AFF30080 		.section	.text.ln_get_object_next_rst,"ax",%progbits
 1526              		.align	2
 1527              		.p2align 4,,15
 1528              		.global	ln_get_object_next_rst
 1529              		.thumb
 1530              		.thumb_func
 1531              		.type	ln_get_object_next_rst, %function
 1532              	ln_get_object_next_rst:
ARM GAS  /tmp/ccj4yzJk.s 			page 28


 1533              	.LFB3:
 1534              		.loc 1 191 0
 1535              		.cfi_startproc
 1536              		@ args = 4, pretend = 0, frame = 0
 1537              		@ frame_needed = 0, uses_anonymous_args = 0
 1538              	.LVL251:
 1539 0000 30B5     		push	{r4, r5, lr}
 1540              	.LCFI9:
 1541              		.cfi_def_cfa_offset 12
 1542              		.cfi_offset 4, -12
 1543              		.cfi_offset 5, -8
 1544              		.cfi_offset 14, -4
 1545              		.loc 1 192 0
 1546 0002 07A5     		adr	r5, .L97
 1547 0004 D5E90045 		ldrd	r4, [r5]
 1548              		.loc 1 191 0
 1549 0008 85B0     		sub	sp, sp, #20
 1550              	.LCFI10:
 1551              		.cfi_def_cfa_offset 32
 1552              		.loc 1 192 0
 1553 000a CDE90045 		strd	r4, [sp]
 1554 000e 089C     		ldr	r4, [sp, #32]
 1555 0010 0294     		str	r4, [sp, #8]
 1556 0012 FFF7FEFF 		bl	ln_get_object_next_rst_horizon
 1557              	.LVL252:
 1558              		.loc 1 193 0
 1559 0016 05B0     		add	sp, sp, #20
 1560 0018 30BD     		pop	{r4, r5, pc}
 1561              	.L98:
 1562 001a 00BFAFF3 		.align	3
 1562      0080
 1563              	.L97:
 1564 0020 1895D409 		.word	164926744
 1565 0024 6822E2BF 		.word	-1075699096
 1566              		.cfi_endproc
 1567              	.LFE3:
 1568              		.size	ln_get_object_next_rst, .-ln_get_object_next_rst
 1569 0028 AFF30080 		.section	.text.ln_get_body_rst_horizon,"ax",%progbits
 1569      AFF30080 
 1570              		.align	2
 1571              		.p2align 4,,15
 1572              		.global	ln_get_body_rst_horizon
 1573              		.thumb
 1574              		.thumb_func
 1575              		.type	ln_get_body_rst_horizon, %function
 1576              	ln_get_body_rst_horizon:
 1577              	.LFB7:
 1578              		.loc 1 278 0
 1579              		.cfi_startproc
 1580              		@ args = 12, pretend = 0, frame = 144
 1581              		@ frame_needed = 0, uses_anonymous_args = 0
 1582              	.LVL253:
 1583 0000 2DE9F04F 		push	{r4, r5, r6, r7, r8, r9, sl, fp, lr}
 1584              	.LCFI11:
 1585              		.cfi_def_cfa_offset 36
 1586              		.cfi_offset 4, -36
 1587              		.cfi_offset 5, -32
ARM GAS  /tmp/ccj4yzJk.s 			page 29


 1588              		.cfi_offset 6, -28
 1589              		.cfi_offset 7, -24
 1590              		.cfi_offset 8, -20
 1591              		.cfi_offset 9, -16
 1592              		.cfi_offset 10, -12
 1593              		.cfi_offset 11, -8
 1594              		.cfi_offset 14, -4
 1595 0004 A9B0     		sub	sp, sp, #164
 1596              	.LCFI12:
 1597              		.cfi_def_cfa_offset 200
 1598              		.loc 1 278 0
 1599 0006 1C46     		mov	r4, r3
 1600 0008 1746     		mov	r7, r2
 1601 000a 8046     		mov	r8, r0
 1602 000c 8946     		mov	r9, r1
 1603 000e 349E     		ldr	r6, [sp, #208]
 1604              		.loc 1 288 0
 1605 0010 FFF7FEFF 		bl	ln_get_dynamical_time_diff
 1606              	.LVL254:
 1607 0014 CDE90A01 		strd	r0, [sp, #40]
 1608              	.LVL255:
 1609              		.loc 1 292 0
 1610 0018 4946     		mov	r1, r9
 1611 001a 4046     		mov	r0, r8
 1612              	.LVL256:
 1613 001c FFF7FEFF 		bl	__aeabi_d2iz
 1614              	.LVL257:
 1615              		.loc 1 293 0
 1616 0020 FFF7FEFF 		bl	__aeabi_i2d
 1617              	.LVL258:
 1618 0024 0023     		movs	r3, #0
 1619 0026 0022     		movs	r2, #0
 1620 0028 C3F6E073 		movt	r3, 16352
 1621 002c FFF7FEFF 		bl	__aeabi_dadd
 1622              	.LVL259:
 1623 0030 CDE90401 		strd	r0, [sp, #16]
 1624              	.LVL260:
 1625              		.loc 1 294 0
 1626 0034 FFF7FEFF 		bl	ln_get_apparent_sidereal_time
 1627              	.LVL261:
 1628              		.loc 1 298 0
 1629 0038 0023     		movs	r3, #0
 1630 003a C3F6F073 		movt	r3, 16368
 1631 003e 0022     		movs	r2, #0
 1632              		.loc 1 294 0
 1633 0040 8246     		mov	sl, r0
 1634 0042 8B46     		mov	fp, r1
 1635              	.LVL262:
 1636              		.loc 1 298 0
 1637 0044 DDE90401 		ldrd	r0, [sp, #16]
 1638 0048 FFF7FEFF 		bl	__aeabi_dsub
 1639              	.LVL263:
 1640 004c 1CAA     		add	r2, sp, #112
 1641 004e A047     		blx	r4
 1642              	.LVL264:
 1643              		.loc 1 299 0
 1644 0050 DDE90401 		ldrd	r0, [sp, #16]
ARM GAS  /tmp/ccj4yzJk.s 			page 30


 1645 0054 20AA     		add	r2, sp, #128
 1646 0056 A047     		blx	r4
 1647              	.LVL265:
 1648              		.loc 1 300 0
 1649 0058 0023     		movs	r3, #0
 1650 005a C3F6F073 		movt	r3, 16368
 1651 005e 0022     		movs	r2, #0
 1652 0060 DDE90401 		ldrd	r0, [sp, #16]
 1653 0064 FFF7FEFF 		bl	__aeabi_dadd
 1654              	.LVL266:
 1655 0068 24AA     		add	r2, sp, #144
 1656 006a A047     		blx	r4
 1657              	.LVL267:
 1658              		.loc 1 304 0
 1659 006c DDE93201 		ldrd	r0, [sp, #200]
 1660 0070 FFF7FEFF 		bl	ln_deg_to_rad
 1661              	.LVL268:
 1662 0074 FFF7FEFF 		bl	sin
 1663              	.LVL269:
 1664 0078 0446     		mov	r4, r0
 1665              	.LVL270:
 1666 007a 0D46     		mov	r5, r1
 1667              		.loc 1 305 0
 1668 007c D7E90201 		ldrd	r0, [r7, #8]
 1669 0080 FFF7FEFF 		bl	ln_deg_to_rad
 1670              	.LVL271:
 1671 0084 FFF7FEFF 		bl	sin
 1672              	.LVL272:
 1673 0088 8046     		mov	r8, r0
 1674              	.LVL273:
 1675 008a 8946     		mov	r9, r1
 1676 008c DDE92201 		ldrd	r0, [sp, #136]
 1677 0090 FFF7FEFF 		bl	ln_deg_to_rad
 1678              	.LVL274:
 1679 0094 FFF7FEFF 		bl	sin
 1680              	.LVL275:
 1681 0098 0246     		mov	r2, r0
 1682 009a 0B46     		mov	r3, r1
 1683 009c 4046     		mov	r0, r8
 1684 009e 4946     		mov	r1, r9
 1685 00a0 FFF7FEFF 		bl	__aeabi_dmul
 1686              	.LVL276:
 1687 00a4 0246     		mov	r2, r0
 1688 00a6 0B46     		mov	r3, r1
 1689              		.loc 1 303 0
 1690 00a8 2046     		mov	r0, r4
 1691 00aa 2946     		mov	r1, r5
 1692 00ac FFF7FEFF 		bl	__aeabi_dsub
 1693              	.LVL277:
 1694 00b0 0446     		mov	r4, r0
 1695 00b2 0D46     		mov	r5, r1
 1696              	.LVL278:
 1697              		.loc 1 306 0
 1698 00b4 D7E90201 		ldrd	r0, [r7, #8]
 1699 00b8 FFF7FEFF 		bl	ln_deg_to_rad
 1700              	.LVL279:
 1701 00bc FFF7FEFF 		bl	cos
ARM GAS  /tmp/ccj4yzJk.s 			page 31


 1702              	.LVL280:
 1703 00c0 8046     		mov	r8, r0
 1704 00c2 8946     		mov	r9, r1
 1705 00c4 DDE92201 		ldrd	r0, [sp, #136]
 1706 00c8 FFF7FEFF 		bl	ln_deg_to_rad
 1707              	.LVL281:
 1708 00cc FFF7FEFF 		bl	cos
 1709              	.LVL282:
 1710 00d0 0246     		mov	r2, r0
 1711 00d2 0B46     		mov	r3, r1
 1712 00d4 4046     		mov	r0, r8
 1713 00d6 4946     		mov	r1, r9
 1714 00d8 FFF7FEFF 		bl	__aeabi_dmul
 1715              	.LVL283:
 1716 00dc 0246     		mov	r2, r0
 1717 00de 0B46     		mov	r3, r1
 1718              	.LVL284:
 1719              		.loc 1 308 0
 1720 00e0 2046     		mov	r0, r4
 1721 00e2 2946     		mov	r1, r5
 1722 00e4 FFF7FEFF 		bl	__aeabi_ddiv
 1723              	.LVL285:
 1724              	.LBB72:
 1725              	.LBB73:
 1726              		.loc 1 31 0
 1727 00e8 21F00043 		bic	r3, r1, #-2147483648
 1728              	.LBE73:
 1729              	.LBE72:
 1730              		.loc 1 308 0
 1731 00ec 0C46     		mov	r4, r1
 1732              	.LVL286:
 1733              	.LBB77:
 1734              	.LBB74:
 1735              		.loc 1 31 0
 1736 00ee 1946     		mov	r1, r3
 1737              	.LVL287:
 1738 00f0 0023     		movs	r3, #0
 1739 00f2 0022     		movs	r2, #0
 1740 00f4 C3F6F073 		movt	r3, 16368
 1741              	.LBE74:
 1742              	.LBE77:
 1743              		.loc 1 308 0
 1744 00f8 0546     		mov	r5, r0
 1745              	.LBB78:
 1746              	.LBB75:
 1747              		.loc 1 31 0
 1748 00fa FFF7FEFF 		bl	__aeabi_dcmpgt
 1749              	.LVL288:
 1750              		.loc 1 35 0
 1751 00fe 0022     		movs	r2, #0
 1752              		.loc 1 31 0
 1753 0100 0028     		cmp	r0, #0
 1754 0102 45D0     		beq	.L144
 1755              		.loc 1 35 0
 1756 0104 4FF40043 		mov	r3, #32768
 1757 0108 C4F25603 		movt	r3, 16470
 1758 010c DDE92201 		ldrd	r0, [sp, #136]
ARM GAS  /tmp/ccj4yzJk.s 			page 32


 1759 0110 FFF7FEFF 		bl	__aeabi_dadd
 1760              	.LVL289:
 1761 0114 D7E90223 		ldrd	r2, [r7, #8]
 1762 0118 FFF7FEFF 		bl	__aeabi_dsub
 1763              	.LVL290:
 1764              		.loc 1 37 0
 1765 011c 4FF40043 		mov	r3, #32768
 1766 0120 0022     		movs	r2, #0
 1767 0122 C4F25603 		movt	r3, 16470
 1768              		.loc 1 35 0
 1769 0126 0446     		mov	r4, r0
 1770              	.LVL291:
 1771 0128 0D46     		mov	r5, r1
 1772              	.LVL292:
 1773              		.loc 1 37 0
 1774 012a FFF7FEFF 		bl	__aeabi_dcmpgt
 1775              	.LVL293:
 1776 012e 50B1     		cbz	r0, .L102
 1777              		.loc 1 38 0
 1778 0130 4FF40041 		mov	r1, #32768
 1779 0134 2246     		mov	r2, r4
 1780 0136 2B46     		mov	r3, r5
 1781 0138 0020     		movs	r0, #0
 1782 013a C4F26601 		movt	r1, 16486
 1783 013e FFF7FEFF 		bl	__aeabi_dsub
 1784              	.LVL294:
 1785 0142 0446     		mov	r4, r0
 1786              	.LVL295:
 1787 0144 0D46     		mov	r5, r1
 1788              	.LVL296:
 1789              	.L102:
 1790              		.loc 1 39 0
 1791 0146 4FF40043 		mov	r3, #32768
 1792 014a 2046     		mov	r0, r4
 1793 014c 2946     		mov	r1, r5
 1794 014e 0022     		movs	r2, #0
 1795 0150 CCF25603 		movt	r3, 49238
 1796 0154 FFF7FEFF 		bl	__aeabi_dcmplt
 1797              	.LVL297:
 1798 0158 70B9     		cbnz	r0, .L149
 1799              	.L104:
 1800              		.loc 1 41 0
 1801 015a 2B46     		mov	r3, r5
 1802 015c DDE93201 		ldrd	r0, [sp, #200]
 1803 0160 2246     		mov	r2, r4
 1804 0162 FFF7FEFF 		bl	__aeabi_dcmpgt
 1805              	.LVL298:
 1806              		.loc 1 44 0
 1807 0166 0028     		cmp	r0, #0
 1808 0168 14BF     		ite	ne
 1809 016a 4FF0FF33 		movne	r3, #-1
 1810 016e 0123     		moveq	r3, #1
 1811              	.LVL299:
 1812              	.L145:
 1813              	.LBE75:
 1814              	.LBE78:
 1815              		.loc 1 401 0
ARM GAS  /tmp/ccj4yzJk.s 			page 33


 1816 0170 1846     		mov	r0, r3
 1817 0172 29B0     		add	sp, sp, #164
 1818 0174 BDE8F08F 		pop	{r4, r5, r6, r7, r8, r9, sl, fp, pc}
 1819              	.LVL300:
 1820              	.L149:
 1821              	.LBB79:
 1822              	.LBB76:
 1823              		.loc 1 40 0
 1824 0178 4FF40041 		mov	r1, #32768
 1825 017c 2246     		mov	r2, r4
 1826 017e 2B46     		mov	r3, r5
 1827 0180 0020     		movs	r0, #0
 1828 0182 CCF26601 		movt	r1, 49254
 1829 0186 FFF7FEFF 		bl	__aeabi_dsub
 1830              	.LVL301:
 1831 018a 0446     		mov	r4, r0
 1832              	.LVL302:
 1833 018c 0D46     		mov	r5, r1
 1834              	.LVL303:
 1835 018e E4E7     		b	.L104
 1836              	.LVL304:
 1837              	.L144:
 1838              	.LBE76:
 1839              	.LBE79:
 1840              		.loc 1 295 0
 1841 0190 0023     		movs	r3, #0
 1842 0192 C4F22E03 		movt	r3, 16430
 1843 0196 5046     		mov	r0, sl
 1844 0198 5946     		mov	r1, fp
 1845 019a FFF7FEFF 		bl	__aeabi_dmul
 1846              	.LVL305:
 1847 019e 8046     		mov	r8, r0
 1848 01a0 8946     		mov	r9, r1
 1849              		.loc 1 314 0
 1850 01a2 2846     		mov	r0, r5
 1851 01a4 2146     		mov	r1, r4
 1852 01a6 FFF7FEFF 		bl	acos
 1853              	.LVL306:
 1854              		.loc 1 315 0
 1855 01aa FFF7FEFF 		bl	ln_rad_to_deg
 1856              	.LVL307:
 1857              		.loc 1 318 0
 1858 01ae DDE92045 		ldrd	r4, [sp, #128]
 1859              	.LVL308:
 1860              		.loc 1 315 0
 1861 01b2 8246     		mov	sl, r0
 1862              	.LVL309:
 1863 01b4 8B46     		mov	fp, r1
 1864              	.LVL310:
 1865              		.loc 1 318 0
 1866 01b6 D7E90023 		ldrd	r2, [r7]
 1867 01ba 2046     		mov	r0, r4
 1868 01bc 2946     		mov	r1, r5
 1869 01be FFF7FEFF 		bl	__aeabi_dsub
 1870              	.LVL311:
 1871 01c2 4246     		mov	r2, r8
 1872 01c4 4B46     		mov	r3, r9
ARM GAS  /tmp/ccj4yzJk.s 			page 34


 1873 01c6 FFF7FEFF 		bl	__aeabi_dsub
 1874              	.LVL312:
 1875 01ca 4FF40043 		mov	r3, #32768
 1876 01ce 0022     		movs	r2, #0
 1877 01d0 C4F27603 		movt	r3, 16502
 1878 01d4 FFF7FEFF 		bl	__aeabi_ddiv
 1879              	.LVL313:
 1880              		.loc 1 319 0
 1881 01d8 4FF40043 		mov	r3, #32768
 1882              		.loc 1 318 0
 1883 01dc CDE90C01 		strd	r0, [sp, #48]
 1884              	.LVL314:
 1885              		.loc 1 319 0
 1886 01e0 0022     		movs	r2, #0
 1887 01e2 5046     		mov	r0, sl
 1888              	.LVL315:
 1889 01e4 5946     		mov	r1, fp
 1890 01e6 C4F27603 		movt	r3, 16502
 1891 01ea FFF7FEFF 		bl	__aeabi_ddiv
 1892              	.LVL316:
 1893 01ee 8246     		mov	sl, r0
 1894              	.LVL317:
 1895 01f0 8B46     		mov	fp, r1
 1896 01f2 5246     		mov	r2, sl
 1897 01f4 5B46     		mov	r3, fp
 1898 01f6 DDE90C01 		ldrd	r0, [sp, #48]
 1899 01fa FFF7FEFF 		bl	__aeabi_dsub
 1900              	.LVL318:
 1901              		.loc 1 320 0
 1902 01fe 5246     		mov	r2, sl
 1903              		.loc 1 319 0
 1904 0200 CDE90E01 		strd	r0, [sp, #56]
 1905              	.LVL319:
 1906              		.loc 1 320 0
 1907 0204 5B46     		mov	r3, fp
 1908 0206 DDE90C01 		ldrd	r0, [sp, #48]
 1909              	.LVL320:
 1910 020a FFF7FEFF 		bl	__aeabi_dadd
 1911              	.LVL321:
 1912              		.loc 1 323 0
 1913 020e 0023     		movs	r3, #0
 1914              		.loc 1 320 0
 1915 0210 CDE91001 		strd	r0, [sp, #64]
 1916              	.LVL322:
 1917              		.loc 1 323 0
 1918 0214 0022     		movs	r2, #0
 1919 0216 DDE90C01 		ldrd	r0, [sp, #48]
 1920              	.LVL323:
 1921 021a C3F6F073 		movt	r3, 16368
 1922 021e FFF7FEFF 		bl	__aeabi_dcmpgt
 1923              	.LVL324:
 1924 0222 0028     		cmp	r0, #0
 1925 0224 00F0BA82 		beq	.L150
 1926              		.loc 1 324 0
 1927 0228 0023     		movs	r3, #0
 1928 022a DDE90C01 		ldrd	r0, [sp, #48]
 1929 022e 0022     		movs	r2, #0
ARM GAS  /tmp/ccj4yzJk.s 			page 35


 1930 0230 C3F6F073 		movt	r3, 16368
 1931 0234 FFF7FEFF 		bl	__aeabi_dsub
 1932              	.LVL325:
 1933 0238 CDE90C01 		strd	r0, [sp, #48]
 1934              	.LVL326:
 1935              	.L108:
 1936              		.loc 1 327 0
 1937 023c 0023     		movs	r3, #0
 1938 023e DDE90E01 		ldrd	r0, [sp, #56]
 1939 0242 0022     		movs	r2, #0
 1940 0244 C3F6F073 		movt	r3, 16368
 1941 0248 FFF7FEFF 		bl	__aeabi_dcmpgt
 1942              	.LVL327:
 1943 024c 0028     		cmp	r0, #0
 1944 024e 00F0CD82 		beq	.L146
 1945              		.loc 1 328 0
 1946 0252 0023     		movs	r3, #0
 1947 0254 DDE90E01 		ldrd	r0, [sp, #56]
 1948 0258 0022     		movs	r2, #0
 1949 025a C3F6F073 		movt	r3, 16368
 1950 025e FFF7FEFF 		bl	__aeabi_dsub
 1951              	.LVL328:
 1952 0262 CDE90E01 		strd	r0, [sp, #56]
 1953              	.LVL329:
 1954              	.L112:
 1955              		.loc 1 331 0
 1956 0266 0023     		movs	r3, #0
 1957 0268 DDE91001 		ldrd	r0, [sp, #64]
 1958 026c 0022     		movs	r2, #0
 1959 026e C3F6F073 		movt	r3, 16368
 1960 0272 FFF7FEFF 		bl	__aeabi_dcmpgt
 1961              	.LVL330:
 1962 0276 0028     		cmp	r0, #0
 1963 0278 00F0A482 		beq	.L147
 1964              		.loc 1 332 0
 1965 027c 0023     		movs	r3, #0
 1966 027e DDE91001 		ldrd	r0, [sp, #64]
 1967 0282 0022     		movs	r2, #0
 1968 0284 C3F6F073 		movt	r3, 16368
 1969 0288 FFF7FEFF 		bl	__aeabi_dsub
 1970              	.LVL331:
 1971 028c CDE91001 		strd	r0, [sp, #64]
 1972              	.LVL332:
 1973              	.L116:
 1974              		.loc 1 337 0
 1975 0290 9BA3     		adr	r3, .L151
 1976 0292 D3E90023 		ldrd	r2, [r3]
 1977 0296 DDE90C01 		ldrd	r0, [sp, #48]
 1978 029a FFF7FEFF 		bl	__aeabi_dmul
 1979              	.LVL333:
 1980 029e 4246     		mov	r2, r8
 1981 02a0 4B46     		mov	r3, r9
 1982 02a2 FFF7FEFF 		bl	__aeabi_dadd
 1983              	.LVL334:
 1984              		.loc 1 338 0
 1985 02a6 96A3     		adr	r3, .L151
 1986 02a8 D3E90023 		ldrd	r2, [r3]
ARM GAS  /tmp/ccj4yzJk.s 			page 36


 1987              		.loc 1 337 0
 1988 02ac CDE91401 		strd	r0, [sp, #80]
 1989              	.LVL335:
 1990              		.loc 1 338 0
 1991 02b0 DDE90E01 		ldrd	r0, [sp, #56]
 1992              	.LVL336:
 1993 02b4 FFF7FEFF 		bl	__aeabi_dmul
 1994              	.LVL337:
 1995 02b8 4246     		mov	r2, r8
 1996 02ba 4B46     		mov	r3, r9
 1997 02bc FFF7FEFF 		bl	__aeabi_dadd
 1998              	.LVL338:
 1999              		.loc 1 339 0
 2000 02c0 8FA3     		adr	r3, .L151
 2001 02c2 D3E90023 		ldrd	r2, [r3]
 2002              		.loc 1 338 0
 2003 02c6 CDE91601 		strd	r0, [sp, #88]
 2004              	.LVL339:
 2005              		.loc 1 339 0
 2006 02ca DDE91001 		ldrd	r0, [sp, #64]
 2007              	.LVL340:
 2008 02ce FFF7FEFF 		bl	__aeabi_dmul
 2009              	.LVL341:
 2010 02d2 4246     		mov	r2, r8
 2011 02d4 4B46     		mov	r3, r9
 2012 02d6 FFF7FEFF 		bl	__aeabi_dadd
 2013              	.LVL342:
 2014              		.loc 1 342 0
 2015 02da DDE91C23 		ldrd	r2, [sp, #112]
 2016 02de CDE90823 		strd	r2, [sp, #32]
 2017              		.loc 1 339 0
 2018 02e2 CDE91801 		strd	r0, [sp, #96]
 2019              	.LVL343:
 2020              		.loc 1 342 0
 2021 02e6 2246     		mov	r2, r4
 2022 02e8 2B46     		mov	r3, r5
 2023 02ea DDE90801 		ldrd	r0, [sp, #32]
 2024              	.LVL344:
 2025 02ee FFF7FEFF 		bl	__aeabi_dsub
 2026              	.LVL345:
 2027 02f2 4FF40043 		mov	r3, #32768
 2028 02f6 0022     		movs	r2, #0
 2029 02f8 C4F26603 		movt	r3, 16486
 2030 02fc FFF7FEFF 		bl	__aeabi_dcmpgt
 2031              	.LVL346:
 2032 0300 60B1     		cbz	r0, .L118
 2033              		.loc 1 343 0
 2034 0302 4FF40043 		mov	r3, #32768
 2035 0306 2046     		mov	r0, r4
 2036 0308 2946     		mov	r1, r5
 2037 030a 0022     		movs	r2, #0
 2038 030c C4F27603 		movt	r3, 16502
 2039 0310 FFF7FEFF 		bl	__aeabi_dadd
 2040              	.LVL347:
 2041 0314 0446     		mov	r4, r0
 2042 0316 0D46     		mov	r5, r1
 2043 0318 CDE92045 		strd	r4, [sp, #128]
ARM GAS  /tmp/ccj4yzJk.s 			page 37


 2044              	.L118:
 2045              		.loc 1 345 0
 2046 031c DDE924AB 		ldrd	sl, [sp, #144]
 2047 0320 2046     		mov	r0, r4
 2048 0322 5246     		mov	r2, sl
 2049 0324 5B46     		mov	r3, fp
 2050 0326 2946     		mov	r1, r5
 2051 0328 FFF7FEFF 		bl	__aeabi_dsub
 2052              	.LVL348:
 2053 032c 4FF40043 		mov	r3, #32768
 2054 0330 0022     		movs	r2, #0
 2055 0332 C4F26603 		movt	r3, 16486
 2056 0336 FFF7FEFF 		bl	__aeabi_dcmpgt
 2057              	.LVL349:
 2058 033a 60B1     		cbz	r0, .L120
 2059              		.loc 1 346 0
 2060 033c 4FF40043 		mov	r3, #32768
 2061 0340 5046     		mov	r0, sl
 2062 0342 5946     		mov	r1, fp
 2063 0344 0022     		movs	r2, #0
 2064 0346 C4F27603 		movt	r3, 16502
 2065 034a FFF7FEFF 		bl	__aeabi_dadd
 2066              	.LVL350:
 2067 034e 8246     		mov	sl, r0
 2068 0350 8B46     		mov	fp, r1
 2069 0352 CDE924AB 		strd	sl, [sp, #144]
 2070              	.L120:
 2071              		.loc 1 348 0
 2072 0356 2246     		mov	r2, r4
 2073 0358 2B46     		mov	r3, r5
 2074 035a 5046     		mov	r0, sl
 2075 035c 5946     		mov	r1, fp
 2076 035e FFF7FEFF 		bl	__aeabi_dsub
 2077              	.LVL351:
 2078 0362 4FF40043 		mov	r3, #32768
 2079 0366 0022     		movs	r2, #0
 2080 0368 C4F26603 		movt	r3, 16486
 2081 036c FFF7FEFF 		bl	__aeabi_dcmpgt
 2082              	.LVL352:
 2083 0370 60B1     		cbz	r0, .L122
 2084              		.loc 1 349 0
 2085 0372 4FF40043 		mov	r3, #32768
 2086 0376 5046     		mov	r0, sl
 2087 0378 5946     		mov	r1, fp
 2088 037a 0022     		movs	r2, #0
 2089 037c C4F27603 		movt	r3, 16502
 2090 0380 FFF7FEFF 		bl	__aeabi_dsub
 2091              	.LVL353:
 2092 0384 8246     		mov	sl, r0
 2093 0386 8B46     		mov	fp, r1
 2094 0388 CDE924AB 		strd	sl, [sp, #144]
 2095              	.L122:
 2096              		.loc 1 351 0
 2097 038c DDE90823 		ldrd	r2, [sp, #32]
 2098 0390 2046     		mov	r0, r4
 2099 0392 2946     		mov	r1, r5
 2100 0394 FFF7FEFF 		bl	__aeabi_dsub
ARM GAS  /tmp/ccj4yzJk.s 			page 38


 2101              	.LVL354:
 2102 0398 4FF40043 		mov	r3, #32768
 2103 039c 0022     		movs	r2, #0
 2104 039e C4F26603 		movt	r3, 16486
 2105 03a2 FFF7FEFF 		bl	__aeabi_dcmpgt
 2106              	.LVL355:
 2107 03a6 60B1     		cbz	r0, .L124
 2108              		.loc 1 352 0
 2109 03a8 4FF40043 		mov	r3, #32768
 2110 03ac 5046     		mov	r0, sl
 2111 03ae 5946     		mov	r1, fp
 2112 03b0 0022     		movs	r2, #0
 2113 03b2 C4F27603 		movt	r3, 16502
 2114 03b6 FFF7FEFF 		bl	__aeabi_dsub
 2115              	.LVL356:
 2116 03ba 8246     		mov	sl, r0
 2117 03bc 8B46     		mov	fp, r1
 2118 03be CDE924AB 		strd	sl, [sp, #144]
 2119              	.L124:
 2120              		.loc 1 354 0
 2121 03c2 DDE90A01 		ldrd	r0, [sp, #40]
 2122 03c6 50A3     		adr	r3, .L151+8
 2123 03c8 D3E90023 		ldrd	r2, [r3]
 2124 03cc FFF7FEFF 		bl	__aeabi_ddiv
 2125              	.LVL357:
 2126 03d0 DDE90C23 		ldrd	r2, [sp, #48]
 2127 03d4 8046     		mov	r8, r0
 2128 03d6 8946     		mov	r9, r1
 2129 03d8 FFF7FEFF 		bl	__aeabi_dadd
 2130              	.LVL358:
 2131              		.loc 1 355 0
 2132 03dc 4246     		mov	r2, r8
 2133 03de 4B46     		mov	r3, r9
 2134              		.loc 1 354 0
 2135 03e0 CDE91201 		strd	r0, [sp, #72]
 2136              	.LVL359:
 2137              		.loc 1 355 0
 2138 03e4 DDE90E01 		ldrd	r0, [sp, #56]
 2139              	.LVL360:
 2140 03e8 FFF7FEFF 		bl	__aeabi_dadd
 2141              	.LVL361:
 2142              		.loc 1 356 0
 2143 03ec 4246     		mov	r2, r8
 2144 03ee 4B46     		mov	r3, r9
 2145              		.loc 1 355 0
 2146 03f0 CDE90A01 		strd	r0, [sp, #40]
 2147              	.LVL362:
 2148              		.loc 1 356 0
 2149 03f4 DDE91001 		ldrd	r0, [sp, #64]
 2150              	.LVL363:
 2151 03f8 FFF7FEFF 		bl	__aeabi_dadd
 2152              	.LVL364:
 2153              		.loc 1 359 0
 2154 03fc CDE902AB 		strd	sl, [sp, #8]
 2155              		.loc 1 356 0
 2156 0400 8046     		mov	r8, r0
 2157 0402 8946     		mov	r9, r1
ARM GAS  /tmp/ccj4yzJk.s 			page 39


 2158              	.LVL365:
 2159              		.loc 1 359 0
 2160 0404 DDE90823 		ldrd	r2, [sp, #32]
 2161 0408 CDE90045 		strd	r4, [sp]
 2162 040c DDE90A01 		ldrd	r0, [sp, #40]
 2163 0410 FFF7FEFF 		bl	ln_interpolate3
 2164              	.LVL366:
 2165              		.loc 1 360 0
 2166 0414 DDE92245 		ldrd	r4, [sp, #136]
 2167              		.loc 1 359 0
 2168 0418 CDE91A01 		strd	r0, [sp, #104]
 2169              	.LVL367:
 2170              		.loc 1 360 0
 2171 041c DDE92601 		ldrd	r0, [sp, #152]
 2172              	.LVL368:
 2173 0420 DDE91E23 		ldrd	r2, [sp, #120]
 2174 0424 CDE90045 		strd	r4, [sp]
 2175 0428 CDE90201 		strd	r0, [sp, #8]
 2176 042c DDE90A01 		ldrd	r0, [sp, #40]
 2177 0430 FFF7FEFF 		bl	ln_interpolate3
 2178              	.LVL369:
 2179              		.loc 1 361 0
 2180 0434 DDE92045 		ldrd	r4, [sp, #128]
 2181              		.loc 1 360 0
 2182 0438 CDE90A01 		strd	r0, [sp, #40]
 2183              	.LVL370:
 2184              		.loc 1 361 0
 2185 043c DDE92401 		ldrd	r0, [sp, #144]
 2186              	.LVL371:
 2187 0440 DDE91C23 		ldrd	r2, [sp, #112]
 2188 0444 CDE90045 		strd	r4, [sp]
 2189 0448 CDE90201 		strd	r0, [sp, #8]
 2190 044c DDE91201 		ldrd	r0, [sp, #72]
 2191 0450 FFF7FEFF 		bl	ln_interpolate3
 2192              	.LVL372:
 2193              		.loc 1 362 0
 2194 0454 DDE92045 		ldrd	r4, [sp, #128]
 2195              		.loc 1 361 0
 2196 0458 CDE90801 		strd	r0, [sp, #32]
 2197              	.LVL373:
 2198              		.loc 1 362 0
 2199 045c DDE92401 		ldrd	r0, [sp, #144]
 2200              	.LVL374:
 2201 0460 DDE91C23 		ldrd	r2, [sp, #112]
 2202 0464 CDE90201 		strd	r0, [sp, #8]
 2203 0468 CDE90045 		strd	r4, [sp]
 2204 046c 4046     		mov	r0, r8
 2205 046e 4946     		mov	r1, r9
 2206 0470 FFF7FEFF 		bl	ln_interpolate3
 2207              	.LVL375:
 2208              		.loc 1 363 0
 2209 0474 DDE92245 		ldrd	r4, [sp, #136]
 2210              		.loc 1 362 0
 2211 0478 8246     		mov	sl, r0
 2212 047a 8B46     		mov	fp, r1
 2213              	.LVL376:
 2214              		.loc 1 363 0
ARM GAS  /tmp/ccj4yzJk.s 			page 40


 2215 047c DDE92601 		ldrd	r0, [sp, #152]
 2216 0480 DDE91E23 		ldrd	r2, [sp, #120]
 2217 0484 CDE90201 		strd	r0, [sp, #8]
 2218 0488 CDE90045 		strd	r4, [sp]
 2219 048c 4046     		mov	r0, r8
 2220 048e 4946     		mov	r1, r9
 2221 0490 FFF7FEFF 		bl	ln_interpolate3
 2222              	.LVL377:
 2223              		.loc 1 366 0
 2224 0494 D7E90045 		ldrd	r4, [r7]
 2225 0498 DDE91423 		ldrd	r2, [sp, #80]
 2226              		.loc 1 363 0
 2227 049c CDE91201 		strd	r0, [sp, #72]
 2228              	.LVL378:
 2229              		.loc 1 366 0
 2230 04a0 2046     		mov	r0, r4
 2231              	.LVL379:
 2232 04a2 2946     		mov	r1, r5
 2233 04a4 FFF7FEFF 		bl	__aeabi_dadd
 2234              	.LVL380:
 2235 04a8 DDE90823 		ldrd	r2, [sp, #32]
 2236 04ac FFF7FEFF 		bl	__aeabi_dsub
 2237              	.LVL381:
 2238              		.loc 1 367 0
 2239 04b0 2246     		mov	r2, r4
 2240 04b2 2B46     		mov	r3, r5
 2241              		.loc 1 366 0
 2242 04b4 CDE90801 		strd	r0, [sp, #32]
 2243              	.LVL382:
 2244              		.loc 1 367 0
 2245 04b8 DDE91601 		ldrd	r0, [sp, #88]
 2246              	.LVL383:
 2247 04bc FFF7FEFF 		bl	__aeabi_dadd
 2248              	.LVL384:
 2249 04c0 DDE91A23 		ldrd	r2, [sp, #104]
 2250 04c4 FFF7FEFF 		bl	__aeabi_dsub
 2251              	.LVL385:
 2252              		.loc 1 368 0
 2253 04c8 2246     		mov	r2, r4
 2254 04ca 2B46     		mov	r3, r5
 2255              		.loc 1 367 0
 2256 04cc CDE91401 		strd	r0, [sp, #80]
 2257              	.LVL386:
 2258              		.loc 1 368 0
 2259 04d0 DDE91801 		ldrd	r0, [sp, #96]
 2260              	.LVL387:
 2261 04d4 FFF7FEFF 		bl	__aeabi_dadd
 2262              	.LVL388:
 2263 04d8 5246     		mov	r2, sl
 2264 04da 5B46     		mov	r3, fp
 2265 04dc FFF7FEFF 		bl	__aeabi_dsub
 2266              	.LVL389:
 2267 04e0 CDE91601 		strd	r0, [sp, #88]
 2268              	.LVL390:
 2269              		.loc 1 371 0
 2270 04e4 D7E90201 		ldrd	r0, [r7, #8]
 2271              	.LVL391:
ARM GAS  /tmp/ccj4yzJk.s 			page 41


 2272 04e8 FFF7FEFF 		bl	ln_deg_to_rad
 2273              	.LVL392:
 2274 04ec FFF7FEFF 		bl	sin
 2275              	.LVL393:
 2276 04f0 0446     		mov	r4, r0
 2277 04f2 0D46     		mov	r5, r1
 2278 04f4 DDE90A01 		ldrd	r0, [sp, #40]
 2279 04f8 0AE0     		b	.L152
 2280              	.L153:
 2281 04fa 00BFAFF3 		.align	3
 2281      0080
 2282              	.L151:
 2283 0500 68E6C935 		.word	902424168
 2284 0504 C58F7640 		.word	1081511877
 2285 0508 00000000 		.word	0
 2286 050c 0018F540 		.word	1089804288
 2287              	.L152:
 2288 0510 FFF7FEFF 		bl	ln_deg_to_rad
 2289              	.LVL394:
 2290 0514 FFF7FEFF 		bl	sin
 2291              	.LVL395:
 2292 0518 0246     		mov	r2, r0
 2293 051a 0B46     		mov	r3, r1
 2294 051c 2046     		mov	r0, r4
 2295 051e 2946     		mov	r1, r5
 2296 0520 FFF7FEFF 		bl	__aeabi_dmul
 2297              	.LVL396:
 2298 0524 0446     		mov	r4, r0
 2299 0526 0D46     		mov	r5, r1
 2300              		.loc 1 372 0
 2301 0528 D7E90201 		ldrd	r0, [r7, #8]
 2302 052c FFF7FEFF 		bl	ln_deg_to_rad
 2303              	.LVL397:
 2304 0530 FFF7FEFF 		bl	cos
 2305              	.LVL398:
 2306 0534 8046     		mov	r8, r0
 2307              	.LVL399:
 2308 0536 8946     		mov	r9, r1
 2309 0538 DDE90A01 		ldrd	r0, [sp, #40]
 2310 053c FFF7FEFF 		bl	ln_deg_to_rad
 2311              	.LVL400:
 2312 0540 FFF7FEFF 		bl	cos
 2313              	.LVL401:
 2314 0544 0246     		mov	r2, r0
 2315 0546 0B46     		mov	r3, r1
 2316 0548 4046     		mov	r0, r8
 2317 054a 4946     		mov	r1, r9
 2318 054c FFF7FEFF 		bl	__aeabi_dmul
 2319              	.LVL402:
 2320 0550 8246     		mov	sl, r0
 2321              	.LVL403:
 2322 0552 8B46     		mov	fp, r1
 2323              		.loc 1 373 0
 2324 0554 DDE91401 		ldrd	r0, [sp, #80]
 2325 0558 FFF7FEFF 		bl	ln_deg_to_rad
 2326              	.LVL404:
 2327 055c FFF7FEFF 		bl	cos
ARM GAS  /tmp/ccj4yzJk.s 			page 42


 2328              	.LVL405:
 2329 0560 0246     		mov	r2, r0
 2330 0562 0B46     		mov	r3, r1
 2331              		.loc 1 372 0
 2332 0564 5046     		mov	r0, sl
 2333 0566 5946     		mov	r1, fp
 2334 0568 FFF7FEFF 		bl	__aeabi_dmul
 2335              	.LVL406:
 2336 056c 0246     		mov	r2, r0
 2337 056e 0B46     		mov	r3, r1
 2338              		.loc 1 371 0
 2339 0570 2046     		mov	r0, r4
 2340 0572 2946     		mov	r1, r5
 2341 0574 FFF7FEFF 		bl	__aeabi_dadd
 2342              	.LVL407:
 2343 0578 8246     		mov	sl, r0
 2344 057a 8B46     		mov	fp, r1
 2345              	.LVL408:
 2346              		.loc 1 374 0
 2347 057c D7E90201 		ldrd	r0, [r7, #8]
 2348 0580 FFF7FEFF 		bl	ln_deg_to_rad
 2349              	.LVL409:
 2350 0584 FFF7FEFF 		bl	sin
 2351              	.LVL410:
 2352 0588 0446     		mov	r4, r0
 2353 058a 0D46     		mov	r5, r1
 2354 058c DDE91201 		ldrd	r0, [sp, #72]
 2355 0590 FFF7FEFF 		bl	ln_deg_to_rad
 2356              	.LVL411:
 2357 0594 FFF7FEFF 		bl	sin
 2358              	.LVL412:
 2359 0598 0246     		mov	r2, r0
 2360 059a 0B46     		mov	r3, r1
 2361 059c 2046     		mov	r0, r4
 2362 059e 2946     		mov	r1, r5
 2363 05a0 FFF7FEFF 		bl	__aeabi_dmul
 2364              	.LVL413:
 2365 05a4 0446     		mov	r4, r0
 2366 05a6 0D46     		mov	r5, r1
 2367              		.loc 1 375 0
 2368 05a8 D7E90201 		ldrd	r0, [r7, #8]
 2369 05ac FFF7FEFF 		bl	ln_deg_to_rad
 2370              	.LVL414:
 2371 05b0 FFF7FEFF 		bl	cos
 2372              	.LVL415:
 2373 05b4 8046     		mov	r8, r0
 2374 05b6 8946     		mov	r9, r1
 2375 05b8 DDE91201 		ldrd	r0, [sp, #72]
 2376 05bc FFF7FEFF 		bl	ln_deg_to_rad
 2377              	.LVL416:
 2378 05c0 FFF7FEFF 		bl	cos
 2379              	.LVL417:
 2380 05c4 0246     		mov	r2, r0
 2381 05c6 0B46     		mov	r3, r1
 2382 05c8 4046     		mov	r0, r8
 2383 05ca 4946     		mov	r1, r9
 2384 05cc FFF7FEFF 		bl	__aeabi_dmul
ARM GAS  /tmp/ccj4yzJk.s 			page 43


 2385              	.LVL418:
 2386 05d0 8046     		mov	r8, r0
 2387 05d2 8946     		mov	r9, r1
 2388              		.loc 1 376 0
 2389 05d4 DDE91601 		ldrd	r0, [sp, #88]
 2390 05d8 FFF7FEFF 		bl	ln_deg_to_rad
 2391              	.LVL419:
 2392 05dc FFF7FEFF 		bl	cos
 2393              	.LVL420:
 2394 05e0 0246     		mov	r2, r0
 2395 05e2 0B46     		mov	r3, r1
 2396              		.loc 1 375 0
 2397 05e4 4046     		mov	r0, r8
 2398 05e6 4946     		mov	r1, r9
 2399 05e8 FFF7FEFF 		bl	__aeabi_dmul
 2400              	.LVL421:
 2401 05ec 0246     		mov	r2, r0
 2402 05ee 0B46     		mov	r3, r1
 2403              		.loc 1 374 0
 2404 05f0 2046     		mov	r0, r4
 2405 05f2 2946     		mov	r1, r5
 2406 05f4 FFF7FEFF 		bl	__aeabi_dadd
 2407              	.LVL422:
 2408 05f8 8046     		mov	r8, r0
 2409 05fa 8946     		mov	r9, r1
 2410              	.LVL423:
 2411              		.loc 1 379 0
 2412 05fc 5046     		mov	r0, sl
 2413 05fe 5946     		mov	r1, fp
 2414 0600 FFF7FEFF 		bl	ln_rad_to_deg
 2415              	.LVL424:
 2416 0604 0446     		mov	r4, r0
 2417 0606 0D46     		mov	r5, r1
 2418              	.LVL425:
 2419              		.loc 1 380 0
 2420 0608 4046     		mov	r0, r8
 2421 060a 4946     		mov	r1, r9
 2422 060c FFF7FEFF 		bl	ln_rad_to_deg
 2423              	.LVL426:
 2424 0610 CDE91801 		strd	r0, [sp, #96]
 2425              	.LVL427:
 2426              		.loc 1 383 0
 2427 0614 DDE90801 		ldrd	r0, [sp, #32]
 2428              	.LVL428:
 2429 0618 FFF7FEFF 		bl	ln_range_degrees
 2430              	.LVL429:
 2431              		.loc 1 384 0
 2432 061c 4FF40043 		mov	r3, #32768
 2433 0620 DDE90801 		ldrd	r0, [sp, #32]
 2434 0624 0022     		movs	r2, #0
 2435 0626 C4F26603 		movt	r3, 16486
 2436 062a FFF7FEFF 		bl	__aeabi_dcmpgt
 2437              	.LVL430:
 2438 062e 50B1     		cbz	r0, .L126
 2439              		.loc 1 385 0
 2440 0630 4FF40043 		mov	r3, #32768
 2441 0634 DDE90801 		ldrd	r0, [sp, #32]
ARM GAS  /tmp/ccj4yzJk.s 			page 44


 2442 0638 0022     		movs	r2, #0
 2443 063a C4F27603 		movt	r3, 16502
 2444 063e FFF7FEFF 		bl	__aeabi_dsub
 2445              	.LVL431:
 2446 0642 CDE90801 		strd	r0, [sp, #32]
 2447              	.LVL432:
 2448              	.L126:
 2449              		.loc 1 388 0
 2450 0646 DDE93223 		ldrd	r2, [sp, #200]
 2451 064a 2046     		mov	r0, r4
 2452 064c 2946     		mov	r1, r5
 2453 064e FFF7FEFF 		bl	__aeabi_dsub
 2454              	.LVL433:
 2455 0652 8246     		mov	sl, r0
 2456 0654 8B46     		mov	fp, r1
 2457 0656 DDE90A01 		ldrd	r0, [sp, #40]
 2458 065a FFF7FEFF 		bl	ln_deg_to_rad
 2459              	.LVL434:
 2460 065e FFF7FEFF 		bl	cos
 2461              	.LVL435:
 2462 0662 8046     		mov	r8, r0
 2463 0664 8946     		mov	r9, r1
 2464 0666 D7E90201 		ldrd	r0, [r7, #8]
 2465 066a FFF7FEFF 		bl	ln_deg_to_rad
 2466              	.LVL436:
 2467 066e FFF7FEFF 		bl	cos
 2468              	.LVL437:
 2469 0672 4FF40043 		mov	r3, #32768
 2470 0676 0446     		mov	r4, r0
 2471              	.LVL438:
 2472 0678 0D46     		mov	r5, r1
 2473 067a 4046     		mov	r0, r8
 2474 067c 4946     		mov	r1, r9
 2475 067e 0022     		movs	r2, #0
 2476 0680 C4F27603 		movt	r3, 16502
 2477 0684 FFF7FEFF 		bl	__aeabi_dmul
 2478              	.LVL439:
 2479 0688 2246     		mov	r2, r4
 2480 068a 2B46     		mov	r3, r5
 2481 068c FFF7FEFF 		bl	__aeabi_dmul
 2482              	.LVL440:
 2483 0690 0446     		mov	r4, r0
 2484 0692 0D46     		mov	r5, r1
 2485 0694 DDE91401 		ldrd	r0, [sp, #80]
 2486 0698 FFF7FEFF 		bl	ln_deg_to_rad
 2487              	.LVL441:
 2488 069c FFF7FEFF 		bl	sin
 2489              	.LVL442:
 2490 06a0 0246     		mov	r2, r0
 2491 06a2 0B46     		mov	r3, r1
 2492 06a4 2046     		mov	r0, r4
 2493 06a6 2946     		mov	r1, r5
 2494 06a8 FFF7FEFF 		bl	__aeabi_dmul
 2495              	.LVL443:
 2496 06ac 0246     		mov	r2, r0
 2497 06ae 0B46     		mov	r3, r1
 2498 06b0 5046     		mov	r0, sl
ARM GAS  /tmp/ccj4yzJk.s 			page 45


 2499 06b2 5946     		mov	r1, fp
 2500 06b4 FFF7FEFF 		bl	__aeabi_ddiv
 2501              	.LVL444:
 2502              		.loc 1 389 0
 2503 06b8 DDE93223 		ldrd	r2, [sp, #200]
 2504              		.loc 1 388 0
 2505 06bc 8246     		mov	sl, r0
 2506 06be 8B46     		mov	fp, r1
 2507              	.LVL445:
 2508              		.loc 1 389 0
 2509 06c0 DDE91801 		ldrd	r0, [sp, #96]
 2510 06c4 FFF7FEFF 		bl	__aeabi_dsub
 2511              	.LVL446:
 2512 06c8 CDE90601 		strd	r0, [sp, #24]
 2513 06cc DDE91201 		ldrd	r0, [sp, #72]
 2514 06d0 FFF7FEFF 		bl	ln_deg_to_rad
 2515              	.LVL447:
 2516 06d4 FFF7FEFF 		bl	cos
 2517              	.LVL448:
 2518 06d8 8046     		mov	r8, r0
 2519 06da 8946     		mov	r9, r1
 2520 06dc D7E90201 		ldrd	r0, [r7, #8]
 2521 06e0 FFF7FEFF 		bl	ln_deg_to_rad
 2522              	.LVL449:
 2523 06e4 FFF7FEFF 		bl	cos
 2524              	.LVL450:
 2525 06e8 4FF40043 		mov	r3, #32768
 2526 06ec 0446     		mov	r4, r0
 2527 06ee 0D46     		mov	r5, r1
 2528 06f0 4046     		mov	r0, r8
 2529 06f2 4946     		mov	r1, r9
 2530 06f4 0022     		movs	r2, #0
 2531 06f6 C4F27603 		movt	r3, 16502
 2532 06fa FFF7FEFF 		bl	__aeabi_dmul
 2533              	.LVL451:
 2534 06fe 2246     		mov	r2, r4
 2535 0700 2B46     		mov	r3, r5
 2536 0702 FFF7FEFF 		bl	__aeabi_dmul
 2537              	.LVL452:
 2538 0706 0446     		mov	r4, r0
 2539 0708 0D46     		mov	r5, r1
 2540 070a DDE91601 		ldrd	r0, [sp, #88]
 2541 070e FFF7FEFF 		bl	ln_deg_to_rad
 2542              	.LVL453:
 2543 0712 FFF7FEFF 		bl	sin
 2544              	.LVL454:
 2545              		.loc 1 393 0
 2546 0716 5246     		mov	r2, sl
 2547              		.loc 1 389 0
 2548 0718 8046     		mov	r8, r0
 2549 071a 8946     		mov	r9, r1
 2550              	.LVL455:
 2551              		.loc 1 393 0
 2552 071c 5B46     		mov	r3, fp
 2553 071e DDE90E01 		ldrd	r0, [sp, #56]
 2554 0722 FFF7FEFF 		bl	__aeabi_dadd
 2555              	.LVL456:
ARM GAS  /tmp/ccj4yzJk.s 			page 46


 2556 0726 0246     		mov	r2, r0
 2557 0728 0B46     		mov	r3, r1
 2558              		.loc 1 395 0
 2559 072a DDE90401 		ldrd	r0, [sp, #16]
 2560 072e FFF7FEFF 		bl	__aeabi_dadd
 2561              	.LVL457:
 2562              		.loc 1 387 0
 2563 0732 4FF40043 		mov	r3, #32768
 2564 0736 0022     		movs	r2, #0
 2565 0738 C4F27603 		movt	r3, 16502
 2566              		.loc 1 395 0
 2567 073c C6E90001 		strd	r0, [r6]
 2568              		.loc 1 387 0
 2569 0740 DDE90801 		ldrd	r0, [sp, #32]
 2570 0744 FFF7FEFF 		bl	__aeabi_ddiv
 2571              	.LVL458:
 2572 0748 0246     		mov	r2, r0
 2573 074a 0B46     		mov	r3, r1
 2574              		.loc 1 392 0
 2575 074c DDE90C01 		ldrd	r0, [sp, #48]
 2576 0750 FFF7FEFF 		bl	__aeabi_dsub
 2577              	.LVL459:
 2578 0754 0246     		mov	r2, r0
 2579 0756 0B46     		mov	r3, r1
 2580              		.loc 1 396 0
 2581 0758 DDE90401 		ldrd	r0, [sp, #16]
 2582 075c FFF7FEFF 		bl	__aeabi_dadd
 2583              	.LVL460:
 2584              		.loc 1 389 0
 2585 0760 4246     		mov	r2, r8
 2586              		.loc 1 396 0
 2587 0762 C6E90401 		strd	r0, [r6, #16]
 2588              		.loc 1 389 0
 2589 0766 4B46     		mov	r3, r9
 2590 0768 2046     		mov	r0, r4
 2591 076a 2946     		mov	r1, r5
 2592 076c FFF7FEFF 		bl	__aeabi_dmul
 2593              	.LVL461:
 2594 0770 0246     		mov	r2, r0
 2595 0772 0B46     		mov	r3, r1
 2596 0774 DDE90601 		ldrd	r0, [sp, #24]
 2597 0778 FFF7FEFF 		bl	__aeabi_ddiv
 2598              	.LVL462:
 2599 077c 0246     		mov	r2, r0
 2600 077e 0B46     		mov	r3, r1
 2601              		.loc 1 394 0
 2602 0780 DDE91001 		ldrd	r0, [sp, #64]
 2603 0784 FFF7FEFF 		bl	__aeabi_dadd
 2604              	.LVL463:
 2605 0788 0B46     		mov	r3, r1
 2606 078a 0246     		mov	r2, r0
 2607              		.loc 1 397 0
 2608 078c DDE90401 		ldrd	r0, [sp, #16]
 2609 0790 FFF7FEFF 		bl	__aeabi_dadd
 2610              	.LVL464:
 2611              		.loc 1 400 0
 2612 0794 0023     		movs	r3, #0
ARM GAS  /tmp/ccj4yzJk.s 			page 47


 2613              		.loc 1 397 0
 2614 0796 C6E90201 		strd	r0, [r6, #8]
 2615 079a E9E4     		b	.L145
 2616              	.LVL465:
 2617              	.L150:
 2618              		.loc 1 325 0
 2619 079c DDE90C01 		ldrd	r0, [sp, #48]
 2620 07a0 0022     		movs	r2, #0
 2621 07a2 0023     		movs	r3, #0
 2622 07a4 FFF7FEFF 		bl	__aeabi_dcmplt
 2623              	.LVL466:
 2624 07a8 0028     		cmp	r0, #0
 2625 07aa 3FF447AD 		beq	.L108
 2626              		.loc 1 326 0
 2627 07ae 0023     		movs	r3, #0
 2628 07b0 DDE90C01 		ldrd	r0, [sp, #48]
 2629 07b4 0022     		movs	r2, #0
 2630 07b6 C3F6F073 		movt	r3, 16368
 2631 07ba FFF7FEFF 		bl	__aeabi_dadd
 2632              	.LVL467:
 2633 07be CDE90C01 		strd	r0, [sp, #48]
 2634              	.LVL468:
 2635 07c2 3BE5     		b	.L108
 2636              	.LVL469:
 2637              	.L147:
 2638              		.loc 1 333 0
 2639 07c4 DDE91001 		ldrd	r0, [sp, #64]
 2640 07c8 0022     		movs	r2, #0
 2641 07ca 0023     		movs	r3, #0
 2642 07cc FFF7FEFF 		bl	__aeabi_dcmplt
 2643              	.LVL470:
 2644 07d0 0028     		cmp	r0, #0
 2645 07d2 3FF45DAD 		beq	.L116
 2646              		.loc 1 334 0
 2647 07d6 0023     		movs	r3, #0
 2648 07d8 DDE91001 		ldrd	r0, [sp, #64]
 2649 07dc 0022     		movs	r2, #0
 2650 07de C3F6F073 		movt	r3, 16368
 2651 07e2 FFF7FEFF 		bl	__aeabi_dadd
 2652              	.LVL471:
 2653 07e6 CDE91001 		strd	r0, [sp, #64]
 2654              	.LVL472:
 2655 07ea 51E5     		b	.L116
 2656              	.LVL473:
 2657              	.L146:
 2658              		.loc 1 329 0
 2659 07ec DDE90E01 		ldrd	r0, [sp, #56]
 2660 07f0 0022     		movs	r2, #0
 2661 07f2 0023     		movs	r3, #0
 2662 07f4 FFF7FEFF 		bl	__aeabi_dcmplt
 2663              	.LVL474:
 2664 07f8 0028     		cmp	r0, #0
 2665 07fa 3FF434AD 		beq	.L112
 2666              		.loc 1 330 0
 2667 07fe 0023     		movs	r3, #0
 2668 0800 DDE90E01 		ldrd	r0, [sp, #56]
 2669 0804 0022     		movs	r2, #0
ARM GAS  /tmp/ccj4yzJk.s 			page 48


 2670 0806 C3F6F073 		movt	r3, 16368
 2671 080a FFF7FEFF 		bl	__aeabi_dadd
 2672              	.LVL475:
 2673 080e CDE90E01 		strd	r0, [sp, #56]
 2674              	.LVL476:
 2675 0812 28E5     		b	.L112
 2676              		.cfi_endproc
 2677              	.LFE7:
 2678              		.size	ln_get_body_rst_horizon, .-ln_get_body_rst_horizon
 2679 0814 AFF30080 		.section	.text.ln_get_body_next_rst_horizon_future,"ax",%progbits
 2679      AFF30080 
 2679      AFF30080 
 2680              		.align	2
 2681              		.p2align 4,,15
 2682              		.global	ln_get_body_next_rst_horizon_future
 2683              		.thumb
 2684              		.thumb_func
 2685              		.type	ln_get_body_next_rst_horizon_future, %function
 2686              	ln_get_body_next_rst_horizon_future:
 2687              	.LFB9:
 2688              		.loc 1 456 0
 2689              		.cfi_startproc
 2690              		@ args = 16, pretend = 0, frame = 96
 2691              		@ frame_needed = 0, uses_anonymous_args = 0
 2692              	.LVL477:
 2693 0000 2DE9F04F 		push	{r4, r5, r6, r7, r8, r9, sl, fp, lr}
 2694              	.LCFI13:
 2695              		.cfi_def_cfa_offset 36
 2696              		.cfi_offset 4, -36
 2697              		.cfi_offset 5, -32
 2698              		.cfi_offset 6, -28
 2699              		.cfi_offset 7, -24
 2700              		.cfi_offset 8, -20
 2701              		.cfi_offset 9, -16
 2702              		.cfi_offset 10, -12
 2703              		.cfi_offset 11, -8
 2704              		.cfi_offset 14, -4
 2705 0004 9DB0     		sub	sp, sp, #116
 2706              	.LCFI14:
 2707              		.cfi_def_cfa_offset 152
 2708              		.loc 1 459 0
 2709 0006 DDE92645 		ldrd	r4, [sp, #152]
 2710              		.loc 1 456 0
 2711 000a DDF8A480 		ldr	r8, [sp, #164]
 2712 000e DDF8A0B0 		ldr	fp, [sp, #160]
 2713              		.loc 1 459 0
 2714 0012 CDF80880 		str	r8, [sp, #8]
 2715 0016 CDE90045 		strd	r4, [sp]
 2716              		.loc 1 456 0
 2717 001a CDE90401 		strd	r0, [sp, #16]
 2718 001e 1746     		mov	r7, r2
 2719 0020 9946     		mov	r9, r3
 2720              		.loc 1 459 0
 2721 0022 FFF7FEFF 		bl	ln_get_body_rst_horizon
 2722              	.LVL478:
 2723              		.loc 1 460 0
 2724 0026 0446     		mov	r4, r0
ARM GAS  /tmp/ccj4yzJk.s 			page 49


 2725 0028 0028     		cmp	r0, #0
 2726 002a 00F0ED80 		beq	.L155
 2727              		.loc 1 460 0 is_stmt 0 discriminator 1
 2728 002e BBF1010F 		cmp	fp, #1
 2729 0032 00F0E580 		beq	.L179
 2730              	.LVL479:
 2731              	.LBB80:
 2732              	.LBB81:
 2733              		.loc 1 198 0 is_stmt 1
 2734 0036 0023     		movs	r3, #0
 2735 0038 0022     		movs	r2, #0
 2736 003a C3F6F073 		movt	r3, 16368
 2737 003e D8E90001 		ldrd	r0, [r8]
 2738              	.LVL480:
 2739 0042 FFF7FEFF 		bl	__aeabi_dsub
 2740              	.LVL481:
 2741              		.loc 1 199 0
 2742 0046 0023     		movs	r3, #0
 2743 0048 0022     		movs	r2, #0
 2744 004a C3F6F073 		movt	r3, 16368
 2745              		.loc 1 198 0
 2746 004e CDE91001 		strd	r0, [sp, #64]
 2747              		.loc 1 199 0
 2748 0052 D8E90401 		ldrd	r0, [r8, #16]
 2749 0056 FFF7FEFF 		bl	__aeabi_dsub
 2750              	.LVL482:
 2751              		.loc 1 200 0
 2752 005a 0023     		movs	r3, #0
 2753              		.loc 1 199 0
 2754 005c CDE91401 		strd	r0, [sp, #80]
 2755              		.loc 1 200 0
 2756 0060 0022     		movs	r2, #0
 2757 0062 C3F6F073 		movt	r3, 16368
 2758 0066 D8E90201 		ldrd	r0, [r8, #8]
 2759 006a FFF7FEFF 		bl	__aeabi_dsub
 2760              	.LVL483:
 2761 006e CDE91201 		strd	r0, [sp, #72]
 2762              	.LVL484:
 2763              	.L162:
 2764              	.LBE81:
 2765              	.LBE80:
 2766              	.LBB83:
 2767              		.loc 1 479 0 discriminator 1
 2768 0072 0125     		movs	r5, #1
 2769 0074 BBF1000F 		cmp	fp, #0
 2770 0078 67DD     		ble	.L166
 2771              		.loc 1 481 0
 2772 007a 0120     		movs	r0, #1
 2773 007c 0BF1FF36 		add	r6, fp, #-1
 2774 0080 0640     		ands	r6, r6, r0
 2775 0082 FFF7FEFF 		bl	__aeabi_i2d
 2776              	.LVL485:
 2777 0086 DDE90423 		ldrd	r2, [sp, #16]
 2778 008a FFF7FEFF 		bl	__aeabi_dadd
 2779              	.LVL486:
 2780 008e DDE92645 		ldrd	r4, [sp, #152]
 2781              	.LVL487:
ARM GAS  /tmp/ccj4yzJk.s 			page 50


 2782 0092 0DF1580A 		add	sl, sp, #88
 2783 0096 CDE90045 		strd	r4, [sp]
 2784 009a CDF808A0 		str	sl, [sp, #8]
 2785 009e 3A46     		mov	r2, r7
 2786 00a0 4B46     		mov	r3, r9
 2787 00a2 FFF7FEFF 		bl	ln_get_body_rst_horizon
 2788              	.LVL488:
 2789              		.loc 1 482 0
 2790 00a6 0446     		mov	r4, r0
 2791 00a8 0028     		cmp	r0, #0
 2792 00aa 4CD0     		beq	.L196
 2793              		.loc 1 487 0
 2794 00ac 0225     		movs	r5, #2
 2795              	.LVL489:
 2796              		.loc 1 479 0
 2797 00ae AB45     		cmp	fp, r5
 2798 00b0 4BDB     		blt	.L166
 2799 00b2 B6B1     		cbz	r6, .L198
 2800              		.loc 1 481 0
 2801 00b4 2846     		mov	r0, r5
 2802 00b6 FFF7FEFF 		bl	__aeabi_i2d
 2803              	.LVL490:
 2804 00ba DDE90423 		ldrd	r2, [sp, #16]
 2805 00be FFF7FEFF 		bl	__aeabi_dadd
 2806              	.LVL491:
 2807 00c2 DDE92645 		ldrd	r4, [sp, #152]
 2808 00c6 CDF808A0 		str	sl, [sp, #8]
 2809 00ca CDE90045 		strd	r4, [sp]
 2810 00ce 3A46     		mov	r2, r7
 2811 00d0 4B46     		mov	r3, r9
 2812 00d2 FFF7FEFF 		bl	ln_get_body_rst_horizon
 2813              	.LVL492:
 2814              		.loc 1 482 0
 2815 00d6 0446     		mov	r4, r0
 2816 00d8 0028     		cmp	r0, #0
 2817 00da 34D0     		beq	.L196
 2818              		.loc 1 487 0
 2819 00dc 0325     		movs	r5, #3
 2820              	.LVL493:
 2821              		.loc 1 479 0
 2822 00de AB45     		cmp	fp, r5
 2823 00e0 33DB     		blt	.L166
 2824              	.L198:
 2825 00e2 3C46     		mov	r4, r7
 2826 00e4 CDF81880 		str	r8, [sp, #24]
 2827 00e8 DDE92667 		ldrd	r6, [sp, #152]
 2828 00ec 12E0     		b	.L165
 2829              	.LVL494:
 2830              	.L168:
 2831              		.loc 1 481 0
 2832 00ee FFF7FEFF 		bl	__aeabi_i2d
 2833              	.LVL495:
 2834 00f2 DDE90423 		ldrd	r2, [sp, #16]
 2835 00f6 FFF7FEFF 		bl	__aeabi_dadd
 2836              	.LVL496:
 2837 00fa CDE90067 		strd	r6, [sp]
 2838 00fe CDF808A0 		str	sl, [sp, #8]
ARM GAS  /tmp/ccj4yzJk.s 			page 51


 2839 0102 2246     		mov	r2, r4
 2840 0104 4B46     		mov	r3, r9
 2841 0106 FFF7FEFF 		bl	ln_get_body_rst_horizon
 2842              	.LVL497:
 2843              		.loc 1 482 0
 2844 010a 0146     		mov	r1, r0
 2845 010c C0B1     		cbz	r0, .L199
 2846              		.loc 1 479 0
 2847 010e AB45     		cmp	fp, r5
 2848 0110 C0F24481 		blt	.L200
 2849              	.L165:
 2850              		.loc 1 481 0
 2851 0114 2846     		mov	r0, r5
 2852 0116 FFF7FEFF 		bl	__aeabi_i2d
 2853              	.LVL498:
 2854 011a DDE90423 		ldrd	r2, [sp, #16]
 2855 011e FFF7FEFF 		bl	__aeabi_dadd
 2856              	.LVL499:
 2857 0122 2246     		mov	r2, r4
 2858 0124 4B46     		mov	r3, r9
 2859 0126 CDE90067 		strd	r6, [sp]
 2860 012a CDF808A0 		str	sl, [sp, #8]
 2861 012e FFF7FEFF 		bl	ln_get_body_rst_horizon
 2862              	.LVL500:
 2863              		.loc 1 487 0
 2864 0132 05F10108 		add	r8, r5, #1
 2865              		.loc 1 482 0
 2866 0136 0146     		mov	r1, r0
 2867              		.loc 1 487 0
 2868 0138 0235     		adds	r5, r5, #2
 2869              		.loc 1 481 0
 2870 013a 4046     		mov	r0, r8
 2871              		.loc 1 482 0
 2872 013c 0029     		cmp	r1, #0
 2873 013e D6D1     		bne	.L168
 2874              	.L199:
 2875 0140 DDF81880 		ldr	r8, [sp, #24]
 2876 0144 0C46     		mov	r4, r1
 2877              	.LVL501:
 2878              	.L196:
 2879              		.loc 1 484 0
 2880 0146 0BF10205 		add	r5, fp, #2
 2881              	.LVL502:
 2882              	.L166:
 2883              		.loc 1 489 0
 2884 014a 0BF1010B 		add	fp, fp, #1
 2885 014e AB45     		cmp	fp, r5
 2886 0150 56D0     		beq	.L179
 2887 0152 D8E90067 		ldrd	r6, [r8]
 2888 0156 D8E90423 		ldrd	r2, [r8, #16]
 2889 015a DDE91A01 		ldrd	r0, [sp, #104]
 2890 015e D8E90245 		ldrd	r4, [r8, #8]
 2891              	.LVL503:
 2892 0162 CDE90A67 		strd	r6, [sp, #40]
 2893 0166 CDE90823 		strd	r2, [sp, #32]
 2894 016a DDE91667 		ldrd	r6, [sp, #88]
 2895 016e CDE90601 		strd	r0, [sp, #24]
ARM GAS  /tmp/ccj4yzJk.s 			page 52


 2896 0172 CDE90C45 		strd	r4, [sp, #48]
 2897 0176 DDE918AB 		ldrd	sl, [sp, #96]
 2898              	.LVL504:
 2899              	.L169:
 2900              	.LBE83:
 2901              		.loc 1 498 0
 2902 017a DDE91045 		ldrd	r4, [sp, #64]
 2903              	.LVL505:
 2904              	.LBB84:
 2905              	.LBB85:
 2906              		.loc 1 205 0
 2907 017e DDE90401 		ldrd	r0, [sp, #16]
 2908 0182 2246     		mov	r2, r4
 2909 0184 2B46     		mov	r3, r5
 2910 0186 FFF7FEFF 		bl	__aeabi_dcmplt
 2911              	.LVL506:
 2912 018a 50B9     		cbnz	r0, .L170
 2913              		.loc 1 207 0
 2914 018c DDE90401 		ldrd	r0, [sp, #16]
 2915 0190 DDE90A23 		ldrd	r2, [sp, #40]
 2916 0194 FFF7FEFF 		bl	__aeabi_dcmplt
 2917              	.LVL507:
 2918 0198 0028     		cmp	r0, #0
 2919 019a 00F0FC80 		beq	.L201
 2920              		.loc 1 208 0
 2921 019e DDE90A45 		ldrd	r4, [sp, #40]
 2922              	.LVL508:
 2923              	.L170:
 2924              	.LBE85:
 2925              	.LBE84:
 2926              		.loc 1 499 0
 2927 01a2 DDE91467 		ldrd	r6, [sp, #80]
 2928              	.LVL509:
 2929              		.loc 1 498 0
 2930 01a6 C8E90045 		strd	r4, [r8]
 2931              	.LBB87:
 2932              	.LBB88:
 2933              		.loc 1 205 0
 2934 01aa DDE90401 		ldrd	r0, [sp, #16]
 2935 01ae 3246     		mov	r2, r6
 2936 01b0 3B46     		mov	r3, r7
 2937 01b2 FFF7FEFF 		bl	__aeabi_dcmplt
 2938              	.LVL510:
 2939 01b6 50B9     		cbnz	r0, .L171
 2940              		.loc 1 207 0
 2941 01b8 DDE90401 		ldrd	r0, [sp, #16]
 2942 01bc DDE90823 		ldrd	r2, [sp, #32]
 2943 01c0 FFF7FEFF 		bl	__aeabi_dcmplt
 2944              	.LVL511:
 2945 01c4 0028     		cmp	r0, #0
 2946 01c6 00F0E380 		beq	.L202
 2947              		.loc 1 208 0
 2948 01ca DDE90867 		ldrd	r6, [sp, #32]
 2949              	.LVL512:
 2950              	.L171:
 2951              	.LBE88:
 2952              	.LBE87:
ARM GAS  /tmp/ccj4yzJk.s 			page 53


 2953              		.loc 1 500 0
 2954 01ce DDE91245 		ldrd	r4, [sp, #72]
 2955              	.LVL513:
 2956              		.loc 1 499 0
 2957 01d2 C8E90467 		strd	r6, [r8, #16]
 2958              	.LBB90:
 2959              	.LBB91:
 2960              		.loc 1 205 0
 2961 01d6 DDE90401 		ldrd	r0, [sp, #16]
 2962 01da 2246     		mov	r2, r4
 2963 01dc 2B46     		mov	r3, r5
 2964 01de FFF7FEFF 		bl	__aeabi_dcmplt
 2965              	.LVL514:
 2966 01e2 50B9     		cbnz	r0, .L172
 2967              		.loc 1 207 0
 2968 01e4 DDE90401 		ldrd	r0, [sp, #16]
 2969 01e8 DDE90C23 		ldrd	r2, [sp, #48]
 2970 01ec FFF7FEFF 		bl	__aeabi_dcmplt
 2971              	.LVL515:
 2972 01f0 0028     		cmp	r0, #0
 2973 01f2 00F0C780 		beq	.L203
 2974              		.loc 1 208 0
 2975 01f6 DDE90C45 		ldrd	r4, [sp, #48]
 2976              	.LVL516:
 2977              	.L172:
 2978              	.LBE91:
 2979              	.LBE90:
 2980              		.loc 1 500 0
 2981 01fa C8E90245 		strd	r4, [r8, #8]
 2982              		.loc 1 501 0
 2983 01fe 0024     		movs	r4, #0
 2984              	.LVL517:
 2985              	.L179:
 2986              		.loc 1 502 0
 2987 0200 2046     		mov	r0, r4
 2988 0202 1DB0     		add	sp, sp, #116
 2989 0204 BDE8F08F 		pop	{r4, r5, r6, r7, r8, r9, sl, fp, pc}
 2990              	.LVL518:
 2991              	.L155:
 2992              		.loc 1 464 0 discriminator 1
 2993 0208 D8E90023 		ldrd	r2, [r8]
 2994 020c CDE90A23 		strd	r2, [sp, #40]
 2995 0210 0023     		movs	r3, #0
 2996 0212 0022     		movs	r2, #0
 2997 0214 C3F6E073 		movt	r3, 16352
 2998 0218 DDE90401 		ldrd	r0, [sp, #16]
 2999              	.LVL519:
 3000 021c FFF7FEFF 		bl	__aeabi_dadd
 3001              	.LVL520:
 3002 0220 CDE90801 		strd	r0, [sp, #32]
 3003 0224 DDE90823 		ldrd	r2, [sp, #32]
 3004 0228 DDE90A01 		ldrd	r0, [sp, #40]
 3005 022c FFF7FEFF 		bl	__aeabi_dcmpgt
 3006              	.LVL521:
 3007 0230 0028     		cmp	r0, #0
 3008 0232 30D1     		bne	.L158
 3009 0234 D8E90423 		ldrd	r2, [r8, #16]
ARM GAS  /tmp/ccj4yzJk.s 			page 54


 3010 0238 DDE90801 		ldrd	r0, [sp, #32]
 3011 023c CDE90C23 		strd	r2, [sp, #48]
 3012 0240 FFF7FEFF 		bl	__aeabi_dcmplt
 3013              	.LVL522:
 3014 0244 38BB     		cbnz	r0, .L158
 3015 0246 D8E90223 		ldrd	r2, [r8, #8]
 3016 024a DDE90801 		ldrd	r0, [sp, #32]
 3017 024e CDE90E23 		strd	r2, [sp, #56]
 3018 0252 FFF7FEFF 		bl	__aeabi_dcmplt
 3019              	.LVL523:
 3020 0256 F0B9     		cbnz	r0, .L158
 3021              	.LVL524:
 3022              	.LBB93:
 3023              	.LBB82:
 3024              		.loc 1 198 0
 3025 0258 0023     		movs	r3, #0
 3026 025a 0022     		movs	r2, #0
 3027 025c C3F6F073 		movt	r3, 16368
 3028 0260 DDE90A01 		ldrd	r0, [sp, #40]
 3029 0264 FFF7FEFF 		bl	__aeabi_dsub
 3030              	.LVL525:
 3031              		.loc 1 199 0
 3032 0268 0023     		movs	r3, #0
 3033 026a 0022     		movs	r2, #0
 3034 026c C3F6F073 		movt	r3, 16368
 3035              		.loc 1 198 0
 3036 0270 CDE91001 		strd	r0, [sp, #64]
 3037              		.loc 1 199 0
 3038 0274 DDE90C01 		ldrd	r0, [sp, #48]
 3039 0278 FFF7FEFF 		bl	__aeabi_dsub
 3040              	.LVL526:
 3041              		.loc 1 200 0
 3042 027c 0023     		movs	r3, #0
 3043              		.loc 1 199 0
 3044 027e CDE91401 		strd	r0, [sp, #80]
 3045              		.loc 1 200 0
 3046 0282 0022     		movs	r2, #0
 3047 0284 C3F6F073 		movt	r3, 16368
 3048 0288 DDE90E01 		ldrd	r0, [sp, #56]
 3049 028c FFF7FEFF 		bl	__aeabi_dsub
 3050              	.LVL527:
 3051 0290 CDE91201 		strd	r0, [sp, #72]
 3052              	.LVL528:
 3053 0294 18E0     		b	.L173
 3054              	.LVL529:
 3055              	.L158:
 3056              	.LBE82:
 3057              	.LBE93:
 3058              		.loc 1 466 0
 3059 0296 0023     		movs	r3, #0
 3060 0298 0022     		movs	r2, #0
 3061 029a C3F6F073 		movt	r3, 16368
 3062 029e DDE90401 		ldrd	r0, [sp, #16]
 3063 02a2 FFF7FEFF 		bl	__aeabi_dsub
 3064              	.LVL530:
 3065 02a6 DDE92623 		ldrd	r2, [sp, #152]
 3066 02aa CDE90023 		strd	r2, [sp]
ARM GAS  /tmp/ccj4yzJk.s 			page 55


 3067 02ae 10AB     		add	r3, sp, #64
 3068 02b0 0293     		str	r3, [sp, #8]
 3069 02b2 3A46     		mov	r2, r7
 3070 02b4 4B46     		mov	r3, r9
 3071 02b6 FFF7FEFF 		bl	ln_get_body_rst_horizon
 3072              	.LVL531:
 3073              		.loc 1 467 0
 3074 02ba 0546     		mov	r5, r0
 3075 02bc 0028     		cmp	r0, #0
 3076 02be 41D1     		bne	.L204
 3077 02c0 D8E90001 		ldrd	r0, [r8]
 3078              	.LVL532:
 3079 02c4 CDE90A01 		strd	r0, [sp, #40]
 3080              	.LVL533:
 3081              	.L173:
 3082              		.loc 1 475 0 discriminator 1
 3083 02c8 DDE90401 		ldrd	r0, [sp, #16]
 3084 02cc DDE90A23 		ldrd	r2, [sp, #40]
 3085 02d0 FFF7FEFF 		bl	__aeabi_dcmpgt
 3086              	.LVL534:
 3087 02d4 0028     		cmp	r0, #0
 3088 02d6 7FF4CCAE 		bne	.L162
 3089 02da D8E90423 		ldrd	r2, [r8, #16]
 3090 02de DDE90401 		ldrd	r0, [sp, #16]
 3091 02e2 CDE90823 		strd	r2, [sp, #32]
 3092 02e6 FFF7FEFF 		bl	__aeabi_dcmpgt
 3093              	.LVL535:
 3094 02ea 0028     		cmp	r0, #0
 3095 02ec 7FF4C1AE 		bne	.L162
 3096 02f0 D8E90223 		ldrd	r2, [r8, #8]
 3097 02f4 DDE90401 		ldrd	r0, [sp, #16]
 3098 02f8 CDE90C23 		strd	r2, [sp, #48]
 3099 02fc FFF7FEFF 		bl	__aeabi_dcmpgt
 3100              	.LVL536:
 3101 0300 0028     		cmp	r0, #0
 3102 0302 7FF4B6AE 		bne	.L162
 3103              	.LVL537:
 3104              	.LBB94:
 3105              	.LBB95:
 3106              		.loc 1 198 0
 3107 0306 0023     		movs	r3, #0
 3108 0308 0022     		movs	r2, #0
 3109 030a C3F6F073 		movt	r3, 16368
 3110 030e DDE90A01 		ldrd	r0, [sp, #40]
 3111 0312 FFF7FEFF 		bl	__aeabi_dadd
 3112              	.LVL538:
 3113              		.loc 1 199 0
 3114 0316 0023     		movs	r3, #0
 3115 0318 0022     		movs	r2, #0
 3116 031a C3F6F073 		movt	r3, 16368
 3117              		.loc 1 198 0
 3118 031e 0646     		mov	r6, r0
 3119 0320 0F46     		mov	r7, r1
 3120              	.LVL539:
 3121              		.loc 1 199 0
 3122 0322 DDE90801 		ldrd	r0, [sp, #32]
 3123 0326 FFF7FEFF 		bl	__aeabi_dadd
ARM GAS  /tmp/ccj4yzJk.s 			page 56


 3124              	.LVL540:
 3125              		.loc 1 200 0
 3126 032a 0023     		movs	r3, #0
 3127              		.loc 1 199 0
 3128 032c CDE90601 		strd	r0, [sp, #24]
 3129              		.loc 1 200 0
 3130 0330 0022     		movs	r2, #0
 3131 0332 DDE90C01 		ldrd	r0, [sp, #48]
 3132 0336 C3F6F073 		movt	r3, 16368
 3133 033a FFF7FEFF 		bl	__aeabi_dadd
 3134              	.LVL541:
 3135 033e 8246     		mov	sl, r0
 3136 0340 8B46     		mov	fp, r1
 3137 0342 1AE7     		b	.L169
 3138              	.LVL542:
 3139              	.L204:
 3140              	.LBE95:
 3141              	.LBE94:
 3142              	.LBB96:
 3143              	.LBB97:
 3144              		.loc 1 198 0
 3145 0344 0023     		movs	r3, #0
 3146 0346 0022     		movs	r2, #0
 3147 0348 C3F6F073 		movt	r3, 16368
 3148 034c D8E90001 		ldrd	r0, [r8]
 3149              	.LVL543:
 3150 0350 FFF7FEFF 		bl	__aeabi_dsub
 3151              	.LVL544:
 3152              		.loc 1 199 0
 3153 0354 0023     		movs	r3, #0
 3154 0356 0022     		movs	r2, #0
 3155 0358 C3F6F073 		movt	r3, 16368
 3156              		.loc 1 198 0
 3157 035c CDE91001 		strd	r0, [sp, #64]
 3158              		.loc 1 199 0
 3159 0360 D8E90401 		ldrd	r0, [r8, #16]
 3160 0364 FFF7FEFF 		bl	__aeabi_dsub
 3161              	.LVL545:
 3162              		.loc 1 200 0
 3163 0368 0023     		movs	r3, #0
 3164              		.loc 1 199 0
 3165 036a CDE91401 		strd	r0, [sp, #80]
 3166              		.loc 1 200 0
 3167 036e 0022     		movs	r2, #0
 3168 0370 C3F6F073 		movt	r3, 16368
 3169 0374 D8E90201 		ldrd	r0, [r8, #8]
 3170 0378 FFF7FEFF 		bl	__aeabi_dsub
 3171              	.LVL546:
 3172 037c 2C46     		mov	r4, r5
 3173 037e CDE91201 		strd	r0, [sp, #72]
 3174              	.LVL547:
 3175 0382 76E6     		b	.L162
 3176              	.LVL548:
 3177              	.L203:
 3178              	.LBE97:
 3179              	.LBE96:
 3180              	.LBB98:
ARM GAS  /tmp/ccj4yzJk.s 			page 57


 3181              	.LBB92:
 3182              		.loc 1 209 0
 3183 0384 5446     		mov	r4, sl
 3184              	.LVL549:
 3185 0386 5D46     		mov	r5, fp
 3186              	.LBE92:
 3187              	.LBE98:
 3188              		.loc 1 500 0
 3189 0388 C8E90245 		strd	r4, [r8, #8]
 3190              		.loc 1 501 0
 3191 038c 0024     		movs	r4, #0
 3192 038e 37E7     		b	.L179
 3193              	.LVL550:
 3194              	.L202:
 3195              	.LBB99:
 3196              	.LBB89:
 3197              		.loc 1 209 0
 3198 0390 DDE90667 		ldrd	r6, [sp, #24]
 3199              	.LVL551:
 3200 0394 1BE7     		b	.L171
 3201              	.LVL552:
 3202              	.L201:
 3203              	.LBE89:
 3204              	.LBE99:
 3205              	.LBB100:
 3206              	.LBB86:
 3207 0396 3446     		mov	r4, r6
 3208              	.LVL553:
 3209 0398 3D46     		mov	r5, r7
 3210 039a 02E7     		b	.L170
 3211              	.LVL554:
 3212              	.L200:
 3213 039c 0446     		mov	r4, r0
 3214              	.LVL555:
 3215 039e DDF81880 		ldr	r8, [sp, #24]
 3216 03a2 D2E6     		b	.L166
 3217              	.LBE86:
 3218              	.LBE100:
 3219              		.cfi_endproc
 3220              	.LFE9:
 3221              		.size	ln_get_body_next_rst_horizon_future, .-ln_get_body_next_rst_horizon_future
 3222 03a4 AFF30080 		.section	.text.ln_get_body_next_rst_horizon,"ax",%progbits
 3222      AFF30080 
 3222      AFF30080 
 3223              		.align	2
 3224              		.p2align 4,,15
 3225              		.global	ln_get_body_next_rst_horizon
 3226              		.thumb
 3227              		.thumb_func
 3228              		.type	ln_get_body_next_rst_horizon, %function
 3229              	ln_get_body_next_rst_horizon:
 3230              	.LFB8:
 3231              		.loc 1 428 0
 3232              		.cfi_startproc
 3233              		@ args = 12, pretend = 0, frame = 0
 3234              		@ frame_needed = 0, uses_anonymous_args = 0
 3235              	.LVL556:
ARM GAS  /tmp/ccj4yzJk.s 			page 58


 3236 0000 30B5     		push	{r4, r5, lr}
 3237              	.LCFI15:
 3238              		.cfi_def_cfa_offset 12
 3239              		.cfi_offset 4, -12
 3240              		.cfi_offset 5, -8
 3241              		.cfi_offset 14, -4
 3242 0002 85B0     		sub	sp, sp, #20
 3243              	.LCFI16:
 3244              		.cfi_def_cfa_offset 32
 3245              		.loc 1 428 0
 3246 0004 DDE90845 		ldrd	r4, [sp, #32]
 3247              		.loc 1 429 0
 3248 0008 CDE90045 		strd	r4, [sp]
 3249 000c 0124     		movs	r4, #1
 3250 000e 0294     		str	r4, [sp, #8]
 3251 0010 0A9C     		ldr	r4, [sp, #40]
 3252 0012 0394     		str	r4, [sp, #12]
 3253 0014 FFF7FEFF 		bl	ln_get_body_next_rst_horizon_future
 3254              	.LVL557:
 3255              		.loc 1 430 0
 3256 0018 05B0     		add	sp, sp, #20
 3257 001a 30BD     		pop	{r4, r5, pc}
 3258              		.cfi_endproc
 3259              	.LFE8:
 3260              		.size	ln_get_body_next_rst_horizon, .-ln_get_body_next_rst_horizon
 3261 001c AFF30080 		.section	.text.ln_get_motion_body_rst_horizon,"ax",%progbits
 3262              		.align	2
 3263              		.p2align 4,,15
 3264              		.global	ln_get_motion_body_rst_horizon
 3265              		.thumb
 3266              		.thumb_func
 3267              		.type	ln_get_motion_body_rst_horizon, %function
 3268              	ln_get_motion_body_rst_horizon:
 3269              	.LFB10:
 3270              		.loc 1 521 0
 3271              		.cfi_startproc
 3272              		@ args = 20, pretend = 0, frame = 144
 3273              		@ frame_needed = 0, uses_anonymous_args = 0
 3274              	.LVL558:
 3275 0000 2DE9F04F 		push	{r4, r5, r6, r7, r8, r9, sl, fp, lr}
 3276              	.LCFI17:
 3277              		.cfi_def_cfa_offset 36
 3278              		.cfi_offset 4, -36
 3279              		.cfi_offset 5, -32
 3280              		.cfi_offset 6, -28
 3281              		.cfi_offset 7, -24
 3282              		.cfi_offset 8, -20
 3283              		.cfi_offset 9, -16
 3284              		.cfi_offset 10, -12
 3285              		.cfi_offset 11, -8
 3286              		.cfi_offset 14, -4
 3287 0004 A9B0     		sub	sp, sp, #164
 3288              	.LCFI18:
 3289              		.cfi_def_cfa_offset 200
 3290              		.loc 1 521 0
 3291 0006 9846     		mov	r8, r3
 3292 0008 1746     		mov	r7, r2
ARM GAS  /tmp/ccj4yzJk.s 			page 59


 3293 000a 329E     		ldr	r6, [sp, #200]
 3294 000c 0446     		mov	r4, r0
 3295 000e 0D46     		mov	r5, r1
 3296              		.loc 1 531 0
 3297 0010 FFF7FEFF 		bl	ln_get_dynamical_time_diff
 3298              	.LVL559:
 3299 0014 CDE90601 		strd	r0, [sp, #24]
 3300              	.LVL560:
 3301              		.loc 1 535 0
 3302 0018 2946     		mov	r1, r5
 3303 001a 2046     		mov	r0, r4
 3304              	.LVL561:
 3305 001c FFF7FEFF 		bl	__aeabi_d2iz
 3306              	.LVL562:
 3307              		.loc 1 536 0
 3308 0020 FFF7FEFF 		bl	__aeabi_i2d
 3309              	.LVL563:
 3310 0024 0023     		movs	r3, #0
 3311 0026 0022     		movs	r2, #0
 3312 0028 C3F6E073 		movt	r3, 16352
 3313 002c FFF7FEFF 		bl	__aeabi_dadd
 3314              	.LVL564:
 3315 0030 CDE90401 		strd	r0, [sp, #16]
 3316              	.LVL565:
 3317              		.loc 1 537 0
 3318 0034 FFF7FEFF 		bl	ln_get_apparent_sidereal_time
 3319              	.LVL566:
 3320              		.loc 1 541 0
 3321 0038 0023     		movs	r3, #0
 3322 003a 0022     		movs	r2, #0
 3323 003c C3F6F073 		movt	r3, 16368
 3324              		.loc 1 537 0
 3325 0040 8246     		mov	sl, r0
 3326 0042 8B46     		mov	fp, r1
 3327              	.LVL567:
 3328              		.loc 1 541 0
 3329 0044 DDE90401 		ldrd	r0, [sp, #16]
 3330 0048 FFF7FEFF 		bl	__aeabi_dsub
 3331              	.LVL568:
 3332 004c 3246     		mov	r2, r6
 3333 004e 1CAB     		add	r3, sp, #112
 3334 0050 C047     		blx	r8
 3335              	.LVL569:
 3336              		.loc 1 542 0
 3337 0052 DDE90401 		ldrd	r0, [sp, #16]
 3338 0056 3246     		mov	r2, r6
 3339 0058 20AB     		add	r3, sp, #128
 3340 005a C047     		blx	r8
 3341              	.LVL570:
 3342              		.loc 1 543 0
 3343 005c 0023     		movs	r3, #0
 3344 005e 0022     		movs	r2, #0
 3345 0060 DDE90401 		ldrd	r0, [sp, #16]
 3346 0064 C3F6F073 		movt	r3, 16368
 3347 0068 FFF7FEFF 		bl	__aeabi_dadd
 3348              	.LVL571:
 3349 006c 3246     		mov	r2, r6
ARM GAS  /tmp/ccj4yzJk.s 			page 60


 3350 006e 24AB     		add	r3, sp, #144
 3351 0070 C047     		blx	r8
 3352              	.LVL572:
 3353              		.loc 1 546 0
 3354 0072 DDE93401 		ldrd	r0, [sp, #208]
 3355 0076 FFF7FEFF 		bl	ln_deg_to_rad
 3356              	.LVL573:
 3357 007a FFF7FEFF 		bl	sin
 3358              	.LVL574:
 3359 007e 0446     		mov	r4, r0
 3360              	.LVL575:
 3361 0080 0D46     		mov	r5, r1
 3362 0082 D7E90201 		ldrd	r0, [r7, #8]
 3363 0086 FFF7FEFF 		bl	ln_deg_to_rad
 3364              	.LVL576:
 3365 008a FFF7FEFF 		bl	sin
 3366              	.LVL577:
 3367 008e 8046     		mov	r8, r0
 3368              	.LVL578:
 3369 0090 8946     		mov	r9, r1
 3370 0092 DDE92201 		ldrd	r0, [sp, #136]
 3371 0096 FFF7FEFF 		bl	ln_deg_to_rad
 3372              	.LVL579:
 3373 009a FFF7FEFF 		bl	sin
 3374              	.LVL580:
 3375 009e 0246     		mov	r2, r0
 3376 00a0 0B46     		mov	r3, r1
 3377 00a2 4046     		mov	r0, r8
 3378 00a4 4946     		mov	r1, r9
 3379 00a6 FFF7FEFF 		bl	__aeabi_dmul
 3380              	.LVL581:
 3381 00aa 0246     		mov	r2, r0
 3382 00ac 0B46     		mov	r3, r1
 3383 00ae 2046     		mov	r0, r4
 3384 00b0 2946     		mov	r1, r5
 3385 00b2 FFF7FEFF 		bl	__aeabi_dsub
 3386              	.LVL582:
 3387 00b6 0446     		mov	r4, r0
 3388 00b8 0D46     		mov	r5, r1
 3389              	.LVL583:
 3390              		.loc 1 547 0
 3391 00ba D7E90201 		ldrd	r0, [r7, #8]
 3392 00be FFF7FEFF 		bl	ln_deg_to_rad
 3393              	.LVL584:
 3394 00c2 FFF7FEFF 		bl	cos
 3395              	.LVL585:
 3396 00c6 8046     		mov	r8, r0
 3397 00c8 8946     		mov	r9, r1
 3398 00ca DDE92201 		ldrd	r0, [sp, #136]
 3399 00ce FFF7FEFF 		bl	ln_deg_to_rad
 3400              	.LVL586:
 3401 00d2 FFF7FEFF 		bl	cos
 3402              	.LVL587:
 3403 00d6 0246     		mov	r2, r0
 3404 00d8 0B46     		mov	r3, r1
 3405 00da 4046     		mov	r0, r8
 3406 00dc 4946     		mov	r1, r9
ARM GAS  /tmp/ccj4yzJk.s 			page 61


 3407 00de FFF7FEFF 		bl	__aeabi_dmul
 3408              	.LVL588:
 3409 00e2 0246     		mov	r2, r0
 3410 00e4 0B46     		mov	r3, r1
 3411              	.LVL589:
 3412              		.loc 1 549 0
 3413 00e6 2046     		mov	r0, r4
 3414 00e8 2946     		mov	r1, r5
 3415 00ea FFF7FEFF 		bl	__aeabi_ddiv
 3416              	.LVL590:
 3417              	.LBB101:
 3418              	.LBB102:
 3419              		.loc 1 31 0
 3420 00ee 21F00043 		bic	r3, r1, #-2147483648
 3421              	.LBE102:
 3422              	.LBE101:
 3423              		.loc 1 549 0
 3424 00f2 0C46     		mov	r4, r1
 3425              	.LVL591:
 3426              	.LBB106:
 3427              	.LBB103:
 3428              		.loc 1 31 0
 3429 00f4 1946     		mov	r1, r3
 3430              	.LVL592:
 3431 00f6 0023     		movs	r3, #0
 3432 00f8 0022     		movs	r2, #0
 3433 00fa C3F6F073 		movt	r3, 16368
 3434              	.LBE103:
 3435              	.LBE106:
 3436              		.loc 1 549 0
 3437 00fe 0546     		mov	r5, r0
 3438              	.LBB107:
 3439              	.LBB104:
 3440              		.loc 1 31 0
 3441 0100 FFF7FEFF 		bl	__aeabi_dcmpgt
 3442              	.LVL593:
 3443              		.loc 1 35 0
 3444 0104 0022     		movs	r2, #0
 3445              		.loc 1 31 0
 3446 0106 0028     		cmp	r0, #0
 3447 0108 45D0     		beq	.L248
 3448              		.loc 1 35 0
 3449 010a 4FF40043 		mov	r3, #32768
 3450 010e C4F25603 		movt	r3, 16470
 3451 0112 DDE92201 		ldrd	r0, [sp, #136]
 3452 0116 FFF7FEFF 		bl	__aeabi_dadd
 3453              	.LVL594:
 3454 011a D7E90223 		ldrd	r2, [r7, #8]
 3455 011e FFF7FEFF 		bl	__aeabi_dsub
 3456              	.LVL595:
 3457              		.loc 1 37 0
 3458 0122 4FF40043 		mov	r3, #32768
 3459 0126 0022     		movs	r2, #0
 3460 0128 C4F25603 		movt	r3, 16470
 3461              		.loc 1 35 0
 3462 012c 0446     		mov	r4, r0
 3463              	.LVL596:
ARM GAS  /tmp/ccj4yzJk.s 			page 62


 3464 012e 0D46     		mov	r5, r1
 3465              	.LVL597:
 3466              		.loc 1 37 0
 3467 0130 FFF7FEFF 		bl	__aeabi_dcmpgt
 3468              	.LVL598:
 3469 0134 50B1     		cbz	r0, .L209
 3470              		.loc 1 38 0
 3471 0136 4FF40041 		mov	r1, #32768
 3472 013a 2246     		mov	r2, r4
 3473 013c 2B46     		mov	r3, r5
 3474 013e 0020     		movs	r0, #0
 3475 0140 C4F26601 		movt	r1, 16486
 3476 0144 FFF7FEFF 		bl	__aeabi_dsub
 3477              	.LVL599:
 3478 0148 0446     		mov	r4, r0
 3479              	.LVL600:
 3480 014a 0D46     		mov	r5, r1
 3481              	.LVL601:
 3482              	.L209:
 3483              		.loc 1 39 0
 3484 014c 4FF40043 		mov	r3, #32768
 3485 0150 2046     		mov	r0, r4
 3486 0152 2946     		mov	r1, r5
 3487 0154 0022     		movs	r2, #0
 3488 0156 CCF25603 		movt	r3, 49238
 3489 015a FFF7FEFF 		bl	__aeabi_dcmplt
 3490              	.LVL602:
 3491 015e 70B9     		cbnz	r0, .L253
 3492              	.L211:
 3493              		.loc 1 41 0
 3494 0160 2B46     		mov	r3, r5
 3495 0162 DDE93401 		ldrd	r0, [sp, #208]
 3496 0166 2246     		mov	r2, r4
 3497 0168 FFF7FEFF 		bl	__aeabi_dcmpgt
 3498              	.LVL603:
 3499              		.loc 1 44 0
 3500 016c 0028     		cmp	r0, #0
 3501 016e 14BF     		ite	ne
 3502 0170 4FF0FF33 		movne	r3, #-1
 3503 0174 0123     		moveq	r3, #1
 3504              	.LVL604:
 3505              	.L249:
 3506              	.LBE104:
 3507              	.LBE107:
 3508              		.loc 1 632 0
 3509 0176 1846     		mov	r0, r3
 3510 0178 29B0     		add	sp, sp, #164
 3511 017a BDE8F08F 		pop	{r4, r5, r6, r7, r8, r9, sl, fp, pc}
 3512              	.LVL605:
 3513              	.L253:
 3514              	.LBB108:
 3515              	.LBB105:
 3516              		.loc 1 40 0
 3517 017e 4FF40041 		mov	r1, #32768
 3518 0182 2246     		mov	r2, r4
 3519 0184 2B46     		mov	r3, r5
 3520 0186 0020     		movs	r0, #0
ARM GAS  /tmp/ccj4yzJk.s 			page 63


 3521 0188 CCF26601 		movt	r1, 49254
 3522 018c FFF7FEFF 		bl	__aeabi_dsub
 3523              	.LVL606:
 3524 0190 0446     		mov	r4, r0
 3525              	.LVL607:
 3526 0192 0D46     		mov	r5, r1
 3527              	.LVL608:
 3528 0194 E4E7     		b	.L211
 3529              	.LVL609:
 3530              	.L248:
 3531              	.LBE105:
 3532              	.LBE108:
 3533              		.loc 1 538 0
 3534 0196 0023     		movs	r3, #0
 3535 0198 C4F22E03 		movt	r3, 16430
 3536 019c 5046     		mov	r0, sl
 3537 019e 5946     		mov	r1, fp
 3538 01a0 FFF7FEFF 		bl	__aeabi_dmul
 3539              	.LVL610:
 3540 01a4 0646     		mov	r6, r0
 3541 01a6 8846     		mov	r8, r1
 3542              		.loc 1 555 0
 3543 01a8 2846     		mov	r0, r5
 3544 01aa 2146     		mov	r1, r4
 3545 01ac FFF7FEFF 		bl	acos
 3546              	.LVL611:
 3547              		.loc 1 556 0
 3548 01b0 FFF7FEFF 		bl	ln_rad_to_deg
 3549              	.LVL612:
 3550              		.loc 1 559 0
 3551 01b4 DDE92045 		ldrd	r4, [sp, #128]
 3552              	.LVL613:
 3553              		.loc 1 556 0
 3554 01b8 8246     		mov	sl, r0
 3555              	.LVL614:
 3556              		.loc 1 559 0
 3557 01ba D7E90023 		ldrd	r2, [r7]
 3558              		.loc 1 556 0
 3559 01be 8B46     		mov	fp, r1
 3560              	.LVL615:
 3561              		.loc 1 559 0
 3562 01c0 2046     		mov	r0, r4
 3563 01c2 2946     		mov	r1, r5
 3564 01c4 FFF7FEFF 		bl	__aeabi_dsub
 3565              	.LVL616:
 3566 01c8 3246     		mov	r2, r6
 3567 01ca 4346     		mov	r3, r8
 3568 01cc FFF7FEFF 		bl	__aeabi_dsub
 3569              	.LVL617:
 3570 01d0 4FF40043 		mov	r3, #32768
 3571 01d4 0022     		movs	r2, #0
 3572 01d6 C4F27603 		movt	r3, 16502
 3573 01da FFF7FEFF 		bl	__aeabi_ddiv
 3574              	.LVL618:
 3575              		.loc 1 560 0
 3576 01de 4FF40043 		mov	r3, #32768
 3577              		.loc 1 559 0
ARM GAS  /tmp/ccj4yzJk.s 			page 64


 3578 01e2 CDE90C01 		strd	r0, [sp, #48]
 3579              	.LVL619:
 3580              		.loc 1 560 0
 3581 01e6 0022     		movs	r2, #0
 3582 01e8 5046     		mov	r0, sl
 3583              	.LVL620:
 3584 01ea C4F27603 		movt	r3, 16502
 3585 01ee 5946     		mov	r1, fp
 3586 01f0 FFF7FEFF 		bl	__aeabi_ddiv
 3587              	.LVL621:
 3588 01f4 8146     		mov	r9, r0
 3589 01f6 8A46     		mov	sl, r1
 3590              	.LVL622:
 3591 01f8 4A46     		mov	r2, r9
 3592 01fa 5346     		mov	r3, sl
 3593 01fc DDE90C01 		ldrd	r0, [sp, #48]
 3594 0200 FFF7FEFF 		bl	__aeabi_dsub
 3595              	.LVL623:
 3596              		.loc 1 561 0
 3597 0204 4A46     		mov	r2, r9
 3598              		.loc 1 560 0
 3599 0206 CDE90E01 		strd	r0, [sp, #56]
 3600              	.LVL624:
 3601              		.loc 1 561 0
 3602 020a 5346     		mov	r3, sl
 3603 020c DDE90C01 		ldrd	r0, [sp, #48]
 3604              	.LVL625:
 3605 0210 FFF7FEFF 		bl	__aeabi_dadd
 3606              	.LVL626:
 3607              		.loc 1 564 0
 3608 0214 0023     		movs	r3, #0
 3609              		.loc 1 561 0
 3610 0216 CDE91001 		strd	r0, [sp, #64]
 3611              	.LVL627:
 3612              		.loc 1 564 0
 3613 021a 0022     		movs	r2, #0
 3614 021c DDE90C01 		ldrd	r0, [sp, #48]
 3615              	.LVL628:
 3616 0220 C3F6F073 		movt	r3, 16368
 3617 0224 FFF7FEFF 		bl	__aeabi_dcmpgt
 3618              	.LVL629:
 3619 0228 0028     		cmp	r0, #0
 3620 022a 00F03882 		beq	.L254
 3621              		.loc 1 565 0
 3622 022e 0023     		movs	r3, #0
 3623 0230 DDE90C01 		ldrd	r0, [sp, #48]
 3624 0234 0022     		movs	r2, #0
 3625 0236 C3F6F073 		movt	r3, 16368
 3626 023a FFF7FEFF 		bl	__aeabi_dsub
 3627              	.LVL630:
 3628 023e CDE90C01 		strd	r0, [sp, #48]
 3629              	.LVL631:
 3630              	.L215:
 3631              		.loc 1 568 0
 3632 0242 0023     		movs	r3, #0
 3633 0244 DDE90E01 		ldrd	r0, [sp, #56]
 3634 0248 0022     		movs	r2, #0
ARM GAS  /tmp/ccj4yzJk.s 			page 65


 3635 024a C3F6F073 		movt	r3, 16368
 3636 024e FFF7FEFF 		bl	__aeabi_dcmpgt
 3637              	.LVL632:
 3638 0252 0028     		cmp	r0, #0
 3639 0254 00F04B82 		beq	.L250
 3640              		.loc 1 569 0
 3641 0258 0023     		movs	r3, #0
 3642 025a DDE90E01 		ldrd	r0, [sp, #56]
 3643 025e 0022     		movs	r2, #0
 3644 0260 C3F6F073 		movt	r3, 16368
 3645 0264 FFF7FEFF 		bl	__aeabi_dsub
 3646              	.LVL633:
 3647 0268 CDE90E01 		strd	r0, [sp, #56]
 3648              	.LVL634:
 3649              	.L219:
 3650              		.loc 1 572 0
 3651 026c 0023     		movs	r3, #0
 3652 026e DDE91001 		ldrd	r0, [sp, #64]
 3653 0272 0022     		movs	r2, #0
 3654 0274 C3F6F073 		movt	r3, 16368
 3655 0278 FFF7FEFF 		bl	__aeabi_dcmpgt
 3656              	.LVL635:
 3657 027c 0028     		cmp	r0, #0
 3658 027e 00F02282 		beq	.L251
 3659              		.loc 1 573 0
 3660 0282 0023     		movs	r3, #0
 3661 0284 DDE91001 		ldrd	r0, [sp, #64]
 3662 0288 0022     		movs	r2, #0
 3663 028a C3F6F073 		movt	r3, 16368
 3664 028e FFF7FEFF 		bl	__aeabi_dsub
 3665              	.LVL636:
 3666 0292 CDE91001 		strd	r0, [sp, #64]
 3667              	.LVL637:
 3668              	.L223:
 3669              		.loc 1 578 0
 3670 0296 9AA3     		adr	r3, .L255
 3671 0298 D3E90023 		ldrd	r2, [r3]
 3672 029c DDE90C01 		ldrd	r0, [sp, #48]
 3673 02a0 FFF7FEFF 		bl	__aeabi_dmul
 3674              	.LVL638:
 3675 02a4 3246     		mov	r2, r6
 3676 02a6 4346     		mov	r3, r8
 3677 02a8 FFF7FEFF 		bl	__aeabi_dadd
 3678              	.LVL639:
 3679              		.loc 1 579 0
 3680 02ac 94A3     		adr	r3, .L255
 3681 02ae D3E90023 		ldrd	r2, [r3]
 3682              		.loc 1 578 0
 3683 02b2 CDE91401 		strd	r0, [sp, #80]
 3684              	.LVL640:
 3685              		.loc 1 579 0
 3686 02b6 DDE90E01 		ldrd	r0, [sp, #56]
 3687              	.LVL641:
 3688 02ba FFF7FEFF 		bl	__aeabi_dmul
 3689              	.LVL642:
 3690 02be 3246     		mov	r2, r6
 3691 02c0 4346     		mov	r3, r8
ARM GAS  /tmp/ccj4yzJk.s 			page 66


 3692 02c2 FFF7FEFF 		bl	__aeabi_dadd
 3693              	.LVL643:
 3694              		.loc 1 580 0
 3695 02c6 8EA3     		adr	r3, .L255
 3696 02c8 D3E90023 		ldrd	r2, [r3]
 3697              		.loc 1 579 0
 3698 02cc CDE91601 		strd	r0, [sp, #88]
 3699              	.LVL644:
 3700              		.loc 1 580 0
 3701 02d0 DDE91001 		ldrd	r0, [sp, #64]
 3702              	.LVL645:
 3703 02d4 FFF7FEFF 		bl	__aeabi_dmul
 3704              	.LVL646:
 3705 02d8 3246     		mov	r2, r6
 3706 02da 4346     		mov	r3, r8
 3707 02dc FFF7FEFF 		bl	__aeabi_dadd
 3708              	.LVL647:
 3709              		.loc 1 583 0
 3710 02e0 DDE91C23 		ldrd	r2, [sp, #112]
 3711 02e4 CDE90A23 		strd	r2, [sp, #40]
 3712              		.loc 1 580 0
 3713 02e8 CDE91801 		strd	r0, [sp, #96]
 3714              	.LVL648:
 3715              		.loc 1 583 0
 3716 02ec 2246     		mov	r2, r4
 3717 02ee 2B46     		mov	r3, r5
 3718 02f0 DDE90A01 		ldrd	r0, [sp, #40]
 3719              	.LVL649:
 3720 02f4 FFF7FEFF 		bl	__aeabi_dsub
 3721              	.LVL650:
 3722 02f8 4FF40043 		mov	r3, #32768
 3723 02fc 0022     		movs	r2, #0
 3724 02fe C4F26603 		movt	r3, 16486
 3725 0302 FFF7FEFF 		bl	__aeabi_dcmpgt
 3726              	.LVL651:
 3727 0306 60B1     		cbz	r0, .L225
 3728              		.loc 1 584 0
 3729 0308 4FF40043 		mov	r3, #32768
 3730 030c 2046     		mov	r0, r4
 3731 030e 2946     		mov	r1, r5
 3732 0310 0022     		movs	r2, #0
 3733 0312 C4F27603 		movt	r3, 16502
 3734 0316 FFF7FEFF 		bl	__aeabi_dadd
 3735              	.LVL652:
 3736 031a 0446     		mov	r4, r0
 3737 031c 0D46     		mov	r5, r1
 3738 031e CDE92045 		strd	r4, [sp, #128]
 3739              	.L225:
 3740              		.loc 1 586 0
 3741 0322 DDE924AB 		ldrd	sl, [sp, #144]
 3742 0326 2046     		mov	r0, r4
 3743 0328 5246     		mov	r2, sl
 3744 032a 5B46     		mov	r3, fp
 3745 032c 2946     		mov	r1, r5
 3746 032e FFF7FEFF 		bl	__aeabi_dsub
 3747              	.LVL653:
 3748 0332 4FF40043 		mov	r3, #32768
ARM GAS  /tmp/ccj4yzJk.s 			page 67


 3749 0336 0022     		movs	r2, #0
 3750 0338 C4F26603 		movt	r3, 16486
 3751 033c FFF7FEFF 		bl	__aeabi_dcmpgt
 3752              	.LVL654:
 3753 0340 60B1     		cbz	r0, .L227
 3754              		.loc 1 587 0
 3755 0342 4FF40043 		mov	r3, #32768
 3756 0346 5046     		mov	r0, sl
 3757 0348 5946     		mov	r1, fp
 3758 034a 0022     		movs	r2, #0
 3759 034c C4F27603 		movt	r3, 16502
 3760 0350 FFF7FEFF 		bl	__aeabi_dadd
 3761              	.LVL655:
 3762 0354 8246     		mov	sl, r0
 3763 0356 8B46     		mov	fp, r1
 3764 0358 CDE924AB 		strd	sl, [sp, #144]
 3765              	.L227:
 3766              		.loc 1 589 0
 3767 035c 2246     		mov	r2, r4
 3768 035e 2B46     		mov	r3, r5
 3769 0360 5046     		mov	r0, sl
 3770 0362 5946     		mov	r1, fp
 3771 0364 FFF7FEFF 		bl	__aeabi_dsub
 3772              	.LVL656:
 3773 0368 4FF40043 		mov	r3, #32768
 3774 036c 0022     		movs	r2, #0
 3775 036e C4F26603 		movt	r3, 16486
 3776 0372 FFF7FEFF 		bl	__aeabi_dcmpgt
 3777              	.LVL657:
 3778 0376 60B1     		cbz	r0, .L229
 3779              		.loc 1 590 0
 3780 0378 4FF40043 		mov	r3, #32768
 3781 037c 5046     		mov	r0, sl
 3782 037e 5946     		mov	r1, fp
 3783 0380 0022     		movs	r2, #0
 3784 0382 C4F27603 		movt	r3, 16502
 3785 0386 FFF7FEFF 		bl	__aeabi_dsub
 3786              	.LVL658:
 3787 038a 8246     		mov	sl, r0
 3788 038c 8B46     		mov	fp, r1
 3789 038e CDE924AB 		strd	sl, [sp, #144]
 3790              	.L229:
 3791              		.loc 1 592 0
 3792 0392 DDE90A23 		ldrd	r2, [sp, #40]
 3793 0396 2046     		mov	r0, r4
 3794 0398 2946     		mov	r1, r5
 3795 039a FFF7FEFF 		bl	__aeabi_dsub
 3796              	.LVL659:
 3797 039e 4FF40043 		mov	r3, #32768
 3798 03a2 0022     		movs	r2, #0
 3799 03a4 C4F26603 		movt	r3, 16486
 3800 03a8 FFF7FEFF 		bl	__aeabi_dcmpgt
 3801              	.LVL660:
 3802 03ac 60B1     		cbz	r0, .L231
 3803              		.loc 1 593 0
 3804 03ae 4FF40043 		mov	r3, #32768
 3805 03b2 5046     		mov	r0, sl
ARM GAS  /tmp/ccj4yzJk.s 			page 68


 3806 03b4 5946     		mov	r1, fp
 3807 03b6 0022     		movs	r2, #0
 3808 03b8 C4F27603 		movt	r3, 16502
 3809 03bc FFF7FEFF 		bl	__aeabi_dsub
 3810              	.LVL661:
 3811 03c0 8246     		mov	sl, r0
 3812 03c2 8B46     		mov	fp, r1
 3813 03c4 CDE924AB 		strd	sl, [sp, #144]
 3814              	.L231:
 3815              		.loc 1 595 0
 3816 03c8 DDE90601 		ldrd	r0, [sp, #24]
 3817 03cc 4EA3     		adr	r3, .L255+8
 3818 03ce D3E90023 		ldrd	r2, [r3]
 3819 03d2 FFF7FEFF 		bl	__aeabi_ddiv
 3820              	.LVL662:
 3821 03d6 DDE90C23 		ldrd	r2, [sp, #48]
 3822 03da 0646     		mov	r6, r0
 3823 03dc 8846     		mov	r8, r1
 3824 03de FFF7FEFF 		bl	__aeabi_dadd
 3825              	.LVL663:
 3826              		.loc 1 596 0
 3827 03e2 3246     		mov	r2, r6
 3828 03e4 4346     		mov	r3, r8
 3829              		.loc 1 595 0
 3830 03e6 CDE91201 		strd	r0, [sp, #72]
 3831              	.LVL664:
 3832              		.loc 1 596 0
 3833 03ea DDE90E01 		ldrd	r0, [sp, #56]
 3834              	.LVL665:
 3835 03ee FFF7FEFF 		bl	__aeabi_dadd
 3836              	.LVL666:
 3837              		.loc 1 597 0
 3838 03f2 3246     		mov	r2, r6
 3839 03f4 4346     		mov	r3, r8
 3840              		.loc 1 596 0
 3841 03f6 CDE90601 		strd	r0, [sp, #24]
 3842              	.LVL667:
 3843              		.loc 1 597 0
 3844 03fa DDE91001 		ldrd	r0, [sp, #64]
 3845              	.LVL668:
 3846 03fe FFF7FEFF 		bl	__aeabi_dadd
 3847              	.LVL669:
 3848              		.loc 1 600 0
 3849 0402 CDE902AB 		strd	sl, [sp, #8]
 3850              		.loc 1 597 0
 3851 0406 0646     		mov	r6, r0
 3852 0408 8946     		mov	r9, r1
 3853              		.loc 1 600 0
 3854 040a DDE90A23 		ldrd	r2, [sp, #40]
 3855 040e CDE90045 		strd	r4, [sp]
 3856 0412 DDE90601 		ldrd	r0, [sp, #24]
 3857 0416 FFF7FEFF 		bl	ln_interpolate3
 3858              	.LVL670:
 3859              		.loc 1 601 0
 3860 041a DDE92245 		ldrd	r4, [sp, #136]
 3861              		.loc 1 600 0
 3862 041e CDE91A01 		strd	r0, [sp, #104]
ARM GAS  /tmp/ccj4yzJk.s 			page 69


 3863              	.LVL671:
 3864              		.loc 1 601 0
 3865 0422 DDE92601 		ldrd	r0, [sp, #152]
 3866              	.LVL672:
 3867 0426 DDE91E23 		ldrd	r2, [sp, #120]
 3868 042a CDE90045 		strd	r4, [sp]
 3869 042e CDE90201 		strd	r0, [sp, #8]
 3870 0432 DDE90601 		ldrd	r0, [sp, #24]
 3871 0436 FFF7FEFF 		bl	ln_interpolate3
 3872              	.LVL673:
 3873              		.loc 1 602 0
 3874 043a DDE92045 		ldrd	r4, [sp, #128]
 3875              		.loc 1 601 0
 3876 043e CDE90A01 		strd	r0, [sp, #40]
 3877              	.LVL674:
 3878              		.loc 1 602 0
 3879 0442 DDE92401 		ldrd	r0, [sp, #144]
 3880              	.LVL675:
 3881 0446 DDE91C23 		ldrd	r2, [sp, #112]
 3882 044a CDE90045 		strd	r4, [sp]
 3883 044e CDE90201 		strd	r0, [sp, #8]
 3884 0452 DDE91201 		ldrd	r0, [sp, #72]
 3885 0456 FFF7FEFF 		bl	ln_interpolate3
 3886              	.LVL676:
 3887              		.loc 1 603 0
 3888 045a DDE92045 		ldrd	r4, [sp, #128]
 3889              		.loc 1 602 0
 3890 045e CDE91201 		strd	r0, [sp, #72]
 3891              	.LVL677:
 3892              		.loc 1 603 0
 3893 0462 DDE92401 		ldrd	r0, [sp, #144]
 3894              	.LVL678:
 3895 0466 DDE91C23 		ldrd	r2, [sp, #112]
 3896 046a CDE90201 		strd	r0, [sp, #8]
 3897 046e CDE90045 		strd	r4, [sp]
 3898 0472 3046     		mov	r0, r6
 3899 0474 4946     		mov	r1, r9
 3900 0476 FFF7FEFF 		bl	ln_interpolate3
 3901              	.LVL679:
 3902              		.loc 1 604 0
 3903 047a DDE92245 		ldrd	r4, [sp, #136]
 3904              		.loc 1 603 0
 3905 047e 8246     		mov	sl, r0
 3906 0480 8B46     		mov	fp, r1
 3907              	.LVL680:
 3908              		.loc 1 604 0
 3909 0482 DDE92601 		ldrd	r0, [sp, #152]
 3910 0486 DDE91E23 		ldrd	r2, [sp, #120]
 3911 048a CDE90201 		strd	r0, [sp, #8]
 3912 048e CDE90045 		strd	r4, [sp]
 3913 0492 3046     		mov	r0, r6
 3914 0494 4946     		mov	r1, r9
 3915 0496 FFF7FEFF 		bl	ln_interpolate3
 3916              	.LVL681:
 3917              		.loc 1 607 0
 3918 049a D7E90045 		ldrd	r4, [r7]
 3919 049e DDE91423 		ldrd	r2, [sp, #80]
ARM GAS  /tmp/ccj4yzJk.s 			page 70


 3920              		.loc 1 604 0
 3921 04a2 CDE90601 		strd	r0, [sp, #24]
 3922              	.LVL682:
 3923              		.loc 1 607 0
 3924 04a6 2046     		mov	r0, r4
 3925              	.LVL683:
 3926 04a8 2946     		mov	r1, r5
 3927 04aa FFF7FEFF 		bl	__aeabi_dadd
 3928              	.LVL684:
 3929 04ae DDE91223 		ldrd	r2, [sp, #72]
 3930 04b2 FFF7FEFF 		bl	__aeabi_dsub
 3931              	.LVL685:
 3932              		.loc 1 608 0
 3933 04b6 2246     		mov	r2, r4
 3934 04b8 2B46     		mov	r3, r5
 3935              		.loc 1 607 0
 3936 04ba CDE91201 		strd	r0, [sp, #72]
 3937              	.LVL686:
 3938              		.loc 1 608 0
 3939 04be DDE91601 		ldrd	r0, [sp, #88]
 3940              	.LVL687:
 3941 04c2 FFF7FEFF 		bl	__aeabi_dadd
 3942              	.LVL688:
 3943 04c6 DDE91A23 		ldrd	r2, [sp, #104]
 3944 04ca FFF7FEFF 		bl	__aeabi_dsub
 3945              	.LVL689:
 3946              		.loc 1 609 0
 3947 04ce 2246     		mov	r2, r4
 3948 04d0 2B46     		mov	r3, r5
 3949              		.loc 1 608 0
 3950 04d2 CDE91401 		strd	r0, [sp, #80]
 3951              	.LVL690:
 3952              		.loc 1 609 0
 3953 04d6 DDE91801 		ldrd	r0, [sp, #96]
 3954              	.LVL691:
 3955 04da FFF7FEFF 		bl	__aeabi_dadd
 3956              	.LVL692:
 3957 04de 5246     		mov	r2, sl
 3958 04e0 5B46     		mov	r3, fp
 3959 04e2 FFF7FEFF 		bl	__aeabi_dsub
 3960              	.LVL693:
 3961 04e6 8246     		mov	sl, r0
 3962              	.LVL694:
 3963 04e8 8B46     		mov	fp, r1
 3964              	.LVL695:
 3965              		.loc 1 612 0
 3966 04ea D7E90201 		ldrd	r0, [r7, #8]
 3967 04ee FFF7FEFF 		bl	ln_deg_to_rad
 3968              	.LVL696:
 3969 04f2 DDE90A01 		ldrd	r0, [sp, #40]
 3970 04f6 FFF7FEFF 		bl	ln_deg_to_rad
 3971              	.LVL697:
 3972              		.loc 1 613 0
 3973 04fa D7E90201 		ldrd	r0, [r7, #8]
 3974 04fe 07E0     		b	.L256
 3975              	.L257:
 3976              		.align	3
ARM GAS  /tmp/ccj4yzJk.s 			page 71


 3977              	.L255:
 3978 0500 68E6C935 		.word	902424168
 3979 0504 C58F7640 		.word	1081511877
 3980 0508 00000000 		.word	0
 3981 050c 0018F540 		.word	1089804288
 3982              	.L256:
 3983 0510 FFF7FEFF 		bl	ln_deg_to_rad
 3984              	.LVL698:
 3985 0514 DDE90A01 		ldrd	r0, [sp, #40]
 3986 0518 FFF7FEFF 		bl	ln_deg_to_rad
 3987              	.LVL699:
 3988 051c DDE91401 		ldrd	r0, [sp, #80]
 3989 0520 FFF7FEFF 		bl	ln_deg_to_rad
 3990              	.LVL700:
 3991              		.loc 1 614 0
 3992 0524 D7E90201 		ldrd	r0, [r7, #8]
 3993 0528 FFF7FEFF 		bl	ln_deg_to_rad
 3994              	.LVL701:
 3995 052c FFF7FEFF 		bl	sin
 3996              	.LVL702:
 3997 0530 0646     		mov	r6, r0
 3998 0532 0D46     		mov	r5, r1
 3999 0534 DDE90601 		ldrd	r0, [sp, #24]
 4000 0538 FFF7FEFF 		bl	ln_deg_to_rad
 4001              	.LVL703:
 4002 053c FFF7FEFF 		bl	sin
 4003              	.LVL704:
 4004 0540 0246     		mov	r2, r0
 4005 0542 0B46     		mov	r3, r1
 4006 0544 3046     		mov	r0, r6
 4007 0546 2946     		mov	r1, r5
 4008 0548 FFF7FEFF 		bl	__aeabi_dmul
 4009              	.LVL705:
 4010 054c 0446     		mov	r4, r0
 4011 054e 0E46     		mov	r6, r1
 4012              		.loc 1 615 0
 4013 0550 D7E90201 		ldrd	r0, [r7, #8]
 4014 0554 FFF7FEFF 		bl	ln_deg_to_rad
 4015              	.LVL706:
 4016 0558 FFF7FEFF 		bl	cos
 4017              	.LVL707:
 4018 055c 8046     		mov	r8, r0
 4019 055e 8946     		mov	r9, r1
 4020 0560 DDE90601 		ldrd	r0, [sp, #24]
 4021 0564 FFF7FEFF 		bl	ln_deg_to_rad
 4022              	.LVL708:
 4023 0568 FFF7FEFF 		bl	cos
 4024              	.LVL709:
 4025 056c 0246     		mov	r2, r0
 4026 056e 0B46     		mov	r3, r1
 4027 0570 4046     		mov	r0, r8
 4028 0572 4946     		mov	r1, r9
 4029 0574 FFF7FEFF 		bl	__aeabi_dmul
 4030              	.LVL710:
 4031 0578 0546     		mov	r5, r0
 4032 057a 8846     		mov	r8, r1
 4033 057c 5046     		mov	r0, sl
ARM GAS  /tmp/ccj4yzJk.s 			page 72


 4034 057e 5946     		mov	r1, fp
 4035 0580 FFF7FEFF 		bl	ln_deg_to_rad
 4036              	.LVL711:
 4037 0584 FFF7FEFF 		bl	cos
 4038              	.LVL712:
 4039 0588 0246     		mov	r2, r0
 4040 058a 0B46     		mov	r3, r1
 4041 058c 2846     		mov	r0, r5
 4042 058e 4146     		mov	r1, r8
 4043 0590 FFF7FEFF 		bl	__aeabi_dmul
 4044              	.LVL713:
 4045 0594 0246     		mov	r2, r0
 4046 0596 0B46     		mov	r3, r1
 4047              		.loc 1 614 0
 4048 0598 2046     		mov	r0, r4
 4049 059a 3146     		mov	r1, r6
 4050 059c FFF7FEFF 		bl	__aeabi_dadd
 4051              	.LVL714:
 4052 05a0 0446     		mov	r4, r0
 4053 05a2 0E46     		mov	r6, r1
 4054              	.LVL715:
 4055              		.loc 1 619 0
 4056 05a4 DDE90A01 		ldrd	r0, [sp, #40]
 4057 05a8 FFF7FEFF 		bl	ln_deg_to_rad
 4058              	.LVL716:
 4059 05ac D7E90201 		ldrd	r0, [r7, #8]
 4060 05b0 FFF7FEFF 		bl	ln_deg_to_rad
 4061              	.LVL717:
 4062 05b4 DDE91401 		ldrd	r0, [sp, #80]
 4063 05b8 FFF7FEFF 		bl	ln_deg_to_rad
 4064              	.LVL718:
 4065              		.loc 1 620 0
 4066 05bc DDE93423 		ldrd	r2, [sp, #208]
 4067 05c0 2046     		mov	r0, r4
 4068 05c2 3146     		mov	r1, r6
 4069 05c4 FFF7FEFF 		bl	__aeabi_dsub
 4070              	.LVL719:
 4071 05c8 CDE90801 		strd	r0, [sp, #32]
 4072 05cc DDE90601 		ldrd	r0, [sp, #24]
 4073 05d0 FFF7FEFF 		bl	ln_deg_to_rad
 4074              	.LVL720:
 4075 05d4 FFF7FEFF 		bl	cos
 4076              	.LVL721:
 4077 05d8 8046     		mov	r8, r0
 4078 05da 8946     		mov	r9, r1
 4079 05dc D7E90201 		ldrd	r0, [r7, #8]
 4080 05e0 FFF7FEFF 		bl	ln_deg_to_rad
 4081              	.LVL722:
 4082 05e4 FFF7FEFF 		bl	cos
 4083              	.LVL723:
 4084 05e8 4FF40043 		mov	r3, #32768
 4085 05ec 0446     		mov	r4, r0
 4086 05ee 0D46     		mov	r5, r1
 4087 05f0 0022     		movs	r2, #0
 4088 05f2 C4F27603 		movt	r3, 16502
 4089 05f6 4046     		mov	r0, r8
 4090 05f8 4946     		mov	r1, r9
ARM GAS  /tmp/ccj4yzJk.s 			page 73


 4091 05fa FFF7FEFF 		bl	__aeabi_dmul
 4092              	.LVL724:
 4093 05fe 2246     		mov	r2, r4
 4094 0600 2B46     		mov	r3, r5
 4095 0602 FFF7FEFF 		bl	__aeabi_dmul
 4096              	.LVL725:
 4097 0606 0646     		mov	r6, r0
 4098 0608 0C46     		mov	r4, r1
 4099 060a 5046     		mov	r0, sl
 4100 060c 5946     		mov	r1, fp
 4101 060e FFF7FEFF 		bl	ln_deg_to_rad
 4102              	.LVL726:
 4103 0612 FFF7FEFF 		bl	sin
 4104              	.LVL727:
 4105 0616 0246     		mov	r2, r0
 4106 0618 0B46     		mov	r3, r1
 4107 061a 3046     		mov	r0, r6
 4108 061c 2146     		mov	r1, r4
 4109 061e FFF7FEFF 		bl	__aeabi_dmul
 4110              	.LVL728:
 4111 0622 0246     		mov	r2, r0
 4112 0624 0B46     		mov	r3, r1
 4113 0626 DDE90801 		ldrd	r0, [sp, #32]
 4114 062a FFF7FEFF 		bl	__aeabi_ddiv
 4115              	.LVL729:
 4116 062e 0446     		mov	r4, r0
 4117 0630 0D46     		mov	r5, r1
 4118              	.LVL730:
 4119              		.loc 1 624 0
 4120 0632 2246     		mov	r2, r4
 4121 0634 2B46     		mov	r3, r5
 4122 0636 DDE90E01 		ldrd	r0, [sp, #56]
 4123 063a FFF7FEFF 		bl	__aeabi_dadd
 4124              	.LVL731:
 4125 063e 0246     		mov	r2, r0
 4126 0640 0B46     		mov	r3, r1
 4127              		.loc 1 626 0
 4128 0642 DDE90401 		ldrd	r0, [sp, #16]
 4129 0646 FFF7FEFF 		bl	__aeabi_dadd
 4130              	.LVL732:
 4131 064a 369E     		ldr	r6, [sp, #216]
 4132              		.loc 1 618 0
 4133 064c 4FF40043 		mov	r3, #32768
 4134 0650 0022     		movs	r2, #0
 4135 0652 C4F27603 		movt	r3, 16502
 4136              		.loc 1 626 0
 4137 0656 C6E90001 		strd	r0, [r6]
 4138              		.loc 1 618 0
 4139 065a DDE91201 		ldrd	r0, [sp, #72]
 4140 065e FFF7FEFF 		bl	__aeabi_ddiv
 4141              	.LVL733:
 4142 0662 0246     		mov	r2, r0
 4143 0664 0B46     		mov	r3, r1
 4144              		.loc 1 623 0
 4145 0666 DDE90C01 		ldrd	r0, [sp, #48]
 4146 066a FFF7FEFF 		bl	__aeabi_dsub
 4147              	.LVL734:
ARM GAS  /tmp/ccj4yzJk.s 			page 74


 4148 066e 0246     		mov	r2, r0
 4149 0670 0B46     		mov	r3, r1
 4150              		.loc 1 627 0
 4151 0672 DDE90401 		ldrd	r0, [sp, #16]
 4152 0676 FFF7FEFF 		bl	__aeabi_dadd
 4153              	.LVL735:
 4154              		.loc 1 625 0
 4155 067a 2246     		mov	r2, r4
 4156 067c 2B46     		mov	r3, r5
 4157              		.loc 1 627 0
 4158 067e C6E90401 		strd	r0, [r6, #16]
 4159              		.loc 1 625 0
 4160 0682 DDE91001 		ldrd	r0, [sp, #64]
 4161 0686 FFF7FEFF 		bl	__aeabi_dadd
 4162              	.LVL736:
 4163 068a 0B46     		mov	r3, r1
 4164 068c 0246     		mov	r2, r0
 4165              		.loc 1 628 0
 4166 068e DDE90401 		ldrd	r0, [sp, #16]
 4167 0692 FFF7FEFF 		bl	__aeabi_dadd
 4168              	.LVL737:
 4169              		.loc 1 631 0
 4170 0696 0023     		movs	r3, #0
 4171              		.loc 1 628 0
 4172 0698 C6E90201 		strd	r0, [r6, #8]
 4173 069c 6BE5     		b	.L249
 4174              	.LVL738:
 4175              	.L254:
 4176              		.loc 1 566 0
 4177 069e DDE90C01 		ldrd	r0, [sp, #48]
 4178 06a2 0022     		movs	r2, #0
 4179 06a4 0023     		movs	r3, #0
 4180 06a6 FFF7FEFF 		bl	__aeabi_dcmplt
 4181              	.LVL739:
 4182 06aa 0028     		cmp	r0, #0
 4183 06ac 3FF4C9AD 		beq	.L215
 4184              		.loc 1 567 0
 4185 06b0 0023     		movs	r3, #0
 4186 06b2 DDE90C01 		ldrd	r0, [sp, #48]
 4187 06b6 0022     		movs	r2, #0
 4188 06b8 C3F6F073 		movt	r3, 16368
 4189 06bc FFF7FEFF 		bl	__aeabi_dadd
 4190              	.LVL740:
 4191 06c0 CDE90C01 		strd	r0, [sp, #48]
 4192              	.LVL741:
 4193 06c4 BDE5     		b	.L215
 4194              	.LVL742:
 4195              	.L251:
 4196              		.loc 1 574 0
 4197 06c6 DDE91001 		ldrd	r0, [sp, #64]
 4198 06ca 0022     		movs	r2, #0
 4199 06cc 0023     		movs	r3, #0
 4200 06ce FFF7FEFF 		bl	__aeabi_dcmplt
 4201              	.LVL743:
 4202 06d2 0028     		cmp	r0, #0
 4203 06d4 3FF4DFAD 		beq	.L223
 4204              		.loc 1 575 0
ARM GAS  /tmp/ccj4yzJk.s 			page 75


 4205 06d8 0023     		movs	r3, #0
 4206 06da DDE91001 		ldrd	r0, [sp, #64]
 4207 06de 0022     		movs	r2, #0
 4208 06e0 C3F6F073 		movt	r3, 16368
 4209 06e4 FFF7FEFF 		bl	__aeabi_dadd
 4210              	.LVL744:
 4211 06e8 CDE91001 		strd	r0, [sp, #64]
 4212              	.LVL745:
 4213 06ec D3E5     		b	.L223
 4214              	.LVL746:
 4215              	.L250:
 4216              		.loc 1 570 0
 4217 06ee DDE90E01 		ldrd	r0, [sp, #56]
 4218 06f2 0022     		movs	r2, #0
 4219 06f4 0023     		movs	r3, #0
 4220 06f6 FFF7FEFF 		bl	__aeabi_dcmplt
 4221              	.LVL747:
 4222 06fa 0028     		cmp	r0, #0
 4223 06fc 3FF4B6AD 		beq	.L219
 4224              		.loc 1 571 0
 4225 0700 0023     		movs	r3, #0
 4226 0702 DDE90E01 		ldrd	r0, [sp, #56]
 4227 0706 0022     		movs	r2, #0
 4228 0708 C3F6F073 		movt	r3, 16368
 4229 070c FFF7FEFF 		bl	__aeabi_dadd
 4230              	.LVL748:
 4231 0710 CDE90E01 		strd	r0, [sp, #56]
 4232              	.LVL749:
 4233 0714 AAE5     		b	.L219
 4234              		.cfi_endproc
 4235              	.LFE10:
 4236              		.size	ln_get_motion_body_rst_horizon, .-ln_get_motion_body_rst_horizon
 4237 0716 00BFAFF3 		.section	.text.ln_get_motion_body_next_rst_horizon_future,"ax",%progbits
 4237      0080AFF3 
 4237      0080
 4238              		.align	2
 4239              		.p2align 4,,15
 4240              		.global	ln_get_motion_body_next_rst_horizon_future
 4241              		.thumb
 4242              		.thumb_func
 4243              		.type	ln_get_motion_body_next_rst_horizon_future, %function
 4244              	ln_get_motion_body_next_rst_horizon_future:
 4245              	.LFB12:
 4246              		.loc 1 677 0
 4247              		.cfi_startproc
 4248              		@ args = 24, pretend = 0, frame = 88
 4249              		@ frame_needed = 0, uses_anonymous_args = 0
 4250              	.LVL750:
 4251 0000 2DE9F04F 		push	{r4, r5, r6, r7, r8, r9, sl, fp, lr}
 4252              	.LCFI19:
 4253              		.cfi_def_cfa_offset 36
 4254              		.cfi_offset 4, -36
 4255              		.cfi_offset 5, -32
 4256              		.cfi_offset 6, -28
 4257              		.cfi_offset 7, -24
 4258              		.cfi_offset 8, -20
 4259              		.cfi_offset 9, -16
ARM GAS  /tmp/ccj4yzJk.s 			page 76


 4260              		.cfi_offset 10, -12
 4261              		.cfi_offset 11, -8
 4262              		.cfi_offset 14, -4
 4263 0004 9DB0     		sub	sp, sp, #116
 4264              	.LCFI20:
 4265              		.cfi_def_cfa_offset 152
 4266              		.loc 1 680 0
 4267 0006 DDE92867 		ldrd	r6, [sp, #160]
 4268              		.loc 1 677 0
 4269 000a 269D     		ldr	r5, [sp, #152]
 4270 000c DDF8A8A0 		ldr	sl, [sp, #168]
 4271              		.loc 1 680 0
 4272 0010 0095     		str	r5, [sp, #0]
 4273 0012 CDE90267 		strd	r6, [sp, #8]
 4274 0016 2B9F     		ldr	r7, [sp, #172]
 4275 0018 0497     		str	r7, [sp, #16]
 4276              		.loc 1 677 0
 4277 001a CDE90601 		strd	r0, [sp, #24]
 4278 001e 1646     		mov	r6, r2
 4279 0020 1F46     		mov	r7, r3
 4280              		.loc 1 680 0
 4281 0022 FFF7FEFF 		bl	ln_get_motion_body_rst_horizon
 4282              	.LVL751:
 4283              		.loc 1 681 0
 4284 0026 0446     		mov	r4, r0
 4285 0028 0028     		cmp	r0, #0
 4286 002a 00F00681 		beq	.L259
 4287              		.loc 1 681 0 is_stmt 0 discriminator 1
 4288 002e BAF1010F 		cmp	sl, #1
 4289 0032 00F0FE80 		beq	.L283
 4290              	.LVL752:
 4291              	.LBB109:
 4292              	.LBB110:
 4293              		.loc 1 198 0 is_stmt 1
 4294 0036 DDF8ACC0 		ldr	ip, [sp, #172]
 4295 003a 0023     		movs	r3, #0
 4296 003c DCE90001 		ldrd	r0, [ip]
 4297              	.LVL753:
 4298 0040 0022     		movs	r2, #0
 4299 0042 C3F6F073 		movt	r3, 16368
 4300 0046 FFF7FEFF 		bl	__aeabi_dsub
 4301              	.LVL754:
 4302              		.loc 1 199 0
 4303 004a DDF8ACE0 		ldr	lr, [sp, #172]
 4304 004e 0023     		movs	r3, #0
 4305 0050 0022     		movs	r2, #0
 4306 0052 C3F6F073 		movt	r3, 16368
 4307              		.loc 1 198 0
 4308 0056 CDE91001 		strd	r0, [sp, #64]
 4309              		.loc 1 199 0
 4310 005a DEE90401 		ldrd	r0, [lr, #16]
 4311 005e FFF7FEFF 		bl	__aeabi_dsub
 4312              	.LVL755:
 4313              		.loc 1 200 0
 4314 0062 DDF8ACC0 		ldr	ip, [sp, #172]
 4315 0066 0023     		movs	r3, #0
 4316              		.loc 1 199 0
ARM GAS  /tmp/ccj4yzJk.s 			page 77


 4317 0068 CDE91401 		strd	r0, [sp, #80]
 4318              		.loc 1 200 0
 4319 006c 0022     		movs	r2, #0
 4320 006e C3F6F073 		movt	r3, 16368
 4321 0072 DCE90201 		ldrd	r0, [ip, #8]
 4322 0076 FFF7FEFF 		bl	__aeabi_dsub
 4323              	.LVL756:
 4324 007a CDE91201 		strd	r0, [sp, #72]
 4325              	.LVL757:
 4326              	.L266:
 4327              	.LBE110:
 4328              	.LBE109:
 4329              	.LBB112:
 4330              		.loc 1 700 0 discriminator 1
 4331 007e BAF1000F 		cmp	sl, #0
 4332 0082 D8BF     		it	le
 4333 0084 4FF00108 		movle	r8, #1
 4334 0088 74DD     		ble	.L270
 4335              		.loc 1 702 0
 4336 008a 0120     		movs	r0, #1
 4337 008c 0AF1FF3B 		add	fp, sl, #-1
 4338 0090 0BEA000B 		and	fp, fp, r0
 4339 0094 FFF7FEFF 		bl	__aeabi_i2d
 4340              	.LVL758:
 4341 0098 DDE90623 		ldrd	r2, [sp, #24]
 4342 009c FFF7FEFF 		bl	__aeabi_dadd
 4343              	.LVL759:
 4344 00a0 DDE92823 		ldrd	r2, [sp, #160]
 4345 00a4 0DF15809 		add	r9, sp, #88
 4346 00a8 CDE90223 		strd	r2, [sp, #8]
 4347 00ac 0095     		str	r5, [sp, #0]
 4348 00ae CDF81090 		str	r9, [sp, #16]
 4349 00b2 3246     		mov	r2, r6
 4350 00b4 3B46     		mov	r3, r7
 4351 00b6 FFF7FEFF 		bl	ln_get_motion_body_rst_horizon
 4352              	.LVL760:
 4353              		.loc 1 703 0
 4354 00ba 0446     		mov	r4, r0
 4355 00bc 0028     		cmp	r0, #0
 4356 00be 57D0     		beq	.L300
 4357              		.loc 1 708 0
 4358 00c0 4FF00208 		mov	r8, #2
 4359              	.LVL761:
 4360              		.loc 1 700 0
 4361 00c4 C245     		cmp	sl, r8
 4362 00c6 55DB     		blt	.L270
 4363 00c8 BBF1000F 		cmp	fp, #0
 4364 00cc 18D0     		beq	.L302
 4365              		.loc 1 702 0
 4366 00ce 4046     		mov	r0, r8
 4367 00d0 FFF7FEFF 		bl	__aeabi_i2d
 4368              	.LVL762:
 4369 00d4 DDE90623 		ldrd	r2, [sp, #24]
 4370 00d8 FFF7FEFF 		bl	__aeabi_dadd
 4371              	.LVL763:
 4372 00dc DDE92823 		ldrd	r2, [sp, #160]
 4373 00e0 0095     		str	r5, [sp, #0]
ARM GAS  /tmp/ccj4yzJk.s 			page 78


 4374 00e2 CDE90223 		strd	r2, [sp, #8]
 4375 00e6 CDF81090 		str	r9, [sp, #16]
 4376 00ea 3246     		mov	r2, r6
 4377 00ec 3B46     		mov	r3, r7
 4378 00ee FFF7FEFF 		bl	ln_get_motion_body_rst_horizon
 4379              	.LVL764:
 4380              		.loc 1 703 0
 4381 00f2 0446     		mov	r4, r0
 4382 00f4 0028     		cmp	r0, #0
 4383 00f6 3BD0     		beq	.L300
 4384              		.loc 1 708 0
 4385 00f8 4FF00308 		mov	r8, #3
 4386              	.LVL765:
 4387              		.loc 1 700 0
 4388 00fc C245     		cmp	sl, r8
 4389 00fe 39DB     		blt	.L270
 4390              	.L302:
 4391 0100 AB46     		mov	fp, r5
 4392 0102 CDF820A0 		str	sl, [sp, #32]
 4393 0106 DDE92845 		ldrd	r4, [sp, #160]
 4394 010a 15E0     		b	.L269
 4395              	.LVL766:
 4396              	.L272:
 4397              		.loc 1 702 0
 4398 010c FFF7FEFF 		bl	__aeabi_i2d
 4399              	.LVL767:
 4400 0110 DDE90623 		ldrd	r2, [sp, #24]
 4401 0114 FFF7FEFF 		bl	__aeabi_dadd
 4402              	.LVL768:
 4403 0118 3B46     		mov	r3, r7
 4404 011a CDF800B0 		str	fp, [sp, #0]
 4405 011e CDE90245 		strd	r4, [sp, #8]
 4406 0122 CDF81090 		str	r9, [sp, #16]
 4407 0126 3246     		mov	r2, r6
 4408 0128 FFF7FEFF 		bl	ln_get_motion_body_rst_horizon
 4409              	.LVL769:
 4410              		.loc 1 703 0
 4411 012c 0346     		mov	r3, r0
 4412 012e E0B1     		cbz	r0, .L303
 4413              		.loc 1 700 0
 4414 0130 0899     		ldr	r1, [sp, #32]
 4415 0132 4145     		cmp	r1, r8
 4416 0134 C0F25281 		blt	.L304
 4417              	.L269:
 4418              		.loc 1 702 0
 4419 0138 4046     		mov	r0, r8
 4420 013a FFF7FEFF 		bl	__aeabi_i2d
 4421              	.LVL770:
 4422 013e DDE90623 		ldrd	r2, [sp, #24]
 4423 0142 FFF7FEFF 		bl	__aeabi_dadd
 4424              	.LVL771:
 4425 0146 3B46     		mov	r3, r7
 4426 0148 3246     		mov	r2, r6
 4427 014a CDF800B0 		str	fp, [sp, #0]
 4428 014e CDE90245 		strd	r4, [sp, #8]
 4429 0152 CDF81090 		str	r9, [sp, #16]
 4430 0156 FFF7FEFF 		bl	ln_get_motion_body_rst_horizon
ARM GAS  /tmp/ccj4yzJk.s 			page 79


 4431              	.LVL772:
 4432              		.loc 1 708 0
 4433 015a 08F1010A 		add	sl, r8, #1
 4434              		.loc 1 703 0
 4435 015e 0346     		mov	r3, r0
 4436              		.loc 1 708 0
 4437 0160 08F10208 		add	r8, r8, #2
 4438              		.loc 1 702 0
 4439 0164 5046     		mov	r0, sl
 4440              		.loc 1 703 0
 4441 0166 002B     		cmp	r3, #0
 4442 0168 D0D1     		bne	.L272
 4443              	.L303:
 4444 016a DDF820A0 		ldr	sl, [sp, #32]
 4445 016e 1C46     		mov	r4, r3
 4446              	.L300:
 4447              		.loc 1 705 0
 4448 0170 0AF10208 		add	r8, sl, #2
 4449              	.LVL773:
 4450              	.L270:
 4451              		.loc 1 710 0
 4452 0174 0AF1010A 		add	sl, sl, #1
 4453 0178 C245     		cmp	sl, r8
 4454 017a 5AD0     		beq	.L283
 4455 017c 2B9D     		ldr	r5, [sp, #172]
 4456 017e 2B9A     		ldr	r2, [sp, #172]
 4457 0180 D5E90401 		ldrd	r0, [r5, #16]
 4458 0184 D5E90089 		ldrd	r8, [r5]
 4459              	.LVL774:
 4460 0188 CDE90A01 		strd	r0, [sp, #40]
 4461 018c DDE91A45 		ldrd	r4, [sp, #104]
 4462              	.LVL775:
 4463 0190 D2E90201 		ldrd	r0, [r2, #8]
 4464 0194 DDE91667 		ldrd	r6, [sp, #88]
 4465              	.LVL776:
 4466 0198 CDE90845 		strd	r4, [sp, #32]
 4467 019c CDE90C01 		strd	r0, [sp, #48]
 4468 01a0 DDE918AB 		ldrd	sl, [sp, #96]
 4469              	.LVL777:
 4470              	.L273:
 4471              	.LBE112:
 4472              		.loc 1 719 0
 4473 01a4 DDE91045 		ldrd	r4, [sp, #64]
 4474              	.LVL778:
 4475              	.LBB113:
 4476              	.LBB114:
 4477              		.loc 1 205 0
 4478 01a8 DDE90601 		ldrd	r0, [sp, #24]
 4479 01ac 2246     		mov	r2, r4
 4480 01ae 2B46     		mov	r3, r5
 4481 01b0 FFF7FEFF 		bl	__aeabi_dcmplt
 4482              	.LVL779:
 4483 01b4 50B9     		cbnz	r0, .L274
 4484              		.loc 1 207 0
 4485 01b6 DDE90601 		ldrd	r0, [sp, #24]
 4486 01ba 4246     		mov	r2, r8
 4487 01bc 4B46     		mov	r3, r9
ARM GAS  /tmp/ccj4yzJk.s 			page 80


 4488 01be FFF7FEFF 		bl	__aeabi_dcmplt
 4489              	.LVL780:
 4490 01c2 0028     		cmp	r0, #0
 4491 01c4 00F00781 		beq	.L305
 4492              		.loc 1 208 0
 4493 01c8 4446     		mov	r4, r8
 4494              	.LVL781:
 4495 01ca 4D46     		mov	r5, r9
 4496              	.L274:
 4497              	.LBE114:
 4498              	.LBE113:
 4499              		.loc 1 720 0
 4500 01cc DDE91467 		ldrd	r6, [sp, #80]
 4501              	.LVL782:
 4502              		.loc 1 719 0
 4503 01d0 DDF8ACE0 		ldr	lr, [sp, #172]
 4504              	.LBB116:
 4505              	.LBB117:
 4506              		.loc 1 205 0
 4507 01d4 DDE90601 		ldrd	r0, [sp, #24]
 4508              	.LBE117:
 4509              	.LBE116:
 4510              		.loc 1 719 0
 4511 01d8 CEE90045 		strd	r4, [lr]
 4512              	.LBB120:
 4513              	.LBB118:
 4514              		.loc 1 205 0
 4515 01dc 3246     		mov	r2, r6
 4516 01de 3B46     		mov	r3, r7
 4517 01e0 FFF7FEFF 		bl	__aeabi_dcmplt
 4518              	.LVL783:
 4519 01e4 50B9     		cbnz	r0, .L275
 4520              		.loc 1 207 0
 4521 01e6 DDE90601 		ldrd	r0, [sp, #24]
 4522 01ea DDE90A23 		ldrd	r2, [sp, #40]
 4523 01ee FFF7FEFF 		bl	__aeabi_dcmplt
 4524              	.LVL784:
 4525 01f2 0028     		cmp	r0, #0
 4526 01f4 00F0EC80 		beq	.L306
 4527              		.loc 1 208 0
 4528 01f8 DDE90A67 		ldrd	r6, [sp, #40]
 4529              	.LVL785:
 4530              	.L275:
 4531              	.LBE118:
 4532              	.LBE120:
 4533              		.loc 1 721 0
 4534 01fc DDE91245 		ldrd	r4, [sp, #72]
 4535              	.LVL786:
 4536              		.loc 1 720 0
 4537 0200 2B99     		ldr	r1, [sp, #172]
 4538              	.LBB121:
 4539              	.LBB122:
 4540              		.loc 1 205 0
 4541 0202 2246     		mov	r2, r4
 4542              	.LBE122:
 4543              	.LBE121:
 4544              		.loc 1 720 0
ARM GAS  /tmp/ccj4yzJk.s 			page 81


 4545 0204 C1E90467 		strd	r6, [r1, #16]
 4546              	.LBB125:
 4547              	.LBB123:
 4548              		.loc 1 205 0
 4549 0208 2B46     		mov	r3, r5
 4550 020a DDE90601 		ldrd	r0, [sp, #24]
 4551 020e FFF7FEFF 		bl	__aeabi_dcmplt
 4552              	.LVL787:
 4553 0212 50B9     		cbnz	r0, .L276
 4554              		.loc 1 207 0
 4555 0214 DDE90601 		ldrd	r0, [sp, #24]
 4556 0218 DDE90C23 		ldrd	r2, [sp, #48]
 4557 021c FFF7FEFF 		bl	__aeabi_dcmplt
 4558              	.LVL788:
 4559 0220 0028     		cmp	r0, #0
 4560 0222 00F0CE80 		beq	.L307
 4561              		.loc 1 208 0
 4562 0226 DDE90C45 		ldrd	r4, [sp, #48]
 4563              	.LVL789:
 4564              	.L276:
 4565              	.LBE123:
 4566              	.LBE125:
 4567              		.loc 1 721 0
 4568 022a 2B9E     		ldr	r6, [sp, #172]
 4569 022c C6E90245 		strd	r4, [r6, #8]
 4570              		.loc 1 722 0
 4571 0230 0024     		movs	r4, #0
 4572              	.LVL790:
 4573              	.L283:
 4574              		.loc 1 723 0
 4575 0232 2046     		mov	r0, r4
 4576 0234 1DB0     		add	sp, sp, #116
 4577 0236 BDE8F08F 		pop	{r4, r5, r6, r7, r8, r9, sl, fp, pc}
 4578              	.LVL791:
 4579              	.L259:
 4580              		.loc 1 685 0 discriminator 1
 4581 023a DDF8ACE0 		ldr	lr, [sp, #172]
 4582 023e 0023     		movs	r3, #0
 4583 0240 0022     		movs	r2, #0
 4584 0242 C3F6E073 		movt	r3, 16352
 4585 0246 DDE90601 		ldrd	r0, [sp, #24]
 4586              	.LVL792:
 4587 024a DEE90089 		ldrd	r8, [lr]
 4588 024e FFF7FEFF 		bl	__aeabi_dadd
 4589              	.LVL793:
 4590 0252 CDE90A01 		strd	r0, [sp, #40]
 4591 0256 DDE90A23 		ldrd	r2, [sp, #40]
 4592 025a 4046     		mov	r0, r8
 4593 025c 4946     		mov	r1, r9
 4594 025e FFF7FEFF 		bl	__aeabi_dcmpgt
 4595              	.LVL794:
 4596 0262 0028     		cmp	r0, #0
 4597 0264 32D1     		bne	.L262
 4598 0266 2B9B     		ldr	r3, [sp, #172]
 4599 0268 D3E90423 		ldrd	r2, [r3, #16]
 4600 026c DDE90A01 		ldrd	r0, [sp, #40]
 4601 0270 CDE90C23 		strd	r2, [sp, #48]
ARM GAS  /tmp/ccj4yzJk.s 			page 82


 4602 0274 FFF7FEFF 		bl	__aeabi_dcmplt
 4603              	.LVL795:
 4604 0278 40BB     		cbnz	r0, .L262
 4605 027a 2B98     		ldr	r0, [sp, #172]
 4606 027c D0E90223 		ldrd	r2, [r0, #8]
 4607 0280 DDE90A01 		ldrd	r0, [sp, #40]
 4608 0284 CDE90E23 		strd	r2, [sp, #56]
 4609 0288 FFF7FEFF 		bl	__aeabi_dcmplt
 4610              	.LVL796:
 4611 028c F0B9     		cbnz	r0, .L262
 4612              	.LVL797:
 4613              	.LBB126:
 4614              	.LBB111:
 4615              		.loc 1 198 0
 4616 028e 0023     		movs	r3, #0
 4617 0290 0022     		movs	r2, #0
 4618 0292 C3F6F073 		movt	r3, 16368
 4619 0296 4046     		mov	r0, r8
 4620 0298 4946     		mov	r1, r9
 4621 029a FFF7FEFF 		bl	__aeabi_dsub
 4622              	.LVL798:
 4623              		.loc 1 199 0
 4624 029e 0023     		movs	r3, #0
 4625 02a0 0022     		movs	r2, #0
 4626 02a2 C3F6F073 		movt	r3, 16368
 4627              		.loc 1 198 0
 4628 02a6 CDE91001 		strd	r0, [sp, #64]
 4629              		.loc 1 199 0
 4630 02aa DDE90C01 		ldrd	r0, [sp, #48]
 4631 02ae FFF7FEFF 		bl	__aeabi_dsub
 4632              	.LVL799:
 4633              		.loc 1 200 0
 4634 02b2 0023     		movs	r3, #0
 4635              		.loc 1 199 0
 4636 02b4 CDE91401 		strd	r0, [sp, #80]
 4637              		.loc 1 200 0
 4638 02b8 0022     		movs	r2, #0
 4639 02ba C3F6F073 		movt	r3, 16368
 4640 02be DDE90E01 		ldrd	r0, [sp, #56]
 4641 02c2 FFF7FEFF 		bl	__aeabi_dsub
 4642              	.LVL800:
 4643 02c6 CDE91201 		strd	r0, [sp, #72]
 4644              	.LVL801:
 4645 02ca 19E0     		b	.L277
 4646              	.LVL802:
 4647              	.L262:
 4648              	.LBE111:
 4649              	.LBE126:
 4650              		.loc 1 687 0
 4651 02cc 0023     		movs	r3, #0
 4652 02ce 0022     		movs	r2, #0
 4653 02d0 C3F6F073 		movt	r3, 16368
 4654 02d4 DDE90601 		ldrd	r0, [sp, #24]
 4655 02d8 FFF7FEFF 		bl	__aeabi_dsub
 4656              	.LVL803:
 4657 02dc DDE92823 		ldrd	r2, [sp, #160]
 4658 02e0 CDE90223 		strd	r2, [sp, #8]
ARM GAS  /tmp/ccj4yzJk.s 			page 83


 4659 02e4 10AB     		add	r3, sp, #64
 4660 02e6 0493     		str	r3, [sp, #16]
 4661 02e8 0095     		str	r5, [sp, #0]
 4662 02ea 3246     		mov	r2, r6
 4663 02ec 3B46     		mov	r3, r7
 4664 02ee FFF7FEFF 		bl	ln_get_motion_body_rst_horizon
 4665              	.LVL804:
 4666              		.loc 1 688 0
 4667 02f2 8146     		mov	r9, r0
 4668 02f4 0028     		cmp	r0, #0
 4669 02f6 43D1     		bne	.L308
 4670 02f8 DDF8AC80 		ldr	r8, [sp, #172]
 4671 02fc D8E90089 		ldrd	r8, [r8]
 4672              	.LVL805:
 4673              	.L277:
 4674              		.loc 1 696 0 discriminator 1
 4675 0300 DDE90601 		ldrd	r0, [sp, #24]
 4676 0304 4246     		mov	r2, r8
 4677 0306 4B46     		mov	r3, r9
 4678 0308 FFF7FEFF 		bl	__aeabi_dcmpgt
 4679              	.LVL806:
 4680 030c 0028     		cmp	r0, #0
 4681 030e 7FF4B6AE 		bne	.L266
 4682 0312 2B99     		ldr	r1, [sp, #172]
 4683 0314 D1E90423 		ldrd	r2, [r1, #16]
 4684 0318 DDE90601 		ldrd	r0, [sp, #24]
 4685 031c CDE90A23 		strd	r2, [sp, #40]
 4686 0320 FFF7FEFF 		bl	__aeabi_dcmpgt
 4687              	.LVL807:
 4688 0324 0028     		cmp	r0, #0
 4689 0326 7FF4AAAE 		bne	.L266
 4690 032a 2B98     		ldr	r0, [sp, #172]
 4691 032c D0E90223 		ldrd	r2, [r0, #8]
 4692 0330 DDE90601 		ldrd	r0, [sp, #24]
 4693 0334 CDE90C23 		strd	r2, [sp, #48]
 4694 0338 FFF7FEFF 		bl	__aeabi_dcmpgt
 4695              	.LVL808:
 4696 033c 0028     		cmp	r0, #0
 4697 033e 7FF49EAE 		bne	.L266
 4698              	.LVL809:
 4699              	.LBB127:
 4700              	.LBB128:
 4701              		.loc 1 198 0
 4702 0342 0023     		movs	r3, #0
 4703 0344 0022     		movs	r2, #0
 4704 0346 C3F6F073 		movt	r3, 16368
 4705 034a 4046     		mov	r0, r8
 4706 034c 4946     		mov	r1, r9
 4707 034e FFF7FEFF 		bl	__aeabi_dadd
 4708              	.LVL810:
 4709              		.loc 1 199 0
 4710 0352 0023     		movs	r3, #0
 4711 0354 0022     		movs	r2, #0
 4712 0356 C3F6F073 		movt	r3, 16368
 4713              		.loc 1 198 0
 4714 035a 0646     		mov	r6, r0
 4715              	.LVL811:
ARM GAS  /tmp/ccj4yzJk.s 			page 84


 4716 035c 0F46     		mov	r7, r1
 4717              	.LVL812:
 4718              		.loc 1 199 0
 4719 035e DDE90A01 		ldrd	r0, [sp, #40]
 4720 0362 FFF7FEFF 		bl	__aeabi_dadd
 4721              	.LVL813:
 4722              		.loc 1 200 0
 4723 0366 0023     		movs	r3, #0
 4724              		.loc 1 199 0
 4725 0368 CDE90801 		strd	r0, [sp, #32]
 4726              		.loc 1 200 0
 4727 036c 0022     		movs	r2, #0
 4728 036e DDE90C01 		ldrd	r0, [sp, #48]
 4729 0372 C3F6F073 		movt	r3, 16368
 4730 0376 FFF7FEFF 		bl	__aeabi_dadd
 4731              	.LVL814:
 4732 037a 8246     		mov	sl, r0
 4733 037c 8B46     		mov	fp, r1
 4734 037e 11E7     		b	.L273
 4735              	.LVL815:
 4736              	.L308:
 4737              	.LBE128:
 4738              	.LBE127:
 4739              	.LBB129:
 4740              	.LBB130:
 4741              		.loc 1 198 0
 4742 0380 2B9C     		ldr	r4, [sp, #172]
 4743 0382 0023     		movs	r3, #0
 4744 0384 0022     		movs	r2, #0
 4745 0386 C3F6F073 		movt	r3, 16368
 4746 038a D4E90001 		ldrd	r0, [r4]
 4747              	.LVL816:
 4748 038e FFF7FEFF 		bl	__aeabi_dsub
 4749              	.LVL817:
 4750              		.loc 1 199 0
 4751 0392 0023     		movs	r3, #0
 4752 0394 0022     		movs	r2, #0
 4753 0396 C3F6F073 		movt	r3, 16368
 4754              		.loc 1 198 0
 4755 039a CDE91001 		strd	r0, [sp, #64]
 4756              		.loc 1 199 0
 4757 039e D4E90401 		ldrd	r0, [r4, #16]
 4758 03a2 FFF7FEFF 		bl	__aeabi_dsub
 4759              	.LVL818:
 4760              		.loc 1 200 0
 4761 03a6 0023     		movs	r3, #0
 4762              		.loc 1 199 0
 4763 03a8 CDE91401 		strd	r0, [sp, #80]
 4764              		.loc 1 200 0
 4765 03ac 0022     		movs	r2, #0
 4766 03ae D4E90201 		ldrd	r0, [r4, #8]
 4767 03b2 C3F6F073 		movt	r3, 16368
 4768 03b6 FFF7FEFF 		bl	__aeabi_dsub
 4769              	.LVL819:
 4770 03ba 4C46     		mov	r4, r9
 4771 03bc CDE91201 		strd	r0, [sp, #72]
 4772              	.LVL820:
ARM GAS  /tmp/ccj4yzJk.s 			page 85


 4773 03c0 5DE6     		b	.L266
 4774              	.LVL821:
 4775              	.L307:
 4776              	.LBE130:
 4777              	.LBE129:
 4778              		.loc 1 721 0
 4779 03c2 2B9E     		ldr	r6, [sp, #172]
 4780              	.LBB131:
 4781              	.LBB124:
 4782              		.loc 1 209 0
 4783 03c4 5446     		mov	r4, sl
 4784              	.LVL822:
 4785 03c6 5D46     		mov	r5, fp
 4786              	.LBE124:
 4787              	.LBE131:
 4788              		.loc 1 721 0
 4789 03c8 C6E90245 		strd	r4, [r6, #8]
 4790              		.loc 1 722 0
 4791 03cc 0024     		movs	r4, #0
 4792 03ce 30E7     		b	.L283
 4793              	.LVL823:
 4794              	.L306:
 4795              	.LBB132:
 4796              	.LBB119:
 4797              		.loc 1 209 0
 4798 03d0 DDE90867 		ldrd	r6, [sp, #32]
 4799              	.LVL824:
 4800 03d4 12E7     		b	.L275
 4801              	.LVL825:
 4802              	.L305:
 4803              	.LBE119:
 4804              	.LBE132:
 4805              	.LBB133:
 4806              	.LBB115:
 4807 03d6 3446     		mov	r4, r6
 4808              	.LVL826:
 4809 03d8 3D46     		mov	r5, r7
 4810 03da F7E6     		b	.L274
 4811              	.LVL827:
 4812              	.L304:
 4813 03dc 0446     		mov	r4, r0
 4814 03de 8A46     		mov	sl, r1
 4815 03e0 C8E6     		b	.L270
 4816              	.LBE115:
 4817              	.LBE133:
 4818              		.cfi_endproc
 4819              	.LFE12:
 4820              		.size	ln_get_motion_body_next_rst_horizon_future, .-ln_get_motion_body_next_rst_horizon_future
 4821 03e2 00BFAFF3 		.section	.text.ln_get_motion_body_next_rst_horizon,"ax",%progbits
 4821      0080AFF3 
 4821      0080AFF3 
 4821      0080
 4822              		.align	2
 4823              		.p2align 4,,15
 4824              		.global	ln_get_motion_body_next_rst_horizon
 4825              		.thumb
 4826              		.thumb_func
ARM GAS  /tmp/ccj4yzJk.s 			page 86


 4827              		.type	ln_get_motion_body_next_rst_horizon, %function
 4828              	ln_get_motion_body_next_rst_horizon:
 4829              	.LFB11:
 4830              		.loc 1 653 0
 4831              		.cfi_startproc
 4832              		@ args = 20, pretend = 0, frame = 0
 4833              		@ frame_needed = 0, uses_anonymous_args = 0
 4834              	.LVL828:
 4835 0000 30B5     		push	{r4, r5, lr}
 4836              	.LCFI21:
 4837              		.cfi_def_cfa_offset 12
 4838              		.cfi_offset 4, -12
 4839              		.cfi_offset 5, -8
 4840              		.cfi_offset 14, -4
 4841 0002 87B0     		sub	sp, sp, #28
 4842              	.LCFI22:
 4843              		.cfi_def_cfa_offset 40
 4844              		.loc 1 653 0
 4845 0004 0A9C     		ldr	r4, [sp, #40]
 4846              		.loc 1 654 0
 4847 0006 0094     		str	r4, [sp, #0]
 4848 0008 DDE90C45 		ldrd	r4, [sp, #48]
 4849 000c CDE90245 		strd	r4, [sp, #8]
 4850 0010 0124     		movs	r4, #1
 4851 0012 0494     		str	r4, [sp, #16]
 4852 0014 0E9C     		ldr	r4, [sp, #56]
 4853 0016 0594     		str	r4, [sp, #20]
 4854 0018 FFF7FEFF 		bl	ln_get_motion_body_next_rst_horizon_future
 4855              	.LVL829:
 4856              		.loc 1 655 0
 4857 001c 07B0     		add	sp, sp, #28
 4858 001e 30BD     		pop	{r4, r5, pc}
 4859              		.cfi_endproc
 4860              	.LFE11:
 4861              		.size	ln_get_motion_body_next_rst_horizon, .-ln_get_motion_body_next_rst_horizon
 4862              		.text
 4863              	.Letext0:
 4864              		.file 2 "./libnova/src/libnova/ln_types.h"
 4865              		.file 3 "./libnova/src/libnova/sidereal_time.h"
 4866              		.file 4 "./libnova/src/libnova/utility.h"
 4867              		.file 5 "/usr/bin/../lib/gcc/arm-none-eabi/4.7.4/../../../../arm-none-eabi/include/math.h"
 4868              		.file 6 "./libnova/src/libnova/dynamical_time.h"
 4869              		.file 7 "./libnova/src/libnova/rise_set.h"