ARM GAS  /tmp/ccj4yzJk.s 			page 1


   1              		.syntax unified
   2              		.cpu cortex-m4
   3              		.fpu softvfp
   4              		.eabi_attribute 20, 1
   5              		.eabi_attribute 21, 1
   6              		.eabi_attribute 23, 3
   7              		.eabi_attribute 24, 1
   8              		.eabi_attribute 25, 1
   9              		.eabi_attribute 26, 1
  10              		.eabi_attribute 30, 2
  11              		.eabi_attribute 34, 1
  12              		.eabi_attribute 18, 4
  13              		.thumb
  14              		.file	"rise_set.c"
  15              		.text
  16              	.Ltext0:
  17              		.cfi_sections	.debug_frame
  18              		.global	__aeabi_dcmpgt
  19              		.global	__aeabi_dadd
  20              		.global	__aeabi_dsub
  21              		.global	__aeabi_dcmplt
  22              		.section	.text.check_coords,"ax",%progbits
  23              		.align	2
  24              		.p2align 4,,15
  25              		.global	check_coords
  26              		.thumb
  27              		.thumb_func
  28              		.type	check_coords, %function
  29              	check_coords:
  30              	.LFB0:
  31              		.file 1 "./libnova/src/rise_set.c"
  32              		.loc 1 28 0
  33              		.cfi_startproc
  34              		@ args = 12, pretend = 0, frame = 0
  35              		@ frame_needed = 0, uses_anonymous_args = 0
  36              	.LVL0:
  37 0000 70B5     		push	{r4, r5, r6, lr}
  38              	.LCFI0:
  39              		.cfi_def_cfa_offset 16
  40              		.cfi_offset 4, -16
  41              		.cfi_offset 5, -12
  42              		.cfi_offset 6, -8
  43              		.cfi_offset 14, -4
  44              		.loc 1 31 0
  45 0002 1446     		mov	r4, r2
  46 0004 23F00045 		bic	r5, r3, #-2147483648
  47 0008 0023     		movs	r3, #0
  48              		.loc 1 28 0
  49 000a 0646     		mov	r6, r0
  50              		.loc 1 31 0
  51 000c 0022     		movs	r2, #0
  52              	.LVL1:
  53 000e C3F6F073 		movt	r3, 16368
  54 0012 2046     		mov	r0, r4
  55              	.LVL2:
  56 0014 2946     		mov	r1, r5
  57 0016 FFF7FEFF 		bl	__aeabi_dcmpgt
ARM GAS  /tmp/ccj4yzJk.s 			page 2


  58              	.LVL3:
  59 001a 0028     		cmp	r0, #0
  60 001c 37D0     		beq	.L2
  61              		.loc 1 35 0
  62 001e 0699     		ldr	r1, [sp, #24]
  63 0020 4FF40043 		mov	r3, #32768
  64 0024 0022     		movs	r2, #0
  65 0026 C4F25603 		movt	r3, 16470
  66 002a D1E90201 		ldrd	r0, [r1, #8]
  67 002e FFF7FEFF 		bl	__aeabi_dadd
  68              	.LVL4:
  69 0032 D6E90223 		ldrd	r2, [r6, #8]
  70 0036 FFF7FEFF 		bl	__aeabi_dsub
  71              	.LVL5:
  72              		.loc 1 37 0
  73 003a 4FF40043 		mov	r3, #32768
  74 003e 0022     		movs	r2, #0
  75 0040 C4F25603 		movt	r3, 16470
  76              		.loc 1 35 0
  77 0044 0446     		mov	r4, r0
  78 0046 0D46     		mov	r5, r1
  79              	.LVL6:
  80              		.loc 1 37 0
  81 0048 FFF7FEFF 		bl	__aeabi_dcmpgt
  82              	.LVL7:
  83 004c 50B1     		cbz	r0, .L4
  84              		.loc 1 38 0
  85 004e 4FF40041 		mov	r1, #32768
  86 0052 2246     		mov	r2, r4
  87 0054 2B46     		mov	r3, r5
  88 0056 0020     		movs	r0, #0
  89 0058 C4F26601 		movt	r1, 16486
  90 005c FFF7FEFF 		bl	__aeabi_dsub
  91              	.LVL8:
  92 0060 0446     		mov	r4, r0
  93              	.LVL9:
  94 0062 0D46     		mov	r5, r1
  95              	.LVL10:
  96              	.L4:
  97              		.loc 1 39 0
  98 0064 4FF40043 		mov	r3, #32768
  99 0068 2046     		mov	r0, r4
 100 006a 2946     		mov	r1, r5
 101 006c 0022     		movs	r2, #0
 102 006e CCF25603 		movt	r3, 49238
 103 0072 FFF7FEFF 		bl	__aeabi_dcmplt
 104              	.LVL11:
 105 0076 58B9     		cbnz	r0, .L17
 106              	.L6:
 107              		.loc 1 41 0
 108 0078 2046     		mov	r0, r4
 109 007a 2946     		mov	r1, r5
 110 007c DDE90423 		ldrd	r2, [sp, #16]
 111 0080 FFF7FEFF 		bl	__aeabi_dcmplt
 112              	.LVL12:
 113              		.loc 1 44 0
 114 0084 0028     		cmp	r0, #0
ARM GAS  /tmp/ccj4yzJk.s 			page 3


 115 0086 14BF     		ite	ne
 116 0088 4FF0FF30 		movne	r0, #-1
 117 008c 0120     		moveq	r0, #1
 118              	.LVL13:
 119              	.L2:
 120              		.loc 1 47 0
 121 008e 70BD     		pop	{r4, r5, r6, pc}
 122              	.LVL14:
 123              	.L17:
 124              		.loc 1 40 0
 125 0090 4FF40041 		mov	r1, #32768
 126 0094 2246     		mov	r2, r4
 127 0096 2B46     		mov	r3, r5
 128 0098 0020     		movs	r0, #0
 129 009a CCF26601 		movt	r1, 49254
 130 009e FFF7FEFF 		bl	__aeabi_dsub
 131              	.LVL15:
 132 00a2 0446     		mov	r4, r0
 133              	.LVL16:
 134 00a4 0D46     		mov	r5, r1
 135              	.LVL17:
 136 00a6 E7E7     		b	.L6
 137              		.cfi_endproc
 138              	.LFE0:
 139              		.size	check_coords, .-check_coords
 140              		.global	__aeabi_d2iz
 141              		.global	__aeabi_i2d
 142              		.global	__aeabi_dmul
 143              		.global	__aeabi_ddiv
 144 00a8 AFF30080 		.section	.text.ln_get_object_rst_horizon,"ax",%progbits
 144      AFF30080 
 145              		.align	2
 146              		.p2align 4,,15
 147              		.global	ln_get_object_rst_horizon
 148              		.thumb
 149              		.thumb_func
 150              		.type	ln_get_object_rst_horizon, %function
 151              	ln_get_object_rst_horizon:
 152              	.LFB2:
 153              		.loc 1 83 0
 154              		.cfi_startproc
 155              		@ args = 12, pretend = 0, frame = 72
 156              		@ frame_needed = 0, uses_anonymous_args = 0
 157              	.LVL18:
 158 0000 2DE9F04F 		push	{r4, r5, r6, r7, r8, r9, sl, fp, lr}
 159              	.LCFI1:
 160              		.cfi_def_cfa_offset 36
 161              		.cfi_offset 4, -36
 162              		.cfi_offset 5, -32
 163              		.cfi_offset 6, -28
 164              		.cfi_offset 7, -24
 165              		.cfi_offset 8, -20
 166              		.cfi_offset 9, -16
 167              		.cfi_offset 10, -12
 168              		.cfi_offset 11, -8
 169              		.cfi_offset 14, -4
 170 0004 93B0     		sub	sp, sp, #76
ARM GAS  /tmp/ccj4yzJk.s 			page 4


 171              	.LCFI2:
 172              		.cfi_def_cfa_offset 112
 173              		.loc 1 83 0
 174 0006 1646     		mov	r6, r2
 175 0008 1F46     		mov	r7, r3
 176              		.loc 1 93 0
 177 000a FFF7FEFF 		bl	__aeabi_d2iz
 178              	.LVL19:
 179              		.loc 1 94 0
 180 000e FFF7FEFF 		bl	__aeabi_i2d
 181              	.LVL20:
 182 0012 0023     		movs	r3, #0
 183 0014 0022     		movs	r2, #0
 184 0016 C3F6E073 		movt	r3, 16352
 185 001a FFF7FEFF 		bl	__aeabi_dadd
 186              	.LVL21:
 187 001e CDE90801 		strd	r0, [sp, #32]
 188              	.LVL22:
 189              		.loc 1 95 0
 190 0022 FFF7FEFF 		bl	ln_get_apparent_sidereal_time
 191              	.LVL23:
 192 0026 8246     		mov	sl, r0
 193 0028 8B46     		mov	fp, r1
 194              	.LVL24:
 195              		.loc 1 99 0
 196 002a DDE91C01 		ldrd	r0, [sp, #112]
 197 002e FFF7FEFF 		bl	ln_deg_to_rad
 198              	.LVL25:
 199 0032 FFF7FEFF 		bl	sin
 200              	.LVL26:
 201 0036 0446     		mov	r4, r0
 202 0038 0D46     		mov	r5, r1
 203              		.loc 1 100 0
 204 003a D6E90201 		ldrd	r0, [r6, #8]
 205 003e FFF7FEFF 		bl	ln_deg_to_rad
 206              	.LVL27:
 207 0042 FFF7FEFF 		bl	sin
 208              	.LVL28:
 209 0046 8046     		mov	r8, r0
 210 0048 8946     		mov	r9, r1
 211 004a D7E90201 		ldrd	r0, [r7, #8]
 212 004e FFF7FEFF 		bl	ln_deg_to_rad
 213              	.LVL29:
 214 0052 FFF7FEFF 		bl	sin
 215              	.LVL30:
 216 0056 0246     		mov	r2, r0
 217 0058 0B46     		mov	r3, r1
 218 005a 4046     		mov	r0, r8
 219 005c 4946     		mov	r1, r9
 220 005e FFF7FEFF 		bl	__aeabi_dmul
 221              	.LVL31:
 222 0062 0246     		mov	r2, r0
 223 0064 0B46     		mov	r3, r1
 224              		.loc 1 99 0
 225 0066 2046     		mov	r0, r4
 226 0068 2946     		mov	r1, r5
 227 006a FFF7FEFF 		bl	__aeabi_dsub
ARM GAS  /tmp/ccj4yzJk.s 			page 5


 228              	.LVL32:
 229 006e 0446     		mov	r4, r0
 230 0070 0D46     		mov	r5, r1
 231              	.LVL33:
 232              		.loc 1 101 0
 233 0072 D6E90201 		ldrd	r0, [r6, #8]
 234 0076 FFF7FEFF 		bl	ln_deg_to_rad
 235              	.LVL34:
 236 007a FFF7FEFF 		bl	cos
 237              	.LVL35:
 238 007e 8046     		mov	r8, r0
 239 0080 8946     		mov	r9, r1
 240 0082 D7E90201 		ldrd	r0, [r7, #8]
 241 0086 FFF7FEFF 		bl	ln_deg_to_rad
 242              	.LVL36:
 243 008a FFF7FEFF 		bl	cos
 244              	.LVL37:
 245 008e 0246     		mov	r2, r0
 246 0090 0B46     		mov	r3, r1
 247 0092 4046     		mov	r0, r8
 248 0094 4946     		mov	r1, r9
 249 0096 FFF7FEFF 		bl	__aeabi_dmul
 250              	.LVL38:
 251 009a 0246     		mov	r2, r0
 252 009c 0B46     		mov	r3, r1
 253              	.LVL39:
 254              		.loc 1 103 0
 255 009e 2046     		mov	r0, r4
 256 00a0 2946     		mov	r1, r5
 257 00a2 FFF7FEFF 		bl	__aeabi_ddiv
 258              	.LVL40:
 259              	.LBB44:
 260              	.LBB45:
 261              		.loc 1 31 0
 262 00a6 21F00043 		bic	r3, r1, #-2147483648
 263              	.LBE45:
 264              	.LBE44:
 265              		.loc 1 103 0
 266 00aa 0C46     		mov	r4, r1
 267              	.LVL41:
 268              	.LBB49:
 269              	.LBB46:
 270              		.loc 1 31 0
 271 00ac 1946     		mov	r1, r3
 272              	.LVL42:
 273 00ae 0023     		movs	r3, #0
 274 00b0 0022     		movs	r2, #0
 275 00b2 C3F6F073 		movt	r3, 16368
 276              	.LBE46:
 277              	.LBE49:
 278              		.loc 1 103 0
 279 00b6 0546     		mov	r5, r0
 280              	.LBB50:
 281              	.LBB47:
 282              		.loc 1 31 0
 283 00b8 FFF7FEFF 		bl	__aeabi_dcmpgt
 284              	.LVL43:
ARM GAS  /tmp/ccj4yzJk.s 			page 6


 285              		.loc 1 35 0
 286 00bc 0022     		movs	r2, #0
 287              		.loc 1 31 0
 288 00be 0028     		cmp	r0, #0
 289 00c0 45D0     		beq	.L51
 290              		.loc 1 35 0
 291 00c2 4FF40043 		mov	r3, #32768
 292 00c6 C4F25603 		movt	r3, 16470
 293 00ca D7E90201 		ldrd	r0, [r7, #8]
 294 00ce FFF7FEFF 		bl	__aeabi_dadd
 295              	.LVL44:
 296 00d2 D6E90223 		ldrd	r2, [r6, #8]
 297 00d6 FFF7FEFF 		bl	__aeabi_dsub
 298              	.LVL45:
 299              		.loc 1 37 0
 300 00da 4FF40043 		mov	r3, #32768
 301 00de 0022     		movs	r2, #0
 302 00e0 C4F25603 		movt	r3, 16470
 303              		.loc 1 35 0
 304 00e4 0446     		mov	r4, r0
 305              	.LVL46:
 306 00e6 0D46     		mov	r5, r1
 307              	.LVL47:
 308              		.loc 1 37 0
 309 00e8 FFF7FEFF 		bl	__aeabi_dcmpgt
 310              	.LVL48:
 311 00ec 50B1     		cbz	r0, .L21
 312              		.loc 1 38 0
 313 00ee 4FF40041 		mov	r1, #32768
 314 00f2 2246     		mov	r2, r4
 315 00f4 2B46     		mov	r3, r5
 316 00f6 0020     		movs	r0, #0
 317 00f8 C4F26601 		movt	r1, 16486
 318 00fc FFF7FEFF 		bl	__aeabi_dsub
 319              	.LVL49:
 320 0100 0446     		mov	r4, r0
 321              	.LVL50:
 322 0102 0D46     		mov	r5, r1
 323              	.LVL51:
 324              	.L21:
 325              		.loc 1 39 0
 326 0104 4FF40043 		mov	r3, #32768
 327 0108 2046     		mov	r0, r4
 328 010a 2946     		mov	r1, r5
 329 010c 0022     		movs	r2, #0
 330 010e CCF25603 		movt	r3, 49238
 331 0112 FFF7FEFF 		bl	__aeabi_dcmplt
 332              	.LVL52:
 333 0116 70B9     		cbnz	r0, .L56
 334              	.L23:
 335              		.loc 1 41 0
 336 0118 2246     		mov	r2, r4
 337 011a DDE91C01 		ldrd	r0, [sp, #112]
 338 011e 2B46     		mov	r3, r5
 339 0120 FFF7FEFF 		bl	__aeabi_dcmpgt
 340              	.LVL53:
 341              		.loc 1 44 0
ARM GAS  /tmp/ccj4yzJk.s 			page 7


 342 0124 0028     		cmp	r0, #0
 343 0126 14BF     		ite	ne
 344 0128 4FF0FF32 		movne	r2, #-1
 345 012c 0122     		moveq	r2, #1
 346              	.LVL54:
 347              	.L52:
 348              	.LBE47:
 349              	.LBE50:
 350              		.loc 1 173 0
 351 012e 1046     		mov	r0, r2
 352 0130 13B0     		add	sp, sp, #76
 353 0132 BDE8F08F 		pop	{r4, r5, r6, r7, r8, r9, sl, fp, pc}
 354              	.LVL55:
 355              	.L56:
 356              	.LBB51:
 357              	.LBB48:
 358              		.loc 1 40 0
 359 0136 4FF40041 		mov	r1, #32768
 360 013a 2246     		mov	r2, r4
 361 013c 2B46     		mov	r3, r5
 362 013e 0020     		movs	r0, #0
 363 0140 CCF26601 		movt	r1, 49254
 364 0144 FFF7FEFF 		bl	__aeabi_dsub
 365              	.LVL56:
 366 0148 0446     		mov	r4, r0
 367              	.LVL57:
 368 014a 0D46     		mov	r5, r1
 369              	.LVL58:
 370 014c E4E7     		b	.L23
 371              	.LVL59:
 372              	.L51:
 373              	.LBE48:
 374              	.LBE51:
 375              		.loc 1 96 0
 376 014e 0023     		movs	r3, #0
 377 0150 C4F22E03 		movt	r3, 16430
 378 0154 5046     		mov	r0, sl
 379 0156 5946     		mov	r1, fp
 380 0158 FFF7FEFF 		bl	__aeabi_dmul
 381              	.LVL60:
 382 015c 8046     		mov	r8, r0
 383 015e 8946     		mov	r9, r1
 384              		.loc 1 109 0
 385 0160 2846     		mov	r0, r5
 386 0162 2146     		mov	r1, r4
 387 0164 FFF7FEFF 		bl	acos
 388              	.LVL61:
 389              		.loc 1 110 0
 390 0168 FFF7FEFF 		bl	ln_rad_to_deg
 391              	.LVL62:
 392              		.loc 1 113 0
 393 016c D7E90045 		ldrd	r4, [r7]
 394              	.LVL63:
 395 0170 D6E900AB 		ldrd	sl, [r6]
 396              	.LVL64:
 397              		.loc 1 110 0
 398 0174 CDE90401 		strd	r0, [sp, #16]
ARM GAS  /tmp/ccj4yzJk.s 			page 8


 399              	.LVL65:
 400              		.loc 1 113 0
 401 0178 5246     		mov	r2, sl
 402 017a 5B46     		mov	r3, fp
 403 017c 2046     		mov	r0, r4
 404              	.LVL66:
 405 017e 2946     		mov	r1, r5
 406 0180 FFF7FEFF 		bl	__aeabi_dsub
 407              	.LVL67:
 408 0184 4246     		mov	r2, r8
 409 0186 4B46     		mov	r3, r9
 410 0188 FFF7FEFF 		bl	__aeabi_dsub
 411              	.LVL68:
 412 018c 4FF40043 		mov	r3, #32768
 413 0190 0022     		movs	r2, #0
 414 0192 C4F27603 		movt	r3, 16502
 415 0196 FFF7FEFF 		bl	__aeabi_ddiv
 416              	.LVL69:
 417              		.loc 1 114 0
 418 019a 4FF40043 		mov	r3, #32768
 419              		.loc 1 113 0
 420 019e CDE90601 		strd	r0, [sp, #24]
 421              	.LVL70:
 422              		.loc 1 114 0
 423 01a2 0022     		movs	r2, #0
 424 01a4 DDE90401 		ldrd	r0, [sp, #16]
 425              	.LVL71:
 426 01a8 C4F27603 		movt	r3, 16502
 427 01ac FFF7FEFF 		bl	__aeabi_ddiv
 428              	.LVL72:
 429 01b0 CDE90201 		strd	r0, [sp, #8]
 430 01b4 DDE90223 		ldrd	r2, [sp, #8]
 431 01b8 DDE90601 		ldrd	r0, [sp, #24]
 432 01bc FFF7FEFF 		bl	__aeabi_dsub
 433              	.LVL73:
 434              		.loc 1 115 0
 435 01c0 DDE90223 		ldrd	r2, [sp, #8]
 436              		.loc 1 114 0
 437 01c4 CDE90401 		strd	r0, [sp, #16]
 438              	.LVL74:
 439              		.loc 1 115 0
 440 01c8 DDE90601 		ldrd	r0, [sp, #24]
 441              	.LVL75:
 442 01cc FFF7FEFF 		bl	__aeabi_dadd
 443              	.LVL76:
 444              		.loc 1 118 0
 445 01d0 0023     		movs	r3, #0
 446              		.loc 1 115 0
 447 01d2 CDE90201 		strd	r0, [sp, #8]
 448              	.LVL77:
 449              		.loc 1 118 0
 450 01d6 0022     		movs	r2, #0
 451 01d8 DDE90601 		ldrd	r0, [sp, #24]
 452              	.LVL78:
 453 01dc C3F6F073 		movt	r3, 16368
 454 01e0 FFF7FEFF 		bl	__aeabi_dcmpgt
 455              	.LVL79:
ARM GAS  /tmp/ccj4yzJk.s 			page 9


 456 01e4 0028     		cmp	r0, #0
 457 01e6 00F0CF81 		beq	.L57
 458              		.loc 1 119 0
 459 01ea 0023     		movs	r3, #0
 460 01ec DDE90601 		ldrd	r0, [sp, #24]
 461 01f0 0022     		movs	r2, #0
 462 01f2 C3F6F073 		movt	r3, 16368
 463 01f6 FFF7FEFF 		bl	__aeabi_dsub
 464              	.LVL80:
 465 01fa CDE90601 		strd	r0, [sp, #24]
 466              	.LVL81:
 467              	.L27:
 468              		.loc 1 122 0
 469 01fe 0023     		movs	r3, #0
 470 0200 DDE90401 		ldrd	r0, [sp, #16]
 471 0204 0022     		movs	r2, #0
 472 0206 C3F6F073 		movt	r3, 16368
 473 020a FFF7FEFF 		bl	__aeabi_dcmpgt
 474              	.LVL82:
 475 020e 0028     		cmp	r0, #0
 476 0210 00F0E281 		beq	.L53
 477              		.loc 1 123 0
 478 0214 0023     		movs	r3, #0
 479 0216 DDE90401 		ldrd	r0, [sp, #16]
 480 021a 0022     		movs	r2, #0
 481 021c C3F6F073 		movt	r3, 16368
 482 0220 FFF7FEFF 		bl	__aeabi_dsub
 483              	.LVL83:
 484 0224 CDE90401 		strd	r0, [sp, #16]
 485              	.LVL84:
 486              	.L31:
 487              		.loc 1 126 0
 488 0228 0023     		movs	r3, #0
 489 022a DDE90201 		ldrd	r0, [sp, #8]
 490 022e 0022     		movs	r2, #0
 491 0230 C3F6F073 		movt	r3, 16368
 492 0234 FFF7FEFF 		bl	__aeabi_dcmpgt
 493              	.LVL85:
 494 0238 0028     		cmp	r0, #0
 495 023a 00F0B981 		beq	.L54
 496              		.loc 1 127 0
 497 023e 0023     		movs	r3, #0
 498 0240 DDE90201 		ldrd	r0, [sp, #8]
 499 0244 0022     		movs	r2, #0
 500 0246 C3F6F073 		movt	r3, 16368
 501 024a FFF7FEFF 		bl	__aeabi_dsub
 502              	.LVL86:
 503 024e CDE90201 		strd	r0, [sp, #8]
 504              	.LVL87:
 505              	.L35:
 506              		.loc 1 132 0
 507 0252 75A3     		adr	r3, .L58
 508 0254 D3E90023 		ldrd	r2, [r3]
 509 0258 DDE90601 		ldrd	r0, [sp, #24]
 510 025c FFF7FEFF 		bl	__aeabi_dmul
 511              	.LVL88:
 512 0260 4246     		mov	r2, r8
ARM GAS  /tmp/ccj4yzJk.s 			page 10


 513 0262 4B46     		mov	r3, r9
 514 0264 FFF7FEFF 		bl	__aeabi_dadd
 515              	.LVL89:
 516 0268 0246     		mov	r2, r0
 517 026a 0B46     		mov	r3, r1
 518              		.loc 1 137 0
 519 026c 5046     		mov	r0, sl
 520 026e 5946     		mov	r1, fp
 521 0270 FFF7FEFF 		bl	__aeabi_dadd
 522              	.LVL90:
 523 0274 2246     		mov	r2, r4
 524 0276 2B46     		mov	r3, r5
 525 0278 FFF7FEFF 		bl	__aeabi_dsub
 526              	.LVL91:
 527              		.loc 1 133 0
 528 027c 6AA3     		adr	r3, .L58
 529 027e D3E90023 		ldrd	r2, [r3]
 530              		.loc 1 137 0
 531 0282 CDE90A01 		strd	r0, [sp, #40]
 532              	.LVL92:
 533              		.loc 1 133 0
 534 0286 DDE90401 		ldrd	r0, [sp, #16]
 535              	.LVL93:
 536 028a FFF7FEFF 		bl	__aeabi_dmul
 537              	.LVL94:
 538 028e 4246     		mov	r2, r8
 539 0290 4B46     		mov	r3, r9
 540 0292 FFF7FEFF 		bl	__aeabi_dadd
 541              	.LVL95:
 542 0296 0246     		mov	r2, r0
 543 0298 0B46     		mov	r3, r1
 544              		.loc 1 138 0
 545 029a 5046     		mov	r0, sl
 546 029c 5946     		mov	r1, fp
 547 029e FFF7FEFF 		bl	__aeabi_dadd
 548              	.LVL96:
 549 02a2 2246     		mov	r2, r4
 550 02a4 2B46     		mov	r3, r5
 551 02a6 FFF7FEFF 		bl	__aeabi_dsub
 552              	.LVL97:
 553              		.loc 1 134 0
 554 02aa 5FA3     		adr	r3, .L58
 555 02ac D3E90023 		ldrd	r2, [r3]
 556              		.loc 1 138 0
 557 02b0 CDE90C01 		strd	r0, [sp, #48]
 558              	.LVL98:
 559              		.loc 1 134 0
 560 02b4 DDE90201 		ldrd	r0, [sp, #8]
 561              	.LVL99:
 562 02b8 FFF7FEFF 		bl	__aeabi_dmul
 563              	.LVL100:
 564 02bc 4246     		mov	r2, r8
 565 02be 4B46     		mov	r3, r9
 566 02c0 FFF7FEFF 		bl	__aeabi_dadd
 567              	.LVL101:
 568 02c4 0246     		mov	r2, r0
 569 02c6 0B46     		mov	r3, r1
ARM GAS  /tmp/ccj4yzJk.s 			page 11


 570              		.loc 1 139 0
 571 02c8 5046     		mov	r0, sl
 572 02ca 5946     		mov	r1, fp
 573 02cc FFF7FEFF 		bl	__aeabi_dadd
 574              	.LVL102:
 575 02d0 2246     		mov	r2, r4
 576 02d2 2B46     		mov	r3, r5
 577 02d4 FFF7FEFF 		bl	__aeabi_dsub
 578              	.LVL103:
 579 02d8 CDE90E01 		strd	r0, [sp, #56]
 580              	.LVL104:
 581              		.loc 1 142 0
 582 02dc D6E90201 		ldrd	r0, [r6, #8]
 583              	.LVL105:
 584 02e0 FFF7FEFF 		bl	ln_deg_to_rad
 585              	.LVL106:
 586 02e4 FFF7FEFF 		bl	sin
 587              	.LVL107:
 588 02e8 0446     		mov	r4, r0
 589 02ea 0D46     		mov	r5, r1
 590 02ec D7E90201 		ldrd	r0, [r7, #8]
 591 02f0 FFF7FEFF 		bl	ln_deg_to_rad
 592              	.LVL108:
 593 02f4 FFF7FEFF 		bl	sin
 594              	.LVL109:
 595 02f8 0246     		mov	r2, r0
 596 02fa 0B46     		mov	r3, r1
 597 02fc 2046     		mov	r0, r4
 598 02fe 2946     		mov	r1, r5
 599 0300 FFF7FEFF 		bl	__aeabi_dmul
 600              	.LVL110:
 601 0304 8246     		mov	sl, r0
 602 0306 8B46     		mov	fp, r1
 603              		.loc 1 143 0
 604 0308 D6E90201 		ldrd	r0, [r6, #8]
 605 030c FFF7FEFF 		bl	ln_deg_to_rad
 606              	.LVL111:
 607 0310 FFF7FEFF 		bl	cos
 608              	.LVL112:
 609 0314 0446     		mov	r4, r0
 610 0316 0D46     		mov	r5, r1
 611 0318 D7E90201 		ldrd	r0, [r7, #8]
 612 031c FFF7FEFF 		bl	ln_deg_to_rad
 613              	.LVL113:
 614 0320 FFF7FEFF 		bl	cos
 615              	.LVL114:
 616 0324 0246     		mov	r2, r0
 617 0326 0B46     		mov	r3, r1
 618 0328 2046     		mov	r0, r4
 619 032a 2946     		mov	r1, r5
 620 032c FFF7FEFF 		bl	__aeabi_dmul
 621              	.LVL115:
 622 0330 0446     		mov	r4, r0
 623 0332 0D46     		mov	r5, r1
 624              		.loc 1 144 0
 625 0334 DDE90C01 		ldrd	r0, [sp, #48]
 626 0338 FFF7FEFF 		bl	ln_deg_to_rad
ARM GAS  /tmp/ccj4yzJk.s 			page 12


 627              	.LVL116:
 628 033c FFF7FEFF 		bl	cos
 629              	.LVL117:
 630 0340 0246     		mov	r2, r0
 631 0342 0B46     		mov	r3, r1
 632              		.loc 1 143 0
 633 0344 2046     		mov	r0, r4
 634 0346 2946     		mov	r1, r5
 635 0348 FFF7FEFF 		bl	__aeabi_dmul
 636              	.LVL118:
 637 034c 0246     		mov	r2, r0
 638 034e 0B46     		mov	r3, r1
 639              		.loc 1 142 0
 640 0350 5046     		mov	r0, sl
 641 0352 5946     		mov	r1, fp
 642 0354 FFF7FEFF 		bl	__aeabi_dadd
 643              	.LVL119:
 644 0358 8246     		mov	sl, r0
 645 035a 8B46     		mov	fp, r1
 646              	.LVL120:
 647              		.loc 1 145 0
 648 035c D6E90201 		ldrd	r0, [r6, #8]
 649 0360 FFF7FEFF 		bl	ln_deg_to_rad
 650              	.LVL121:
 651 0364 FFF7FEFF 		bl	sin
 652              	.LVL122:
 653 0368 0446     		mov	r4, r0
 654 036a 0D46     		mov	r5, r1
 655 036c D7E90201 		ldrd	r0, [r7, #8]
 656 0370 FFF7FEFF 		bl	ln_deg_to_rad
 657              	.LVL123:
 658 0374 FFF7FEFF 		bl	sin
 659              	.LVL124:
 660 0378 0246     		mov	r2, r0
 661 037a 0B46     		mov	r3, r1
 662 037c 2046     		mov	r0, r4
 663 037e 2946     		mov	r1, r5
 664 0380 FFF7FEFF 		bl	__aeabi_dmul
 665              	.LVL125:
 666 0384 8046     		mov	r8, r0
 667              	.LVL126:
 668 0386 8946     		mov	r9, r1
 669              		.loc 1 146 0
 670 0388 D6E90201 		ldrd	r0, [r6, #8]
 671 038c FFF7FEFF 		bl	ln_deg_to_rad
 672              	.LVL127:
 673 0390 FFF7FEFF 		bl	cos
 674              	.LVL128:
 675 0394 0446     		mov	r4, r0
 676 0396 0D46     		mov	r5, r1
 677 0398 D7E90201 		ldrd	r0, [r7, #8]
 678 039c FFF7FEFF 		bl	ln_deg_to_rad
 679              	.LVL129:
 680 03a0 FFF7FEFF 		bl	cos
 681              	.LVL130:
 682 03a4 0246     		mov	r2, r0
 683 03a6 0B46     		mov	r3, r1
ARM GAS  /tmp/ccj4yzJk.s 			page 13


 684 03a8 2046     		mov	r0, r4
 685 03aa 2946     		mov	r1, r5
 686 03ac FFF7FEFF 		bl	__aeabi_dmul
 687              	.LVL131:
 688 03b0 0446     		mov	r4, r0
 689 03b2 0D46     		mov	r5, r1
 690              		.loc 1 147 0
 691 03b4 DDE90E01 		ldrd	r0, [sp, #56]
 692 03b8 FFF7FEFF 		bl	ln_deg_to_rad
 693              	.LVL132:
 694 03bc FFF7FEFF 		bl	cos
 695              	.LVL133:
 696 03c0 0246     		mov	r2, r0
 697 03c2 0B46     		mov	r3, r1
 698              		.loc 1 146 0
 699 03c4 2046     		mov	r0, r4
 700 03c6 2946     		mov	r1, r5
 701 03c8 FFF7FEFF 		bl	__aeabi_dmul
 702              	.LVL134:
 703 03cc 0246     		mov	r2, r0
 704 03ce 0B46     		mov	r3, r1
 705              		.loc 1 145 0
 706 03d0 4046     		mov	r0, r8
 707 03d2 4946     		mov	r1, r9
 708 03d4 FFF7FEFF 		bl	__aeabi_dadd
 709              	.LVL135:
 710 03d8 0446     		mov	r4, r0
 711 03da 0D46     		mov	r5, r1
 712              	.LVL136:
 713              		.loc 1 150 0
 714 03dc 5046     		mov	r0, sl
 715 03de 5946     		mov	r1, fp
 716 03e0 FFF7FEFF 		bl	ln_rad_to_deg
 717              	.LVL137:
 718 03e4 8246     		mov	sl, r0
 719              	.LVL138:
 720 03e6 8B46     		mov	fp, r1
 721              		.loc 1 151 0
 722 03e8 2046     		mov	r0, r4
 723 03ea 2946     		mov	r1, r5
 724 03ec FFF7FEFF 		bl	ln_rad_to_deg
 725              	.LVL139:
 726 03f0 CDE91001 		strd	r0, [sp, #64]
 727              	.LVL140:
 728              		.loc 1 154 0
 729 03f4 DDE90A01 		ldrd	r0, [sp, #40]
 730              	.LVL141:
 731 03f8 FFF7FEFF 		bl	ln_range_degrees
 732              	.LVL142:
 733              		.loc 1 155 0
 734 03fc 4FF40043 		mov	r3, #32768
 735 0400 DDE90A01 		ldrd	r0, [sp, #40]
 736 0404 0022     		movs	r2, #0
 737 0406 C4F26603 		movt	r3, 16486
 738 040a FFF7FEFF 		bl	__aeabi_dcmpgt
 739              	.LVL143:
 740 040e 78B1     		cbz	r0, .L37
ARM GAS  /tmp/ccj4yzJk.s 			page 14


 741              		.loc 1 156 0
 742 0410 4FF40043 		mov	r3, #32768
 743 0414 DDE90A01 		ldrd	r0, [sp, #40]
 744 0418 0022     		movs	r2, #0
 745 041a C4F27603 		movt	r3, 16502
 746 041e FFF7FEFF 		bl	__aeabi_dsub
 747              	.LVL144:
 748 0422 CDE90A01 		strd	r0, [sp, #40]
 749 0426 03E0     		b	.L59
 750              	.L60:
 751              		.align	3
 752              	.L58:
 753 0428 68E6C935 		.word	902424168
 754 042c C58F7640 		.word	1081511877
 755              	.L59:
 756              	.LVL145:
 757              	.L37:
 758              		.loc 1 159 0
 759 0430 DDE91C23 		ldrd	r2, [sp, #112]
 760 0434 5046     		mov	r0, sl
 761 0436 5946     		mov	r1, fp
 762 0438 FFF7FEFF 		bl	__aeabi_dsub
 763              	.LVL146:
 764 043c 8246     		mov	sl, r0
 765 043e 8B46     		mov	fp, r1
 766 0440 D7E90201 		ldrd	r0, [r7, #8]
 767 0444 FFF7FEFF 		bl	ln_deg_to_rad
 768              	.LVL147:
 769 0448 FFF7FEFF 		bl	cos
 770              	.LVL148:
 771 044c 8046     		mov	r8, r0
 772 044e 8946     		mov	r9, r1
 773 0450 D6E90201 		ldrd	r0, [r6, #8]
 774 0454 FFF7FEFF 		bl	ln_deg_to_rad
 775              	.LVL149:
 776 0458 FFF7FEFF 		bl	cos
 777              	.LVL150:
 778 045c 4FF40043 		mov	r3, #32768
 779 0460 0446     		mov	r4, r0
 780 0462 0D46     		mov	r5, r1
 781 0464 4046     		mov	r0, r8
 782 0466 4946     		mov	r1, r9
 783 0468 0022     		movs	r2, #0
 784 046a C4F27603 		movt	r3, 16502
 785 046e FFF7FEFF 		bl	__aeabi_dmul
 786              	.LVL151:
 787 0472 2246     		mov	r2, r4
 788 0474 2B46     		mov	r3, r5
 789 0476 FFF7FEFF 		bl	__aeabi_dmul
 790              	.LVL152:
 791 047a 0446     		mov	r4, r0
 792 047c 0D46     		mov	r5, r1
 793 047e DDE90C01 		ldrd	r0, [sp, #48]
 794 0482 FFF7FEFF 		bl	ln_deg_to_rad
 795              	.LVL153:
 796 0486 FFF7FEFF 		bl	sin
 797              	.LVL154:
ARM GAS  /tmp/ccj4yzJk.s 			page 15


 798 048a 0246     		mov	r2, r0
 799 048c 0B46     		mov	r3, r1
 800 048e 2046     		mov	r0, r4
 801 0490 2946     		mov	r1, r5
 802 0492 FFF7FEFF 		bl	__aeabi_dmul
 803              	.LVL155:
 804 0496 0246     		mov	r2, r0
 805 0498 0B46     		mov	r3, r1
 806 049a 5046     		mov	r0, sl
 807 049c 5946     		mov	r1, fp
 808 049e FFF7FEFF 		bl	__aeabi_ddiv
 809              	.LVL156:
 810              		.loc 1 160 0
 811 04a2 DDE91C23 		ldrd	r2, [sp, #112]
 812              		.loc 1 159 0
 813 04a6 8246     		mov	sl, r0
 814 04a8 8B46     		mov	fp, r1
 815              	.LVL157:
 816              		.loc 1 160 0
 817 04aa DDE91001 		ldrd	r0, [sp, #64]
 818 04ae FFF7FEFF 		bl	__aeabi_dsub
 819              	.LVL158:
 820 04b2 CDE90001 		strd	r0, [sp]
 821 04b6 D7E90201 		ldrd	r0, [r7, #8]
 822 04ba FFF7FEFF 		bl	ln_deg_to_rad
 823              	.LVL159:
 824 04be FFF7FEFF 		bl	cos
 825              	.LVL160:
 826 04c2 8046     		mov	r8, r0
 827 04c4 8946     		mov	r9, r1
 828 04c6 D6E90201 		ldrd	r0, [r6, #8]
 829 04ca FFF7FEFF 		bl	ln_deg_to_rad
 830              	.LVL161:
 831 04ce FFF7FEFF 		bl	cos
 832              	.LVL162:
 833 04d2 4FF40043 		mov	r3, #32768
 834 04d6 0646     		mov	r6, r0
 835              	.LVL163:
 836 04d8 0C46     		mov	r4, r1
 837 04da 4046     		mov	r0, r8
 838 04dc 4946     		mov	r1, r9
 839 04de 0022     		movs	r2, #0
 840 04e0 C4F27603 		movt	r3, 16502
 841 04e4 FFF7FEFF 		bl	__aeabi_dmul
 842              	.LVL164:
 843 04e8 3246     		mov	r2, r6
 844 04ea 2346     		mov	r3, r4
 845 04ec FFF7FEFF 		bl	__aeabi_dmul
 846              	.LVL165:
 847 04f0 0446     		mov	r4, r0
 848 04f2 0D46     		mov	r5, r1
 849 04f4 DDE90E01 		ldrd	r0, [sp, #56]
 850 04f8 FFF7FEFF 		bl	ln_deg_to_rad
 851              	.LVL166:
 852 04fc FFF7FEFF 		bl	sin
 853              	.LVL167:
 854              		.loc 1 164 0
ARM GAS  /tmp/ccj4yzJk.s 			page 16


 855 0500 5246     		mov	r2, sl
 856              		.loc 1 160 0
 857 0502 8046     		mov	r8, r0
 858 0504 8946     		mov	r9, r1
 859              	.LVL168:
 860              		.loc 1 164 0
 861 0506 5B46     		mov	r3, fp
 862 0508 DDE90401 		ldrd	r0, [sp, #16]
 863 050c FFF7FEFF 		bl	__aeabi_dadd
 864              	.LVL169:
 865 0510 0246     		mov	r2, r0
 866 0512 0B46     		mov	r3, r1
 867              		.loc 1 167 0
 868 0514 DDE90801 		ldrd	r0, [sp, #32]
 869 0518 FFF7FEFF 		bl	__aeabi_dadd
 870              	.LVL170:
 871 051c 1E9E     		ldr	r6, [sp, #120]
 872              		.loc 1 158 0
 873 051e 4FF40043 		mov	r3, #32768
 874 0522 0022     		movs	r2, #0
 875 0524 C4F27603 		movt	r3, 16502
 876              		.loc 1 167 0
 877 0528 C6E90001 		strd	r0, [r6]
 878              		.loc 1 158 0
 879 052c DDE90A01 		ldrd	r0, [sp, #40]
 880 0530 FFF7FEFF 		bl	__aeabi_ddiv
 881              	.LVL171:
 882 0534 0246     		mov	r2, r0
 883 0536 0B46     		mov	r3, r1
 884              		.loc 1 163 0
 885 0538 DDE90601 		ldrd	r0, [sp, #24]
 886 053c FFF7FEFF 		bl	__aeabi_dsub
 887              	.LVL172:
 888 0540 0246     		mov	r2, r0
 889 0542 0B46     		mov	r3, r1
 890              		.loc 1 168 0
 891 0544 DDE90801 		ldrd	r0, [sp, #32]
 892 0548 FFF7FEFF 		bl	__aeabi_dadd
 893              	.LVL173:
 894              		.loc 1 160 0
 895 054c 4246     		mov	r2, r8
 896              		.loc 1 168 0
 897 054e C6E90401 		strd	r0, [r6, #16]
 898              		.loc 1 160 0
 899 0552 4B46     		mov	r3, r9
 900 0554 2046     		mov	r0, r4
 901 0556 2946     		mov	r1, r5
 902 0558 FFF7FEFF 		bl	__aeabi_dmul
 903              	.LVL174:
 904 055c 0246     		mov	r2, r0
 905 055e 0B46     		mov	r3, r1
 906 0560 DDE90001 		ldrd	r0, [sp]
 907 0564 FFF7FEFF 		bl	__aeabi_ddiv
 908              	.LVL175:
 909 0568 0246     		mov	r2, r0
 910 056a 0B46     		mov	r3, r1
 911              		.loc 1 165 0
ARM GAS  /tmp/ccj4yzJk.s 			page 17


 912 056c DDE90201 		ldrd	r0, [sp, #8]
 913 0570 FFF7FEFF 		bl	__aeabi_dadd
 914              	.LVL176:
 915 0574 0246     		mov	r2, r0
 916 0576 0B46     		mov	r3, r1
 917              		.loc 1 169 0
 918 0578 DDE90801 		ldrd	r0, [sp, #32]
 919 057c FFF7FEFF 		bl	__aeabi_dadd
 920              	.LVL177:
 921              		.loc 1 172 0
 922 0580 0022     		movs	r2, #0
 923              		.loc 1 169 0
 924 0582 C6E90201 		strd	r0, [r6, #8]
 925              		.loc 1 172 0
 926 0586 D2E5     		b	.L52
 927              	.LVL178:
 928              	.L57:
 929              		.loc 1 120 0
 930 0588 DDE90601 		ldrd	r0, [sp, #24]
 931 058c 0022     		movs	r2, #0
 932 058e 0023     		movs	r3, #0
 933 0590 FFF7FEFF 		bl	__aeabi_dcmplt
 934              	.LVL179:
 935 0594 0028     		cmp	r0, #0
 936 0596 3FF432AE 		beq	.L27
 937              		.loc 1 121 0
 938 059a 0023     		movs	r3, #0
 939 059c DDE90601 		ldrd	r0, [sp, #24]
 940 05a0 0022     		movs	r2, #0
 941 05a2 C3F6F073 		movt	r3, 16368
 942 05a6 FFF7FEFF 		bl	__aeabi_dadd
 943              	.LVL180:
 944 05aa CDE90601 		strd	r0, [sp, #24]
 945              	.LVL181:
 946 05ae 26E6     		b	.L27
 947              	.LVL182:
 948              	.L54:
 949              		.loc 1 128 0
 950 05b0 DDE90201 		ldrd	r0, [sp, #8]
 951 05b4 0022     		movs	r2, #0
 952 05b6 0023     		movs	r3, #0
 953 05b8 FFF7FEFF 		bl	__aeabi_dcmplt
 954              	.LVL183:
 955 05bc 0028     		cmp	r0, #0
 956 05be 3FF448AE 		beq	.L35
 957              		.loc 1 129 0
 958 05c2 0023     		movs	r3, #0
 959 05c4 DDE90201 		ldrd	r0, [sp, #8]
 960 05c8 0022     		movs	r2, #0
 961 05ca C3F6F073 		movt	r3, 16368
 962 05ce FFF7FEFF 		bl	__aeabi_dadd
 963              	.LVL184:
 964 05d2 CDE90201 		strd	r0, [sp, #8]
 965              	.LVL185:
 966 05d6 3CE6     		b	.L35
 967              	.LVL186:
 968              	.L53:
ARM GAS  /tmp/ccj4yzJk.s 			page 18


 969              		.loc 1 124 0
 970 05d8 DDE90401 		ldrd	r0, [sp, #16]
 971 05dc 0022     		movs	r2, #0
 972 05de 0023     		movs	r3, #0
 973 05e0 FFF7FEFF 		bl	__aeabi_dcmplt
 974              	.LVL187:
 975 05e4 0028     		cmp	r0, #0
 976 05e6 3FF41FAE 		beq	.L31
 977              		.loc 1 125 0
 978 05ea 0023     		movs	r3, #0
 979 05ec DDE90401 		ldrd	r0, [sp, #16]
 980 05f0 0022     		movs	r2, #0
 981 05f2 C3F6F073 		movt	r3, 16368
 982 05f6 FFF7FEFF 		bl	__aeabi_dadd
 983              	.LVL188:
 984 05fa CDE90401 		strd	r0, [sp, #16]
 985              	.LVL189:
 986 05fe 13E6     		b	.L31
 987              		.cfi_endproc
 988              	.LFE2:
 989              		.size	ln_get_object_rst_horizon, .-ln_get_object_rst_horizon
 990              		.section	.text.ln_get_object_rst,"ax",%progbits
 991              		.align	2
 992              		.p2align 4,,15
 993              		.global	ln_get_object_rst
 994              		.thumb
 995              		.thumb_func
 996              		.type	ln_get_object_rst, %function
 997              	ln_get_object_rst:
 998              	.LFB1:
 999              		.loc 1 63 0
 1000              		.cfi_startproc
 1001              		@ args = 4, pretend = 0, frame = 0
 1002              		@ frame_needed = 0, uses_anonymous_args = 0
 1003              	.LVL190:
 1004 0000 30B5     		push	{r4, r5, lr}
 1005              	.LCFI3:
 1006              		.cfi_def_cfa_offset 12
 1007              		.cfi_offset 4, -12
 1008              		.cfi_offset 5, -8
 1009              		.cfi_offset 14, -4
 1010              		.loc 1 64 0
 1011 0002 07A5     		adr	r5, .L62
 1012 0004 D5E90045 		ldrd	r4, [r5]
 1013              		.loc 1 63 0
 1014 0008 85B0     		sub	sp, sp, #20
 1015              	.LCFI4:
 1016              		.cfi_def_cfa_offset 32
 1017              		.loc 1 64 0
 1018 000a CDE90045 		strd	r4, [sp]
 1019 000e 089C     		ldr	r4, [sp, #32]
 1020 0010 0294     		str	r4, [sp, #8]
 1021 0012 FFF7FEFF 		bl	ln_get_object_rst_horizon
 1022              	.LVL191:
 1023              		.loc 1 65 0
 1024 0016 05B0     		add	sp, sp, #20
 1025 0018 30BD     		pop	{r4, r5, pc}
ARM GAS  /tmp/ccj4yzJk.s 			page 19


 1026              	.L63:
 1027 001a 00BFAFF3 		.align	3
 1027      0080
 1028              	.L62:
 1029 0020 1895D409 		.word	164926744
 1030 0024 6822E2BF 		.word	-1075699096
 1031              		.cfi_endproc
 1032              	.LFE1:
 1033              		.size	ln_get_object_rst, .-ln_get_object_rst
 1034 0028 AFF30080 		.section	.text.set_next_rst,"ax",%progbits
 1034      AFF30080 
 1035              		.align	2
 1036              		.p2align 4,,15
 1037              		.global	set_next_rst
 1038              		.thumb
 1039              		.thumb_func
 1040              		.type	set_next_rst, %function
 1041              	set_next_rst:
 1042              	.LFB4:
 1043              		.loc 1 197 0
 1044              		.cfi_startproc
 1045              		@ args = 4, pretend = 0, frame = 0
 1046              		@ frame_needed = 0, uses_anonymous_args = 0
 1047              	.LVL192:
 1048 0000 F8B5     		push	{r3, r4, r5, r6, r7, lr}
 1049              	.LCFI5:
 1050              		.cfi_def_cfa_offset 24
 1051              		.cfi_offset 3, -24
 1052              		.cfi_offset 4, -20
 1053              		.cfi_offset 5, -16
 1054              		.cfi_offset 6, -12
 1055              		.cfi_offset 7, -8
 1056              		.cfi_offset 14, -4
 1057              		.loc 1 197 0
 1058 0002 0746     		mov	r7, r0
 1059              		.loc 1 198 0
 1060 0004 D0E90001 		ldrd	r0, [r0]
 1061              	.LVL193:
 1062              		.loc 1 197 0
 1063 0008 1446     		mov	r4, r2
 1064 000a 1D46     		mov	r5, r3
 1065              		.loc 1 198 0
 1066 000c FFF7FEFF 		bl	__aeabi_dadd
 1067              	.LVL194:
 1068              		.loc 1 197 0
 1069 0010 069E     		ldr	r6, [sp, #24]
 1070              		.loc 1 199 0
 1071 0012 2246     		mov	r2, r4
 1072 0014 2B46     		mov	r3, r5
 1073              		.loc 1 198 0
 1074 0016 C6E90001 		strd	r0, [r6]
 1075              		.loc 1 199 0
 1076 001a D7E90401 		ldrd	r0, [r7, #16]
 1077 001e FFF7FEFF 		bl	__aeabi_dadd
 1078              	.LVL195:
 1079              		.loc 1 200 0
 1080 0022 2246     		mov	r2, r4
ARM GAS  /tmp/ccj4yzJk.s 			page 20


 1081              		.loc 1 199 0
 1082 0024 C6E90401 		strd	r0, [r6, #16]
 1083              		.loc 1 200 0
 1084 0028 2B46     		mov	r3, r5
 1085 002a D7E90201 		ldrd	r0, [r7, #8]
 1086 002e FFF7FEFF 		bl	__aeabi_dadd
 1087              	.LVL196:
 1088 0032 C6E90201 		strd	r0, [r6, #8]
 1089 0036 F8BD     		pop	{r3, r4, r5, r6, r7, pc}
 1090              		.cfi_endproc
 1091              	.LFE4:
 1092              		.size	set_next_rst, .-set_next_rst
 1093 0038 AFF30080 		.section	.text.find_next,"ax",%progbits
 1093      AFF30080 
 1094              		.align	2
 1095              		.p2align 4,,15
 1096              		.global	find_next
 1097              		.thumb
 1098              		.thumb_func
 1099              		.type	find_next, %function
 1100              	find_next:
 1101              	.LFB5:
 1102              		.loc 1 204 0
 1103              		.cfi_startproc
 1104              		@ args = 16, pretend = 0, frame = 0
 1105              		@ frame_needed = 0, uses_anonymous_args = 0
 1106              	.LVL197:
 1107 0000 2DE9F843 		push	{r3, r4, r5, r6, r7, r8, r9, lr}
 1108              	.LCFI6:
 1109              		.cfi_def_cfa_offset 32
 1110              		.cfi_offset 3, -32
 1111              		.cfi_offset 4, -28
 1112              		.cfi_offset 5, -24
 1113              		.cfi_offset 6, -20
 1114              		.cfi_offset 7, -16
 1115              		.cfi_offset 8, -12
 1116              		.cfi_offset 9, -8
 1117              		.cfi_offset 14, -4
 1118              		.loc 1 204 0
 1119 0004 0646     		mov	r6, r0
 1120 0006 0F46     		mov	r7, r1
 1121 0008 1446     		mov	r4, r2
 1122 000a 1D46     		mov	r5, r3
 1123              		.loc 1 205 0
 1124 000c FFF7FEFF 		bl	__aeabi_dcmplt
 1125              	.LVL198:
 1126 0010 40B9     		cbnz	r0, .L66
 1127              		.loc 1 207 0
 1128 0012 3046     		mov	r0, r6
 1129 0014 3946     		mov	r1, r7
 1130 0016 DDE90823 		ldrd	r2, [sp, #32]
 1131 001a FFF7FEFF 		bl	__aeabi_dcmplt
 1132              	.LVL199:
 1133 001e 28B9     		cbnz	r0, .L71
 1134              		.loc 1 209 0
 1135 0020 DDE90A45 		ldrd	r4, [sp, #40]
 1136              	.L66:
ARM GAS  /tmp/ccj4yzJk.s 			page 21


 1137              		.loc 1 210 0
 1138 0024 2046     		mov	r0, r4
 1139 0026 2946     		mov	r1, r5
 1140 0028 BDE8F883 		pop	{r3, r4, r5, r6, r7, r8, r9, pc}
 1141              	.L71:
 1142              		.loc 1 208 0
 1143 002c DDE90845 		ldrd	r4, [sp, #32]
 1144 0030 F8E7     		b	.L66
 1145              		.cfi_endproc
 1146              	.LFE5:
 1147              		.size	find_next, .-find_next
 1148 0032 00BFAFF3 		.section	.text.ln_get_object_next_rst_horizon,"ax",%progbits
 1148      0080AFF3 
 1148      0080AFF3 
 1148      0080
 1149              		.align	2
 1150              		.p2align 4,,15
 1151              		.global	ln_get_object_next_rst_horizon
 1152              		.thumb
 1153              		.thumb_func
 1154              		.type	ln_get_object_next_rst_horizon, %function
 1155              	ln_get_object_next_rst_horizon:
 1156              	.LFB6:
 1157              		.loc 1 230 0
 1158              		.cfi_startproc
 1159              		@ args = 12, pretend = 0, frame = 88
 1160              		@ frame_needed = 0, uses_anonymous_args = 0
 1161              	.LVL200:
 1162 0000 2DE9F04F 		push	{r4, r5, r6, r7, r8, r9, sl, fp, lr}
 1163              	.LCFI7:
 1164              		.cfi_def_cfa_offset 36
 1165              		.cfi_offset 4, -36
 1166              		.cfi_offset 5, -32
 1167              		.cfi_offset 6, -28
 1168              		.cfi_offset 7, -24
 1169              		.cfi_offset 8, -20
 1170              		.cfi_offset 9, -16
 1171              		.cfi_offset 10, -12
 1172              		.cfi_offset 11, -8
 1173              		.cfi_offset 14, -4
 1174 0004 9BB0     		sub	sp, sp, #108
 1175              	.LCFI8:
 1176              		.cfi_def_cfa_offset 144
 1177              		.loc 1 233 0
 1178 0006 DDE92445 		ldrd	r4, [sp, #144]
 1179              		.loc 1 230 0
 1180 000a DDF89880 		ldr	r8, [sp, #152]
 1181              		.loc 1 233 0
 1182 000e CDE90045 		strd	r4, [sp]
 1183 0012 CDF80880 		str	r8, [sp, #8]
 1184              		.loc 1 230 0
 1185 0016 8246     		mov	sl, r0
 1186 0018 8B46     		mov	fp, r1
 1187 001a 1746     		mov	r7, r2
 1188 001c 1E46     		mov	r6, r3
 1189              		.loc 1 233 0
 1190 001e FFF7FEFF 		bl	ln_get_object_rst_horizon
ARM GAS  /tmp/ccj4yzJk.s 			page 22


 1191              	.LVL201:
 1192              		.loc 1 234 0
 1193 0022 8146     		mov	r9, r0
 1194 0024 0028     		cmp	r0, #0
 1195 0026 40F0A880 		bne	.L73
 1196              		.loc 1 238 0
 1197 002a D8E90045 		ldrd	r4, [r8]
 1198 002e 0023     		movs	r3, #0
 1199 0030 0022     		movs	r2, #0
 1200 0032 C3F6E073 		movt	r3, 16352
 1201 0036 5046     		mov	r0, sl
 1202              	.LVL202:
 1203 0038 5946     		mov	r1, fp
 1204 003a CDE90645 		strd	r4, [sp, #24]
 1205 003e FFF7FEFF 		bl	__aeabi_dadd
 1206              	.LVL203:
 1207 0042 0446     		mov	r4, r0
 1208 0044 0D46     		mov	r5, r1
 1209 0046 2246     		mov	r2, r4
 1210 0048 DDE90601 		ldrd	r0, [sp, #24]
 1211 004c 2B46     		mov	r3, r5
 1212 004e FFF7FEFF 		bl	__aeabi_dcmpgt
 1213              	.LVL204:
 1214 0052 98B9     		cbnz	r0, .L74
 1215              		.loc 1 238 0 is_stmt 0 discriminator 1
 1216 0054 D8E90423 		ldrd	r2, [r8, #16]
 1217 0058 2046     		mov	r0, r4
 1218 005a 2946     		mov	r1, r5
 1219 005c CDE90823 		strd	r2, [sp, #32]
 1220 0060 FFF7FEFF 		bl	__aeabi_dcmplt
 1221              	.LVL205:
 1222 0064 50B9     		cbnz	r0, .L74
 1223 0066 D8E90223 		ldrd	r2, [r8, #8]
 1224 006a 2046     		mov	r0, r4
 1225 006c 2946     		mov	r1, r5
 1226 006e CDE90A23 		strd	r2, [sp, #40]
 1227 0072 FFF7FEFF 		bl	__aeabi_dcmplt
 1228              	.LVL206:
 1229 0076 0028     		cmp	r0, #0
 1230 0078 00F0AA80 		beq	.L88
 1231              	.L74:
 1232              		.loc 1 239 0 is_stmt 1
 1233 007c 0023     		movs	r3, #0
 1234 007e 0022     		movs	r2, #0
 1235 0080 C3F6F073 		movt	r3, 16368
 1236 0084 5046     		mov	r0, sl
 1237 0086 5946     		mov	r1, fp
 1238 0088 FFF7FEFF 		bl	__aeabi_dsub
 1239              	.LVL207:
 1240 008c DDE92423 		ldrd	r2, [sp, #144]
 1241 0090 CDE90023 		strd	r2, [sp]
 1242 0094 0EAB     		add	r3, sp, #56
 1243 0096 0293     		str	r3, [sp, #8]
 1244 0098 3A46     		mov	r2, r7
 1245 009a 3346     		mov	r3, r6
 1246 009c FFF7FEFF 		bl	ln_get_object_rst_horizon
 1247              	.LVL208:
ARM GAS  /tmp/ccj4yzJk.s 			page 23


 1248 00a0 D8E90001 		ldrd	r0, [r8]
 1249 00a4 CDE90601 		strd	r0, [sp, #24]
 1250              	.L77:
 1251              		.loc 1 243 0
 1252 00a8 5046     		mov	r0, sl
 1253 00aa 5946     		mov	r1, fp
 1254 00ac DDE90623 		ldrd	r2, [sp, #24]
 1255 00b0 FFF7FEFF 		bl	__aeabi_dcmpgt
 1256              	.LVL209:
 1257 00b4 B8B9     		cbnz	r0, .L78
 1258              		.loc 1 243 0 is_stmt 0 discriminator 1
 1259 00b6 D8E90445 		ldrd	r4, [r8, #16]
 1260 00ba 5046     		mov	r0, sl
 1261 00bc 5946     		mov	r1, fp
 1262 00be 2246     		mov	r2, r4
 1263 00c0 2B46     		mov	r3, r5
 1264 00c2 CDE90845 		strd	r4, [sp, #32]
 1265 00c6 FFF7FEFF 		bl	__aeabi_dcmpgt
 1266              	.LVL210:
 1267 00ca 60B9     		cbnz	r0, .L78
 1268 00cc D8E90245 		ldrd	r4, [r8, #8]
 1269 00d0 5046     		mov	r0, sl
 1270 00d2 5946     		mov	r1, fp
 1271 00d4 2246     		mov	r2, r4
 1272 00d6 2B46     		mov	r3, r5
 1273 00d8 CDE90A45 		strd	r4, [sp, #40]
 1274 00dc FFF7FEFF 		bl	__aeabi_dcmpgt
 1275              	.LVL211:
 1276 00e0 0028     		cmp	r0, #0
 1277 00e2 00F09480 		beq	.L89
 1278              	.L78:
 1279              		.loc 1 244 0 is_stmt 1
 1280 00e6 0023     		movs	r3, #0
 1281 00e8 0022     		movs	r2, #0
 1282 00ea C3F6F073 		movt	r3, 16368
 1283 00ee 5046     		mov	r0, sl
 1284 00f0 5946     		mov	r1, fp
 1285 00f2 FFF7FEFF 		bl	__aeabi_dadd
 1286              	.LVL212:
 1287 00f6 DDE92445 		ldrd	r4, [sp, #144]
 1288 00fa CDE90045 		strd	r4, [sp]
 1289 00fe 14AD     		add	r5, sp, #80
 1290 0100 3A46     		mov	r2, r7
 1291 0102 3346     		mov	r3, r6
 1292 0104 0295     		str	r5, [sp, #8]
 1293 0106 FFF7FEFF 		bl	ln_get_object_rst_horizon
 1294              	.LVL213:
 1295 010a D8E90423 		ldrd	r2, [r8, #16]
 1296 010e D8E90067 		ldrd	r6, [r8]
 1297              	.LVL214:
 1298 0112 CDE90823 		strd	r2, [sp, #32]
 1299 0116 DDE91801 		ldrd	r0, [sp, #96]
 1300 011a D8E90245 		ldrd	r4, [r8, #8]
 1301 011e DDE91623 		ldrd	r2, [sp, #88]
 1302 0122 CDE90667 		strd	r6, [sp, #24]
 1303 0126 CDE90401 		strd	r0, [sp, #16]
 1304 012a DDE91467 		ldrd	r6, [sp, #80]
ARM GAS  /tmp/ccj4yzJk.s 			page 24


 1305 012e CDE90A45 		strd	r4, [sp, #40]
 1306 0132 CDE90C23 		strd	r2, [sp, #48]
 1307              	.LVL215:
 1308              	.L81:
 1309              		.loc 1 248 0
 1310 0136 DDE90E45 		ldrd	r4, [sp, #56]
 1311              	.LVL216:
 1312              	.LBB52:
 1313              	.LBB53:
 1314              		.loc 1 205 0
 1315 013a 5046     		mov	r0, sl
 1316 013c 5946     		mov	r1, fp
 1317 013e 2246     		mov	r2, r4
 1318 0140 2B46     		mov	r3, r5
 1319 0142 FFF7FEFF 		bl	__aeabi_dcmplt
 1320              	.LVL217:
 1321 0146 0028     		cmp	r0, #0
 1322 0148 2FD0     		beq	.L90
 1323              	.LVL218:
 1324              	.L82:
 1325              	.LBE53:
 1326              	.LBE52:
 1327              		.loc 1 249 0
 1328 014a DDE91267 		ldrd	r6, [sp, #72]
 1329              	.LVL219:
 1330              		.loc 1 248 0
 1331 014e C8E90045 		strd	r4, [r8]
 1332              	.LBB55:
 1333              	.LBB56:
 1334              		.loc 1 205 0
 1335 0152 5046     		mov	r0, sl
 1336 0154 5946     		mov	r1, fp
 1337 0156 3246     		mov	r2, r6
 1338 0158 3B46     		mov	r3, r7
 1339 015a FFF7FEFF 		bl	__aeabi_dcmplt
 1340              	.LVL220:
 1341 015e D0B1     		cbz	r0, .L91
 1342              	.LVL221:
 1343              	.L83:
 1344              	.LBE56:
 1345              	.LBE55:
 1346              		.loc 1 250 0
 1347 0160 DDE91045 		ldrd	r4, [sp, #64]
 1348              	.LVL222:
 1349              		.loc 1 249 0
 1350 0164 C8E90467 		strd	r6, [r8, #16]
 1351              	.LBB59:
 1352              	.LBB60:
 1353              		.loc 1 205 0
 1354 0168 5046     		mov	r0, sl
 1355 016a 5946     		mov	r1, fp
 1356 016c 2246     		mov	r2, r4
 1357 016e 2B46     		mov	r3, r5
 1358 0170 FFF7FEFF 		bl	__aeabi_dcmplt
 1359              	.LVL223:
 1360 0174 28B1     		cbz	r0, .L92
 1361              	.LVL224:
ARM GAS  /tmp/ccj4yzJk.s 			page 25


 1362              	.L84:
 1363              	.LBE60:
 1364              	.LBE59:
 1365              		.loc 1 250 0
 1366 0176 C8E90245 		strd	r4, [r8, #8]
 1367              	.LVL225:
 1368              	.L73:
 1369              		.loc 1 252 0
 1370 017a 4846     		mov	r0, r9
 1371 017c 1BB0     		add	sp, sp, #108
 1372 017e BDE8F08F 		pop	{r4, r5, r6, r7, r8, r9, sl, fp, pc}
 1373              	.LVL226:
 1374              	.L92:
 1375              	.LBB63:
 1376              	.LBB61:
 1377              		.loc 1 207 0
 1378 0182 5046     		mov	r0, sl
 1379 0184 5946     		mov	r1, fp
 1380 0186 DDE90A23 		ldrd	r2, [sp, #40]
 1381 018a FFF7FEFF 		bl	__aeabi_dcmplt
 1382              	.LVL227:
 1383 018e E0B1     		cbz	r0, .L93
 1384              		.loc 1 208 0
 1385 0190 DDE90A45 		ldrd	r4, [sp, #40]
 1386              	.LVL228:
 1387 0194 EFE7     		b	.L84
 1388              	.LVL229:
 1389              	.L91:
 1390              	.LBE61:
 1391              	.LBE63:
 1392              	.LBB64:
 1393              	.LBB57:
 1394              		.loc 1 207 0
 1395 0196 5046     		mov	r0, sl
 1396 0198 5946     		mov	r1, fp
 1397 019a DDE90823 		ldrd	r2, [sp, #32]
 1398 019e FFF7FEFF 		bl	__aeabi_dcmplt
 1399              	.LVL230:
 1400 01a2 78B1     		cbz	r0, .L94
 1401              		.loc 1 208 0
 1402 01a4 DDE90867 		ldrd	r6, [sp, #32]
 1403              	.LVL231:
 1404 01a8 DAE7     		b	.L83
 1405              	.LVL232:
 1406              	.L90:
 1407              	.LBE57:
 1408              	.LBE64:
 1409              	.LBB65:
 1410              	.LBB54:
 1411              		.loc 1 207 0
 1412 01aa 5046     		mov	r0, sl
 1413 01ac 5946     		mov	r1, fp
 1414 01ae DDE90623 		ldrd	r2, [sp, #24]
 1415 01b2 FFF7FEFF 		bl	__aeabi_dcmplt
 1416              	.LVL233:
 1417 01b6 10B1     		cbz	r0, .L95
 1418              		.loc 1 208 0
ARM GAS  /tmp/ccj4yzJk.s 			page 26


 1419 01b8 DDE90645 		ldrd	r4, [sp, #24]
 1420              	.LVL234:
 1421 01bc C5E7     		b	.L82
 1422              	.LVL235:
 1423              	.L95:
 1424              		.loc 1 209 0
 1425 01be 3446     		mov	r4, r6
 1426              	.LVL236:
 1427 01c0 3D46     		mov	r5, r7
 1428 01c2 C2E7     		b	.L82
 1429              	.LVL237:
 1430              	.L94:
 1431              	.LBE54:
 1432              	.LBE65:
 1433              	.LBB66:
 1434              	.LBB58:
 1435 01c4 DDE90467 		ldrd	r6, [sp, #16]
 1436              	.LVL238:
 1437 01c8 CAE7     		b	.L83
 1438              	.LVL239:
 1439              	.L93:
 1440              	.LBE58:
 1441              	.LBE66:
 1442              	.LBB67:
 1443              	.LBB62:
 1444 01ca DDE90C45 		ldrd	r4, [sp, #48]
 1445              	.LVL240:
 1446 01ce D2E7     		b	.L84
 1447              	.LVL241:
 1448              	.L88:
 1449              	.LBE62:
 1450              	.LBE67:
 1451              	.LBB68:
 1452              	.LBB69:
 1453              		.loc 1 198 0
 1454 01d0 0023     		movs	r3, #0
 1455 01d2 0022     		movs	r2, #0
 1456 01d4 C3F6F073 		movt	r3, 16368
 1457 01d8 DDE90601 		ldrd	r0, [sp, #24]
 1458 01dc FFF7FEFF 		bl	__aeabi_dsub
 1459              	.LVL242:
 1460              		.loc 1 199 0
 1461 01e0 0023     		movs	r3, #0
 1462 01e2 0022     		movs	r2, #0
 1463 01e4 C3F6F073 		movt	r3, 16368
 1464              		.loc 1 198 0
 1465 01e8 CDE90E01 		strd	r0, [sp, #56]
 1466              		.loc 1 199 0
 1467 01ec DDE90801 		ldrd	r0, [sp, #32]
 1468 01f0 FFF7FEFF 		bl	__aeabi_dsub
 1469              	.LVL243:
 1470              		.loc 1 200 0
 1471 01f4 0023     		movs	r3, #0
 1472              		.loc 1 199 0
 1473 01f6 CDE91201 		strd	r0, [sp, #72]
 1474              		.loc 1 200 0
 1475 01fa 0022     		movs	r2, #0
ARM GAS  /tmp/ccj4yzJk.s 			page 27


 1476 01fc C3F6F073 		movt	r3, 16368
 1477 0200 DDE90A01 		ldrd	r0, [sp, #40]
 1478 0204 FFF7FEFF 		bl	__aeabi_dsub
 1479              	.LVL244:
 1480 0208 CDE91001 		strd	r0, [sp, #64]
 1481 020c 4CE7     		b	.L77
 1482              	.LVL245:
 1483              	.L89:
 1484              	.LBE69:
 1485              	.LBE68:
 1486              	.LBB70:
 1487              	.LBB71:
 1488              		.loc 1 198 0
 1489 020e 0023     		movs	r3, #0
 1490 0210 0022     		movs	r2, #0
 1491 0212 C3F6F073 		movt	r3, 16368
 1492 0216 DDE90601 		ldrd	r0, [sp, #24]
 1493 021a FFF7FEFF 		bl	__aeabi_dadd
 1494              	.LVL246:
 1495              		.loc 1 199 0
 1496 021e 0023     		movs	r3, #0
 1497 0220 0022     		movs	r2, #0
 1498 0222 C3F6F073 		movt	r3, 16368
 1499              		.loc 1 198 0
 1500 0226 0646     		mov	r6, r0
 1501              	.LVL247:
 1502 0228 0F46     		mov	r7, r1
 1503              	.LVL248:
 1504              		.loc 1 199 0
 1505 022a DDE90801 		ldrd	r0, [sp, #32]
 1506 022e FFF7FEFF 		bl	__aeabi_dadd
 1507              	.LVL249:
 1508              		.loc 1 200 0
 1509 0232 0023     		movs	r3, #0
 1510              		.loc 1 199 0
 1511 0234 CDE90401 		strd	r0, [sp, #16]
 1512              		.loc 1 200 0
 1513 0238 0022     		movs	r2, #0
 1514 023a DDE90A01 		ldrd	r0, [sp, #40]
 1515 023e C3F6F073 		movt	r3, 16368
 1516 0242 FFF7FEFF 		bl	__aeabi_dadd
 1517              	.LVL250:
 1518 0246 CDE90C01 		strd	r0, [sp, #48]
 1519 024a 74E7     		b	.L81
 1520              	.LBE71:
 1521              	.LBE70:
 1522              		.cfi_endproc
 1523              	.LFE6:
 1524              		.size	ln_get_object_next_rst_horizon, .-ln_get_object_next_rst_horizon
 1525 024c AFF30080 		.section	.text.ln_get_object_next_rst,"ax",%progbits
 1526              		.align	2
 1527              		.p2align 4,,15
 1528              		.global	ln_get_object_next_rst
 1529              		.thumb
 1530              		.thumb_func
 1531              		.type	ln_get_object_next_rst, %function
 1532              	ln_get_object_next_rst:
ARM GAS  /tmp/ccj4yzJk.s 			page 28


 1533              	.LFB3:
 1534              		.loc 1 191 0
 1535              		.cfi_startproc
 1536              		@ args = 4, pretend = 0, frame = 0
 1537              		@ frame_needed = 0, uses_anonymous_args = 0
 1538              	.LVL251:
 1539 0000 30B5     		push	{r4, r5, lr}
 1540              	.LCFI9:
 1541              		.cfi_def_cfa_offset 12
 1542              		.cfi_offset 4, -12
 1543              		.cfi_offset 5, -8
 1544              		.cfi_offset 14, -4
 1545              		.loc 1 192 0
 1546 0002 07A5     		adr	r5, .L97
 1547 0004 D5E90045 		ldrd	r4, [r5]
 1548              		.loc 1 191 0
 1549 0008 85B0     		sub	sp, sp, #20
 1550              	.LCFI10:
 1551              		.cfi_def_cfa_offset 32
 1552              		.loc 1 192 0
 1553 000a CDE90045 		strd	r4, [sp]
 1554 000e 089C     		ldr	r4, [sp, #32]
 1555 0010 0294     		str	r4, [sp, #8]
 1556 0012 FFF7FEFF 		bl	ln_get_object_next_rst_horizon
 1557              	.LVL252:
 1558              		.loc 1 193 0
 1559 0016 05B0     		add	sp, sp, #20
 1560 0018 30BD     		pop	{r4, r5, pc}
 1561              	.L98:
 1562 001a 00BFAFF3 		.align	3
 1562      0080
 1563              	.L97:
 1564 0020 1895D409 		.word	164926744
 1565 0024 6822E2BF 		.word	-1075699096
 1566              		.cfi_endproc
 1567              	.LFE3:
 1568              		.size	ln_get_object_next_rst, .-ln_get_object_next_rst
 1569 0028 AFF30080 		.section	.text.ln_get_body_rst_horizon,"ax",%progbits
 1569      AFF30080 
 1570              		.align	2
 1571              		.p2align 4,,15
 1572              		.global	ln_get_body_rst_horizon
 1573              		.thumb
 1574              		.thumb_func
 1575              		.type	ln_get_body_rst_horizon, %function
 1576              	ln_get_body_rst_horizon:
 1577              	.LFB7:
 1578              		.loc 1 278 0
 1579              		.cfi_startproc
 1580              		@ args = 12, pretend = 0, frame = 144
 1581              		@ frame_needed = 0, uses_anonymous_args = 0
 1582              	.LVL253:
 1583 0000 2DE9F04F 		push	{r4, r5, r6, r7, r8, r9, sl, fp, lr}
 1584              	.LCFI11:
 1585              		.cfi_def_cfa_offset 36
 1586              		.cfi_offset 4, -36
 1587              		.cfi_offset 5, -32
ARM GAS  /tmp/ccj4yzJk.s 			page 29


 1588              		.cfi_offset 6, -28
 1589              		.cfi_offset 7, -24
 1590              		.cfi_offset 8, -20
 1591              		.cfi_offset 9, -16
 1592              		.cfi_offset 10, -12
 1593              		.cfi_offset 11, -8
 1594              		.cfi_offset 14, -4
 1595 0004 A9B0     		sub	sp, sp, #164
 1596              	.LCFI12:
 1597              		.cfi_def_cfa_offset 200
 1598              		.loc 1 278 0
 1599 0006 1C46     		mov	r4, r3
 1600 0008 1746     		mov	r7, r2
 1601 000a 8046     		mov	r8, r0
 1602 000c 8946     		mov	r9, r1
 1603 000e 349E     		ldr	r6, [sp, #208]
 1604              		.loc 1 288 0
 1605 0010 FFF7FEFF 		bl	ln_get_dynamical_time_diff
 1606              	.LVL254:
 1607 0014 CDE90A01 		strd	r0, [sp, #40]
 1608              	.LVL255:
 1609              		.loc 1 292 0
 1610 0018 4946     		mov	r1, r9
 1611 001a 4046     		mov	r0, r8
 1612              	.LVL256:
 1613 001c FFF7FEFF 		bl	__aeabi_d2iz
 1614              	.LVL257:
 1615              		.loc 1 293 0
 1616 0020 FFF7FEFF 		bl	__aeabi_i2d
 1617              	.LVL258:
 1618 0024 0023     		movs	r3, #0
 1619 0026 0022     		movs	r2, #0
 1620 0028 C3F6E073 		movt	r3, 16352
 1621 002c FFF7FEFF 		bl	__aeabi_dadd
 1622              	.LVL259:
 1623 0030 CDE90401 		strd	r0, [sp, #16]
 1624              	.LVL260:
 1625              		.loc 1 294 0
 1626 0034 FFF7FEFF 		bl	ln_get_apparent_sidereal_time
 1627              	.LVL261:
 1628              		.loc 1 298 0
 1629 0038 0023     		movs	r3, #0
 1630 003a C3F6F073 		movt	r3, 16368
 1631 003e 0022     		movs	r2, #0
 1632              		.loc 1 294 0
 1633 0040 8246     		mov	sl, r0
 1634 0042 8B46     		mov	fp, r1
 1635              	.LVL262:
 1636              		.loc 1 298 0
 1637 0044 DDE90401 		ldrd	r0, [sp, #16]
 1638 0048 FFF7FEFF 		bl	__aeabi_dsub
 1639              	.LVL263:
 1640 004c 1CAA     		add	r2, sp, #112
 1641 004e A047     		blx	r4
 1642              	.LVL264:
 1643              		.loc 1 299 0
 1644 0050 DDE90401 		ldrd	r0, [sp, #16]
ARM GAS  /tmp/ccj4yzJk.s 			page 30


 1645 0054 20AA     		add	r2, sp, #128
 1646 0056 A047     		blx	r4
 1647              	.LVL265:
 1648              		.loc 1 300 0
 1649 0058 0023     		movs	r3, #0
 1650 005a C3F6F073 		movt	r3, 16368
 1651 005e 0022     		movs	r2, #0
 1652 0060 DDE90401 		ldrd	r0, [sp, #16]
 1653 0064 FFF7FEFF 		bl	__aeabi_dadd
 1654              	.LVL266:
 1655 0068 24AA     		add	r2, sp, #144
 1656 006a A047     		blx	r4
 1657              	.LVL267:
 1658              		.loc 1 304 0
 1659 006c DDE93201 		ldrd	r0, [sp, #200]
 1660 0070 FFF7FEFF 		bl	ln_deg_to_rad
 1661              	.LVL268:
 1662 0074 FFF7FEFF 		bl	sin
 1663              	.LVL269:
 1664 0078 0446     		mov	r4, r0
 1665              	.LVL270:
 1666 007a 0D46     		mov	r5, r1
 1667              		.loc 1 305 0
 1668 007c D7E90201 		ldrd	r0, [r7, #8]
 1669 0080 FFF7FEFF 		bl	ln_deg_to_rad
 1670              	.LVL271:
 1671 0084 FFF7FEFF 		bl	sin
 1672              	.LVL272:
 1673 0088 8046     		mov	r8, r0
 1674              	.LVL273:
 1675 008a 8946     		mov	r9, r1
 1676 008c DDE92201 		ldrd	r0, [sp, #136]
 1677 0090 FFF7FEFF 		bl	ln_deg_to_rad
 1678              	.LVL274:
 1679 0094 FFF7FEFF 		bl	sin
 1680              	.LVL275:
 1681 0098 0246     		mov	r2, r0
 1682 009a 0B46     		mov	r3, r1
 1683 009c 4046     		mov	r0, r8
 1684 009e 4946     		mov	r1, r9
 1685 00a0 FFF7FEFF 		bl	__aeabi_dmul
 1686              	.LVL276:
 1687 00a4 0246     		mov	r2, r0
 1688 00a6 0B46     		mov	r3, r1
 1689              		.loc 1 303 0
 1690 00a8 2046     		mov	r0, r4
 1691 00aa 2946     		mov	r1, r5
 1692 00ac FFF7FEFF 		bl	__aeabi_dsub
 1693              	.LVL277:
 1694 00b0 0446     		mov	r4, r0
 1695 00b2 0D46     		mov	r5, r1
 1696              	.LVL278:
 1697              		.loc 1 306 0
 1698 00b4 D7E90201 		ldrd	r0, [r7, #8]
 1699 00b8 FFF7FEFF 		bl	ln_deg_to_rad
 1700              	.LVL279:
 1701 00bc FFF7FEFF 		bl	cos
ARM GAS  /tmp/ccj4yzJk.s 			page 31


 1702              	.LVL280:
 1703 00c0 8046     		mov	r8, r0
 1704 00c2 8946     		mov	r9, r1
 1705 00c4 DDE92201 		ldrd	r0, [sp, #136]
 1706 00c8 FFF7FEFF 		bl	ln_deg_to_rad
 1707              	.LVL281:
 1708 00cc FFF7FEFF 		bl	cos
 1709              	.LVL282:
 1710 00d0 0246     		mov	r2, r0
 1711 00d2 0B46     		mov	r3, r1
 1712 00d4 4046     		mov	r0, r8
 1713 00d6 4946     		mov	r1, r9
 1714 00d8 FFF7FEFF 		bl	__aeabi_dmul
 1715              	.LVL283:
 1716 00dc 0246     		mov	r2, r0
 1717 00de 0B46     		mov	r3, r1
 1718              	.LVL284:
 1719              		.loc 1 308 0
 1720 00e0 2046     		mov	r0, r4
 1721 00e2 2946     		mov	r1, r5
 1722 00e4 FFF7FEFF 		bl	__aeabi_ddiv
 1723              	.LVL285:
 1724              	.LBB72:
 1725              	.LBB73:
 1726              		.loc 1 31 0
 1727 00e8 21F00043 		bic	r3, r1, #-2147483648
 1728              	.LBE73:
 1729              	.LBE72:
 1730              		.loc 1 308 0
 1731 00ec 0C46     		mov	r4, r1
 1732              	.LVL286:
 1733              	.LBB77:
 1734              	.LBB74:
 1735              		.loc 1 31 0
 1736 00ee 1946     		mov	r1, r3
 1737              	.LVL287:
 1738 00f0 0023     		movs	r3, #0
 1739 00f2 0022     		movs	r2, #0
 1740 00f4 C3F6F073 		movt	r3, 16368
 1741              	.LBE74:
 1742              	.LBE77:
 1743              		.loc 1 308 0
 1744 00f8 0546     		mov	r5, r0
 1745              	.LBB78:
 1746              	.LBB75:
 1747              		.loc 1 31 0
 1748 00fa FFF7FEFF 		bl	__aeabi_dcmpgt
 1749              	.LVL288:
 1750              		.loc 1 35 0
 1751 00fe 0022     		movs	r2, #0
 1752              		.loc 1 31 0
 1753 0100 0028     		cmp	r0, #0
 1754 0102 45D0     		beq	.L144
 1755              		.loc 1 35 0
 1756 0104 4FF40043 		mov	r3, #32768
 1757 0108 C4F25603 		movt	r3, 16470
 1758 010c DDE92201 		ldrd	r0, [sp, #136]
ARM GAS  /tmp/ccj4yzJk.s 			page 32


 1759 0110 FFF7FEFF 		bl	__aeabi_dadd
 1760              	.LVL289:
 1761 0114 D7E90223 		ldrd	r2, [r7, #8]
 1762 0118 FFF7FEFF 		bl	__aeabi_dsub
 1763              	.LVL290:
 1764              		.loc 1 37 0
 1765 011c 4FF40043 		mov	r3, #32768
 1766 0120 0022     		movs	r2, #0
 1767 0122 C4F25603 		movt	r3, 16470
 1768              		.loc 1 35 0
 1769 0126 0446     		mov	r4, r0
 1770              	.LVL291:
 1771 0128 0D46     		mov	r5, r1
 1772              	.LVL292:
 1773              		.loc 1 37 0
 1774 012a FFF7FEFF 		bl	__aeabi_dcmpgt
 1775              	.LVL293:
 1776 012e 50B1     		cbz	r0, .L102
 1777              		.loc 1 38 0
 1778 0130 4FF40041 		mov	r1, #32768
 1779 0134 2246     		mov	r2, r4
 1780 0136 2B46     		mov	r3, r5
 1781 0138 0020     		movs	r0, #0
 1782 013a C4F26601 		movt	r1, 16486
 1783 013e FFF7FEFF 		bl	__aeabi_dsub
 1784              	.LVL294:
 1785 0142 0446     		mov	r4, r0
 1786              	.LVL295:
 1787 0144 0D46     		mov	r5, r1
 1788              	.LVL296:
 1789              	.L102:
 1790              		.loc 1 39 0
 1791 0146 4FF40043 		mov	r3, #32768
 1792 014a 2046     		mov	r0, r4
 1793 014c 2946     		mov	r1, r5
 1794 014e 0022     		movs	r2, #0
 1795 0150 CCF25603 		movt	r3, 49238
 1796 0154 FFF7FEFF 		bl	__aeabi_dcmplt
 1797              	.LVL297:
 1798 0158 70B9     		cbnz	r0, .L149
 1799              	.L104:
 1800              		.loc 1 41 0
 1801 015a 2B46     		mov	r3, r5
 1802 015c DDE93201 		ldrd	r0, [sp, #200]
 1803 0160 2246     		mov	r2, r4
 1804 0162 FFF7FEFF 		bl	__aeabi_dcmpgt
 1805              	.LVL298:
 1806              		.loc 1 44 0
 1807 0166 0028     		cmp	r0, #0
 1808 0168 14BF     		ite	ne
 1809 016a 4FF0FF33 		movne	r3, #-1
 1810 016e 0123     		moveq	r3, #1
 1811              	.LVL299:
 1812              	.L145:
 1813              	.LBE75:
 1814              	.LBE78:
 1815              		.loc 1 401 0
ARM GAS  /tmp/ccj4yzJk.s 			page 33


 1816 0170 1846     		mov	r0, r3
 1817 0172 29B0     		add	sp, sp, #164
 1818 0174 BDE8F08F 		pop	{r4, r5, r6, r7, r8, r9, sl, fp, pc}
 1819              	.LVL300:
 1820              	.L149:
 1821              	.LBB79:
 1822              	.LBB76:
 1823              		.loc 1 40 0
 1824 0178 4FF40041 		mov	r1, #32768
 1825 017c 2246     		mov	r2, r4
 1826 017e 2B46     		mov	r3, r5
 1827 0180 0020     		movs	r0, #0
 1828 0182 CCF26601 		movt	r1, 49254
 1829 0186 FFF7FEFF 		bl	__aeabi_dsub
 1830              	.LVL301:
 1831 018a 0446     		mov	r4, r0
 1832              	.LVL302:
 1833 018c 0D46     		mov	r5, r1
 1834              	.LVL303:
 1835 018e E4E7     		b	.L104
 1836              	.LVL304:
 1837              	.L144:
 1838              	.LBE76:
 1839              	.LBE79:
 1840              		.loc 1 295 0
 1841 0190 0023     		movs	r3, #0
 1842 0192 C4F22E03 		movt	r3, 16430
 1843 0196 5046     		mov	r0, sl
 1844 0198 5946     		mov	r1, fp
 1845 019a FFF7FEFF 		bl	__aeabi_dmul
 1846              	.LVL305:
 1847 019e 8046     		mov	r8, r0
 1848 01a0 8946     		mov	r9, r1
 1849              		.loc 1 314 0
 1850 01a2 2846     		mov	r0, r5
 1851 01a4 2146     		mov	r1, r4
 1852 01a6 FFF7FEFF 		bl	acos
 1853              	.LVL306:
 1854              		.loc 1 315 0
 1855 01aa FFF7FEFF 		bl	ln_rad_to_deg
 1856              	.LVL307:
 1857              		.loc 1 318 0
 1858 01ae DDE92045 		ldrd	r4, [sp, #128]
 1859              	.LVL308:
 1860              		.loc 1 315 0
 1861 01b2 8246     		mov	sl, r0
 1862              	.LVL309:
 1863 01b4 8B46     		mov	fp, r1
 1864              	.LVL310:
 1865              		.loc 1 318 0
 1866 01b6 D7E90023 		ldrd	r2, [r7]
 1867 01ba 2046     		mov	r0, r4
 1868 01bc 2946     		mov	r1, r5
 1869 01be FFF7FEFF 		bl	__aeabi_dsub
 1870              	.LVL311:
 1871 01c2 4246     		mov	r2, r8
 1872 01c4 4B46     		mov	r3, r9
ARM GAS  /tmp/ccj4yzJk.s 			page 34


 1873 01c6 FFF7FEFF 		bl	__aeabi_dsub
 1874              	.LVL312:
 1875 01ca 4FF40043 		mov	r3, #32768
 1876 01ce 0022     		movs	r2, #0
 1877 01d0 C4F27603 		movt	r3, 16502
 1878 01d4 FFF7FEFF 		bl	__aeabi_ddiv
 1879              	.LVL313:
 1880              		.loc 1 319 0
 1881 01d8 4FF40043 		mov	r3, #32768
 1882              		.loc 1 318 0
 1883 01dc CDE90C01 		strd	r0, [sp, #48]
 1884              	.LVL314:
 1885              		.loc 1 319 0
 1886 01e0 0022     		movs	r2, #0
 1887 01e2 5046     		mov	r0, sl
 1888              	.LVL315:
 1889 01e4 5946     		mov	r1, fp
 1890 01e6 C4F27603 		movt	r3, 16502
 1891 01ea FFF7FEFF 		bl	__aeabi_ddiv
 1892              	.LVL316:
 1893 01ee 8246     		mov	sl, r0
 1894              	.LVL317:
 1895 01f0 8B46     		mov	fp, r1
 1896 01f2 5246     		mov	r2, sl
 1897 01f4 5B46     		mov	r3, fp
 1898 01f6 DDE90C01 		ldrd	r0, [sp, #48]
 1899 01fa FFF7FEFF 		bl	__aeabi_dsub
 1900              	.LVL318:
 1901              		.loc 1 320 0
 1902 01fe 5246     		mov	r2, sl
 1903              		.loc 1 319 0
 1904 0200 CDE90E01 		strd	r0, [sp, #56]
 1905              	.LVL319:
 1906              		.loc 1 320 0
 1907 0204 5B46     		mov	r3, fp
 1908 0206 DDE90C01 		ldrd	r0, [sp, #48]
 1909              	.LVL320:
 1910 020a FFF7FEFF 		bl	__aeabi_dadd
 1911              	.LVL321:
 1912              		.loc 1 323 0
 1913 020e 0023     		movs	r3, #0
 1914              		.loc 1 320 0
 1915 0210 CDE91001 		strd	r0, [sp, #64]
 1916              	.LVL322:
 1917              		.loc 1 323 0
 1918 0214 0022     		movs	r2, #0
 1919 0216 DDE90C01 		ldrd	r0, [sp, #48]
 1920              	.LVL323:
 1921 021a C3F6F073 		movt	r3, 16368
 1922 021e FFF7FEFF 		bl	__aeabi_dcmpgt
 1923              	.LVL324:
 1924 0222 0028     		cmp	r0, #0
 1925 0224 00F0BA82 		beq	.L150
 1926              		.loc 1 324 0
 1927 0228 0023     		movs	r3, #0
 1928 022a DDE90C01 		ldrd	r0, [sp, #48]
 1929 022e 0022     		movs	r2, #0
ARM GAS  /tmp/ccj4yzJk.s 			page 35


 1930 0230 C3F6F073 		movt	r3, 16368
 1931 0234 FFF7FEFF 		bl	__aeabi_dsub
 1932              	.LVL325:
 1933 0238 CDE90C01 		strd	r0, [sp, #48]
 1934              	.LVL326:
 1935              	.L108:
 1936              		.loc 1 327 0
 1937 023c 0023     		movs	r3, #0
 1938 023e DDE90E01 		ldrd	r0, [sp, #56]
 1939 0242 0022     		movs	r2, #0
 1940 0244 C3F6F073 		movt	r3, 16368
 1941 0248 FFF7FEFF 		bl	__aeabi_dcmpgt
 1942              	.LVL327:
 1943 024c 0028     		cmp	r0, #0
 1944 024e 00F0CD82 		beq	.L146
 1945              		.loc 1 328 0
 1946 0252 0023     		movs	r3, #0
 1947 0254 DDE90E01 		ldrd	r0, [sp, #56]
 1948 0258 0022     		movs	r2, #0
 1949 025a C3F6F073 		movt	r3, 16368
 1950 025e FFF7FEFF 		bl	__aeabi_dsub
 1951              	.LVL328:
 1952 0262 CDE90E01 		strd	r0, [sp, #56]
 1953              	.LVL329:
 1954              	.L112:
 1955              		.loc 1 331 0
 1956 0266 0023     		movs	r3, #0
 1957 0268 DDE91001 		ldrd	r0, [sp, #64]
 1958 026c 0022     		movs	r2, #0
 1959 026e C3F6F073 		movt	r3, 16368
 1960 0272 FFF7FEFF 		bl	__aeabi_dcmpgt
 1961              	.LVL330:
 1962 0276 0028     		cmp	r0, #0
 1963 0278 00F0A482 		beq	.L147
 1964              		.loc 1 332 0
 1965 027c 0023     		movs	r3, #0
 1966 027e DDE91001 		ldrd	r0, [sp, #64]
 1967 0282 0022     		movs	r2, #0
 1968 0284 C3F6F073 		movt	r3, 16368
 1969 0288 FFF7FEFF 		bl	__aeabi_dsub
 1970              	.LVL331:
 1971 028c CDE91001 		strd	r0, [sp, #64]
 1972              	.LVL332:
 1973              	.L116:
 1974              		.loc 1 337 0
 1975 0290 9BA3     		adr	r3, .L151
 1976 0292 D3E90023 		ldrd	r2, [r3]
 1977 0296 DDE90C01 		ldrd	r0, [sp, #48]
 1978 029a FFF7FEFF 		bl	__aeabi_dmul
 1979              	.LVL333:
 1980 029e 4246     		mov	r2, r8
 1981 02a0 4B46     		mov	r3, r9
 1982 02a2 FFF7FEFF 		bl	__aeabi_dadd
 1983              	.LVL334:
 1984              		.loc 1 338 0
 1985 02a6 96A3     		adr	r3, .L151
 1986 02a8 D3E90023 		ldrd	r2, [r3]
ARM GAS  /tmp/ccj4yzJk.s 			page 36


 1987              		.loc 1 337 0
 1988 02ac CDE91401 		strd	r0, [sp, #80]
 1989              	.LVL335:
 1990              		.loc 1 338 0
 1991 02b0 DDE90E01 		ldrd	r0, [sp, #56]
 1992              	.LVL336:
 1993 02b4 FFF7FEFF 		bl	__aeabi_dmul
 1994              	.LVL337:
 1995 02b8 4246     		mov	r2, r8
 1996 02ba 4B46     		mov	r3, r9
 1997 02bc FFF7FEFF 		bl	__aeabi_dadd
 1998              	.LVL338:
 1999              		.loc 1 339 0
 2000 02c0 8FA3     		adr	r3, .L151
 2001 02c2 D3E90023 		ldrd	r2, [r3]
 2002              		.loc 1 338 0
 2003 02c6 CDE91601 		strd	r0, [sp, #88]
 2004              	.LVL339:
 2005              		.loc 1 339 0
 2006 02ca DDE91001 		ldrd	r0, [sp, #64]
 2007              	.LVL340:
 2008 02ce FFF7FEFF 		bl	__aeabi_dmul
 2009              	.LVL341:
 2010 02d2 4246     		mov	r2, r8
 2011 02d4 4B46     		mov	r3, r9
 2012 02d6 FFF7FEFF 		bl	__aeabi_dadd
 2013              	.LVL342:
 2014              		.loc 1 342 0
 2015 02da DDE91C23 		ldrd	r2, [sp, #112]
 2016 02de CDE90823 		strd	r2, [sp, #32]
 2017              		.loc 1 339 0
 2018 02e2 CDE91801 		strd	r0, [sp, #96]
 2019              	.LVL343:
 2020              		.loc 1 342 0
 2021 02e6 2246     		mov	r2, r4
 2022 02e8 2B46     		mov	r3, r5
 2023 02ea DDE90801 		ldrd	r0, [sp, #32]
 2024              	.LVL344:
 2025 02ee FFF7FEFF 		bl	__aeabi_dsub
 2026              	.LVL345:
 2027 02f2 4FF40043 		mov	r3, #32768
 2028 02f6 0022     		movs	r2, #0
 2029 02f8 C4F26603 		movt	r3, 16486
 2030 02fc FFF7FEFF 		bl	__aeabi_dcmpgt
 2031              	.LVL346:
 2032 0300 60B1     		cbz	r0, .L118
 2033              		.loc 1 343 0
 2034 0302 4FF40043 		mov	r3, #32768
 2035 0306 2046     		mov	r0, r4
 2036 0308 2946     		mov	r1, r5
 2037 030a 0022     		movs	r2, #0
 2038 030c C4F27603 		movt	r3, 16502
 2039 0310 FFF7FEFF 		bl	__aeabi_dadd
 2040              	.LVL347:
 2041 0314 0446     		mov	r4, r0
 2042 0316 0D46     		mov	r5, r1
 2043 0318 CDE92045 		strd	r4, [sp, #128]
ARM GAS  /tmp/ccj4yzJk.s 			page 37


 2044              	.L118:
 2045              		.loc 1 345 0
 2046 031c DDE924AB 		ldrd	sl, [sp, #144]
 2047 0320 2046     		mov	r0, r4
 2048 0322 5246     		mov	r2, sl
 2049 0324 5B46     		mov	r3, fp
 2050 0326 2946     		mov	r1, r5
 2051 0328 FFF7FEFF 		bl	__aeabi_dsub
 2052              	.LVL348:
 2053 032c 4FF40043 		mov	r3, #32768
 2054 0330 0022     		movs	r2, #0
 2055 0332 C4F26603 		movt	r3, 16486
 2056 0336 FFF7FEFF 		bl	__aeabi_dcmpgt
 2057              	.LVL349:
 2058 033a 60B1     		cbz	r0, .L120
 2059              		.loc 1 346 0
 2060 033c 4FF40043 		mov	r3, #32768
 2061 0340 5046     		mov	r0, sl
 2062 0342 5946     		mov	r1, fp
 2063 0344 0022     		movs	r2, #0
 2064 0346 C4F27603 		movt	r3, 16502
 2065 034a FFF7FEFF 		bl	__aeabi_dadd
 2066              	.LVL350:
 2067 034e 8246     		mov	sl, r0
 2068 0350 8B46     		mov	fp, r1
 2069 0352 CDE924AB 		strd	sl, [sp, #144]
 2070              	.L120:
 2071              		.loc 1 348 0
 2072 0356 2246     		mov	r2, r4
 2073 0358 2B46     		mov	r3, r5
 2074 035a 5046     		mov	r0, sl
 2075 035c 5946     		mov	r1, fp
 2076 035e FFF7FEFF 		bl	__aeabi_dsub
 2077              	.LVL351:
 2078 0362 4FF40043 		mov	r3, #32768
 2079 0366 0022     		movs	r2, #0
 2080 0368 C4F26603 		movt	r3, 16486
 2081 036c FFF7FEFF 		bl	__aeabi_dcmpgt
 2082              	.LVL352:
 2083 0370 60B1     		cbz	r0, .L122
 2084              		.loc 1 349 0
 2085 0372 4FF40043 		mov	r3, #32768
 2086 0376 5046     		mov	r0, sl
 2087 0378 5946     		mov	r1, fp
 2088 037a 0022     		movs	r2, #0
 2089 037c C4F27603 		movt	r3, 16502
 2090 0380 FFF7FEFF 		bl	__aeabi_dsub
 2091              	.LVL353:
 2092 0384 8246     		mov	sl, r0
 2093 0386 8B46     		mov	fp, r1
 2094 0388 CDE924AB 		strd	sl, [sp, #144]
 2095              	.L122:
 2096              		.loc 1 351 0
 2097 038c DDE90823 		ldrd	r2, [sp, #32]
 2098 0390 2046     		mov	r0, r4
 2099 0392 2946     		mov	r1, r5
 2100 0394 FFF7FEFF 		bl	__aeabi_dsub
ARM GAS  /tmp/ccj4yzJk.s 			page 38


 2101              	.LVL354:
 2102 0398 4FF40043 		mov	r3, #32768
 2103 039c 0022     		movs	r2, #0
 2104 039e C4F26603 		movt	r3, 16486
 2105 03a2 FFF7FEFF 		bl	__aeabi_dcmpgt
 2106              	.LVL355:
 2107 03a6 60B1     		cbz	r0, .L124
 2108              		.loc 1 352 0
 2109 03a8 4FF40043 		mov	r3, #32768
 2110 03ac 5046     		mov	r0, sl
 2111 03ae 5946     		mov	r1, fp
 2112 03b0 0022     		movs	r2, #0
 2113 03b2 C4F27603 		movt	r3, 16502
 2114 03b6 FFF7FEFF 		bl	__aeabi_dsub
 2115              	.LVL356:
 2116 03ba 8246     		mov	sl, r0
 2117 03bc 8B46     		mov	fp, r1
 2118 03be CDE924AB 		strd	sl, [sp, #144]
 2119              	.L124:
 2120              		.loc 1 354 0
 2121 03c2 DDE90A01 		ldrd	r0, [sp, #40]
 2122 03c6 50A3     		adr	r3, .L151+8
 2123 03c8 D3E90023 		ldrd	r2, [r3]
 2124 03cc FFF7FEFF 		bl	__aeabi_ddiv
 2125              	.LVL357:
 2126 03d0 DDE90C23 		ldrd	r2, [sp, #48]
 2127 03d4 8046     		mov	r8, r0
 2128 03d6 8946     		mov	r9, r1
 2129 03d8 FFF7FEFF 		bl	__aeabi_dadd
 2130              	.LVL358:
 2131              		.loc 1 355 0
 2132 03dc 4246     		mov	r2, r8
 2133 03de 4B46     		mov	r3, r9
 2134              		.loc 1 354 0
 2135 03e0 CDE91201 		strd	r0, [sp, #72]
 2136              	.LVL359:
 2137              		.loc 1 355 0
 2138 03e4 DDE90E01 		ldrd	r0, [sp, #56]
 2139              	.LVL360:
 2140 03e8 FFF7FEFF 		bl	__aeabi_dadd
 2141              	.LVL361:
 2142              		.loc 1 356 0
 2143 03ec 4246     		mov	r2, r8
 2144 03ee 4B46     		mov	r3, r9
 2145              		.loc 1 355 0
 2146 03f0 CDE90A01 		strd	r0, [sp, #40]
 2147              	.LVL362:
 2148              		.loc 1 356 0
 2149 03f4 DDE91001 		ldrd	r0, [sp, #64]
 2150              	.LVL363:
 2151 03f8 FFF7FEFF 		bl	__aeabi_dadd
 2152              	.LVL364:
 2153              		.loc 1 359 0
 2154 03fc CDE902AB 		strd	sl, [sp, #8]
 2155              		.loc 1 356 0
 2156 0400 8046     		mov	r8, r0
 2157 0402 8946     		mov	r9, r1
ARM GAS  /tmp/ccj4yzJk.s 			page 39


 2158              	.LVL365:
 2159              		.loc 1 359 0
 2160 0404 DDE90823 		ldrd	r2, [sp, #32]
 2161 0408 CDE90045 		strd	r4, [sp]
 2162 040c DDE90A01 		ldrd	r0, [sp, #40]
 2163 0410 FFF7FEFF 		bl	ln_interpolate3
 2164              	.LVL366:
 2165              		.loc 1 360 0
 2166 0414 DDE92245 		ldrd	r4, [sp, #136]
 2167              		.loc 1 359 0
 2168 0418 CDE91A01 		strd	r0, [sp, #104]
 2169              	.LVL367:
 2170              		.loc 1 360 0
 2171 041c DDE92601 		ldrd	r0, [sp, #152]
 2172              	.LVL368:
 2173 0420 DDE91E23 		ldrd	r2, [sp, #120]
 2174 0424 CDE90045 		strd	r4, [sp]
 2175 0428 CDE90201 		strd	r0, [sp, #8]
 2176 042c DDE90A01 		ldrd	r0, [sp, #40]
 2177 0430 FFF7FEFF 		bl	ln_interpolate3
 2178              	.LVL369:
 2179              		.loc 1 361 0
 2180 0434 DDE92045 		ldrd	r4, [sp, #128]
 2181              		.loc 1 360 0
 2182 0438 CDE90A01 		strd	r0, [sp, #40]
 2183              	.LVL370:
 2184              		.loc 1 361 0
 2185 043c DDE92401 		ldrd	r0, [sp, #144]
 2186              	.LVL371:
 2187 0440 DDE91C23 		ldrd	r2, [sp, #112]
 2188 0444 CDE90045 		strd	r4, [sp]
 2189 0448 CDE90201 		strd	r0, [sp, #8]
 2190 044c DDE91201 		ldrd	r0, [sp, #72]
 2191 0450 FFF7FEFF 		bl	ln_interpolate3
 2192              	.LVL372:
 2193              		.loc 1 362 0
 2194 0454 DDE92045 		ldrd	r4, [sp, #128]
 2195              		.loc 1 361 0
 2196 0458 CDE90801 		strd	r0, [sp, #32]
 2197              	.LVL373:
 2198              		.loc 1 362 0
 2199 045c DDE92401 		ldrd	r0, [sp, #144]
 2200              	.LVL374:
 2201 0460 DDE91C23 		ldrd	r2, [sp, #112]
 2202 0464 CDE90201 		strd	r0, [sp, #8]
 2203 0468 CDE90045 		strd	r4, [sp]
 2204 046c 4046     		mov	r0, r8
 2205 046e 4946     		mov	r1, r9
 2206 0470 FFF7FEFF 		bl	ln_interpolate3
 2207              	.LVL375:
 2208              		.loc 1 363 0
 2209 0474 DDE92245 		ldrd	r4, [sp, #136]
 2210              		.loc 1 362 0
 2211 0478 8246     		mov	sl, r0
 2212 047a 8B46     		mov	fp, r1
 2213              	.LVL376:
 2214              		.loc 1 363 0
ARM GAS  /tmp/ccj4yzJk.s 			page 40


 2215 047c DDE92601 		ldrd	r0, [sp, #152]
 2216 0480 DDE91E23 		ldrd	r2, [sp, #120]
 2217 0484 CDE90201 		strd	r0, [sp, #8]
 2218 0488 CDE90045 		strd	r4, [sp]
 2219 048c 4046     		mov	r0, r8
 2220 048e 4946     		mov	r1, r9
 2221 0490 FFF7FEFF 		bl	ln_interpolate3
 2222              	.LVL377:
 2223              		.loc 1 366 0
 2224 0494 D7E90045 		ldrd	r4, [r7]
 2225 0498 DDE91423 		ldrd	r2, [sp, #80]
 2226              		.loc 1 363 0
 2227 049c CDE91201 		strd	r0, [sp, #72]
 2228              	.LVL378:
 2229              		.loc 1 366 0
 2230 04a0 2046     		mov	r0, r4
 2231              	.LVL379:
 2232 04a2 2946     		mov	r1, r5
 2233 04a4 FFF7FEFF 		bl	__aeabi_dadd
 2234              	.LVL380:
 2235 04a8 DDE90823 		ldrd	r2, [sp, #32]
 2236 04ac FFF7FEFF 		bl	__aeabi_dsub
 2237              	.LVL381:
 2238              		.loc 1 367 0
 2239 04b0 2246     		mov	r2, r4
 2240 04b2 2B46     		mov	r3, r5
 2241              		.loc 1 366 0
 2242 04b4 CDE90801 		strd	r0, [sp, #32]
 2243              	.LVL382:
 2244              		.loc 1 367 0
 2245 04b8 DDE91601 		ldrd	r0, [sp, #88]
 2246              	.LVL383:
 2247 04bc FFF7FEFF 		bl	__aeabi_dadd
 2248              	.LVL384:
 2249 04c0 DDE91A23 		ldrd	r2, [sp, #104]
 2250 04c4 FFF7FEFF 		bl	__aeabi_dsub
 2251              	.LVL385:
 2252              		.loc 1 368 0
 2253 04c8 2246     		mov	r2, r4
 2254 04ca 2B46     		mov	r3, r5
 2255              		.loc 1 367 0
 2256 04cc CDE91401 		strd	r0, [sp, #80]
 2257              	.LVL386:
 2258              		.loc 1 368 0
 2259 04d0 DDE91801 		ldrd	r0, [sp, #96]
 2260              	.LVL387:
 2261 04d4 FFF7FEFF 		bl	__aeabi_dadd
 2262              	.LVL388:
 2263 04d8 5246     		mov	r2, sl
 2264 04da 5B46     		mov	r3, fp
 2265 04dc FFF7FEFF 		bl	__aeabi_dsub
 2266              	.LVL389:
 2267 04e0 CDE91601 		strd	r0, [sp, #88]
 2268              	.LVL390:
 2269              		.loc 1 371 0
 2270 04e4 D7E90201 		ldrd	r0, [r7, #8]
 2271              	.LVL391:
ARM GAS  /tmp/ccj4yzJk.s 			page 41


 2272 04e8 FFF7FEFF 		bl	ln_deg_to_rad
 2273              	.LVL392:
 2274 04ec FFF7FEFF 		bl	sin
 2275              	.LVL393:
 2276 04f0 0446     		mov	r4, r0
 2277 04f2 0D46     		mov	r5, r1
 2278 04f4 DDE90A01 		ldrd	r0, [sp, #40]
 2279 04f8 0AE0     		b	.L152
 2280              	.L153:
 2281 04fa 00BFAFF3 		.align	3
 2281      0080
 2282              	.L151:
 2283 0500 68E6C935 		.word	902424168
 2284 0504 C58F7640 		.word	1081511877
 2285 0508 00000000 		.word	0
 2286 050c 0018F540 		.word	1089804288
 2287              	.L152:
 2288 0510 FFF7FEFF 		bl	ln_deg_to_rad
 2289              	.LVL394:
 2290 0514 FFF7FEFF 		bl	sin
 2291              	.LVL395:
 2292 0518 0246     		mov	r2, r0
 2293 051a 0B46     		mov	r3, r1
 2294 051c 2046     		mov	r0, r4
 2295 051e 2946     		mov	r1, r5
 2296 0520 FFF7FEFF 		bl	__aeabi_dmul
 2297              	.LVL396:
 2298 0524 0446     		mov	r4, r0
 2299 0526 0D46     		mov	r5, r1
 2300              		.loc 1 372 0
 2301 0528 D7E90201 		ldrd	r0, [r7, #8]
 2302 052c FFF7FEFF 		bl	ln_deg_to_rad
 2303              	.LVL397:
 2304 0530 FFF7FEFF 		bl	cos
 2305              	.LVL398:
 2306 0534 8046     		mov	r8, r0
 2307              	.LVL399:
 2308 0536 8946     		mov	r9, r1
 2309 0538 DDE90A01 		ldrd	r0, [sp, #40]
 2310 053c FFF7FEFF 		bl	ln_deg_to_rad
 2311              	.LVL400:
 2312 0540 FFF7FEFF 		bl	cos
 2313              	.LVL401:
 2314 0544 0246     		mov	r2, r0
 2315 0546 0B46     		mov	r3, r1
 2316 0548 4046     		mov	r0, r8
 2317 054a 4946     		mov	r1, r9
 2318 054c FFF7FEFF 		bl	__aeabi_dmul
 2319              	.LVL402:
 2320 0550 8246     		mov	sl, r0
 2321              	.LVL403:
 2322 0552 8B46     		mov	fp, r1
 2323              		.loc 1 373 0
 2324 0554 DDE91401 		ldrd	r0, [sp, #80]
 2325 0558 FFF7FEFF 		bl	ln_deg_to_rad
 2326              	.LVL404:
 2327 055c FFF7FEFF 		bl	cos
ARM GAS  /tmp/ccj4yzJk.s 			page 42


 2328              	.LVL405:
 2329 0560 0246     		mov	r2, r0
 2330 0562 0B46     		mov	r3, r1
 2331              		.loc 1 372 0
 2332 0564 5046     		mov	r0, sl
 2333 0566 5946     		mov	r1, fp
 2334 0568 FFF7FEFF 		bl	__aeabi_dmul
 2335              	.LVL406:
 2336 056c 0246     		mov	r2, r0
 2337 056e 0B46     		mov	r3, r1
 2338              		.loc 1 371 0
 2339 0570 2046     		mov	r0, r4
 2340 0572 2946     		mov	r1, r5
 2341 0574 FFF7FEFF 		bl	__aeabi_dadd
 2342              	.LVL407:
 2343 0578 8246     		mov	sl, r0
 2344 057a 8B46     		mov	fp, r1
 2345              	.LVL408:
 2346              		.loc 1 374 0
 2347 057c D7E90201 		ldrd	r0, [r7, #8]
 2348 0580 FFF7FEFF 		bl	ln_deg_to_rad
 2349              	.LVL409:
 2350 0584 FFF7FEFF 		bl	sin
 2351              	.LVL410:
 2352 0588 0446     		mov	r4, r0
 2353 058a 0D46     		mov	r5, r1
 2354 058c DDE91201 		ldrd	r0, [sp, #72]
 2355 0590 FFF7FEFF 		bl	ln_deg_to_rad
 2356              	.LVL411:
 2357 0594 FFF7FEFF 		bl	sin
 2358              	.LVL412:
 2359 0598 0246     		mov	r2, r0
 2360 059a 0B46     		mov	r3, r1
 2361 059c 2046     		mov	r0, r4
 2362 059e 2946     		mov	r1, r5
 2363 05a0 FFF7FEFF 		bl	__aeabi_dmul
 2364              	.LVL413:
 2365 05a4 0446     		mov	r4, r0
 2366 05a6 0D46     		mov	r5, r1
 2367              		.loc 1 375 0
 2368 05a8 D7E90201 		ldrd	r0, [r7, #8]
 2369 05ac FFF7FEFF 		bl	ln_deg_to_rad
 2370              	.LVL414:
 2371 05b0 FFF7FEFF 		bl	cos
 2372              	.LVL415:
 2373 05b4 8046     		mov	r8, r0
 2374 05b6 8946     		mov	r9, r1
 2375 05b8 DDE91201 		ldrd	r0, [sp, #72]
 2376 05bc FFF7FEFF 		bl	ln_deg_to_rad
 2377              	.LVL416:
 2378 05c0 FFF7FEFF 		bl	cos
 2379              	.LVL417:
 2380 05c4 0246     		mov	r2, r0
 2381 05c6 0B46     		mov	r3, r1
 2382 05c8 4046     		mov	r0, r8
 2383 05ca 4946     		mov	r1, r9
 2384 05cc FFF7FEFF 		bl	__aeabi_dmul
ARM GAS  /tmp/ccj4yzJk.s 			page 43


 2385              	.LVL418:
 2386 05d0 8046     		mov	r8, r0
 2387 05d2 8946     		mov	r9, r1
 2388              		.loc 1 376 0
 2389 05d4 DDE91601 		ldrd	r0, [sp, #88]
 2390 05d8 FFF7FEFF 		bl	ln_deg_to_rad
 2391              	.LVL419:
 2392 05dc FFF7FEFF 		bl	cos
 2393              	.LVL420:
 2394 05e0 0246     		mov	r2, r0
 2395 05e2 0B46     		mov	r3, r1
 2396              		.loc 1 375 0
 2397 05e4 4046     		mov	r0, r8
 2398 05e6 4946     		mov	r1, r9
 2399 05e8 FFF7FEFF 		bl	__aeabi_dmul
 2400              	.LVL421:
 2401 05ec 0246     		mov	r2, r0
 2402 05ee 0B46     		mov	r3, r1
 2403              		.loc 1 374 0
 2404 05f0 2046     		mov	r0, r4
 2405 05f2 2946     		mov	r1, r5
 2406 05f4 FFF7FEFF 		bl	__aeabi_dadd
 2407              	.LVL422:
 2408 05f8 8046     		mov	r8, r0
 2409 05fa 8946     		mov	r9, r1
 2410              	.LVL423:
 2411              		.loc 1 379 0
 2412 05fc 5046     		mov	r0, sl
 2413 05fe 5946     		mov	r1, fp
 2414 0600 FFF7FEFF 		bl	ln_rad_to_deg
 2415              	.LVL424:
 2416 0604 0446     		mov	r4, r0
 2417 0606 0D46     		mov	r5, r1
 2418              	.LVL425:
 2419              		.loc 1 380 0
 2420 0608 4046     		mov	r0, r8
 2421 060a 4946     		mov	r1, r9
 2422 060c FFF7FEFF 		bl	ln_rad_to_deg
 2423              	.LVL426:
 2424 0610 CDE91801 		strd	r0, [sp, #96]
 2425              	.LVL427:
 2426              		.loc 1 383 0
 2427 0614 DDE90801 		ldrd	r0, [sp, #32]
 2428              	.LVL428:
 2429 0618 FFF7FEFF 		bl	ln_range_degrees
 2430              	.LVL429:
 2431              		.loc 1 384 0
 2432 061c 4FF40043 		mov	r3, #32768
 2433 0620 DDE90801 		ldrd	r0, [sp, #32]
 2434 0624 0022     		movs	r2, #0
 2435 0626 C4F26603 		movt	r3, 16486
 2436 062a FFF7FEFF 		bl	__aeabi_dcmpgt
 2437              	.LVL430:
 2438 062e 50B1     		cbz	r0, .L126
 2439              		.loc 1 385 0
 2440 0630 4FF40043 		mov	r3, #32768
 2441 0634 DDE90801 		ldrd	r0, [sp, #32]
ARM GAS  /tmp/ccj4yzJk.s 			page 44


 2442 0638 0022     		movs	r2, #0
 2443 063a C4F27603 		movt	r3, 16502
 2444 063e FFF7FEFF 		bl	__aeabi_dsub
 2445              	.LVL431:
 2446 0642 CDE90801 		strd	r0, [sp, #32]
 2447              	.LVL432:
 2448              	.L126:
 2449              		.loc 1 388 0
 2450 0646 DDE93223 		ldrd	r2, [sp, #200]
 2451 064a 2046     		mov	r0, r4
 2452 064c 2946     		mov	r1, r5
 2453 064e FFF7FEFF 		bl	__aeabi_dsub
 2454              	.LVL433:
 2455 0652 8246     		mov	sl, r0
 2456 0654 8B46     		mov	fp, r1
 2457 0656 DDE90A01 		ldrd	r0, [sp, #40]
 2458 065a FFF7FEFF 		bl	ln_deg_to_rad
 2459              	.LVL434:
 2460 065e FFF7FEFF 		bl	cos
 2461              	.LVL435:
 2462 0662 8046     		mov	r8, r0
 2463 0664 8946     		mov	r9, r1
 2464 0666 D7E90201 		ldrd	r0, [r7, #8]
 2465 066a FFF7FEFF 		bl	ln_deg_to_rad
 2466              	.LVL436:
 2467 066e FFF7FEFF 		bl	cos
 2468              	.LVL437:
 2469 0672 4FF40043 		mov	r3, #32768
 2470 0676 0446     		mov	r4, r0
 2471              	.LVL438:
 2472 0678 0D46     		mov	r5, r1
 2473 067a 4046     		mov	r0, r8
 2474 067c 4946     		mov	r1, r9
 2475 067e 0022     		movs	r2, #0
 2476 0680 C4F27603 		movt	r3, 16502
 2477 0684 FFF7FEFF 		bl	__aeabi_dmul
 2478              	.LVL439:
 2479 0688 2246     		mov	r2, r4
 2480 068a 2B46     		mov	r3, r5
 2481 068c FFF7FEFF 		bl	__aeabi_dmul
 2482              	.LVL440:
 2483 0690 0446     		mov	r4, r0
 2484 0692 0D46     		mov	r5, r1
 2485 0694 DDE91401 		ldrd	r0, [sp, #80]
 2486 0698 FFF7FEFF 		bl	ln_deg_to_rad
 2487              	.LVL441:
 2488 069c FFF7FEFF 		bl	sin
 2489              	.LVL442:
 2490 06a0 0246     		mov	r2, r0
 2491 06a2 0B46     		mov	r3, r1
 2492 06a4 2046     		mov	r0, r4
 2493 06a6 2946     		mov	r1, r5
 2494 06a8 FFF7FEFF 		bl	__aeabi_dmul
 2495              	.LVL443:
 2496 06ac 0246     		mov	r2, r0
 2497 06ae 0B46     		mov	r3, r1
 2498 06b0 5046     		mov	r0, sl
ARM GAS  /tmp/ccj4yzJk.s 			page 45


 2499 06b2 5946     		mov	r1, fp
 2500 06b4 FFF7FEFF 		bl	__aeabi_ddiv
 2501              	.LVL444:
 2502              		.loc 1 389 0
 2503 06b8 DDE93223 		ldrd	r2, [sp, #200]
 2504              		.loc 1 388 0
 2505 06bc 8246     		mov	sl, r0
 2506 06be 8B46     		mov	fp, r1
 2507              	.LVL445:
 2508              		.loc 1 389 0
 2509 06c0 DDE91801 		ldrd	r0, [sp, #96]
 2510 06c4 FFF7FEFF 		bl	__aeabi_dsub
 2511              	.LVL446:
 2512 06c8 CDE90601 		strd	r0, [sp, #24]
 2513 06cc DDE91201 		ldrd	r0, [sp, #72]
 2514 06d0 FFF7FEFF 		bl	ln_deg_to_rad
 2515              	.LVL447:
 2516 06d4 FFF7FEFF 		bl	cos
 2517              	.LVL448:
 2518 06d8 8046     		mov	r8, r0
 2519 06da 8946     		mov	r9, r1
 2520 06dc D7E90201 		ldrd	r0, [r7, #8]
 2521 06e0 FFF7FEFF 		bl	ln_deg_to_rad
 2522              	.LVL449:
 2523 06e4 FFF7FEFF 		bl	cos
 2524              	.LVL450:
 2525 06e8 4FF40043 		mov	r3, #32768
 2526 06ec 0446     		mov	r4, r0
 2527 06ee 0D46     		mov	r5, r1
 2528 06f0 4046     		mov	r0, r8
 2529 06f2 4946     		mov	r1, r9
 2530 06f4 0022     		movs	r2, #0
 2531 06f6 C4F27603 		movt	r3, 16502
 2532 06fa FFF7FEFF 		bl	__aeabi_dmul
 2533              	.LVL451:
 2534 06fe 2246     		mov	r2, r4
 2535 0700 2B46     		mov	r3, r5
 2536 0702 FFF7FEFF 		bl	__aeabi_dmul
 2537              	.LVL452:
 2538 0706 0446     		mov	r4, r0
 2539 0708 0D46     		mov	r5, r1
 2540 070a DDE91601 		ldrd	r0, [sp, #88]
 2541 070e FFF7FEFF 		bl	ln_deg_to_rad
 2542              	.LVL453:
 2543 0712 FFF7FEFF 		bl	sin
 2544              	.LVL454:
 2545              		.loc 1 393 0
 2546 0716 5246     		mov	r2, sl
 2547              		.loc 1 389 0
 2548 0718 8046     		mov	r8, r0
 2549 071a 8946     		mov	r9, r1
 2550              	.LVL455:
 2551              		.loc 1 393 0
 2552 071c 5B46     		mov	r3, fp
 2553 071e DDE90E01 		ldrd	r0, [sp, #56]
 2554 0722 FFF7FEFF 		bl	__aeabi_dadd
 2555              	.LVL456:
ARM GAS  /tmp/ccj4yzJk.s 			page 46


 2556 0726 0246     		mov	r2, r0
 2557 0728 0B46     		mov	r3, r1
 2558              		.loc 1 395 0
 2559 072a DDE90401 		ldrd	r0, [sp, #16]
 2560 072e FFF7FEFF 		bl	__aeabi_dadd
 2561              	.LVL457:
 2562              		.loc 1 387 0
 2563 0732 4FF40043 		mov	r3, #32768
 2564 0736 0022     		movs	r2, #0
 2565 0738 C4F27603 		movt	r3, 16502
 2566              		.loc 1 395 0
 2567 073c C6E90001 		strd	r0, [r6]
 2568              		.loc 1 387 0
 2569 0740 DDE90801 		ldrd	r0, [sp, #32]
 2570 0744 FFF7FEFF 		bl	__aeabi_ddiv
 2571              	.LVL458:
 2572 0748 0246     		mov	r2, r0
 2573 074a 0B46     		mov	r3, r1
 2574              		.loc 1 392 0
 2575 074c DDE90C01 		ldrd	r0, [sp, #48]
 2576 0750 FFF7FEFF 		bl	__aeabi_dsub
 2577              	.LVL459:
 2578 0754 0246     		mov	r2, r0
 2579 0756 0B46     		mov	r3, r1
 2580              		.loc 1 396 0
 2581 0758 DDE90401 		ldrd	r0, [sp, #16]
 2582 075c FFF7FEFF 		bl	__aeabi_dadd
 2583              	.LVL460:
 2584              		.loc 1 389 0
 2585 0760 4246     		mov	r2, r8
 2586              		.loc 1 396 0
 2587 0762 C6E90401 		strd	r0, [r6, #16]
 2588              		.loc 1 389 0
 2589 0766 4B46     		mov	r3, r9
 2590 0768 2046     		mov	r0, r4
 2591 076a 2946     		mov	r1, r5
 2592 076c FFF7FEFF 		bl	__aeabi_dmul
 2593              	.LVL461:
 2594 0770 0246     		mov	r2, r0
 2595 0772 0B46     		mov	r3, r1
 2596 0774 DDE90601 		ldrd	r0, [sp, #24]
 2597 0778 FFF7FEFF 		bl	__aeabi_ddiv
 2598              	.LVL462:
 2599 077c 0246     		mov	r2, r0
 2600 077e 0B46     		mov	r3, r1
 2601              		.loc 1 394 0
 2602 0780 DDE91001 		ldrd	r0, [sp, #64]
 2603 0784 FFF7FEFF 		bl	__aeabi_dadd
 2604              	.LVL463:
 2605 0788 0B46     		mov	r3, r1
 2606 078a 0246     		mov	r2, r0
 2607              		.loc 1 397 0
 2608 078c DDE90401 		ldrd	r0, [sp, #16]
 2609 0790 FFF7FEFF 		bl	__aeabi_dadd
 2610              	.LVL464:
 2611              		.loc 1 400 0
 2612 0794 0023     		movs	r3, #0
ARM GAS  /tmp/ccj4yzJk.s 			page 47


 2613              		.loc 1 397 0
 2614 0796 C6E90201 		strd	r0, [r6, #8]
 2615 079a E9E4     		b	.L145
 2616              	.LVL465:
 2617              	.L150:
 2618              		.loc 1 325 0
 2619 079c DDE90C01 		ldrd	r0, [sp, #48]
 2620 07a0 0022     		movs	r2, #0
 2621 07a2 0023     		movs	r3, #0
 2622 07a4 FFF7FEFF 		bl	__aeabi_dcmplt
 2623              	.LVL466:
 2624 07a8 0028     		cmp	r0, #0
 2625 07aa 3FF447AD 		beq	.L108
 2626              		.loc 1 326 0
 2627 07ae 0023     		movs	r3, #0
 2628 07b0 DDE90C01 		ldrd	r0, [sp, #48]
 2629 07b4 0022     		movs	r2, #0
 2630 07b6 C3F6F073 		movt	r3, 16368
 2631 07ba FFF7FEFF 		bl	__aeabi_dadd
 2632              	.LVL467:
 2633 07be CDE90C01 		strd	r0, [sp, #48]
 2634              	.LVL468:
 2635 07c2 3BE5     		b	.L108
 2636              	.LVL469:
 2637              	.L147:
 2638              		.loc 1 333 0
 2639 07c4 DDE91001 		ldrd	r0, [sp, #64]
 2640 07c8 0022     		movs	r2, #0
 2641 07ca 0023     		movs	r3, #0
 2642 07cc FFF7FEFF 		bl	__aeabi_dcmplt
 2643              	.LVL470:
 2644 07d0 0028     		cmp	r0, #0
 2645 07d2 3FF45DAD 		beq	.L116
 2646              		.loc 1 334 0
 2647 07d6 0023     		movs	r3, #0
 2648 07d8 DDE91001 		ldrd	r0, [sp, #64]
 2649 07dc 0022     		movs	r2, #0
 2650 07de C3F6F073 		movt	r3, 16368
 2651 07e2 FFF7FEFF 		bl	__aeabi_dadd
 2652              	.LVL471:
 2653 07e6 CDE91001 		strd	r0, [sp, #64]
 2654              	.LVL472:
 2655 07ea 51E5     		b	.L116
 2656              	.LVL473:
 2657              	.L146:
 2658              		.loc 1 329 0
 2659 07ec DDE90E01 		ldrd	r0, [sp, #56]
 2660 07f0 0022     		movs	r2, #0
 2661 07f2 0023     		movs	r3, #0
 2662 07f4 FFF7FEFF 		bl	__aeabi_dcmplt
 2663              	.LVL474:
 2664 07f8 0028     		cmp	r0, #0
 2665 07fa 3FF434AD 		beq	.L112
 2666              		.loc 1 330 0
 2667 07fe 0023     		movs	r3, #0
 2668 0800 DDE90E01 		ldrd	r0, [sp, #56]
 2669 0804 0022     		movs	r2, #0
ARM GAS  /tmp/ccj4yzJk.s 			page 48


 2670 0806 C3F6F073 		movt	r3, 16368
 2671 080a FFF7FEFF 		bl	__aeabi_dadd
 2672              	.LVL475:
 2673 080e CDE90E01 		strd	r0, [sp, #56]
 2674              	.LVL476:
 2675 0812 28E5     		b	.L112
 2676              		.cfi_endproc
 2677              	.LFE7:
 2678              		.size	ln_get_body_rst_horizon, .-ln_get_body_rst_horizon
 2679 0814 AFF30080 		.section	.text.ln_get_body_next_rst_horizon_future,"ax",%progbits
 2679      AFF30080 
 2679      AFF30080 
 2680              		.align	2
 2681              		.p2align 4,,15
 2682              		.global	ln_get_body_next_rst_horizon_future
 2683              		.thumb
 2684              		.thumb_func
 2685              		.type	ln_get_body_next_rst_horizon_future, %function
 2686              	ln_get_body_next_rst_horizon_future:
 2687              	.LFB9:
 2688              		.loc 1 456 0
 2689              		.cfi_startproc
 2690              		@ args = 16, pretend = 0, frame = 96
 2691              		@ frame_needed = 0, uses_anonymous_args = 0
 2692              	.LVL477:
 2693 0000 2DE9F04F 		push	{r4, r5, r6, r7, r8, r9, sl, fp, lr}
 2694              	.LCFI13:
 2695              		.cfi_def_cfa_offset 36
 2696              		.cfi_offset 4, -36
 2697              		.cfi_offset 5, -32
 2698              		.cfi_offset 6, -28
 2699              		.cfi_offset 7, -24
 2700              		.cfi_offset 8, -20
 2701              		.cfi_offset 9, -16
 2702              		.cfi_offset 10, -12
 2703              		.cfi_offset 11, -8
 2704              		.cfi_offset 14, -4
 2705 0004 9DB0     		sub	sp, sp, #116
 2706              	.LCFI14:
 2707              		.cfi_def_cfa_offset 152
 2708              		.loc 1 459 0
 2709 0006 DDE92645 		ldrd	r4, [sp, #152]
 2710              		.loc 1 456 0
 2711 000a DDF8A480 		ldr	r8, [sp, #164]
 2712 000e DDF8A0B0 		ldr	fp, [sp, #160]
 2713              		.loc 1 459 0
 2714 0012 CDF80880 		str	r8, [sp, #8]
 2715 0016 CDE90045 		strd	r4, [sp]
 2716              		.loc 1 456 0
 2717 001a CDE90401 		strd	r0, [sp, #16]
 2718 001e 1746     		mov	r7, r2
 2719 0020 9946     		mov	r9, r3
 2720              		.loc 1 459 0
 2721 0022 FFF7FEFF 		bl	ln_get_body_rst_horizon
 2722              	.LVL478:
 2723              		.loc 1 460 0
 2724 0026 0446     		mov	r4, r0
ARM GAS  /tmp/ccj4yzJk.s 			page 49


 2725 0028 0028     		cmp	r0, #0
 2726 002a 00F0ED80 		beq	.L155
 2727              		.loc 1 460 0 is_stmt 0 discriminator 1
 2728 002e BBF1010F 		cmp	fp, #1
 2729 0032 00F0E580 		beq	.L179
 2730              	.LVL479:
 2731              	.LBB80:
 2732              	.LBB81:
 2733              		.loc 1 198 0 is_stmt 1
 2734 0036 0023     		movs	r3, #0
 2735 0038 0022     		movs	r2, #0
 2736 003a C3F6F073 		movt	r3, 16368
 2737 003e D8E90001 		ldrd	r0, [r8]
 2738              	.LVL480:
 2739 0042 FFF7FEFF 		bl	__aeabi_dsub
 2740              	.LVL481:
 2741              		.loc 1 199 0
 2742 0046 0023     		movs	r3, #0
 2743 0048 0022     		movs	r2, #0
 2744 004a C3F6F073 		movt	r3, 16368
 2745              		.loc 1 198 0
 2746 004e CDE91001 		strd	r0, [sp, #64]
 2747              		.loc 1 199 0
 2748 0052 D8E90401 		ldrd	r0, [r8, #16]
 2749 0056 FFF7FEFF 		bl	__aeabi_dsub
 2750              	.LVL482:
 2751              		.loc 1 200 0
 2752 005a 0023     		movs	r3, #0
 2753              		.loc 1 199 0
 2754 005c CDE91401 		strd	r0, [sp, #80]
 2755              		.loc 1 200 0
 2756 0060 0022     		movs	r2, #0
 2757 0062 C3F6F073 		movt	r3, 16368
 2758 0066 D8E90201 		ldrd	r0, [r8, #8]
 2759 006a FFF7FEFF 		bl	__aeabi_dsub
 2760              	.LVL483:
 2761 006e CDE91201 		strd	r0, [sp, #72]
 2762              	.LVL484:
 2763              	.L162:
 2764              	.LBE81:
 2765              	.LBE80:
 2766              	.LBB83:
 2767              		.loc 1 479 0 discriminator 1
 2768 0072 0125     		movs	r5, #1
 2769 0074 BBF1000F 		cmp	fp, #0
 2770 0078 67DD     		ble	.L166
 2771              		.loc 1 481 0
 2772 007a 0120     		movs	r0, #1
 2773 007c 0BF1FF36 		add	r6, fp, #-1
 2774 0080 0640     		ands	r6, r6, r0
 2775 0082 FFF7FEFF 		bl	__aeabi_i2d
 2776              	.LVL485:
 2777 0086 DDE90423 		ldrd	r2, [sp, #16]
 2778 008a FFF7FEFF 		bl	__aeabi_dadd
 2779              	.LVL486:
 2780 008e DDE92645 		ldrd	r4, [sp, #152]
 2781              	.LVL487:
ARM GAS  /tmp/ccj4yzJk.s 			page 50


 2782 0092 0DF1580A 		add	sl, sp, #88
 2783 0096 CDE90045 		strd	r4, [sp]
 2784 009a CDF808A0 		str	sl, [sp, #8]
 2785 009e 3A46     		mov	r2, r7
 2786 00a0 4B46     		mov	r3, r9
 2787 00a2 FFF7FEFF 		bl	ln_get_body_rst_horizon
 2788              	.LVL488:
 2789              		.loc 1 482 0
 2790 00a6 0446     		mov	r4, r0
 2791 00a8 0028     		cmp	r0, #0
 2792 00aa 4CD0     		beq	.L196
 2793              		.loc 1 487 0
 2794 00ac 0225     		movs	r5, #2
 2795              	.LVL489:
 2796              		.loc 1 479 0
 2797 00ae AB45     		cmp	fp, r5
 2798 00b0 4BDB     		blt	.L166
 2799 00b2 B6B1     		cbz	r6, .L198
 2800              		.loc 1 481 0
 2801 00b4 2846     		mov	r0, r5
 2802 00b6 FFF7FEFF 		bl	__aeabi_i2d
 2803              	.LVL490:
 2804 00ba DDE90423 		ldrd	r2, [sp, #16]
 2805 00be FFF7FEFF 		bl	__aeabi_dadd
 2806              	.LVL491:
 2807 00c2 DDE92645 		ldrd	r4, [sp, #152]
 2808 00c6 CDF808A0 		str	sl, [sp, #8]
 2809 00ca CDE90045 		strd	r4, [sp]
 2810 00ce 3A46     		mov	r2, r7
 2811 00d0 4B46     		mov	r3, r9
 2812 00d2 FFF7FEFF 		bl	ln_get_body_rst_horizon
 2813              	.LVL492:
 2814              		.loc 1 482 0
 2815 00d6 0446     		mov	r4, r0
 2816 00d8 0028     		cmp	r0, #0
 2817 00da 34D0     		beq	.L196
 2818              		.loc 1 487 0
 2819 00dc 0325     		movs	r5, #3
 2820              	.LVL493:
 2821              		.loc 1 479 0
 2822 00de AB45     		cmp	fp, r5
 2823 00e0 33DB     		blt	.L166
 2824              	.L198:
 2825 00e2 3C46     		mov	r4, r7
 2826 00e4 CDF81880 		str	r8, [sp, #24]
 2827 00e8 DDE92667 		ldrd	r6, [sp, #152]
 2828 00ec 12E0     		b	.L165
 2829              	.LVL494:
 2830              	.L168:
 2831              		.loc 1 481 0
 2832 00ee FFF7FEFF 		bl	__aeabi_i2d
 2833              	.LVL495:
 2834 00f2 DDE90423 		ldrd	r2, [sp, #16]
 2835 00f6 FFF7FEFF 		bl	__aeabi_dadd
 2836              	.LVL496:
 2837 00fa CDE90067 		strd	r6, [sp]
 2838 00fe CDF808A0 		str	sl, [sp, #8]
ARM GAS  /tmp/ccj4yzJk.s 			page 51


 2839 0102 2246     		mov	r2, r4
 2840 0104 4B46     		mov	r3, r9
 2841 0106 FFF7FEFF 		bl	ln_get_body_rst_horizon
 2842              	.LVL497:
 2843              		.loc 1 482 0
 2844 010a 0146     		mov	r1, r0
 2845 010c C0B1     		cbz	r0, .L199
 2846              		.loc 1 479 0
 2847 010e AB45     		cmp	fp, r5
 2848 0110 C0F24481 		blt	.L200
 2849              	.L165:
 2850              		.loc 1 481 0
 2851 0114 2846     		mov	r0, r5
 2852 0116 FFF7FEFF 		bl	__aeabi_i2d
 2853              	.LVL498:
 2854 011a DDE90423 		ldrd	r2, [sp, #16]
 2855 011e FFF7FEFF 		bl	__aeabi_dadd
 2856              	.LVL499:
 2857 0122 2246     		mov	r2, r4
 2858 0124 4B46     		mov	r3, r9
 2859 0126 CDE90067 		strd	r6, [sp]
 2860 012a CDF808A0 		str	sl, [sp, #8]
 2861 012e FFF7FEFF 		bl	ln_get_body_rst_horizon
 2862              	.LVL500:
 2863              		.loc 1 487 0
 2864 0132 05F10108 		add	r8, r5, #1
 2865              		.loc 1 482 0
 2866 0136 0146     		mov	r1, r0
 2867              		.loc 1 487 0
 2868 0138 0235     		adds	r5, r5, #2
 2869              		.loc 1 481 0
 2870 013a 4046     		mov	r0, r8
 2871              		.loc 1 482 0
 2872 013c 0029     		cmp	r1, #0
 2873 013e D6D1     		bne	.L168
 2874              	.L199:
 2875 0140 DDF81880 		ldr	r8, [sp, #24]
 2876 0144 0C46     		mov	r4, r1
 2877              	.LVL501:
 2878              	.L196:
 2879              		.loc 1 484 0
 2880 0146 0BF10205 		add	r5, fp, #2
 2881              	.LVL502:
 2882              	.L166:
 2883              		.loc 1 489 0
 2884 014a 0BF1010B 		add	fp, fp, #1
 2885 014e AB45     		cmp	fp, r5
 2886 0150 56D0     		beq	.L179
 2887 0152 D8E90067 		ldrd	r6, [r8]
 2888 0156 D8E90423 		ldrd	r2, [r8, #16]
 2889 015a DDE91A01 		ldrd	r0, [sp, #104]
 2890 015e D8E90245 		ldrd	r4, [r8, #8]
 2891              	.LVL503:
 2892 0162 CDE90A67 		strd	r6, [sp, #40]
 2893 0166 CDE90823 		strd	r2, [sp, #32]
 2894 016a DDE91667 		ldrd	r6, [sp, #88]
 2895 016e CDE90601 		strd	r0, [sp, #24]
ARM GAS  /tmp/ccj4yzJk.s 			page 52


 2896 0172 CDE90C45 		strd	r4, [sp, #48]
 2897 0176 DDE918AB 		ldrd	sl, [sp, #96]
 2898              	.LVL504:
 2899              	.L169:
 2900              	.LBE83:
 2901              		.loc 1 498 0
 2902 017a DDE91045 		ldrd	r4, [sp, #64]
 2903              	.LVL505:
 2904              	.LBB84:
 2905              	.LBB85:
 2906              		.loc 1 205 0
 2907 017e DDE90401 		ldrd	r0, [sp, #16]
 2908 0182 2246     		mov	r2, r4
 2909 0184 2B46     		mov	r3, r5
 2910 0186 FFF7FEFF 		bl	__aeabi_dcmplt
 2911              	.LVL506:
 2912 018a 50B9     		cbnz	r0, .L170
 2913              		.loc 1 207 0
 2914 018c DDE90401 		ldrd	r0, [sp, #16]
 2915 0190 DDE90A23 		ldrd	r2, [sp, #40]
 2916 0194 FFF7FEFF 		bl	__aeabi_dcmplt
 2917              	.LVL507:
 2918 0198 0028     		cmp	r0, #0
 2919 019a 00F0FC80 		beq	.L201
 2920              		.loc 1 208 0
 2921 019e DDE90A45 		ldrd	r4, [sp, #40]
 2922              	.LVL508:
 2923              	.L170:
 2924              	.LBE85:
 2925              	.LBE84:
 2926              		.loc 1 499 0
 2927 01a2 DDE91467 		ldrd	r6, [sp, #80]
 2928              	.LVL509:
 2929              		.loc 1 498 0
 2930 01a6 C8E90045 		strd	r4, [r8]
 2931              	.LBB87:
 2932              	.LBB88:
 2933              		.loc 1 205 0
 2934 01aa DDE90401 		ldrd	r0, [sp, #16]
 2935 01ae 3246     		mov	r2, r6
 2936 01b0 3B46     		mov	r3, r7
 2937 01b2 FFF7FEFF 		bl	__aeabi_dcmplt
 2938              	.LVL510:
 2939 01b6 50B9     		cbnz	r0, .L171
 2940              		.loc 1 207 0
 2941 01b8 DDE90401 		ldrd	r0, [sp, #16]
 2942 01bc DDE90823 		ldrd	r2, [sp, #32]
 2943 01c0 FFF7FEFF 		bl	__aeabi_dcmplt
 2944              	.LVL511:
 2945 01c4 0028     		cmp	r0, #0
 2946 01c6 00F0E380 		beq	.L202
 2947              		.loc 1 208 0
 2948 01ca DDE90867 		ldrd	r6, [sp, #32]
 2949              	.LVL512:
 2950              	.L171:
 2951              	.LBE88:
 2952              	.LBE87:
ARM GAS  /tmp/ccj4yzJk.s 			page 53


 2953              		.loc 1 500 0
 2954 01ce DDE91245 		ldrd	r4, [sp, #72]
 2955              	.LVL513:
 2956              		.loc 1 499 0
 2957 01d2 C8E90467 		strd	r6, [r8, #16]
 2958              	.LBB90:
 2959              	.LBB91:
 2960              		.loc 1 205 0
 2961 01d6 DDE90401 		ldrd	r0, [sp, #16]
 2962 01da 2246     		mov	r2, r4
 2963 01dc 2B46     		mov	r3, r5
 2964 01de FFF7FEFF 		bl	__aeabi_dcmplt
 2965              	.LVL514:
 2966 01e2 50B9     		cbnz	r0, .L172
 2967              		.loc 1 207 0
 2968 01e4 DDE90401 		ldrd	r0, [sp, #16]
 2969 01e8 DDE90C23 		ldrd	r2, [sp, #48]
 2970 01ec FFF7FEFF 		bl	__aeabi_dcmplt
 2971              	.LVL515:
 2972 01f0 0028     		cmp	r0, #0
 2973 01f2 00F0C780 		beq	.L203
 2974              		.loc 1 208 0
 2975 01f6 DDE90C45 		ldrd	r4, [sp, #48]
 2976              	.LVL516:
 2977              	.L172:
 2978              	.LBE91:
 2979              	.LBE90:
 2980              		.loc 1 500 0
 2981 01fa C8E90245 		strd	r4, [r8, #8]
 2982              		.loc 1 501 0
 2983 01fe 0024     		movs	r4, #0
 2984              	.LVL517:
 2985              	.L179:
 2986              		.loc 1 502 0
 2987 0200 2046     		mov	r0, r4
 2988 0202 1DB0     		add	sp, sp, #116
 2989 0204 BDE8F08F 		pop	{r4, r5, r6, r7, r8, r9, sl, fp, pc}
 2990              	.LVL518:
 2991              	.L155:
 2992              		.loc 1 464 0 discriminator 1
 2993 0208 D8E90023 		ldrd	r2, [r8]
 2994 020c CDE90A23 		strd	r2, [sp, #40]
 2995 0210 0023     		movs	r3, #0
 2996 0212 0022     		movs	r2, #0
 2997 0214 C3F6E073 		movt	r3, 16352
 2998 0218 DDE90401 		ldrd	r0, [sp, #16]
 2999              	.LVL519:
 3000 021c FFF7FEFF 		bl	__aeabi_dadd
 3001              	.LVL520:
 3002 0220 CDE90801 		strd	r0, [sp, #32]
 3003 0224 DDE90823 		ldrd	r2, [sp, #32]
 3004 0228 DDE90A01 		ldrd	r0, [sp, #40]
 3005 022c FFF7FEFF 		bl	__aeabi_dcmpgt
 3006              	.LVL521:
 3007 0230 0028     		cmp	r0, #0
 3008 0232 30D1     		bne	.L158
 3009 0234 D8E90423 		ldrd	r2, [r8, #16]
ARM GAS  /tmp/ccj4yzJk.s 			page 54


 3010 0238 DDE90801 		ldrd	r0, [sp, #32]
 3011 023c CDE90C23 		strd	r2, [sp, #48]
 3012 0240 FFF7FEFF 		bl	__aeabi_dcmplt
 3013              	.LVL522:
 3014 0244 38BB     		cbnz	r0, .L158
 3015 0246 D8E90223 		ldrd	r2, [r8, #8]
 3016 024a DDE90801 		ldrd	r0, [sp, #32]
 3017 024e CDE90E23 		strd	r2, [sp, #56]
 3018 0252 FFF7FEFF 		bl	__aeabi_dcmplt
 3019              	.LVL523:
 3020 0256 F0B9     		cbnz	r0, .L158
 3021              	.LVL524:
 3022              	.LBB93:
 3023              	.LBB82:
 3024              		.loc 1 198 0
 3025 0258 0023     		movs	r3, #0
 3026 025a 0022     		movs	r2, #0
 3027 025c C3F6F073 		movt	r3, 16368
 3028 0260 DDE90A01 		ldrd	r0, [sp, #40]
 3029 0264 FFF7FEFF 		bl	__aeabi_dsub
 3030              	.LVL525:
 3031              		.loc 1 199 0
 3032 0268 0023     		movs	r3, #0
 3033 026a 0022     		movs	r2, #0
 3034 026c C3F6F073 		movt	r3, 16368
 3035              		.loc 1 198 0
 3036 0270 CDE91001 		strd	r0, [sp, #64]
 3037              		.loc 1 199 0
 3038 0274 DDE90C01 		ldrd	r0, [sp, #48]
 3039 0278 FFF7FEFF 		bl	__aeabi_dsub
 3040              	.LVL526:
 3041              		.loc 1 200 0
 3042 027c 0023     		movs	r3, #0
 3043              		.loc 1 199 0
 3044 027e CDE91401 		strd	r0, [sp, #80]
 3045              		.loc 1 200 0
 3046 0282 0022     		movs	r2, #0
 3047 0284 C3F6F073 		movt	r3, 16368
 3048 0288 DDE90E01 		ldrd	r0, [sp, #56]
 3049 028c FFF7FEFF 		bl	__aeabi_dsub
 3050              	.LVL527:
 3051 0290 CDE91201 		strd	r0, [sp, #72]
 3052              	.LVL528:
 3053 0294 18E0     		b	.L173
 3054              	.LVL529:
 3055              	.L158:
 3056              	.LBE82:
 3057              	.LBE93:
 3058              		.loc 1 466 0
 3059 0296 0023     		movs	r3, #0
 3060 0298 0022     		movs	r2, #0
 3061 029a C3F6F073 		movt	r3, 16368
 3062 029e DDE90401 		ldrd	r0, [sp, #16]
 3063 02a2 FFF7FEFF 		bl	__aeabi_dsub
 3064              	.LVL530:
 3065 02a6 DDE92623 		ldrd	r2, [sp, #152]
 3066 02aa CDE90023 		strd	r2, [sp]
ARM GAS  /tmp/ccj4yzJk.s 			page 55


 3067 02ae 10AB     		add	r3, sp, #64
 3068 02b0 0293     		str	r3, [sp, #8]
 3069 02b2 3A46     		mov	r2, r7
 3070 02b4 4B46     		mov	r3, r9
 3071 02b6 FFF7FEFF 		bl	ln_get_body_rst_horizon
 3072              	.LVL531:
 3073              		.loc 1 467 0
 3074 02ba 0546     		mov	r5, r0
 3075 02bc 0028     		cmp	r0, #0
 3076 02be 41D1     		bne	.L204
 3077 02c0 D8E90001 		ldrd	r0, [r8]
 3078              	.LVL532:
 3079 02c4 CDE90A01 		strd	r0, [sp, #40]
 3080              	.LVL533:
 3081              	.L173:
 3082              		.loc 1 475 0 discriminator 1
 3083 02c8 DDE90401 		ldrd	r0, [sp, #16]
 3084 02cc DDE90A23 		ldrd	r2, [sp, #40]
 3085 02d0 FFF7FEFF 		bl	__aeabi_dcmpgt
 3086              	.LVL534:
 3087 02d4 0028     		cmp	r0, #0
 3088 02d6 7FF4CCAE 		bne	.L162
 3089 02da D8E90423 		ldrd	r2, [r8, #16]
 3090 02de DDE90401 		ldrd	r0, [sp, #16]
 3091 02e2 CDE90823 		strd	r2, [sp, #32]
 3092 02e6 FFF7FEFF 		bl	__aeabi_dcmpgt
 3093              	.LVL535:
 3094 02ea 0028     		cmp	r0, #0
 3095 02ec 7FF4C1AE 		bne	.L162
 3096 02f0 D8E90223 		ldrd	r2, [r8, #8]
 3097 02f4 DDE90401 		ldrd	r0, [sp, #16]
 3098 02f8 CDE90C23 		strd	r2, [sp, #48]
 3099 02fc FFF7FEFF 		bl	__aeabi_dcmpgt
 3100              	.LVL536:
 3101 0300 0028     		cmp	r0, #0
 3102 0302 7FF4B6AE 		bne	.L162
 3103              	.LVL537:
 3104              	.LBB94:
 3105              	.LBB95:
 3106              		.loc 1 198 0
 3107 0306 0023     		movs	r3, #0
 3108 0308 0022     		movs	r2, #0
 3109 030a C3F6F073 		movt	r3, 16368
 3110 030e DDE90A01 		ldrd	r0, [sp, #40]
 3111 0312 FFF7FEFF 		bl	__aeabi_dadd
 3112              	.LVL538:
 3113              		.loc 1 199 0
 3114 0316 0023     		movs	r3, #0
 3115 0318 0022     		movs	r2, #0
 3116 031a C3F6F073 		movt	r3, 16368
 3117              		.loc 1 198 0
 3118 031e 0646     		mov	r6, r0
 3119 0320 0F46     		mov	r7, r1
 3120              	.LVL539:
 3121              		.loc 1 199 0
 3122 0322 DDE90801 		ldrd	r0, [sp, #32]
 3123 0326 FFF7FEFF 		bl	__aeabi_dadd
ARM GAS  /tmp/ccj4yzJk.s 			page 56


 3124              	.LVL540:
 3125              		.loc 1 200 0
 3126 032a 0023     		movs	r3, #0
 3127              		.loc 1 199 0
 3128 032c CDE90601 		strd	r0, [sp, #24]
 3129              		.loc 1 200 0
 3130 0330 0022     		movs	r2, #0
 3131 0332 DDE90C01 		ldrd	r0, [sp, #48]
 3132 0336 C3F6F073 		movt	r3, 16368
 3133 033a FFF7FEFF 		bl	__aeabi_dadd
 3134              	.LVL541:
 3135 033e 8246     		mov	sl, r0
 3136 0340 8B46     		mov	fp, r1
 3137 0342 1AE7     		b	.L169
 3138              	.LVL542:
 3139              	.L204:
 3140              	.LBE95:
 3141              	.LBE94:
 3142              	.LBB96:
 3143              	.LBB97:
 3144              		.loc 1 198 0
 3145 0344 0023     		movs	r3, #0
 3146 0346 0022     		movs	r2, #0
 3147 0348 C3F6F073 		movt	r3, 16368
 3148 034c D8E90001 		ldrd	r0, [r8]
 3149              	.LVL543:
 3150 0350 FFF7FEFF 		bl	__aeabi_dsub
 3151              	.LVL544:
 3152              		.loc 1 199 0
 3153 0354 0023     		movs	r3, #0
 3154 0356 0022     		movs	r2, #0
 3155 0358 C3F6F073 		movt	r3, 16368
 3156              		.loc 1 198 0
 3157 035c CDE91001 		strd	r0, [sp, #64]
 3158              		.loc 1 199 0
 3159 0360 D8E90401 		ldrd	r0, [r8, #16]
 3160 0364 FFF7FEFF 		bl	__aeabi_dsub
 3161              	.LVL545:
 3162              		.loc 1 200 0
 3163 0368 0023     		movs	r3, #0
 3164              		.loc 1 199 0
 3165 036a CDE91401 		strd	r0, [sp, #80]
 3166              		.loc 1 200 0
 3167 036e 0022     		movs	r2, #0
 3168 0370 C3F6F073 		movt	r3, 16368
 3169 0374 D8E90201 		ldrd	r0, [r8, #8]
 3170 0378 FFF7FEFF 		bl	__aeabi_dsub
 3171              	.LVL546:
 3172 037c 2C46     		mov	r4, r5
 3173 037e CDE91201 		strd	r0, [sp, #72]
 3174              	.LVL547:
 3175 0382 76E6     		b	.L162
 3176              	.LVL548:
 3177              	.L203:
 3178              	.LBE97:
 3179              	.LBE96:
 3180              	.LBB98:
ARM GAS  /tmp/ccj4yzJk.s 			page 57


 3181              	.LBB92:
 3182              		.loc 1 209 0
 3183 0384 5446     		mov	r4, sl
 3184              	.LVL549:
 3185 0386 5D46     		mov	r5, fp
 3186              	.LBE92:
 3187              	.LBE98:
 3188              		.loc 1 500 0
 3189 0388 C8E90245 		strd	r4, [r8, #8]
 3190              		.loc 1 501 0
 3191 038c 0024     		movs	r4, #0
 3192 038e 37E7     		b	.L179
 3193              	.LVL550:
 3194              	.L202:
 3195              	.LBB99:
 3196              	.LBB89:
 3197              		.loc 1 209 0
 3198 0390 DDE90667 		ldrd	r6, [sp, #24]
 3199              	.LVL551:
 3200 0394 1BE7     		b	.L171
 3201              	.LVL552:
 3202              	.L201:
 3203              	.LBE89:
 3204              	.LBE99:
 3205              	.LBB100:
 3206              	.LBB86:
 3207 0396 3446     		mov	r4, r6
 3208              	.LVL553:
 3209 0398 3D46     		mov	r5, r7
 3210 039a 02E7     		b	.L170
 3211              	.LVL554:
 3212              	.L200:
 3213 039c 0446     		mov	r4, r0
 3214              	.LVL555:
 3215 039e DDF81880 		ldr	r8, [sp, #24]
 3216 03a2 D2E6     		b	.L166
 3217              	.LBE86:
 3218              	.LBE100:
 3219              		.cfi_endproc
 3220              	.LFE9:
 3221              		.size	ln_get_body_next_rst_horizon_future, .-ln_get_body_next_rst_horizon_future
 3222 03a4 AFF30080 		.section	.text.ln_get_body_next_rst_horizon,"ax",%progbits
 3222      AFF30080 
 3222      AFF30080 
 3223              		.align	2
 3224              		.p2align 4,,15
 3225              		.global	ln_get_body_next_rst_horizon
 3226              		.thumb
 3227              		.thumb_func
 3228              		.type	ln_get_body_next_rst_horizon, %function
 3229              	ln_get_body_next_rst_horizon:
 3230              	.LFB8:
 3231              		.loc 1 428 0
 3232              		.cfi_startproc
 3233              		@ args = 12, pretend = 0, frame = 0
 3234              		@ frame_needed = 0, uses_anonymous_args = 0
 3235              	.LVL556:
ARM GAS  /tmp/ccj4yzJk.s 			page 58


 3236 0000 30B5     		push	{r4, r5, lr}
 3237              	.LCFI15:
 3238              		.cfi_def_cfa_offset 12
 3239              		.cfi_offset 4, -12
 3240              		.cfi_offset 5, -8
 3241              		.cfi_offset 14, -4
 3242 0002 85B0     		sub	sp, sp, #20
 3243              	.LCFI16:
 3244              		.cfi_def_cfa_offset 32
 3245              		.loc 1 428 0
 3246 0004 DDE90845 		ldrd	r4, [sp, #32]
 3247              		.loc 1 429 0
 3248 0008 CDE90045 		strd	r4, [sp]
 3249 000c 0124     		movs	r4, #1
 3250 000e 0294     		str	r4, [sp, #8]
 3251 0010 0A9C     		ldr	r4, [sp, #40]
 3252 0012 0394     		str	r4, [sp, #12]
 3253 0014 FFF7FEFF 		bl	ln_get_body_next_rst_horizon_future
 3254              	.LVL557:
 3255              		.loc 1 430 0
 3256 0018 05B0     		add	sp, sp, #20
 3257 001a 30BD     		pop	{r4, r5, pc}
 3258              		.cfi_endproc
 3259              	.LFE8:
 3260              		.size	ln_get_body_next_rst_horizon, .-ln_get_body_next_rst_horizon
 3261 001c AFF30080 		.section	.text.ln_get_motion_body_rst_horizon,"ax",%progbits
 3262              		.align	2
 3263              		.p2align 4,,15
 3264              		.global	ln_get_motion_body_rst_horizon
 3265              		.thumb
 3266              		.thumb_func
 3267              		.type	ln_get_motion_body_rst_horizon, %function
 3268              	ln_get_motion_body_rst_horizon:
 3269              	.LFB10:
 3270              		.loc 1 521 0
 3271              		.cfi_startproc
 3272              		@ args = 20, pretend = 0, frame = 144
 3273              		@ frame_needed = 0, uses_anonymous_args = 0
 3274              	.LVL558:
 3275 0000 2DE9F04F 		push	{r4, r5, r6, r7, r8, r9, sl, fp, lr}
 3276              	.LCFI17:
 3277              		.cfi_def_cfa_offset 36
 3278              		.cfi_offset 4, -36
 3279              		.cfi_offset 5, -32
 3280              		.cfi_offset 6, -28
 3281              		.cfi_offset 7, -24
 3282              		.cfi_offset 8, -20
 3283              		.cfi_offset 9, -16
 3284              		.cfi_offset 10, -12
 3285              		.cfi_offset 11, -8
 3286              		.cfi_offset 14, -4
 3287 0004 A9B0     		sub	sp, sp, #164
 3288              	.LCFI18:
 3289              		.cfi_def_cfa_offset 200
 3290              		.loc 1 521 0
 3291 0006 9846     		mov	r8, r3
 3292 0008 1746     		mov	r7, r2
ARM GAS  /tmp/ccj4yzJk.s 			page 59


 3293 000a 329E     		ldr	r6, [sp, #200]
 3294 000c 0446     		mov	r4, r0
 3295 000e 0D46     		mov	r5, r1
 3296              		.loc 1 531 0
 3297 0010 FFF7FEFF 		bl	ln_get_dynamical_time_diff
 3298              	.LVL559:
 3299 0014 CDE90601 		strd	r0, [sp, #24]
 3300              	.LVL560:
 3301              		.loc 1 535 0
 3302 0018 2946     		mov	r1, r5
 3303 001a 2046     		mov	r0, r4
 3304              	.LVL561:
 3305 001c FFF7FEFF 		bl	__aeabi_d2iz
 3306              	.LVL562:
 3307              		.loc 1 536 0
 3308 0020 FFF7FEFF 		bl	__aeabi_i2d
 3309              	.LVL563:
 3310 0024 0023     		movs	r3, #0
 3311 0026 0022     		movs	r2, #0
 3312 0028 C3F6E073 		movt	r3, 16352
 3313 002c FFF7FEFF 		bl	__aeabi_dadd
 3314              	.LVL564:
 3315 0030 CDE90401 		strd	r0, [sp, #16]
 3316              	.LVL565:
 3317              		.loc 1 537 0
 3318 0034 FFF7FEFF 		bl	ln_get_apparent_sidereal_time
 3319              	.LVL566:
 3320              		.loc 1 541 0
 3321 0038 0023     		movs	r3, #0
 3322 003a 0022     		movs	r2, #0
 3323 003c C3F6F073 		movt	r3, 16368
 3324              		.loc 1 537 0
 3325 0040 8246     		mov	sl, r0
 3326 0042 8B46     		mov	fp, r1
 3327              	.LVL567:
 3328              		.loc 1 541 0
 3329 0044 DDE90401 		ldrd	r0, [sp, #16]
 3330 0048 FFF7FEFF 		bl	__aeabi_dsub
 3331              	.LVL568:
 3332 004c 3246     		mov	r2, r6
 3333 004e 1CAB     		add	r3, sp, #112
 3334 0050 C047     		blx	r8
 3335              	.LVL569:
 3336              		.loc 1 542 0
 3337 0052 DDE90401 		ldrd	r0, [sp, #16]
 3338 0056 3246     		mov	r2, r6
 3339 0058 20AB     		add	r3, sp, #128
 3340 005a C047     		blx	r8
 3341              	.LVL570:
 3342              		.loc 1 543 0
 3343 005c 0023     		movs	r3, #0
 3344 005e 0022     		movs	r2, #0
 3345 0060 DDE90401 		ldrd	r0, [sp, #16]
 3346 0064 C3F6F073 		movt	r3, 16368
 3347 0068 FFF7FEFF 		bl	__aeabi_dadd
 3348              	.LVL571:
 3349 006c 3246     		mov	r2, r6
ARM GAS  /tmp/ccj4yzJk.s 			page 60


 3350 006e 24AB     		add	r3, sp, #144
 3351 0070 C047     		blx	r8
 3352              	.LVL572:
 3353              		.loc 1 546 0
 3354 0072 DDE93401 		ldrd	r0, [sp, #208]
 3355 0076 FFF7FEFF 		bl	ln_deg_to_rad
 3356              	.LVL573:
 3357 007a FFF7FEFF 		bl	sin
 3358              	.LVL574:
 3359 007e 0446     		mov	r4, r0
 3360              	.LVL575:
 3361 0080 0D46     		mov	r5, r1
 3362 0082 D7E90201 		ldrd	r0, [r7, #8]
 3363 0086 FFF7FEFF 		bl	ln_deg_to_rad
 3364              	.LVL576:
 3365 008a FFF7FEFF 		bl	sin
 3366              	.LVL577:
 3367 008e 8046     		mov	r8, r0
 3368              	.LVL578:
 3369 0090 8946     		mov	r9, r1
 3370 0092 DDE92201 		ldrd	r0, [sp, #136]
 3371 0096 FFF7FEFF 		bl	ln_deg_to_rad
 3372              	.LVL579:
 3373 009a FFF7FEFF 		bl	sin
 3374              	.LVL580:
 3375 009e 0246     		mov	r2, r0
 3376 00a0 0B46     		mov	r3, r1
 3377 00a2 4046     		mov	r0, r8
 3378 00a4 4946     		mov	r1, r9
 3379 00a6 FFF7FEFF 		bl	__aeabi_dmul
 3380              	.LVL581:
 3381 00aa 0246     		mov	r2, r0
 3382 00ac 0B46     		mov	r3, r1
 3383 00ae 2046     		mov	r0, r4
 3384 00b0 2946     		mov	r1, r5
 3385 00b2 FFF7FEFF 		bl	__aeabi_dsub
 3386              	.LVL582:
 3387 00b6 0446     		mov	r4, r0
 3388 00b8 0D46     		mov	r5, r1
 3389              	.LVL583:
 3390              		.loc 1 547 0
 3391 00ba D7E90201 		ldrd	r0, [r7, #8]
 3392 00be FFF7FEFF 		bl	ln_deg_to_rad
 3393              	.LVL584:
 3394 00c2 FFF7FEFF 		bl	cos
 3395              	.LVL585:
 3396 00c6 8046     		mov	r8, r0
 3397 00c8 8946     		mov	r9, r1
 3398 00ca DDE92201 		ldrd	r0, [sp, #136]
 3399 00ce FFF7FEFF 		bl	ln_deg_to_rad
 3400              	.LVL586:
 3401 00d2 FFF7FEFF 		bl	cos
 3402              	.LVL587:
 3403 00d6 0246     		mov	r2, r0
 3404 00d8 0B46     		mov	r3, r1
 3405 00da 4046     		mov	r0, r8
 3406 00dc 4946     		mov	r1, r9
ARM GAS  /tmp/ccj4yzJk.s 			page 61


 3407 00de FFF7FEFF 		bl	__aeabi_dmul
 3408              	.LVL588:
 3409 00e2 0246     		mov	r2, r0
 3410 00e4 0B46     		mov	r3, r1
 3411              	.LVL589:
 3412              		.loc 1 549 0
 3413 00e6 2046     		mov	r0, r4
 3414 00e8 2946     		mov	r1, r5
 3415 00ea FFF7FEFF 		bl	__aeabi_ddiv
 3416              	.LVL590:
 3417              	.LBB101:
 3418              	.LBB102:
 3419              		.loc 1 31 0
 3420 00ee 21F00043 		bic	r3, r1, #-2147483648
 3421              	.LBE102:
 3422              	.LBE101:
 3423              		.loc 1 549 0
 3424 00f2 0C46     		mov	r4, r1
 3425              	.LVL591:
 3426              	.LBB106:
 3427              	.LBB103:
 3428              		.loc 1 31 0
 3429 00f4 1946     		mov	r1, r3
 3430              	.LVL592:
 3431 00f6 0023     		movs	r3, #0
 3432 00f8 0022     		movs	r2, #0
 3433 00fa C3F6F073 		movt	r3, 16368
 3434              	.LBE103:
 3435              	.LBE106:
 3436              		.loc 1 549 0
 3437 00fe 0546     		mov	r5, r0
 3438              	.LBB107:
 3439              	.LBB104:
 3440              		.loc 1 31 0
 3441 0100 FFF7FEFF 		bl	__aeabi_dcmpgt
 3442              	.LVL593:
 3443              		.loc 1 35 0
 3444 0104 0022     		movs	r2, #0
 3445              		.loc 1 31 0
 3446 0106 0028     		cmp	r0, #0
 3447 0108 45D0     		beq	.L248
 3448              		.loc 1 35 0
 3449 010a 4FF40043 		mov	r3, #32768
 3450 010e C4F25603 		movt	r3, 16470
 3451 0112 DDE92201 		ldrd	r0, [sp, #136]
 3452 0116 FFF7FEFF 		bl	__aeabi_dadd
 3453              	.LVL594:
 3454 011a D7E90223 		ldrd	r2, [r7, #8]
 3455 011e FFF7FEFF 		bl	__aeabi_dsub
 3456              	.LVL595:
 3457              		.loc 1 37 0
 3458 0122 4FF40043 		mov	r3, #32768
 3459 0126 0022     		movs	r2, #0
 3460 0128 C4F25603 		movt	r3, 16470
 3461              		.loc 1 35 0
 3462 012c 0446     		mov	r4, r0
 3463              	.LVL596:
ARM GAS  /tmp/ccj4yzJk.s 			page 62


 3464 012e 0D46     		mov	r5, r1
 3465              	.LVL597:
 3466              		.loc 1 37 0
 3467 0130 FFF7FEFF 		bl	__aeabi_dcmpgt
 3468              	.LVL598:
 3469 0134 50B1     		cbz	r0, .L209
 3470              		.loc 1 38 0
 3471 0136 4FF40041 		mov	r1, #32768
 3472 013a 2246     		mov	r2, r4
 3473 013c 2B46     		mov	r3, r5
 3474 013e 0020     		movs	r0, #0
 3475 0140 C4F26601 		movt	r1, 16486
 3476 0144 FFF7FEFF 		bl	__aeabi_dsub
 3477              	.LVL599:
 3478 0148 0446     		mov	r4, r0
 3479              	.LVL600:
 3480 014a 0D46     		mov	r5, r1
 3481              	.LVL601:
 3482              	.L209:
 3483              		.loc 1 39 0
 3484 014c 4FF40043 		mov	r3, #32768
 3485 0150 2046     		mov	r0, r4
 3486 0152 2946     		mov	r1, r5
 3487 0154 0022     		movs	r2, #0
 3488 0156 CCF25603 		movt	r3, 49238
 3489 015a FFF7FEFF 		bl	__aeabi_dcmplt
 3490              	.LVL602:
 3491 015e 70B9     		cbnz	r0, .L253
 3492              	.L211:
 3493              		.loc 1 41 0
 3494 0160 2B46     		mov	r3, r5
 3495 0162 DDE93401 		ldrd	r0, [sp, #208]
 3496 0166 2246     		mov	r2, r4
 3497 0168 FFF7FEFF 		bl	__aeabi_dcmpgt
 3498              	.LVL603:
 3499              		.loc 1 44 0
 3500 016c 0028     		cmp	r0, #0
 3501 016e 14BF     		ite	ne
 3502 0170 4FF0FF33 		movne	r3, #-1
 3503 0174 0123     		moveq	r3, #1
 3504              	.LVL604:
 3505              	.L249:
 3506              	.LBE104:
 3507              	.LBE107:
 3508              		.loc 1 632 0
 3509 0176 1846     		mov	r0, r3
 3510 0178 29B0     		add	sp, sp, #164
 3511 017a BDE8F08F 		pop	{r4, r5, r6, r7, r8, r9, sl, fp, pc}
 3512              	.LVL605:
 3513              	.L253:
 3514              	.LBB108:
 3515              	.LBB105:
 3516              		.loc 1 40 0
 3517 017e 4FF40041 		mov	r1, #32768
 3518 0182 2246     		mov	r2, r4
 3519 0184 2B46     		mov	r3, r5
 3520 0186 0020     		movs	r0, #0
ARM GAS  /tmp/ccj4yzJk.s 			page 63


 3521 0188 CCF26601 		movt	r1, 49254
 3522 018c FFF7FEFF 		bl	__aeabi_dsub
 3523              	.LVL606:
 3524 0190 0446     		mov	r4, r0
 3525              	.LVL607:
 3526 0192 0D46     		mov	r5, r1
 3527              	.LVL608:
 3528 0194 E4E7     		b	.L211
 3529              	.LVL609:
 3530              	.L248:
 3531              	.LBE105:
 3532              	.LBE108:
 3533              		.loc 1 538 0
 3534 0196 0023     		movs	r3, #0
 3535 0198 C4F22E03 		movt	r3, 16430
 3536 019c 5046     		mov	r0, sl
 3537 019e 5946     		mov	r1, fp
 3538 01a0 FFF7FEFF 		bl	__aeabi_dmul
 3539              	.LVL610:
 3540 01a4 0646     		mov	r6, r0
 3541 01a6 8846     		mov	r8, r1
 3542              		.loc 1 555 0
 3543 01a8 2846     		mov	r0, r5
 3544 01aa 2146     		mov	r1, r4
 3545 01ac FFF7FEFF 		bl	acos
 3546              	.LVL611:
 3547              		.loc 1 556 0
 3548 01b0 FFF7FEFF 		bl	ln_rad_to_deg
 3549              	.LVL612:
 3550              		.loc 1 559 0
 3551 01b4 DDE92045 		ldrd	r4, [sp, #128]
 3552              	.LVL613:
 3553              		.loc 1 556 0
 3554 01b8 8246     		mov	sl, r0
 3555              	.LVL614:
 3556              		.loc 1 559 0
 3557 01ba D7E90023 		ldrd	r2, [r7]
 3558              		.loc 1 556 0
 3559 01be 8B46     		mov	fp, r1
 3560              	.LVL615:
 3561              		.loc 1 559 0
 3562 01c0 2046     		mov	r0, r4
 3563 01c2 2946     		mov	r1, r5
 3564 01c4 FFF7FEFF 		bl	__aeabi_dsub
 3565              	.LVL616:
 3566 01c8 3246     		mov	r2, r6
 3567 01ca 4346     		mov	r3, r8
 3568 01cc FFF7FEFF 		bl	__aeabi_dsub
 3569              	.LVL617:
 3570 01d0 4FF40043 		mov	r3, #32768
 3571 01d4 0022     		movs	r2, #0
 3572 01d6 C4F27603 		movt	r3, 16502
 3573 01da FFF7FEFF 		bl	__aeabi_ddiv
 3574              	.LVL618:
 3575              		.loc 1 560 0
 3576 01de 4FF40043 		mov	r3, #32768
 3577              		.loc 1 559 0
ARM GAS  /tmp/ccj4yzJk.s 			page 64


 3578 01e2 CDE90C01 		strd	r0, [sp, #48]
 3579              	.LVL619:
 3580              		.loc 1 560 0
 3581 01e6 0022     		movs	r2, #0
 3582 01e8 5046     		mov	r0, sl
 3583              	.LVL620:
 3584 01ea C4F27603 		movt	r3, 16502
 3585 01ee 5946     		mov	r1, fp
 3586 01f0 FFF7FEFF 		bl	__aeabi_ddiv
 3587              	.LVL621:
 3588 01f4 8146     		mov	r9, r0
 3589 01f6 8A46     		mov	sl, r1
 3590              	.LVL622:
 3591 01f8 4A46     		mov	r2, r9
 3592 01fa 5346     		mov	r3, sl
 3593 01fc DDE90C01 		ldrd	r0, [sp, #48]
 3594 0200 FFF7FEFF 		bl	__aeabi_dsub
 3595              	.LVL623:
 3596              		.loc 1 561 0
 3597 0204 4A46     		mov	r2, r9
 3598              		.loc 1 560 0
 3599 0206 CDE90E01 		strd	r0, [sp, #56]
 3600              	.LVL624:
 3601              		.loc 1 561 0
 3602 020a 5346     		mov	r3, sl
 3603 020c DDE90C01 		ldrd	r0, [sp, #48]
 3604              	.LVL625:
 3605 0210 FFF7FEFF 		bl	__aeabi_dadd
 3606              	.LVL626:
 3607              		.loc 1 564 0
 3608 0214 0023     		movs	r3, #0
 3609              		.loc 1 561 0
 3610 0216 CDE91001 		strd	r0, [sp, #64]
 3611              	.LVL627:
 3612              		.loc 1 564 0
 3613 021a 0022     		movs	r2, #0
 3614 021c DDE90C01 		ldrd	r0, [sp, #48]
 3615              	.LVL628:
 3616 0220 C3F6F073 		movt	r3, 16368
 3617 0224 FFF7FEFF 		bl	__aeabi_dcmpgt
 3618              	.LVL629:
 3619 0228 0028     		cmp	r0, #0
 3620 022a 00F03882 		beq	.L254
 3621              		.loc 1 565 0
 3622 022e 0023     		movs	r3, #0
 3623 0230 DDE90C01 		ldrd	r0, [sp, #48]
 3624 0234 0022     		movs	r2, #0
 3625 0236 C3F6F073 		movt	r3, 16368
 3626 023a FFF7FEFF 		bl	__aeabi_dsub
 3627              	.LVL630:
 3628 023e CDE90C01 		strd	r0, [sp, #48]
 3629              	.LVL631:
 3630              	.L215:
 3631              		.loc 1 568 0
 3632 0242 0023     		movs	r3, #0
 3633 0244 DDE90E01 		ldrd	r0, [sp, #56]
 3634 0248 0022     		movs	r2, #0
ARM GAS  /tmp/ccj4yzJk.s 			page 65


 3635 024a C3F6F073 		movt	r3, 16368
 3636 024e FFF7FEFF 		bl	__aeabi_dcmpgt
 3637              	.LVL632:
 3638 0252 0028     		cmp	r0, #0
 3639 0254 00F04B82 		beq	.L250
 3640              		.loc 1 569 0
 3641 0258 0023     		movs	r3, #0
 3642 025a DDE90E01 		ldrd	r0, [sp, #56]
 3643 025e 0022     		movs	r2, #0
 3644 0260 C3F6F073 		movt	r3, 16368
 3645 0264 FFF7FEFF 		bl	__aeabi_dsub
 3646              	.LVL633:
 3647 0268 CDE90E01 		strd	r0, [sp, #56]
 3648              	.LVL634:
 3649              	.L219:
 3650              		.loc 1 572 0
 3651 026c 0023     		movs	r3, #0
 3652 026e DDE91001 		ldrd	r0, [sp, #64]
 3653 0272 0022     		movs	r2, #0
 3654 0274 C3F6F073 		movt	r3, 16368
 3655 0278 FFF7FEFF 		bl	__aeabi_dcmpgt
 3656              	.LVL635:
 3657 027c 0028     		cmp	r0, #0
 3658 027e 00F02282 		beq	.L251
 3659              		.loc 1 573 0
 3660 0282 0023     		movs	r3, #0
 3661 0284 DDE91001 		ldrd	r0, [sp, #64]
 3662 0288 0022     		movs	r2, #0
 3663 028a C3F6F073 		movt	r3, 16368
 3664 028e FFF7FEFF 		bl	__aeabi_dsub
 3665              	.LVL636:
 3666 0292 CDE91001 		strd	r0, [sp, #64]
 3667              	.LVL637:
 3668              	.L223:
 3669              		.loc 1 578 0
 3670 0296 9AA3     		adr	r3, .L255
 3671 0298 D3E90023 		ldrd	r2, [r3]
 3672 029c DDE90C01 		ldrd	r0, [sp, #48]
 3673 02a0 FFF7FEFF 		bl	__aeabi_dmul
 3674              	.LVL638:
 3675 02a4 3246     		mov	r2, r6
 3676 02a6 4346     		mov	r3, r8
 3677 02a8 FFF7FEFF 		bl	__aeabi_dadd
 3678              	.LVL639:
 3679              		.loc 1 579 0
 3680 02ac 94A3     		adr	r3, .L255
 3681 02ae D3E90023 		ldrd	r2, [r3]
 3682              		.loc 1 578 0
 3683 02b2 CDE91401 		strd	r0, [sp, #80]
 3684              	.LVL640:
 3685              		.loc 1 579 0
 3686 02b6 DDE90E01 		ldrd	r0, [sp, #56]
 3687              	.LVL641:
 3688 02ba FFF7FEFF 		bl	__aeabi_dmul
 3689              	.LVL642:
 3690 02be 3246     		mov	r2, r6
 3691 02c0 4346     		mov	r3, r8
ARM GAS  /tmp/ccj4yzJk.s 			page 66


 3692 02c2 FFF7FEFF 		bl	__aeabi_dadd
 3693              	.LVL643:
 3694              		.loc 1 580 0
 3695 02c6 8EA3     		adr	r3, .L255
 3696 02c8 D3E90023 		ldrd	r2, [r3]
 3697              		.loc 1 579 0
 3698 02cc CDE91601 		strd	r0, [sp, #88]
 3699              	.LVL644:
 3700              		.loc 1 580 0
 3701 02d0 DDE91001 		ldrd	r0, [sp, #64]
 3702              	.LVL645:
 3703 02d4 FFF7FEFF 		bl	__aeabi_dmul
 3704              	.LVL646:
 3705 02d8 3246     		mov	r2, r6
 3706 02da 4346     		mov	r3, r8
 3707 02dc FFF7FEFF 		bl	__aeabi_dadd
 3708              	.LVL647:
 3709              		.loc 1 583 0
 3710 02e0 DDE91C23 		ldrd	r2, [sp, #112]
 3711 02e4 CDE90A23 		strd	r2, [sp, #40]
 3712              		.loc 1 580 0
 3713 02e8 CDE91801 		strd	r0, [sp, #96]
 3714              	.LVL648:
 3715              		.loc 1 583 0
 3716 02ec 2246     		mov	r2, r4
 3717 02ee 2B46     		mov	r3, r5
 3718 02f0 DDE90A01 		ldrd	r0, [sp, #40]
 3719              	.LVL649:
 3720 02f4 FFF7FEFF 		bl	__aeabi_dsub
 3721              	.LVL650:
 3722 02f8 4FF40043 		mov	r3, #32768
 3723 02fc 0022     		movs	r2, #0
 3724 02fe C4F26603 		movt	r3, 16486
 3725 0302 FFF7FEFF 		bl	__aeabi_dcmpgt
 3726              	.LVL651:
 3727 0306 60B1     		cbz	r0, .L225
 3728              		.loc 1 584 0
 3729 0308 4FF40043 		mov	r3, #32768
 3730 030c 2046     		mov	r0, r4
 3731 030e 2946     		mov	r1, r5
 3732 0310 0022     		movs	r2, #0
 3733 0312 C4F27603 		movt	r3, 16502
 3734 0316 FFF7FEFF 		bl	__aeabi_dadd
 3735              	.LVL652:
 3736 031a 0446     		mov	r4, r0
 3737 031c 0D46     		mov	r5, r1
 3738 031e CDE92045 		strd	r4, [sp, #128]
 3739              	.L225:
 3740              		.loc 1 586 0
 3741 0322 DDE924AB 		ldrd	sl, [sp, #144]
 3742 0326 2046     		mov	r0, r4
 3743 0328 5246     		mov	r2, sl
 3744 032a 5B46     		mov	r3, fp
 3745 032c 2946     		mov	r1, r5
 3746 032e FFF7FEFF 		bl	__aeabi_dsub
 3747              	.LVL653:
 3748 0332 4FF40043 		mov	r3, #32768
ARM GAS  /tmp/ccj4yzJk.s 			page 67


 3749 0336 0022     		movs	r2, #0
 3750 0338 C4F26603 		movt	r3, 16486
 3751 033c FFF7FEFF 		bl	__aeabi_dcmpgt
 3752              	.LVL654:
 3753 0340 60B1     		cbz	r0, .L227
 3754              		.loc 1 587 0
 3755 0342 4FF40043 		mov	r3, #32768
 3756 0346 5046     		mov	r0, sl
 3757 0348 5946     		mov	r1, fp
 3758 034a 0022     		movs	r2, #0
 3759 034c C4F27603 		movt	r3, 16502
 3760 0350 FFF7FEFF 		bl	__aeabi_dadd
 3761              	.LVL655:
 3762 0354 8246     		mov	sl, r0
 3763 0356 8B46     		mov	fp, r1
 3764 0358 CDE924AB 		strd	sl, [sp, #144]
 3765              	.L227:
 3766              		.loc 1 589 0
 3767 035c 2246     		mov	r2, r4
 3768 035e 2B46     		mov	r3, r5
 3769 0360 5046     		mov	r0, sl
 3770 0362 5946     		mov	r1, fp
 3771 0364 FFF7FEFF 		bl	__aeabi_dsub
 3772              	.LVL656:
 3773 0368 4FF40043 		mov	r3, #32768
 3774 036c 0022     		movs	r2, #0
 3775 036e C4F26603 		movt	r3, 16486
 3776 0372 FFF7FEFF 		bl	__aeabi_dcmpgt
 3777              	.LVL657:
 3778 0376 60B1     		cbz	r0, .L229
 3779              		.loc 1 590 0
 3780 0378 4FF40043 		mov	r3, #32768
 3781 037c 5046     		mov	r0, sl
 3782 037e 5946     		mov	r1, fp
 3783 0380 0022     		movs	r2, #0
 3784 0382 C4F27603 		movt	r3, 16502
 3785 0386 FFF7FEFF 		bl	__aeabi_dsub
 3786              	.LVL658:
 3787 038a 8246     		mov	sl, r0
 3788 038c 8B46     		mov	fp, r1
 3789 038e CDE924AB 		strd	sl, [sp, #144]
 3790              	.L229:
 3791              		.loc 1 592 0
 3792 0392 DDE90A23 		ldrd	r2, [sp, #40]
 3793 0396 2046     		mov	r0, r4
 3794 0398 2946     		mov	r1, r5
 3795 039a FFF7FEFF 		bl	__aeabi_dsub
 3796              	.LVL659:
 3797 039e 4FF40043 		mov	r3, #32768
 3798 03a2 0022     		movs	r2, #0
 3799 03a4 C4F26603 		movt	r3, 16486
 3800 03a8 FFF7FEFF 		bl	__aeabi_dcmpgt
 3801              	.LVL660:
 3802 03ac 60B1     		cbz	r0, .L231
 3803              		.loc 1 593 0
 3804 03ae 4FF40043 		mov	r3, #32768
 3805 03b2 5046     		mov	r0, sl
ARM GAS  /tmp/ccj4yzJk.s 			page 68


 3806 03b4 5946     		mov	r1, fp
 3807 03b6 0022     		movs	r2, #0
 3808 03b8 C4F27603 		movt	r3, 16502
 3809 03bc FFF7FEFF 		bl	__aeabi_dsub
 3810              	.LVL661:
 3811 03c0 8246     		mov	sl, r0
 3812 03c2 8B46     		mov	fp, r1
 3813 03c4 CDE924AB 		strd	sl, [sp, #144]
 3814              	.L231:
 3815              		.loc 1 595 0
 3816 03c8 DDE90601 		ldrd	r0, [sp, #24]
 3817 03cc 4EA3     		adr	r3, .L255+8
 3818 03ce D3E90023 		ldrd	r2, [r3]
 3819 03d2 FFF7FEFF 		bl	__aeabi_ddiv
 3820              	.LVL662:
 3821 03d6 DDE90C23 		ldrd	r2, [sp, #48]
 3822 03da 0646     		mov	r6, r0
 3823 03dc 8846     		mov	r8, r1
 3824 03de FFF7FEFF 		bl	__aeabi_dadd
 3825              	.LVL663:
 3826              		.loc 1 596 0
 3827 03e2 3246     		mov	r2, r6
 3828 03e4 4346     		mov	r3, r8
 3829              		.loc 1 595 0
 3830 03e6 CDE91201 		strd	r0, [sp, #72]
 3831              	.LVL664:
 3832              		.loc 1 596 0
 3833 03ea DDE90E01 		ldrd	r0, [sp, #56]
 3834              	.LVL665:
 3835 03ee FFF7FEFF 		bl	__aeabi_dadd
 3836              	.LVL666:
 3837              		.loc 1 597 0
 3838 03f2 3246     		mov	r2, r6
 3839 03f4 4346     		mov	r3, r8
 3840              		.loc 1 596 0
 3841 03f6 CDE90601 		strd	r0, [sp, #24]
 3842              	.LVL667:
 3843              		.loc 1 597 0
 3844 03fa DDE91001 		ldrd	r0, [sp, #64]
 3845              	.LVL668:
 3846 03fe FFF7FEFF 		bl	__aeabi_dadd
 3847              	.LVL669:
 3848              		.loc 1 600 0
 3849 0402 CDE902AB 		strd	sl, [sp, #8]
 3850              		.loc 1 597 0
 3851 0406 0646     		mov	r6, r0
 3852 0408 8946     		mov	r9, r1
 3853              		.loc 1 600 0
 3854 040a DDE90A23 		ldrd	r2, [sp, #40]
 3855 040e CDE90045 		strd	r4, [sp]
 3856 0412 DDE90601 		ldrd	r0, [sp, #24]
 3857 0416 FFF7FEFF 		bl	ln_interpolate3
 3858              	.LVL670:
 3859              		.loc 1 601 0
 3860 041a DDE92245 		ldrd	r4, [sp, #136]
 3861              		.loc 1 600 0
 3862 041e CDE91A01 		strd	r0, [sp, #104]
ARM GAS  /tmp/ccj4yzJk.s 			page 69


 3863              	.LVL671:
 3864              		.loc 1 601 0
 3865 0422 DDE92601 		ldrd	r0, [sp, #152]
 3866              	.LVL672:
 3867 0426 DDE91E23 		ldrd	r2, [sp, #120]
 3868 042a CDE90045 		strd	r4, [sp]
 3869 042e CDE90201 		strd	r0, [sp, #8]
 3870 0432 DDE90601 		ldrd	r0, [sp, #24]
 3871 0436 FFF7FEFF 		bl	ln_interpolate3
 3872              	.LVL673:
 3873              		.loc 1 602 0
 3874 043a DDE92045 		ldrd	r4, [sp, #128]
 3875              		.loc 1 601 0
 3876 043e CDE90A01 		strd	r0, [sp, #40]
 3877              	.LVL674:
 3878              		.loc 1 602 0
 3879 0442 DDE92401 		ldrd	r0, [sp, #144]
 3880              	.LVL675:
 3881 0446 DDE91C23 		ldrd	r2, [sp, #112]
 3882 044a CDE90045 		strd	r4, [sp]
 3883 044e CDE90201 		strd	r0, [sp, #8]
 3884 0452 DDE91201 		ldrd	r0, [sp, #72]
 3885 0456 FFF7FEFF 		bl	ln_interpolate3
 3886              	.LVL676:
 3887              		.loc 1 603 0
 3888 045a DDE92045 		ldrd	r4, [sp, #128]
 3889              		.loc 1 602 0
 3890 045e CDE91201 		strd	r0, [sp, #72]
 3891              	.LVL677:
 3892              		.loc 1 603 0
 3893 0462 DDE92401 		ldrd	r0, [sp, #144]
 3894              	.LVL678:
 3895 0466 DDE91C23 		ldrd	r2, [sp, #112]
 3896 046a CDE90201 		strd	r0, [sp, #8]
 3897 046e CDE90045 		strd	r4, [sp]
 3898 0472 3046     		mov	r0, r6
 3899 0474 4946     		mov	r1, r9
 3900 0476 FFF7FEFF 		bl	ln_interpolate3
 3901              	.LVL679:
 3902              		.loc 1 604 0
 3903 047a DDE92245 		ldrd	r4, [sp, #136]
 3904              		.loc 1 603 0
 3905 047e 8246     		mov	sl, r0
 3906 0480 8B46     		mov	fp, r1
 3907              	.LVL680:
 3908              		.loc 1 604 0
 3909 0482 DDE92601 		ldrd	r0, [sp, #152]
 3910 0486 DDE91E23 		ldrd	r2, [sp, #120]
 3911 048a CDE90201 		strd	r0, [sp, #8]
 3912 048e CDE90045 		strd	r4, [sp]
 3913 0492 3046     		mov	r0, r6
 3914 0494 4946     		mov	r1, r9
 3915 0496 FFF7FEFF 		bl	ln_interpolate3
 3916              	.LVL681:
 3917              		.loc 1 607 0
 3918 049a D7E90045 		ldrd	r4, [r7]
 3919 049e DDE91423 		ldrd	r2, [sp, #80]
ARM GAS  /tmp/ccj4yzJk.s 			page 70


 3920              		.loc 1 604 0
 3921 04a2 CDE90601 		strd	r0, [sp, #24]
 3922              	.LVL682:
 3923              		.loc 1 607 0
 3924 04a6 2046     		mov	r0, r4
 3925              	.LVL683:
 3926 04a8 2946     		mov	r1, r5
 3927 04aa FFF7FEFF 		bl	__aeabi_dadd
 3928              	.LVL684:
 3929 04ae DDE91223 		ldrd	r2, [sp, #72]
 3930 04b2 FFF7FEFF 		bl	__aeabi_dsub
 3931              	.LVL685:
 3932              		.loc 1 608 0
 3933 04b6 2246     		mov	r2, r4
 3934 04b8 2B46     		mov	r3, r5
 3935              		.loc 1 607 0
 3936 04ba CDE91201 		strd	r0, [sp, #72]
 3937              	.LVL686:
 3938              		.loc 1 608 0
 3939 04be DDE91601 		ldrd	r0, [sp, #88]
 3940              	.LVL687:
 3941 04c2 FFF7FEFF 		bl	__aeabi_dadd
 3942              	.LVL688:
 3943 04c6 DDE91A23 		ldrd	r2, [sp, #104]
 3944 04ca FFF7FEFF 		bl	__aeabi_dsub
 3945              	.LVL689:
 3946              		.loc 1 609 0
 3947 04ce 2246     		mov	r2, r4
 3948 04d0 2B46     		mov	r3, r5
 3949              		.loc 1 608 0
 3950 04d2 CDE91401 		strd	r0, [sp, #80]
 3951              	.LVL690:
 3952              		.loc 1 609 0
 3953 04d6 DDE91801 		ldrd	r0, [sp, #96]
 3954              	.LVL691:
 3955 04da FFF7FEFF 		bl	__aeabi_dadd
 3956              	.LVL692:
 3957 04de 5246     		mov	r2, sl
 3958 04e0 5B46     		mov	r3, fp
 3959 04e2 FFF7FEFF 		bl	__aeabi_dsub
 3960              	.LVL693:
 3961 04e6 8246     		mov	sl, r0
 3962              	.LVL694:
 3963 04e8 8B46     		mov	fp, r1
 3964              	.LVL695:
 3965              		.loc 1 612 0
 3966 04ea D7E90201 		ldrd	r0, [r7, #8]
 3967 04ee FFF7FEFF 		bl	ln_deg_to_rad
 3968              	.LVL696:
 3969 04f2 DDE90A01 		ldrd	r0, [sp, #40]
 3970 04f6 FFF7FEFF 		bl	ln_deg_to_rad
 3971              	.LVL697:
 3972              		.loc 1 613 0
 3973 04fa D7E90201 		ldrd	r0, [r7, #8]
 3974 04fe 07E0     		b	.L256
 3975              	.L257:
 3976              		.align	3
ARM GAS  /tmp/ccj4yzJk.s 			page 71


 3977              	.L255:
 3978 0500 68E6C935 		.word	902424168
 3979 0504 C58F7640 		.word	1081511877
 3980 0508 00000000 		.word	0
 3981 050c 0018F540 		.word	1089804288
 3982              	.L256:
 3983 0510 FFF7FEFF 		bl	ln_deg_to_rad
 3984              	.LVL698:
 3985 0514 DDE90A01 		ldrd	r0, [sp, #40]
 3986 0518 FFF7FEFF 		bl	ln_deg_to_rad
 3987              	.LVL699:
 3988 051c DDE91401 		ldrd	r0, [sp, #80]
 3989 0520 FFF7FEFF 		bl	ln_deg_to_rad
 3990              	.LVL700:
 3991              		.loc 1 614 0
 3992 0524 D7E90201 		ldrd	r0, [r7, #8]
 3993 0528 FFF7FEFF 		bl	ln_deg_to_rad
 3994              	.LVL701:
 3995 052c FFF7FEFF 		bl	sin
 3996              	.LVL702:
 3997 0530 0646     		mov	r6, r0
 3998 0532 0D46     		mov	r5, r1
 3999 0534 DDE90601 		ldrd	r0, [sp, #24]
 4000 0538 FFF7FEFF 		bl	ln_deg_to_rad
 4001              	.LVL703:
 4002 053c FFF7FEFF 		bl	sin
 4003              	.LVL704:
 4004 0540 0246     		mov	r2, r0
 4005 0542 0B46     		mov	r3, r1
 4006 0544 3046     		mov	r0, r6
 4007 0546 2946     		mov	r1, r5
 4008 0548 FFF7FEFF 		bl	__aeabi_dmul
 4009              	.LVL705:
 4010 054c 0446     		mov	r4, r0
 4011 054e 0E46     		mov	r6, r1
 4012              		.loc 1 615 0
 4013 0550 D7E90201 		ldrd	r0, [r7, #8]
 4014 0554 FFF7FEFF 		bl	ln_deg_to_rad
 4015              	.LVL706:
 4016 0558 FFF7FEFF 		bl	cos
 4017              	.LVL707:
 4018 055c 8046     		mov	r8, r0
 4019 055e 8946     		mov	r9, r1
 4020 0560 DDE90601 		ldrd	r0, [sp, #24]
 4021 0564 FFF7FEFF 		bl	ln_deg_to_rad
 4022              	.LVL708:
 4023 0568 FFF7FEFF 		bl	cos
 4024              	.LVL709:
 4025 056c 0246     		mov	r2, r0
 4026 056e 0B46     		mov	r3, r1
 4027 0570 4046     		mov	r0, r8
 4028 0572 4946     		mov	r1, r9
 4029 0574 FFF7FEFF 		bl	__aeabi_dmul
 4030              	.LVL710:
 4031 0578 0546     		mov	r5, r0
 4032 057a 8846     		mov	r8, r1
 4033 057c 5046     		mov	r0, sl
ARM GAS  /tmp/ccj4yzJk.s 			page 72


 4034 057e 5946     		mov	r1, fp
 4035 0580 FFF7FEFF 		bl	ln_deg_to_rad
 4036              	.LVL711:
 4037 0584 FFF7FEFF 		bl	cos
 4038              	.LVL712:
 4039 0588 0246     		mov	r2, r0
 4040 058a 0B46     		mov	r3, r1
 4041 058c 2846     		mov	r0, r5
 4042 058e 4146     		mov	r1, r8
 4043 0590 FFF7FEFF 		bl	__aeabi_dmul
 4044              	.LVL713:
 4045 0594 0246     		mov	r2, r0
 4046 0596 0B46     		mov	r3, r1
 4047              		.loc 1 614 0
 4048 0598 2046     		mov	r0, r4
 4049 059a 3146     		mov	r1, r6
 4050 059c FFF7FEFF 		bl	__aeabi_dadd
 4051              	.LVL714:
 4052 05a0 0446     		mov	r4, r0
 4053 05a2 0E46     		mov	r6, r1
 4054              	.LVL715:
 4055              		.loc 1 619 0
 4056 05a4 DDE90A01 		ldrd	r0, [sp, #40]
 4057 05a8 FFF7FEFF 		bl	ln_deg_to_rad
 4058              	.LVL716:
 4059 05ac D7E90201 		ldrd	r0, [r7, #8]
 4060 05b0 FFF7FEFF 		bl	ln_deg_to_rad
 4061              	.LVL717:
 4062 05b4 DDE91401 		ldrd	r0, [sp, #80]
 4063 05b8 FFF7FEFF 		bl	ln_deg_to_rad
 4064              	.LVL718:
 4065              		.loc 1 620 0
 4066 05bc DDE93423 		ldrd	r2, [sp, #208]
 4067 05c0 2046     		mov	r0, r4
 4068 05c2 3146     		mov	r1, r6
 4069 05c4 FFF7FEFF 		bl	__aeabi_dsub
 4070              	.LVL719:
 4071 05c8 CDE90801 		strd	r0, [sp, #32]
 4072 05cc DDE90601 		ldrd	r0, [sp, #24]
 4073 05d0 FFF7FEFF 		bl	ln_deg_to_rad
 4074              	.LVL720:
 4075 05d4 FFF7FEFF 		bl	cos
 4076              	.LVL721:
 4077 05d8 8046     		mov	r8, r0
 4078 05da 8946     		mov	r9, r1
 4079 05dc D7E90201 		ldrd	r0, [r7, #8]
 4080 05e0 FFF7FEFF 		bl	ln_deg_to_rad
 4081              	.LVL722:
 4082 05e4 FFF7FEFF 		bl	cos
 4083              	.LVL723:
 4084 05e8 4FF40043 		mov	r3, #32768
 4085 05ec 0446     		mov	r4, r0
 4086 05ee 0D46     		mov	r5, r1
 4087 05f0 0022     		movs	r2, #0
 4088 05f2 C4F27603 		movt	r3, 16502
 4089 05f6 4046     		mov	r0, r8
 4090 05f8 4946     		mov	r1, r9
ARM GAS  /tmp/ccj4yzJk.s 			page 73


 4091 05fa FFF7FEFF 		bl	__aeabi_dmul
 4092              	.LVL724:
 4093 05fe 2246     		mov	r2, r4
 4094 0600 2B46     		mov	r3, r5
 4095 0602 FFF7FEFF 		bl	__aeabi_dmul
 4096              	.LVL725:
 4097 0606 0646     		mov	r6, r0
 4098 0608 0C46     		mov	r4, r1
 4099 060a 5046     		mov	r0, sl
 4100 060c 5946     		mov	r1, fp
 4101 060e FFF7FEFF 		bl	ln_deg_to_rad
 4102              	.LVL726:
 4103 0612 FFF7FEFF 		bl	sin
 4104              	.LVL727:
 4105 0616 0246     		mov	r2, r0
 4106 0618 0B46     		mov	r3, r1
 4107 061a 3046     		mov	r0, r6
 4108 061c 2146     		mov	r1, r4
 4109 061e FFF7FEFF 		bl	__aeabi_dmul
 4110              	.LVL728:
 4111 0622 0246     		mov	r2, r0
 4112 0624 0B46     		mov	r3, r1
 4113 0626 DDE90801 		ldrd	r0, [sp, #32]
 4114 062a FFF7FEFF 		bl	__aeabi_ddiv
 4115              	.LVL729:
 4116 062e 0446     		mov	r4, r0
 4117 0630 0D46     		mov	r5, r1
 4118              	.LVL730:
 4119              		.loc 1 624 0
 4120 0632 2246     		mov	r2, r4
 4121 0634 2B46     		mov	r3, r5
 4122 0636 DDE90E01 		ldrd	r0, [sp, #56]
 4123 063a FFF7FEFF 		bl	__aeabi_dadd
 4124              	.LVL731:
 4125 063e 0246     		mov	r2, r0
 4126 0640 0B46     		mov	r3, r1
 4127              		.loc 1 626 0
 4128 0642 DDE90401 		ldrd	r0, [sp, #16]
 4129 0646 FFF7FEFF 		bl	__aeabi_dadd
 4130              	.LVL732:
 4131 064a 369E     		ldr	r6, [sp, #216]
 4132              		.loc 1 618 0
 4133 064c 4FF40043 		mov	r3, #32768
 4134 0650 0022     		movs	r2, #0
 4135 0652 C4F27603 		movt	r3, 16502
 4136              		.loc 1 626 0
 4137 0656 C6E90001 		strd	r0, [r6]
 4138              		.loc 1 618 0
 4139 065a DDE91201 		ldrd	r0, [sp, #72]
 4140 065e FFF7FEFF 		bl	__aeabi_ddiv
 4141              	.LVL733:
 4142 0662 0246     		mov	r2, r0
 4143 0664 0B46     		mov	r3, r1
 4144              		.loc 1 623 0
 4145 0666 DDE90C01 		ldrd	r0, [sp, #48]
 4146 066a FFF7FEFF 		bl	__aeabi_dsub
 4147              	.LVL734:
ARM GAS  /tmp/ccj4yzJk.s 			page 74


 4148 066e 0246     		mov	r2, r0
 4149 0670 0B46     		mov	r3, r1
 4150              		.loc 1 627 0
 4151 0672 DDE90401 		ldrd	r0, [sp, #16]
 4152 0676 FFF7FEFF 		bl	__aeabi_dadd
 4153              	.LVL735:
 4154              		.loc 1 625 0
 4155 067a 2246     		mov	r2, r4
 4156 067c 2B46     		mov	r3, r5
 4157              		.loc 1 627 0
 4158 067e C6E90401 		strd	r0, [r6, #16]
 4159              		.loc 1 625 0
 4160 0682 DDE91001 		ldrd	r0, [sp, #64]
 4161 0686 FFF7FEFF 		bl	__aeabi_dadd
 4162              	.LVL736:
 4163 068a 0B46     		mov	r3, r1
 4164 068c 0246     		mov	r2, r0
 4165              		.loc 1 628 0
 4166 068e DDE90401 		ldrd	r0, [sp, #16]
 4167 0692 FFF7FEFF 		bl	__aeabi_dadd
 4168              	.LVL737:
 4169              		.loc 1 631 0
 4170 0696 0023     		movs	r3, #0
 4171              		.loc 1 628 0
 4172 0698 C6E90201 		strd	r0, [r6, #8]
 4173 069c 6BE5     		b	.L249
 4174              	.LVL738:
 4175              	.L254:
 4176              		.loc 1 566 0
 4177 069e DDE90C01 		ldrd	r0, [sp, #48]
 4178 06a2 0022     		movs	r2, #0
 4179 06a4 0023     		movs	r3, #0
 4180 06a6 FFF7FEFF 		bl	__aeabi_dcmplt
 4181              	.LVL739:
 4182 06aa 0028     		cmp	r0, #0
 4183 06ac 3FF4C9AD 		beq	.L215
 4184              		.loc 1 567 0
 4185 06b0 0023     		movs	r3, #0
 4186 06b2 DDE90C01 		ldrd	r0, [sp, #48]
 4187 06b6 0022     		movs	r2, #0
 4188 06b8 C3F6F073 		movt	r3, 16368
 4189 06bc FFF7FEFF 		bl	__aeabi_dadd
 4190              	.LVL740:
 4191 06c0 CDE90C01 		strd	r0, [sp, #48]
 4192              	.LVL741:
 4193 06c4 BDE5     		b	.L215
 4194              	.LVL742:
 4195              	.L251:
 4196              		.loc 1 574 0
 4197 06c6 DDE91001 		ldrd	r0, [sp, #64]
 4198 06ca 0022     		movs	r2, #0
 4199 06cc 0023     		movs	r3, #0
 4200 06ce FFF7FEFF 		bl	__aeabi_dcmplt
 4201              	.LVL743:
 4202 06d2 0028     		cmp	r0, #0
 4203 06d4 3FF4DFAD 		beq	.L223
 4204              		.loc 1 575 0
ARM GAS  /tmp/ccj4yzJk.s 			page 75


 4205 06d8 0023     		movs	r3, #0
 4206 06da DDE91001 		ldrd	r0, [sp, #64]
 4207 06de 0022     		movs	r2, #0
 4208 06e0 C3F6F073 		movt	r3, 16368
 4209 06e4 FFF7FEFF 		bl	__aeabi_dadd
 4210              	.LVL744:
 4211 06e8 CDE91001 		strd	r0, [sp, #64]
 4212              	.LVL745:
 4213 06ec D3E5     		b	.L223
 4214              	.LVL746:
 4215              	.L250:
 4216              		.loc 1 570 0
 4217 06ee DDE90E01 		ldrd	r0, [sp, #56]
 4218 06f2 0022     		movs	r2, #0
 4219 06f4 0023     		movs	r3, #0
 4220 06f6 FFF7FEFF 		bl	__aeabi_dcmplt
 4221              	.LVL747:
 4222 06fa 0028     		cmp	r0, #0
 4223 06fc 3FF4B6AD 		beq	.L219
 4224              		.loc 1 571 0
 4225 0700 0023     		movs	r3, #0
 4226 0702 DDE90E01 		ldrd	r0, [sp, #56]
 4227 0706 0022     		movs	r2, #0
 4228 0708 C3F6F073 		movt	r3, 16368
 4229 070c FFF7FEFF 		bl	__aeabi_dadd
 4230              	.LVL748:
 4231 0710 CDE90E01 		strd	r0, [sp, #56]
 4232              	.LVL749:
 4233 0714 AAE5     		b	.L219
 4234              		.cfi_endproc
 4235              	.LFE10:
 4236              		.size	ln_get_motion_body_rst_horizon, .-ln_get_motion_body_rst_horizon
 4237 0716 00BFAFF3 		.section	.text.ln_get_motion_body_next_rst_horizon_future,"ax",%progbits
 4237      0080AFF3 
 4237      0080
 4238              		.align	2
 4239              		.p2align 4,,15
 4240              		.global	ln_get_motion_body_next_rst_horizon_future
 4241              		.thumb
 4242              		.thumb_func
 4243              		.type	ln_get_motion_body_next_rst_horizon_future, %function
 4244              	ln_get_motion_body_next_rst_horizon_future:
 4245              	.LFB12:
 4246              		.loc 1 677 0
 4247              		.cfi_startproc
 4248              		@ args = 24, pretend = 0, frame = 88
 4249              		@ frame_needed = 0, uses_anonymous_args = 0
 4250              	.LVL750:
 4251 0000 2DE9F04F 		push	{r4, r5, r6, r7, r8, r9, sl, fp, lr}
 4252              	.LCFI19:
 4253              		.cfi_def_cfa_offset 36
 4254              		.cfi_offset 4, -36
 4255              		.cfi_offset 5, -32
 4256              		.cfi_offset 6, -28
 4257              		.cfi_offset 7, -24
 4258              		.cfi_offset 8, -20
 4259              		.cfi_offset 9, -16
ARM GAS  /tmp/ccj4yzJk.s 			page 76


 4260              		.cfi_offset 10, -12
 4261              		.cfi_offset 11, -8
 4262              		.cfi_offset 14, -4
 4263 0004 9DB0     		sub	sp, sp, #116
 4264              	.LCFI20:
 4265              		.cfi_def_cfa_offset 152
 4266              		.loc 1 680 0
 4267 0006 DDE92867 		ldrd	r6, [sp, #160]
 4268              		.loc 1 677 0
 4269 000a 269D     		ldr	r5, [sp, #152]
 4270 000c DDF8A8A0 		ldr	sl, [sp, #168]
 4271              		.loc 1 680 0
 4272 0010 0095     		str	r5, [sp, #0]
 4273 0012 CDE90267 		strd	r6, [sp, #8]
 4274 0016 2B9F     		ldr	r7, [sp, #172]
 4275 0018 0497     		str	r7, [sp, #16]
 4276              		.loc 1 677 0
 4277 001a CDE90601 		strd	r0, [sp, #24]
 4278 001e 1646     		mov	r6, r2
 4279 0020 1F46     		mov	r7, r3
 4280              		.loc 1 680 0
 4281 0022 FFF7FEFF 		bl	ln_get_motion_body_rst_horizon
 4282              	.LVL751:
 4283              		.loc 1 681 0
 4284 0026 0446     		mov	r4, r0
 4285 0028 0028     		cmp	r0, #0
 4286 002a 00F00681 		beq	.L259
 4287              		.loc 1 681 0 is_stmt 0 discriminator 1
 4288 002e BAF1010F 		cmp	sl, #1
 4289 0032 00F0FE80 		beq	.L283
 4290              	.LVL752:
 4291              	.LBB109:
 4292              	.LBB110:
 4293              		.loc 1 198 0 is_stmt 1
 4294 0036 DDF8ACC0 		ldr	ip, [sp, #172]
 4295 003a 0023     		movs	r3, #0
 4296 003c DCE90001 		ldrd	r0, [ip]
 4297              	.LVL753:
 4298 0040 0022     		movs	r2, #0
 4299 0042 C3F6F073 		movt	r3, 16368
 4300 0046 FFF7FEFF 		bl	__aeabi_dsub
 4301              	.LVL754:
 4302              		.loc 1 199 0
 4303 004a DDF8ACE0 		ldr	lr, [sp, #172]
 4304 004e 0023     		movs	r3, #0
 4305 0050 0022     		movs	r2, #0
 4306 0052 C3F6F073 		movt	r3, 16368
 4307              		.loc 1 198 0
 4308 0056 CDE91001 		strd	r0, [sp, #64]
 4309              		.loc 1 199 0
 4310 005a DEE90401 		ldrd	r0, [lr, #16]
 4311 005e FFF7FEFF 		bl	__aeabi_dsub
 4312              	.LVL755:
 4313              		.loc 1 200 0
 4314 0062 DDF8ACC0 		ldr	ip, [sp, #172]
 4315 0066 0023     		movs	r3, #0
 4316              		.loc 1 199 0
ARM GAS  /tmp/ccj4yzJk.s 			page 77


 4317 0068 CDE91401 		strd	r0, [sp, #80]
 4318              		.loc 1 200 0
 4319 006c 0022     		movs	r2, #0
 4320 006e C3F6F073 		movt	r3, 16368
 4321 0072 DCE90201 		ldrd	r0, [ip, #8]
 4322 0076 FFF7FEFF 		bl	__aeabi_dsub
 4323              	.LVL756:
 4324 007a CDE91201 		strd	r0, [sp, #72]
 4325              	.LVL757:
 4326              	.L266:
 4327              	.LBE110:
 4328              	.LBE109:
 4329              	.LBB112:
 4330              		.loc 1 700 0 discriminator 1
 4331 007e BAF1000F 		cmp	sl, #0
 4332 0082 D8BF     		it	le
 4333 0084 4FF00108 		movle	r8, #1
 4334 0088 74DD     		ble	.L270
 4335              		.loc 1 702 0
 4336 008a 0120     		movs	r0, #1
 4337 008c 0AF1FF3B 		add	fp, sl, #-1
 4338 0090 0BEA000B 		and	fp, fp, r0
 4339 0094 FFF7FEFF 		bl	__aeabi_i2d
 4340              	.LVL758:
 4341 0098 DDE90623 		ldrd	r2, [sp, #24]
 4342 009c FFF7FEFF 		bl	__aeabi_dadd
 4343              	.LVL759:
 4344 00a0 DDE92823 		ldrd	r2, [sp, #160]
 4345 00a4 0DF15809 		add	r9, sp, #88
 4346 00a8 CDE90223 		strd	r2, [sp, #8]
 4347 00ac 0095     		str	r5, [sp, #0]
 4348 00ae CDF81090 		str	r9, [sp, #16]
 4349 00b2 3246     		mov	r2, r6
 4350 00b4 3B46     		mov	r3, r7
 4351 00b6 FFF7FEFF 		bl	ln_get_motion_body_rst_horizon
 4352              	.LVL760:
 4353              		.loc 1 703 0
 4354 00ba 0446     		mov	r4, r0
 4355 00bc 0028     		cmp	r0, #0
 4356 00be 57D0     		beq	.L300
 4357              		.loc 1 708 0
 4358 00c0 4FF00208 		mov	r8, #2
 4359              	.LVL761:
 4360              		.loc 1 700 0
 4361 00c4 C245     		cmp	sl, r8
 4362 00c6 55DB     		blt	.L270
 4363 00c8 BBF1000F 		cmp	fp, #0
 4364 00cc 18D0     		beq	.L302
 4365              		.loc 1 702 0
 4366 00ce 4046     		mov	r0, r8
 4367 00d0 FFF7FEFF 		bl	__aeabi_i2d
 4368              	.LVL762:
 4369 00d4 DDE90623 		ldrd	r2, [sp, #24]
 4370 00d8 FFF7FEFF 		bl	__aeabi_dadd
 4371              	.LVL763:
 4372 00dc DDE92823 		ldrd	r2, [sp, #160]
 4373 00e0 0095     		str	r5, [sp, #0]
ARM GAS  /tmp/ccj4yzJk.s 			page 78


 4374 00e2 CDE90223 		strd	r2, [sp, #8]
 4375 00e6 CDF81090 		str	r9, [sp, #16]
 4376 00ea 3246     		mov	r2, r6
 4377 00ec 3B46     		mov	r3, r7
 4378 00ee FFF7FEFF 		bl	ln_get_motion_body_rst_horizon
 4379              	.LVL764:
 4380              		.loc 1 703 0
 4381 00f2 0446     		mov	r4, r0
 4382 00f4 0028     		cmp	r0, #0
 4383 00f6 3BD0     		beq	.L300
 4384              		.loc 1 708 0
 4385 00f8 4FF00308 		mov	r8, #3
 4386              	.LVL765:
 4387              		.loc 1 700 0
 4388 00fc C245     		cmp	sl, r8
 4389 00fe 39DB     		blt	.L270
 4390              	.L302:
 4391 0100 AB46     		mov	fp, r5
 4392 0102 CDF820A0 		str	sl, [sp, #32]
 4393 0106 DDE92845 		ldrd	r4, [sp, #160]
 4394 010a 15E0     		b	.L269
 4395              	.LVL766:
 4396              	.L272:
 4397              		.loc 1 702 0
 4398 010c FFF7FEFF 		bl	__aeabi_i2d
 4399              	.LVL767:
 4400 0110 DDE90623 		ldrd	r2, [sp, #24]
 4401 0114 FFF7FEFF 		bl	__aeabi_dadd
 4402              	.LVL768:
 4403 0118 3B46     		mov	r3, r7
 4404 011a CDF800B0 		str	fp, [sp, #0]
 4405 011e CDE90245 		strd	r4, [sp, #8]
 4406 0122 CDF81090 		str	r9, [sp, #16]
 4407 0126 3246     		mov	r2, r6
 4408 0128 FFF7FEFF 		bl	ln_get_motion_body_rst_horizon
 4409              	.LVL769:
 4410              		.loc 1 703 0
 4411 012c 0346     		mov	r3, r0
 4412 012e E0B1     		cbz	r0, .L303
 4413              		.loc 1 700 0
 4414 0130 0899     		ldr	r1, [sp, #32]
 4415 0132 4145     		cmp	r1, r8
 4416 0134 C0F25281 		blt	.L304
 4417              	.L269:
 4418              		.loc 1 702 0
 4419 0138 4046     		mov	r0, r8
 4420 013a FFF7FEFF 		bl	__aeabi_i2d
 4421              	.LVL770:
 4422 013e DDE90623 		ldrd	r2, [sp, #24]
 4423 0142 FFF7FEFF 		bl	__aeabi_dadd
 4424              	.LVL771:
 4425 0146 3B46     		mov	r3, r7
 4426 0148 3246     		mov	r2, r6
 4427 014a CDF800B0 		str	fp, [sp, #0]
 4428 014e CDE90245 		strd	r4, [sp, #8]
 4429 0152 CDF81090 		str	r9, [sp, #16]
 4430 0156 FFF7FEFF 		bl	ln_get_motion_body_rst_horizon
ARM GAS  /tmp/ccj4yzJk.s 			page 79


 4431              	.LVL772:
 4432              		.loc 1 708 0
 4433 015a 08F1010A 		add	sl, r8, #1
 4434              		.loc 1 703 0
 4435 015e 0346     		mov	r3, r0
 4436              		.loc 1 708 0
 4437 0160 08F10208 		add	r8, r8, #2
 4438              		.loc 1 702 0
 4439 0164 5046     		mov	r0, sl
 4440              		.loc 1 703 0
 4441 0166 002B     		cmp	r3, #0
 4442 0168 D0D1     		bne	.L272
 4443              	.L303:
 4444 016a DDF820A0 		ldr	sl, [sp, #32]
 4445 016e 1C46     		mov	r4, r3
 4446              	.L300:
 4447              		.loc 1 705 0
 4448 0170 0AF10208 		add	r8, sl, #2
 4449              	.LVL773:
 4450              	.L270:
 4451              		.loc 1 710 0
 4452 0174 0AF1010A 		add	sl, sl, #1
 4453 0178 C245     		cmp	sl, r8
 4454 017a 5AD0     		beq	.L283
 4455 017c 2B9D     		ldr	r5, [sp, #172]
 4456 017e 2B9A     		ldr	r2, [sp, #172]
 4457 0180 D5E90401 		ldrd	r0, [r5, #16]
 4458 0184 D5E90089 		ldrd	r8, [r5]
 4459              	.LVL774:
 4460 0188 CDE90A01 		strd	r0, [sp, #40]
 4461 018c DDE91A45 		ldrd	r4, [sp, #104]
 4462              	.LVL775:
 4463 0190 D2E90201 		ldrd	r0, [r2, #8]
 4464 0194 DDE91667 		ldrd	r6, [sp, #88]
 4465              	.LVL776:
 4466 0198 CDE90845 		strd	r4, [sp, #32]
 4467 019c CDE90C01 		strd	r0, [sp, #48]
 4468 01a0 DDE918AB 		ldrd	sl, [sp, #96]
 4469              	.LVL777:
 4470              	.L273:
 4471              	.LBE112:
 4472              		.loc 1 719 0
 4473 01a4 DDE91045 		ldrd	r4, [sp, #64]
 4474              	.LVL778:
 4475              	.LBB113:
 4476              	.LBB114:
 4477              		.loc 1 205 0
 4478 01a8 DDE90601 		ldrd	r0, [sp, #24]
 4479 01ac 2246     		mov	r2, r4
 4480 01ae 2B46     		mov	r3, r5
 4481 01b0 FFF7FEFF 		bl	__aeabi_dcmplt
 4482              	.LVL779:
 4483 01b4 50B9     		cbnz	r0, .L274
 4484              		.loc 1 207 0
 4485 01b6 DDE90601 		ldrd	r0, [sp, #24]
 4486 01ba 4246     		mov	r2, r8
 4487 01bc 4B46     		mov	r3, r9
ARM GAS  /tmp/ccj4yzJk.s 			page 80


 4488 01be FFF7FEFF 		bl	__aeabi_dcmplt
 4489              	.LVL780:
 4490 01c2 0028     		cmp	r0, #0
 4491 01c4 00F00781 		beq	.L305
 4492              		.loc 1 208 0
 4493 01c8 4446     		mov	r4, r8
 4494              	.LVL781:
 4495 01ca 4D46     		mov	r5, r9
 4496              	.L274:
 4497              	.LBE114:
 4498              	.LBE113:
 4499              		.loc 1 720 0
 4500 01cc DDE91467 		ldrd	r6, [sp, #80]
 4501              	.LVL782:
 4502              		.loc 1 719 0
 4503 01d0 DDF8ACE0 		ldr	lr, [sp, #172]
 4504              	.LBB116:
 4505              	.LBB117:
 4506              		.loc 1 205 0
 4507 01d4 DDE90601 		ldrd	r0, [sp, #24]
 4508              	.LBE117:
 4509              	.LBE116:
 4510              		.loc 1 719 0
 4511 01d8 CEE90045 		strd	r4, [lr]
 4512              	.LBB120:
 4513              	.LBB118:
 4514              		.loc 1 205 0
 4515 01dc 3246     		mov	r2, r6
 4516 01de 3B46     		mov	r3, r7
 4517 01e0 FFF7FEFF 		bl	__aeabi_dcmplt
 4518              	.LVL783:
 4519 01e4 50B9     		cbnz	r0, .L275
 4520              		.loc 1 207 0
 4521 01e6 DDE90601 		ldrd	r0, [sp, #24]
 4522 01ea DDE90A23 		ldrd	r2, [sp, #40]
 4523 01ee FFF7FEFF 		bl	__aeabi_dcmplt
 4524              	.LVL784:
 4525 01f2 0028     		cmp	r0, #0
 4526 01f4 00F0EC80 		beq	.L306
 4527              		.loc 1 208 0
 4528 01f8 DDE90A67 		ldrd	r6, [sp, #40]
 4529              	.LVL785:
 4530              	.L275:
 4531              	.LBE118:
 4532              	.LBE120:
 4533              		.loc 1 721 0
 4534 01fc DDE91245 		ldrd	r4, [sp, #72]
 4535              	.LVL786:
 4536              		.loc 1 720 0
 4537 0200 2B99     		ldr	r1, [sp, #172]
 4538              	.LBB121:
 4539              	.LBB122:
 4540              		.loc 1 205 0
 4541 0202 2246     		mov	r2, r4
 4542              	.LBE122:
 4543              	.LBE121:
 4544              		.loc 1 720 0
ARM GAS  /tmp/ccj4yzJk.s 			page 81


 4545 0204 C1E90467 		strd	r6, [r1, #16]
 4546              	.LBB125:
 4547              	.LBB123:
 4548              		.loc 1 205 0
 4549 0208 2B46     		mov	r3, r5
 4550 020a DDE90601 		ldrd	r0, [sp, #24]
 4551 020e FFF7FEFF 		bl	__aeabi_dcmplt
 4552              	.LVL787:
 4553 0212 50B9     		cbnz	r0, .L276
 4554              		.loc 1 207 0
 4555 0214 DDE90601 		ldrd	r0, [sp, #24]
 4556 0218 DDE90C23 		ldrd	r2, [sp, #48]
 4557 021c FFF7FEFF 		bl	__aeabi_dcmplt
 4558              	.LVL788:
 4559 0220 0028     		cmp	r0, #0
 4560 0222 00F0CE80 		beq	.L307
 4561              		.loc 1 208 0
 4562 0226 DDE90C45 		ldrd	r4, [sp, #48]
 4563              	.LVL789:
 4564              	.L276:
 4565              	.LBE123:
 4566              	.LBE125:
 4567              		.loc 1 721 0
 4568 022a 2B9E     		ldr	r6, [sp, #172]
 4569 022c C6E90245 		strd	r4, [r6, #8]
 4570              		.loc 1 722 0
 4571 0230 0024     		movs	r4, #0
 4572              	.LVL790:
 4573              	.L283:
 4574              		.loc 1 723 0
 4575 0232 2046     		mov	r0, r4
 4576 0234 1DB0     		add	sp, sp, #116
 4577 0236 BDE8F08F 		pop	{r4, r5, r6, r7, r8, r9, sl, fp, pc}
 4578              	.LVL791:
 4579              	.L259:
 4580              		.loc 1 685 0 discriminator 1
 4581 023a DDF8ACE0 		ldr	lr, [sp, #172]
 4582 023e 0023     		movs	r3, #0
 4583 0240 0022     		movs	r2, #0
 4584 0242 C3F6E073 		movt	r3, 16352
 4585 0246 DDE90601 		ldrd	r0, [sp, #24]
 4586              	.LVL792:
 4587 024a DEE90089 		ldrd	r8, [lr]
 4588 024e FFF7FEFF 		bl	__aeabi_dadd
 4589              	.LVL793:
 4590 0252 CDE90A01 		strd	r0, [sp, #40]
 4591 0256 DDE90A23 		ldrd	r2, [sp, #40]
 4592 025a 4046     		mov	r0, r8
 4593 025c 4946     		mov	r1, r9
 4594 025e FFF7FEFF 		bl	__aeabi_dcmpgt
 4595              	.LVL794:
 4596 0262 0028     		cmp	r0, #0
 4597 0264 32D1     		bne	.L262
 4598 0266 2B9B     		ldr	r3, [sp, #172]
 4599 0268 D3E90423 		ldrd	r2, [r3, #16]
 4600 026c DDE90A01 		ldrd	r0, [sp, #40]
 4601 0270 CDE90C23 		strd	r2, [sp, #48]
ARM GAS  /tmp/ccj4yzJk.s 			page 82


 4602 0274 FFF7FEFF 		bl	__aeabi_dcmplt
 4603              	.LVL795:
 4604 0278 40BB     		cbnz	r0, .L262
 4605 027a 2B98     		ldr	r0, [sp, #172]
 4606 027c D0E90223 		ldrd	r2, [r0, #8]
 4607 0280 DDE90A01 		ldrd	r0, [sp, #40]
 4608 0284 CDE90E23 		strd	r2, [sp, #56]
 4609 0288 FFF7FEFF 		bl	__aeabi_dcmplt
 4610              	.LVL796:
 4611 028c F0B9     		cbnz	r0, .L262
 4612              	.LVL797:
 4613              	.LBB126:
 4614              	.LBB111:
 4615              		.loc 1 198 0
 4616 028e 0023     		movs	r3, #0
 4617 0290 0022     		movs	r2, #0
 4618 0292 C3F6F073 		movt	r3, 16368
 4619 0296 4046     		mov	r0, r8
 4620 0298 4946     		mov	r1, r9
 4621 029a FFF7FEFF 		bl	__aeabi_dsub
 4622              	.LVL798:
 4623              		.loc 1 199 0
 4624 029e 0023     		movs	r3, #0
 4625 02a0 0022     		movs	r2, #0
 4626 02a2 C3F6F073 		movt	r3, 16368
 4627              		.loc 1 198 0
 4628 02a6 CDE91001 		strd	r0, [sp, #64]
 4629              		.loc 1 199 0
 4630 02aa DDE90C01 		ldrd	r0, [sp, #48]
 4631 02ae FFF7FEFF 		bl	__aeabi_dsub
 4632              	.LVL799:
 4633              		.loc 1 200 0
 4634 02b2 0023     		movs	r3, #0
 4635              		.loc 1 199 0
 4636 02b4 CDE91401 		strd	r0, [sp, #80]
 4637              		.loc 1 200 0
 4638 02b8 0022     		movs	r2, #0
 4639 02ba C3F6F073 		movt	r3, 16368
 4640 02be DDE90E01 		ldrd	r0, [sp, #56]
 4641 02c2 FFF7FEFF 		bl	__aeabi_dsub
 4642              	.LVL800:
 4643 02c6 CDE91201 		strd	r0, [sp, #72]
 4644              	.LVL801:
 4645 02ca 19E0     		b	.L277
 4646              	.LVL802:
 4647              	.L262:
 4648              	.LBE111:
 4649              	.LBE126:
 4650              		.loc 1 687 0
 4651 02cc 0023     		movs	r3, #0
 4652 02ce 0022     		movs	r2, #0
 4653 02d0 C3F6F073 		movt	r3, 16368
 4654 02d4 DDE90601 		ldrd	r0, [sp, #24]
 4655 02d8 FFF7FEFF 		bl	__aeabi_dsub
 4656              	.LVL803:
 4657 02dc DDE92823 		ldrd	r2, [sp, #160]
 4658 02e0 CDE90223 		strd	r2, [sp, #8]
ARM GAS  /tmp/ccj4yzJk.s 			page 83


 4659 02e4 10AB     		add	r3, sp, #64
 4660 02e6 0493     		str	r3, [sp, #16]
 4661 02e8 0095     		str	r5, [sp, #0]
 4662 02ea 3246     		mov	r2, r6
 4663 02ec 3B46     		mov	r3, r7
 4664 02ee FFF7FEFF 		bl	ln_get_motion_body_rst_horizon
 4665              	.LVL804:
 4666              		.loc 1 688 0
 4667 02f2 8146     		mov	r9, r0
 4668 02f4 0028     		cmp	r0, #0
 4669 02f6 43D1     		bne	.L308
 4670 02f8 DDF8AC80 		ldr	r8, [sp, #172]
 4671 02fc D8E90089 		ldrd	r8, [r8]
 4672              	.LVL805:
 4673              	.L277:
 4674              		.loc 1 696 0 discriminator 1
 4675 0300 DDE90601 		ldrd	r0, [sp, #24]
 4676 0304 4246     		mov	r2, r8
 4677 0306 4B46     		mov	r3, r9
 4678 0308 FFF7FEFF 		bl	__aeabi_dcmpgt
 4679              	.LVL806:
 4680 030c 0028     		cmp	r0, #0
 4681 030e 7FF4B6AE 		bne	.L266
 4682 0312 2B99     		ldr	r1, [sp, #172]
 4683 0314 D1E90423 		ldrd	r2, [r1, #16]
 4684 0318 DDE90601 		ldrd	r0, [sp, #24]
 4685 031c CDE90A23 		strd	r2, [sp, #40]
 4686 0320 FFF7FEFF 		bl	__aeabi_dcmpgt
 4687              	.LVL807:
 4688 0324 0028     		cmp	r0, #0
 4689 0326 7FF4AAAE 		bne	.L266
 4690 032a 2B98     		ldr	r0, [sp, #172]
 4691 032c D0E90223 		ldrd	r2, [r0, #8]
 4692 0330 DDE90601 		ldrd	r0, [sp, #24]
 4693 0334 CDE90C23 		strd	r2, [sp, #48]
 4694 0338 FFF7FEFF 		bl	__aeabi_dcmpgt
 4695              	.LVL808:
 4696 033c 0028     		cmp	r0, #0
 4697 033e 7FF49EAE 		bne	.L266
 4698              	.LVL809:
 4699              	.LBB127:
 4700              	.LBB128:
 4701              		.loc 1 198 0
 4702 0342 0023     		movs	r3, #0
 4703 0344 0022     		movs	r2, #0
 4704 0346 C3F6F073 		movt	r3, 16368
 4705 034a 4046     		mov	r0, r8
 4706 034c 4946     		mov	r1, r9
 4707 034e FFF7FEFF 		bl	__aeabi_dadd
 4708              	.LVL810:
 4709              		.loc 1 199 0
 4710 0352 0023     		movs	r3, #0
 4711 0354 0022     		movs	r2, #0
 4712 0356 C3F6F073 		movt	r3, 16368
 4713              		.loc 1 198 0
 4714 035a 0646     		mov	r6, r0
 4715              	.LVL811:
ARM GAS  /tmp/ccj4yzJk.s 			page 84


 4716 035c 0F46     		mov	r7, r1
 4717              	.LVL812:
 4718              		.loc 1 199 0
 4719 035e DDE90A01 		ldrd	r0, [sp, #40]
 4720 0362 FFF7FEFF 		bl	__aeabi_dadd
 4721              	.LVL813:
 4722              		.loc 1 200 0
 4723 0366 0023     		movs	r3, #0
 4724              		.loc 1 199 0
 4725 0368 CDE90801 		strd	r0, [sp, #32]
 4726              		.loc 1 200 0
 4727 036c 0022     		movs	r2, #0
 4728 036e DDE90C01 		ldrd	r0, [sp, #48]
 4729 0372 C3F6F073 		movt	r3, 16368
 4730 0376 FFF7FEFF 		bl	__aeabi_dadd
 4731              	.LVL814:
 4732 037a 8246     		mov	sl, r0
 4733 037c 8B46     		mov	fp, r1
 4734 037e 11E7     		b	.L273
 4735              	.LVL815:
 4736              	.L308:
 4737              	.LBE128:
 4738              	.LBE127:
 4739              	.LBB129:
 4740              	.LBB130:
 4741              		.loc 1 198 0
 4742 0380 2B9C     		ldr	r4, [sp, #172]
 4743 0382 0023     		movs	r3, #0
 4744 0384 0022     		movs	r2, #0
 4745 0386 C3F6F073 		movt	r3, 16368
 4746 038a D4E90001 		ldrd	r0, [r4]
 4747              	.LVL816:
 4748 038e FFF7FEFF 		bl	__aeabi_dsub
 4749              	.LVL817:
 4750              		.loc 1 199 0
 4751 0392 0023     		movs	r3, #0
 4752 0394 0022     		movs	r2, #0
 4753 0396 C3F6F073 		movt	r3, 16368
 4754              		.loc 1 198 0
 4755 039a CDE91001 		strd	r0, [sp, #64]
 4756              		.loc 1 199 0
 4757 039e D4E90401 		ldrd	r0, [r4, #16]
 4758 03a2 FFF7FEFF 		bl	__aeabi_dsub
 4759              	.LVL818:
 4760              		.loc 1 200 0
 4761 03a6 0023     		movs	r3, #0
 4762              		.loc 1 199 0
 4763 03a8 CDE91401 		strd	r0, [sp, #80]
 4764              		.loc 1 200 0
 4765 03ac 0022     		movs	r2, #0
 4766 03ae D4E90201 		ldrd	r0, [r4, #8]
 4767 03b2 C3F6F073 		movt	r3, 16368
 4768 03b6 FFF7FEFF 		bl	__aeabi_dsub
 4769              	.LVL819:
 4770 03ba 4C46     		mov	r4, r9
 4771 03bc CDE91201 		strd	r0, [sp, #72]
 4772              	.LVL820:
ARM GAS  /tmp/ccj4yzJk.s 			page 85


 4773 03c0 5DE6     		b	.L266
 4774              	.LVL821:
 4775              	.L307:
 4776              	.LBE130:
 4777              	.LBE129:
 4778              		.loc 1 721 0
 4779 03c2 2B9E     		ldr	r6, [sp, #172]
 4780              	.LBB131:
 4781              	.LBB124:
 4782              		.loc 1 209 0
 4783 03c4 5446     		mov	r4, sl
 4784              	.LVL822:
 4785 03c6 5D46     		mov	r5, fp
 4786              	.LBE124:
 4787              	.LBE131:
 4788              		.loc 1 721 0
 4789 03c8 C6E90245 		strd	r4, [r6, #8]
 4790              		.loc 1 722 0
 4791 03cc 0024     		movs	r4, #0
 4792 03ce 30E7     		b	.L283
 4793              	.LVL823:
 4794              	.L306:
 4795              	.LBB132:
 4796              	.LBB119:
 4797              		.loc 1 209 0
 4798 03d0 DDE90867 		ldrd	r6, [sp, #32]
 4799              	.LVL824:
 4800 03d4 12E7     		b	.L275
 4801              	.LVL825:
 4802              	.L305:
 4803              	.LBE119:
 4804              	.LBE132:
 4805              	.LBB133:
 4806              	.LBB115:
 4807 03d6 3446     		mov	r4, r6
 4808              	.LVL826:
 4809 03d8 3D46     		mov	r5, r7
 4810 03da F7E6     		b	.L274
 4811              	.LVL827:
 4812              	.L304:
 4813 03dc 0446     		mov	r4, r0
 4814 03de 8A46     		mov	sl, r1
 4815 03e0 C8E6     		b	.L270
 4816              	.LBE115:
 4817              	.LBE133:
 4818              		.cfi_endproc
 4819              	.LFE12:
 4820              		.size	ln_get_motion_body_next_rst_horizon_future, .-ln_get_motion_body_next_rst_horizon_future
 4821 03e2 00BFAFF3 		.section	.text.ln_get_motion_body_next_rst_horizon,"ax",%progbits
 4821      0080AFF3 
 4821      0080AFF3 
 4821      0080
 4822              		.align	2
 4823              		.p2align 4,,15
 4824              		.global	ln_get_motion_body_next_rst_horizon
 4825              		.thumb
 4826              		.thumb_func
ARM GAS  /tmp/ccj4yzJk.s 			page 86


 4827              		.type	ln_get_motion_body_next_rst_horizon, %function
 4828              	ln_get_motion_body_next_rst_horizon:
 4829              	.LFB11:
 4830              		.loc 1 653 0
 4831              		.cfi_startproc
 4832              		@ args = 20, pretend = 0, frame = 0
 4833              		@ frame_needed = 0, uses_anonymous_args = 0
 4834              	.LVL828:
 4835 0000 30B5     		push	{r4, r5, lr}
 4836              	.LCFI21:
 4837              		.cfi_def_cfa_offset 12
 4838              		.cfi_offset 4, -12
 4839              		.cfi_offset 5, -8
 4840              		.cfi_offset 14, -4
 4841 0002 87B0     		sub	sp, sp, #28
 4842              	.LCFI22:
 4843              		.cfi_def_cfa_offset 40
 4844              		.loc 1 653 0
 4845 0004 0A9C     		ldr	r4, [sp, #40]
 4846              		.loc 1 654 0
 4847 0006 0094     		str	r4, [sp, #0]
 4848 0008 DDE90C45 		ldrd	r4, [sp, #48]
 4849 000c CDE90245 		strd	r4, [sp, #8]
 4850 0010 0124     		movs	r4, #1
 4851 0012 0494     		str	r4, [sp, #16]
 4852 0014 0E9C     		ldr	r4, [sp, #56]
 4853 0016 0594     		str	r4, [sp, #20]
 4854 0018 FFF7FEFF 		bl	ln_get_motion_body_next_rst_horizon_future
 4855              	.LVL829:
 4856              		.loc 1 655 0
 4857 001c 07B0     		add	sp, sp, #28
 4858 001e 30BD     		pop	{r4, r5, pc}
 4859              		.cfi_endproc
 4860              	.LFE11:
 4861              		.size	ln_get_motion_body_next_rst_horizon, .-ln_get_motion_body_next_rst_horizon
 4862              		.text
 4863              	.Letext0:
 4864              		.file 2 "./libnova/src/libnova/ln_types.h"
 4865              		.file 3 "./libnova/src/libnova/sidereal_time.h"
 4866              		.file 4 "./libnova/src/libnova/utility.h"
 4867              		.file 5 "/usr/bin/../lib/gcc/arm-none-eabi/4.7.4/../../../../arm-none-eabi/include/math.h"
 4868              		.file 6 "./libnova/src/libnova/dynamical_time.h"
 4869              		.file 7 "./libnova/src/libnova/rise_set.h"
 4870              		.section	.debug_info,"",%progbits
 4871              	.Ldebug_info0:
 4872 0000 C21E0000 		.4byte	0x1ec2
 4873 0004 0200     		.2byte	0x2
 4874 0006 00000000 		.4byte	.Ldebug_abbrev0
 4875 000a 04       		.byte	0x4
 4876 000b 01       		.uleb128 0x1
 4877 000c E1000000 		.4byte	.LASF28
 4878 0010 01       		.byte	0x1
 4879 0011 1B000000 		.4byte	.LASF29
 4880 0015 53010000 		.4byte	.LASF30
 4881 0019 18020000 		.4byte	.Ldebug_ranges0+0x218
 4882 001d 00000000 		.4byte	0
 4883 0021 00000000 		.4byte	0
ARM GAS  /tmp/ccj4yzJk.s 			page 87


 4884 0025 00000000 		.4byte	.Ldebug_line0
 4885 0029 02       		.uleb128 0x2
 4886 002a 08       		.byte	0x8
 4887 002b 04       		.byte	0x4
 4888 002c 47010000 		.4byte	.LASF0
 4889 0030 03       		.uleb128 0x3
 4890 0031 04       		.byte	0x4
 4891 0032 05       		.byte	0x5
 4892 0033 696E7400 		.ascii	"int\000"
 4893 0037 02       		.uleb128 0x2
 4894 0038 01       		.byte	0x1
 4895 0039 06       		.byte	0x6
 4896 003a D5000000 		.4byte	.LASF1
 4897 003e 02       		.uleb128 0x2
 4898 003f 01       		.byte	0x1
 4899 0040 08       		.byte	0x8
 4900 0041 DE020000 		.4byte	.LASF2
 4901 0045 02       		.uleb128 0x2
 4902 0046 02       		.byte	0x2
 4903 0047 05       		.byte	0x5
 4904 0048 26030000 		.4byte	.LASF3
 4905 004c 02       		.uleb128 0x2
 4906 004d 02       		.byte	0x2
 4907 004e 07       		.byte	0x7
 4908 004f 09020000 		.4byte	.LASF4
 4909 0053 02       		.uleb128 0x2
 4910 0054 04       		.byte	0x4
 4911 0055 07       		.byte	0x7
 4912 0056 BF010000 		.4byte	.LASF5
 4913 005a 02       		.uleb128 0x2
 4914 005b 08       		.byte	0x8
 4915 005c 05       		.byte	0x5
 4916 005d C7000000 		.4byte	.LASF6
 4917 0061 02       		.uleb128 0x2
 4918 0062 08       		.byte	0x8
 4919 0063 07       		.byte	0x7
 4920 0064 7D000000 		.4byte	.LASF7
 4921 0068 02       		.uleb128 0x2
 4922 0069 04       		.byte	0x4
 4923 006a 05       		.byte	0x5
 4924 006b 2A010000 		.4byte	.LASF8
 4925 006f 02       		.uleb128 0x2
 4926 0070 04       		.byte	0x4
 4927 0071 07       		.byte	0x7
 4928 0072 79020000 		.4byte	.LASF9
 4929 0076 04       		.uleb128 0x4
 4930 0077 04       		.byte	0x4
 4931 0078 02       		.uleb128 0x2
 4932 0079 04       		.byte	0x4
 4933 007a 07       		.byte	0x7
 4934 007b CC010000 		.4byte	.LASF10
 4935 007f 02       		.uleb128 0x2
 4936 0080 01       		.byte	0x1
 4937 0081 08       		.byte	0x8
 4938 0082 6C030000 		.4byte	.LASF11
 4939 0086 02       		.uleb128 0x2
 4940 0087 04       		.byte	0x4
ARM GAS  /tmp/ccj4yzJk.s 			page 88


 4941 0088 04       		.byte	0x4
 4942 0089 D2020000 		.4byte	.LASF12
 4943 008d 02       		.uleb128 0x2
 4944 008e 08       		.byte	0x8
 4945 008f 04       		.byte	0x4
 4946 0090 9C020000 		.4byte	.LASF13
 4947 0094 05       		.uleb128 0x5
 4948 0095 E9030000 		.4byte	.LASF14
 4949 0099 10       		.byte	0x10
 4950 009a 02       		.byte	0x2
 4951 009b AA       		.byte	0xaa
 4952 009c BC000000 		.4byte	0xbc
 4953 00a0 06       		.uleb128 0x6
 4954 00a1 726100   		.ascii	"ra\000"
 4955 00a4 02       		.byte	0x2
 4956 00a5 AC       		.byte	0xac
 4957 00a6 29000000 		.4byte	0x29
 4958 00aa 02       		.byte	0x2
 4959 00ab 23       		.byte	0x23
 4960 00ac 00       		.uleb128 0
 4961 00ad 06       		.uleb128 0x6
 4962 00ae 64656300 		.ascii	"dec\000"
 4963 00b2 02       		.byte	0x2
 4964 00b3 AD       		.byte	0xad
 4965 00b4 29000000 		.4byte	0x29
 4966 00b8 02       		.byte	0x2
 4967 00b9 23       		.byte	0x23
 4968 00ba 08       		.uleb128 0x8
 4969 00bb 00       		.byte	0
 4970 00bc 05       		.uleb128 0x5
 4971 00bd 71030000 		.4byte	.LASF15
 4972 00c1 10       		.byte	0x10
 4973 00c2 02       		.byte	0x2
 4974 00c3 C8       		.byte	0xc8
 4975 00c4 E5000000 		.4byte	0xe5
 4976 00c8 06       		.uleb128 0x6
 4977 00c9 6C6E6700 		.ascii	"lng\000"
 4978 00cd 02       		.byte	0x2
 4979 00ce CA       		.byte	0xca
 4980 00cf 29000000 		.4byte	0x29
 4981 00d3 02       		.byte	0x2
 4982 00d4 23       		.byte	0x23
 4983 00d5 00       		.uleb128 0
 4984 00d6 06       		.uleb128 0x6
 4985 00d7 6C617400 		.ascii	"lat\000"
 4986 00db 02       		.byte	0x2
 4987 00dc CB       		.byte	0xcb
 4988 00dd 29000000 		.4byte	0x29
 4989 00e1 02       		.byte	0x2
 4990 00e2 23       		.byte	0x23
 4991 00e3 08       		.uleb128 0x8
 4992 00e4 00       		.byte	0
 4993 00e5 07       		.uleb128 0x7
 4994 00e6 96030000 		.4byte	.LASF16
 4995 00ea 18       		.byte	0x18
 4996 00eb 02       		.byte	0x2
 4997 00ec 3D01     		.2byte	0x13d
ARM GAS  /tmp/ccj4yzJk.s 			page 89


 4998 00ee 20010000 		.4byte	0x120
 4999 00f2 08       		.uleb128 0x8
 5000 00f3 CD020000 		.4byte	.LASF17
 5001 00f7 02       		.byte	0x2
 5002 00f8 3F01     		.2byte	0x13f
 5003 00fa 29000000 		.4byte	0x29
 5004 00fe 02       		.byte	0x2
 5005 00ff 23       		.byte	0x23
 5006 0100 00       		.uleb128 0
 5007 0101 09       		.uleb128 0x9
 5008 0102 73657400 		.ascii	"set\000"
 5009 0106 02       		.byte	0x2
 5010 0107 4001     		.2byte	0x140
 5011 0109 29000000 		.4byte	0x29
 5012 010d 02       		.byte	0x2
 5013 010e 23       		.byte	0x23
 5014 010f 08       		.uleb128 0x8
 5015 0110 08       		.uleb128 0x8
 5016 0111 A8020000 		.4byte	.LASF18
 5017 0115 02       		.byte	0x2
 5018 0116 4101     		.2byte	0x141
 5019 0118 29000000 		.4byte	0x29
 5020 011c 02       		.byte	0x2
 5021 011d 23       		.byte	0x23
 5022 011e 10       		.uleb128 0x10
 5023 011f 00       		.byte	0
 5024 0120 0A       		.uleb128 0xa
 5025 0121 3C020000 		.4byte	.LASF61
 5026 0125 07       		.byte	0x7
 5027 0126 58       		.byte	0x58
 5028 0127 2B010000 		.4byte	0x12b
 5029 012b 0B       		.uleb128 0xb
 5030 012c 04       		.byte	0x4
 5031 012d 31010000 		.4byte	0x131
 5032 0131 0C       		.uleb128 0xc
 5033 0132 01       		.byte	0x1
 5034 0133 47010000 		.4byte	0x147
 5035 0137 0D       		.uleb128 0xd
 5036 0138 29000000 		.4byte	0x29
 5037 013c 0D       		.uleb128 0xd
 5038 013d 76000000 		.4byte	0x76
 5039 0141 0D       		.uleb128 0xd
 5040 0142 47010000 		.4byte	0x147
 5041 0146 00       		.byte	0
 5042 0147 0B       		.uleb128 0xb
 5043 0148 04       		.byte	0x4
 5044 0149 94000000 		.4byte	0x94
 5045 014d 0E       		.uleb128 0xe
 5046 014e 01       		.byte	0x1
 5047 014f 89030000 		.4byte	.LASF23
 5048 0153 01       		.byte	0x1
 5049 0154 1B       		.byte	0x1b
 5050 0155 01       		.byte	0x1
 5051 0156 30000000 		.4byte	0x30
 5052 015a 01       		.byte	0x1
 5053 015b 94010000 		.4byte	0x194
 5054 015f 0F       		.uleb128 0xf
ARM GAS  /tmp/ccj4yzJk.s 			page 90


 5055 0160 42030000 		.4byte	.LASF19
 5056 0164 01       		.byte	0x1
 5057 0165 1B       		.byte	0x1b
 5058 0166 94010000 		.4byte	0x194
 5059 016a 10       		.uleb128 0x10
 5060 016b 483100   		.ascii	"H1\000"
 5061 016e 01       		.byte	0x1
 5062 016f 1B       		.byte	0x1b
 5063 0170 29000000 		.4byte	0x29
 5064 0174 0F       		.uleb128 0xf
 5065 0175 A0000000 		.4byte	.LASF20
 5066 0179 01       		.byte	0x1
 5067 017a 1B       		.byte	0x1b
 5068 017b 29000000 		.4byte	0x29
 5069 017f 0F       		.uleb128 0xf
 5070 0180 99000000 		.4byte	.LASF21
 5071 0184 01       		.byte	0x1
 5072 0185 1B       		.byte	0x1b
 5073 0186 47010000 		.4byte	0x147
 5074 018a 11       		.uleb128 0x11
 5075 018b 6800     		.ascii	"h\000"
 5076 018d 01       		.byte	0x1
 5077 018e 1D       		.byte	0x1d
 5078 018f 29000000 		.4byte	0x29
 5079 0193 00       		.byte	0
 5080 0194 0B       		.uleb128 0xb
 5081 0195 04       		.byte	0x4
 5082 0196 BC000000 		.4byte	0xbc
 5083 019a 12       		.uleb128 0x12
 5084 019b 01       		.byte	0x1
 5085 019c 0E000000 		.4byte	.LASF59
 5086 01a0 01       		.byte	0x1
 5087 01a1 C4       		.byte	0xc4
 5088 01a2 01       		.byte	0x1
 5089 01a3 01       		.byte	0x1
 5090 01a4 CA010000 		.4byte	0x1ca
 5091 01a8 10       		.uleb128 0x10
 5092 01a9 72737400 		.ascii	"rst\000"
 5093 01ad 01       		.byte	0x1
 5094 01ae C4       		.byte	0xc4
 5095 01af CA010000 		.4byte	0x1ca
 5096 01b3 0F       		.uleb128 0xf
 5097 01b4 94000000 		.4byte	.LASF22
 5098 01b8 01       		.byte	0x1
 5099 01b9 C4       		.byte	0xc4
 5100 01ba 29000000 		.4byte	0x29
 5101 01be 10       		.uleb128 0x10
 5102 01bf 6F757400 		.ascii	"out\000"
 5103 01c3 01       		.byte	0x1
 5104 01c4 C4       		.byte	0xc4
 5105 01c5 CA010000 		.4byte	0x1ca
 5106 01c9 00       		.byte	0
 5107 01ca 0B       		.uleb128 0xb
 5108 01cb 04       		.byte	0x4
 5109 01cc E5000000 		.4byte	0xe5
 5110 01d0 0E       		.uleb128 0xe
 5111 01d1 01       		.byte	0x1
ARM GAS  /tmp/ccj4yzJk.s 			page 91


 5112 01d2 DF030000 		.4byte	.LASF24
 5113 01d6 01       		.byte	0x1
 5114 01d7 CB       		.byte	0xcb
 5115 01d8 01       		.byte	0x1
 5116 01d9 29000000 		.4byte	0x29
 5117 01dd 01       		.byte	0x1
 5118 01de 0E020000 		.4byte	0x20e
 5119 01e2 10       		.uleb128 0x10
 5120 01e3 4A4400   		.ascii	"JD\000"
 5121 01e6 01       		.byte	0x1
 5122 01e7 CB       		.byte	0xcb
 5123 01e8 29000000 		.4byte	0x29
 5124 01ec 10       		.uleb128 0x10
 5125 01ed 6A643100 		.ascii	"jd1\000"
 5126 01f1 01       		.byte	0x1
 5127 01f2 CB       		.byte	0xcb
 5128 01f3 29000000 		.4byte	0x29
 5129 01f7 10       		.uleb128 0x10
 5130 01f8 6A643200 		.ascii	"jd2\000"
 5131 01fc 01       		.byte	0x1
 5132 01fd CB       		.byte	0xcb
 5133 01fe 29000000 		.4byte	0x29
 5134 0202 10       		.uleb128 0x10
 5135 0203 6A643300 		.ascii	"jd3\000"
 5136 0207 01       		.byte	0x1
 5137 0208 CB       		.byte	0xcb
 5138 0209 29000000 		.4byte	0x29
 5139 020d 00       		.byte	0
 5140 020e 13       		.uleb128 0x13
 5141 020f 4D010000 		.4byte	0x14d
 5142 0213 00000000 		.4byte	.LFB0
 5143 0217 A8000000 		.4byte	.LFE0
 5144 021b 00000000 		.4byte	.LLST0
 5145 021f 01       		.byte	0x1
 5146 0220 50020000 		.4byte	0x250
 5147 0224 14       		.uleb128 0x14
 5148 0225 5F010000 		.4byte	0x15f
 5149 0229 20000000 		.4byte	.LLST1
 5150 022d 14       		.uleb128 0x14
 5151 022e 6A010000 		.4byte	0x16a
 5152 0232 3E000000 		.4byte	.LLST2
 5153 0236 15       		.uleb128 0x15
 5154 0237 74010000 		.4byte	0x174
 5155 023b 02       		.byte	0x2
 5156 023c 91       		.byte	0x91
 5157 023d 00       		.sleb128 0
 5158 023e 15       		.uleb128 0x15
 5159 023f 7F010000 		.4byte	0x17f
 5160 0243 02       		.byte	0x2
 5161 0244 91       		.byte	0x91
 5162 0245 08       		.sleb128 8
 5163 0246 16       		.uleb128 0x16
 5164 0247 8A010000 		.4byte	0x18a
 5165 024b 66000000 		.4byte	.LLST3
 5166 024f 00       		.byte	0
 5167 0250 17       		.uleb128 0x17
 5168 0251 01       		.byte	0x1
ARM GAS  /tmp/ccj4yzJk.s 			page 92


 5169 0252 82020000 		.4byte	.LASF31
 5170 0256 01       		.byte	0x1
 5171 0257 51       		.byte	0x51
 5172 0258 01       		.byte	0x1
 5173 0259 30000000 		.4byte	0x30
 5174 025d 00000000 		.4byte	.LFB2
 5175 0261 00060000 		.4byte	.LFE2
 5176 0265 AE000000 		.4byte	.LLST4
 5177 0269 01       		.byte	0x1
 5178 026a 50060000 		.4byte	0x650
 5179 026e 18       		.uleb128 0x18
 5180 026f 4A4400   		.ascii	"JD\000"
 5181 0272 01       		.byte	0x1
 5182 0273 51       		.byte	0x51
 5183 0274 29000000 		.4byte	0x29
 5184 0278 DB000000 		.4byte	.LLST5
 5185 027c 19       		.uleb128 0x19
 5186 027d 42030000 		.4byte	.LASF19
 5187 0281 01       		.byte	0x1
 5188 0282 51       		.byte	0x51
 5189 0283 94010000 		.4byte	0x194
 5190 0287 03010000 		.4byte	.LLST6
 5191 028b 19       		.uleb128 0x19
 5192 028c 99000000 		.4byte	.LASF21
 5193 0290 01       		.byte	0x1
 5194 0291 52       		.byte	0x52
 5195 0292 47010000 		.4byte	0x147
 5196 0296 53010000 		.4byte	.LLST7
 5197 029a 1A       		.uleb128 0x1a
 5198 029b A0000000 		.4byte	.LASF20
 5199 029f 01       		.byte	0x1
 5200 02a0 52       		.byte	0x52
 5201 02a1 8D000000 		.4byte	0x8d
 5202 02a5 02       		.byte	0x2
 5203 02a6 91       		.byte	0x91
 5204 02a7 00       		.sleb128 0
 5205 02a8 1B       		.uleb128 0x1b
 5206 02a9 72737400 		.ascii	"rst\000"
 5207 02ad 01       		.byte	0x1
 5208 02ae 52       		.byte	0x52
 5209 02af CA010000 		.4byte	0x1ca
 5210 02b3 02       		.byte	0x2
 5211 02b4 91       		.byte	0x91
 5212 02b5 08       		.sleb128 8
 5213 02b6 11       		.uleb128 0x11
 5214 02b7 6A6400   		.ascii	"jd\000"
 5215 02ba 01       		.byte	0x1
 5216 02bb 54       		.byte	0x54
 5217 02bc 30000000 		.4byte	0x30
 5218 02c0 1C       		.uleb128 0x1c
 5219 02c1 4F00     		.ascii	"O\000"
 5220 02c3 01       		.byte	0x1
 5221 02c4 55       		.byte	0x55
 5222 02c5 8D000000 		.4byte	0x8d
 5223 02c9 71010000 		.4byte	.LLST8
 5224 02cd 1D       		.uleb128 0x1d
 5225 02ce D8020000 		.4byte	.LASF25
ARM GAS  /tmp/ccj4yzJk.s 			page 93


 5226 02d2 01       		.byte	0x1
 5227 02d3 55       		.byte	0x55
 5228 02d4 8D000000 		.4byte	0x8d
 5229 02d8 AD010000 		.4byte	.LLST9
 5230 02dc 1C       		.uleb128 0x1c
 5231 02dd 483000   		.ascii	"H0\000"
 5232 02e0 01       		.byte	0x1
 5233 02e1 55       		.byte	0x55
 5234 02e2 8D000000 		.4byte	0x8d
 5235 02e6 D2010000 		.4byte	.LLST10
 5236 02ea 1C       		.uleb128 0x1c
 5237 02eb 483100   		.ascii	"H1\000"
 5238 02ee 01       		.byte	0x1
 5239 02ef 55       		.byte	0x55
 5240 02f0 8D000000 		.4byte	0x8d
 5241 02f4 07020000 		.4byte	.LLST11
 5242 02f8 1C       		.uleb128 0x1c
 5243 02f9 48617400 		.ascii	"Hat\000"
 5244 02fd 01       		.byte	0x1
 5245 02fe 56       		.byte	0x56
 5246 02ff 29000000 		.4byte	0x29
 5247 0303 5F020000 		.4byte	.LLST12
 5248 0307 1C       		.uleb128 0x1c
 5249 0308 48617200 		.ascii	"Har\000"
 5250 030c 01       		.byte	0x1
 5251 030d 56       		.byte	0x56
 5252 030e 29000000 		.4byte	0x29
 5253 0312 84020000 		.4byte	.LLST13
 5254 0316 1C       		.uleb128 0x1c
 5255 0317 48617300 		.ascii	"Has\000"
 5256 031b 01       		.byte	0x1
 5257 031c 56       		.byte	0x56
 5258 031d 29000000 		.4byte	0x29
 5259 0321 A8020000 		.4byte	.LLST14
 5260 0325 1D       		.uleb128 0x1d
 5261 0326 67030000 		.4byte	.LASF26
 5262 032a 01       		.byte	0x1
 5263 032b 56       		.byte	0x56
 5264 032c 29000000 		.4byte	0x29
 5265 0330 CC020000 		.4byte	.LLST15
 5266 0334 1D       		.uleb128 0x1d
 5267 0335 4E010000 		.4byte	.LASF27
 5268 0339 01       		.byte	0x1
 5269 033a 56       		.byte	0x56
 5270 033b 29000000 		.4byte	0x29
 5271 033f E4020000 		.4byte	.LLST16
 5272 0343 1C       		.uleb128 0x1c
 5273 0344 6D7400   		.ascii	"mt\000"
 5274 0347 01       		.byte	0x1
 5275 0348 57       		.byte	0x57
 5276 0349 29000000 		.4byte	0x29
 5277 034d 18030000 		.4byte	.LLST17
 5278 0351 1C       		.uleb128 0x1c
 5279 0352 6D7200   		.ascii	"mr\000"
 5280 0355 01       		.byte	0x1
 5281 0356 57       		.byte	0x57
 5282 0357 29000000 		.4byte	0x29
ARM GAS  /tmp/ccj4yzJk.s 			page 94


 5283 035b 8B030000 		.4byte	.LLST18
 5284 035f 1C       		.uleb128 0x1c
 5285 0360 6D7300   		.ascii	"ms\000"
 5286 0363 01       		.byte	0x1
 5287 0364 57       		.byte	0x57
 5288 0365 29000000 		.4byte	0x29
 5289 0369 E2030000 		.4byte	.LLST19
 5290 036d 1C       		.uleb128 0x1c
 5291 036e 6D737400 		.ascii	"mst\000"
 5292 0372 01       		.byte	0x1
 5293 0373 57       		.byte	0x57
 5294 0374 29000000 		.4byte	0x29
 5295 0378 50040000 		.4byte	.LLST20
 5296 037c 1C       		.uleb128 0x1c
 5297 037d 6D737200 		.ascii	"msr\000"
 5298 0381 01       		.byte	0x1
 5299 0382 57       		.byte	0x57
 5300 0383 29000000 		.4byte	0x29
 5301 0387 79040000 		.4byte	.LLST21
 5302 038b 1C       		.uleb128 0x1c
 5303 038c 6D737300 		.ascii	"mss\000"
 5304 0390 01       		.byte	0x1
 5305 0391 57       		.byte	0x57
 5306 0392 29000000 		.4byte	0x29
 5307 0396 A2040000 		.4byte	.LLST22
 5308 039a 1C       		.uleb128 0x1c
 5309 039b 646D7400 		.ascii	"dmt\000"
 5310 039f 01       		.byte	0x1
 5311 03a0 58       		.byte	0x58
 5312 03a1 29000000 		.4byte	0x29
 5313 03a5 CB040000 		.4byte	.LLST23
 5314 03a9 1C       		.uleb128 0x1c
 5315 03aa 646D7200 		.ascii	"dmr\000"
 5316 03ae 01       		.byte	0x1
 5317 03af 58       		.byte	0x58
 5318 03b0 29000000 		.4byte	0x29
 5319 03b4 F1040000 		.4byte	.LLST24
 5320 03b8 1C       		.uleb128 0x1c
 5321 03b9 646D7300 		.ascii	"dms\000"
 5322 03bd 01       		.byte	0x1
 5323 03be 58       		.byte	0x58
 5324 03bf 29000000 		.4byte	0x29
 5325 03c3 09050000 		.4byte	.LLST25
 5326 03c7 1E       		.uleb128 0x1e
 5327 03c8 72657400 		.ascii	"ret\000"
 5328 03cc 01       		.byte	0x1
 5329 03cd 59       		.byte	0x59
 5330 03ce 30000000 		.4byte	0x30
 5331 03d2 01       		.byte	0x1
 5332 03d3 53       		.byte	0x53
 5333 03d4 1F       		.uleb128 0x1f
 5334 03d5 4D010000 		.4byte	0x14d
 5335 03d9 A6000000 		.4byte	.LBB44
 5336 03dd 00000000 		.4byte	.Ldebug_ranges0+0
 5337 03e1 01       		.byte	0x1
 5338 03e2 69       		.byte	0x69
 5339 03e3 18040000 		.4byte	0x418
ARM GAS  /tmp/ccj4yzJk.s 			page 95


 5340 03e7 15       		.uleb128 0x15
 5341 03e8 7F010000 		.4byte	0x17f
 5342 03ec 01       		.byte	0x1
 5343 03ed 57       		.byte	0x57
 5344 03ee 15       		.uleb128 0x15
 5345 03ef 74010000 		.4byte	0x174
 5346 03f3 02       		.byte	0x2
 5347 03f4 91       		.byte	0x91
 5348 03f5 00       		.sleb128 0
 5349 03f6 14       		.uleb128 0x14
 5350 03f7 6A010000 		.4byte	0x16a
 5351 03fb 29050000 		.4byte	.LLST26
 5352 03ff 14       		.uleb128 0x14
 5353 0400 5F010000 		.4byte	0x15f
 5354 0404 71050000 		.4byte	.LLST27
 5355 0408 20       		.uleb128 0x20
 5356 0409 28000000 		.4byte	.Ldebug_ranges0+0x28
 5357 040d 16       		.uleb128 0x16
 5358 040e 8A010000 		.4byte	0x18a
 5359 0412 B6050000 		.4byte	.LLST28
 5360 0416 00       		.byte	0
 5361 0417 00       		.byte	0
 5362 0418 21       		.uleb128 0x21
 5363 0419 26000000 		.4byte	.LVL23
 5364 041d E21D0000 		.4byte	0x1de2
 5365 0421 35040000 		.4byte	0x435
 5366 0425 22       		.uleb128 0x22
 5367 0426 06       		.byte	0x6
 5368 0427 50       		.byte	0x50
 5369 0428 93       		.byte	0x93
 5370 0429 04       		.uleb128 0x4
 5371 042a 51       		.byte	0x51
 5372 042b 93       		.byte	0x93
 5373 042c 04       		.uleb128 0x4
 5374 042d 06       		.byte	0x6
 5375 042e 91       		.byte	0x91
 5376 042f B07F     		.sleb128 -80
 5377 0431 F6       		.byte	0xf6
 5378 0432 08       		.byte	0x8
 5379 0433 29       		.uleb128 0x29
 5380 0434 00       		.byte	0
 5381 0435 21       		.uleb128 0x21
 5382 0436 32000000 		.4byte	.LVL25
 5383 043a FA1D0000 		.4byte	0x1dfa
 5384 043e 51040000 		.4byte	0x451
 5385 0442 22       		.uleb128 0x22
 5386 0443 06       		.byte	0x6
 5387 0444 50       		.byte	0x50
 5388 0445 93       		.byte	0x93
 5389 0446 04       		.uleb128 0x4
 5390 0447 51       		.byte	0x51
 5391 0448 93       		.byte	0x93
 5392 0449 04       		.uleb128 0x4
 5393 044a 05       		.byte	0x5
 5394 044b 91       		.byte	0x91
 5395 044c 00       		.sleb128 0
 5396 044d F6       		.byte	0xf6
ARM GAS  /tmp/ccj4yzJk.s 			page 96


 5397 044e 08       		.byte	0x8
 5398 044f 29       		.uleb128 0x29
 5399 0450 00       		.byte	0
 5400 0451 23       		.uleb128 0x23
 5401 0452 36000000 		.4byte	.LVL26
 5402 0456 121E0000 		.4byte	0x1e12
 5403 045a 23       		.uleb128 0x23
 5404 045b 42000000 		.4byte	.LVL27
 5405 045f FA1D0000 		.4byte	0x1dfa
 5406 0463 23       		.uleb128 0x23
 5407 0464 46000000 		.4byte	.LVL28
 5408 0468 121E0000 		.4byte	0x1e12
 5409 046c 23       		.uleb128 0x23
 5410 046d 52000000 		.4byte	.LVL29
 5411 0471 FA1D0000 		.4byte	0x1dfa
 5412 0475 23       		.uleb128 0x23
 5413 0476 56000000 		.4byte	.LVL30
 5414 047a 121E0000 		.4byte	0x1e12
 5415 047e 23       		.uleb128 0x23
 5416 047f 7A000000 		.4byte	.LVL34
 5417 0483 FA1D0000 		.4byte	0x1dfa
 5418 0487 23       		.uleb128 0x23
 5419 0488 7E000000 		.4byte	.LVL35
 5420 048c 2A1E0000 		.4byte	0x1e2a
 5421 0490 23       		.uleb128 0x23
 5422 0491 8A000000 		.4byte	.LVL36
 5423 0495 FA1D0000 		.4byte	0x1dfa
 5424 0499 23       		.uleb128 0x23
 5425 049a 8E000000 		.4byte	.LVL37
 5426 049e 2A1E0000 		.4byte	0x1e2a
 5427 04a2 23       		.uleb128 0x23
 5428 04a3 68010000 		.4byte	.LVL61
 5429 04a7 421E0000 		.4byte	0x1e42
 5430 04ab 23       		.uleb128 0x23
 5431 04ac 6C010000 		.4byte	.LVL62
 5432 04b0 5A1E0000 		.4byte	0x1e5a
 5433 04b4 23       		.uleb128 0x23
 5434 04b5 E4020000 		.4byte	.LVL106
 5435 04b9 FA1D0000 		.4byte	0x1dfa
 5436 04bd 23       		.uleb128 0x23
 5437 04be E8020000 		.4byte	.LVL107
 5438 04c2 121E0000 		.4byte	0x1e12
 5439 04c6 23       		.uleb128 0x23
 5440 04c7 F4020000 		.4byte	.LVL108
 5441 04cb FA1D0000 		.4byte	0x1dfa
 5442 04cf 23       		.uleb128 0x23
 5443 04d0 F8020000 		.4byte	.LVL109
 5444 04d4 121E0000 		.4byte	0x1e12
 5445 04d8 23       		.uleb128 0x23
 5446 04d9 10030000 		.4byte	.LVL111
 5447 04dd FA1D0000 		.4byte	0x1dfa
 5448 04e1 23       		.uleb128 0x23
 5449 04e2 14030000 		.4byte	.LVL112
 5450 04e6 2A1E0000 		.4byte	0x1e2a
 5451 04ea 23       		.uleb128 0x23
 5452 04eb 20030000 		.4byte	.LVL113
 5453 04ef FA1D0000 		.4byte	0x1dfa
ARM GAS  /tmp/ccj4yzJk.s 			page 97


 5454 04f3 23       		.uleb128 0x23
 5455 04f4 24030000 		.4byte	.LVL114
 5456 04f8 2A1E0000 		.4byte	0x1e2a
 5457 04fc 21       		.uleb128 0x21
 5458 04fd 3C030000 		.4byte	.LVL116
 5459 0501 FA1D0000 		.4byte	0x1dfa
 5460 0505 18050000 		.4byte	0x518
 5461 0509 22       		.uleb128 0x22
 5462 050a 06       		.byte	0x6
 5463 050b 50       		.byte	0x50
 5464 050c 93       		.byte	0x93
 5465 050d 04       		.uleb128 0x4
 5466 050e 51       		.byte	0x51
 5467 050f 93       		.byte	0x93
 5468 0510 04       		.uleb128 0x4
 5469 0511 05       		.byte	0x5
 5470 0512 91       		.byte	0x91
 5471 0513 40       		.sleb128 -64
 5472 0514 F6       		.byte	0xf6
 5473 0515 08       		.byte	0x8
 5474 0516 29       		.uleb128 0x29
 5475 0517 00       		.byte	0
 5476 0518 23       		.uleb128 0x23
 5477 0519 40030000 		.4byte	.LVL117
 5478 051d 2A1E0000 		.4byte	0x1e2a
 5479 0521 23       		.uleb128 0x23
 5480 0522 64030000 		.4byte	.LVL121
 5481 0526 FA1D0000 		.4byte	0x1dfa
 5482 052a 23       		.uleb128 0x23
 5483 052b 68030000 		.4byte	.LVL122
 5484 052f 121E0000 		.4byte	0x1e12
 5485 0533 23       		.uleb128 0x23
 5486 0534 74030000 		.4byte	.LVL123
 5487 0538 FA1D0000 		.4byte	0x1dfa
 5488 053c 23       		.uleb128 0x23
 5489 053d 78030000 		.4byte	.LVL124
 5490 0541 121E0000 		.4byte	0x1e12
 5491 0545 23       		.uleb128 0x23
 5492 0546 90030000 		.4byte	.LVL127
 5493 054a FA1D0000 		.4byte	0x1dfa
 5494 054e 23       		.uleb128 0x23
 5495 054f 94030000 		.4byte	.LVL128
 5496 0553 2A1E0000 		.4byte	0x1e2a
 5497 0557 23       		.uleb128 0x23
 5498 0558 A0030000 		.4byte	.LVL129
 5499 055c FA1D0000 		.4byte	0x1dfa
 5500 0560 23       		.uleb128 0x23
 5501 0561 A4030000 		.4byte	.LVL130
 5502 0565 2A1E0000 		.4byte	0x1e2a
 5503 0569 21       		.uleb128 0x21
 5504 056a BC030000 		.4byte	.LVL132
 5505 056e FA1D0000 		.4byte	0x1dfa
 5506 0572 85050000 		.4byte	0x585
 5507 0576 22       		.uleb128 0x22
 5508 0577 06       		.byte	0x6
 5509 0578 50       		.byte	0x50
 5510 0579 93       		.byte	0x93
ARM GAS  /tmp/ccj4yzJk.s 			page 98


 5511 057a 04       		.uleb128 0x4
 5512 057b 51       		.byte	0x51
 5513 057c 93       		.byte	0x93
 5514 057d 04       		.uleb128 0x4
 5515 057e 05       		.byte	0x5
 5516 057f 91       		.byte	0x91
 5517 0580 48       		.sleb128 -56
 5518 0581 F6       		.byte	0xf6
 5519 0582 08       		.byte	0x8
 5520 0583 29       		.uleb128 0x29
 5521 0584 00       		.byte	0
 5522 0585 23       		.uleb128 0x23
 5523 0586 C0030000 		.4byte	.LVL133
 5524 058a 2A1E0000 		.4byte	0x1e2a
 5525 058e 23       		.uleb128 0x23
 5526 058f E4030000 		.4byte	.LVL137
 5527 0593 5A1E0000 		.4byte	0x1e5a
 5528 0597 23       		.uleb128 0x23
 5529 0598 F0030000 		.4byte	.LVL139
 5530 059c 5A1E0000 		.4byte	0x1e5a
 5531 05a0 21       		.uleb128 0x21
 5532 05a1 FC030000 		.4byte	.LVL142
 5533 05a5 721E0000 		.4byte	0x1e72
 5534 05a9 BD050000 		.4byte	0x5bd
 5535 05ad 22       		.uleb128 0x22
 5536 05ae 06       		.byte	0x6
 5537 05af 50       		.byte	0x50
 5538 05b0 93       		.byte	0x93
 5539 05b1 04       		.uleb128 0x4
 5540 05b2 51       		.byte	0x51
 5541 05b3 93       		.byte	0x93
 5542 05b4 04       		.uleb128 0x4
 5543 05b5 06       		.byte	0x6
 5544 05b6 91       		.byte	0x91
 5545 05b7 B87F     		.sleb128 -72
 5546 05b9 F6       		.byte	0xf6
 5547 05ba 08       		.byte	0x8
 5548 05bb 29       		.uleb128 0x29
 5549 05bc 00       		.byte	0
 5550 05bd 23       		.uleb128 0x23
 5551 05be 48040000 		.4byte	.LVL147
 5552 05c2 FA1D0000 		.4byte	0x1dfa
 5553 05c6 23       		.uleb128 0x23
 5554 05c7 4C040000 		.4byte	.LVL148
 5555 05cb 2A1E0000 		.4byte	0x1e2a
 5556 05cf 23       		.uleb128 0x23
 5557 05d0 58040000 		.4byte	.LVL149
 5558 05d4 FA1D0000 		.4byte	0x1dfa
 5559 05d8 23       		.uleb128 0x23
 5560 05d9 5C040000 		.4byte	.LVL150
 5561 05dd 2A1E0000 		.4byte	0x1e2a
 5562 05e1 21       		.uleb128 0x21
 5563 05e2 86040000 		.4byte	.LVL153
 5564 05e6 FA1D0000 		.4byte	0x1dfa
 5565 05ea FD050000 		.4byte	0x5fd
 5566 05ee 22       		.uleb128 0x22
 5567 05ef 06       		.byte	0x6
ARM GAS  /tmp/ccj4yzJk.s 			page 99


 5568 05f0 50       		.byte	0x50
 5569 05f1 93       		.byte	0x93
 5570 05f2 04       		.uleb128 0x4
 5571 05f3 51       		.byte	0x51
 5572 05f4 93       		.byte	0x93
 5573 05f5 04       		.uleb128 0x4
 5574 05f6 05       		.byte	0x5
 5575 05f7 91       		.byte	0x91
 5576 05f8 40       		.sleb128 -64
 5577 05f9 F6       		.byte	0xf6
 5578 05fa 08       		.byte	0x8
 5579 05fb 29       		.uleb128 0x29
 5580 05fc 00       		.byte	0
 5581 05fd 23       		.uleb128 0x23
 5582 05fe 8A040000 		.4byte	.LVL154
 5583 0602 121E0000 		.4byte	0x1e12
 5584 0606 23       		.uleb128 0x23
 5585 0607 BE040000 		.4byte	.LVL159
 5586 060b FA1D0000 		.4byte	0x1dfa
 5587 060f 23       		.uleb128 0x23
 5588 0610 C2040000 		.4byte	.LVL160
 5589 0614 2A1E0000 		.4byte	0x1e2a
 5590 0618 23       		.uleb128 0x23
 5591 0619 CE040000 		.4byte	.LVL161
 5592 061d FA1D0000 		.4byte	0x1dfa
 5593 0621 23       		.uleb128 0x23
 5594 0622 D2040000 		.4byte	.LVL162
 5595 0626 2A1E0000 		.4byte	0x1e2a
 5596 062a 21       		.uleb128 0x21
 5597 062b FC040000 		.4byte	.LVL166
 5598 062f FA1D0000 		.4byte	0x1dfa
 5599 0633 46060000 		.4byte	0x646
 5600 0637 22       		.uleb128 0x22
 5601 0638 06       		.byte	0x6
 5602 0639 50       		.byte	0x50
 5603 063a 93       		.byte	0x93
 5604 063b 04       		.uleb128 0x4
 5605 063c 51       		.byte	0x51
 5606 063d 93       		.byte	0x93
 5607 063e 04       		.uleb128 0x4
 5608 063f 05       		.byte	0x5
 5609 0640 91       		.byte	0x91
 5610 0641 48       		.sleb128 -56
 5611 0642 F6       		.byte	0xf6
 5612 0643 08       		.byte	0x8
 5613 0644 29       		.uleb128 0x29
 5614 0645 00       		.byte	0
 5615 0646 23       		.uleb128 0x23
 5616 0647 00050000 		.4byte	.LVL167
 5617 064b 121E0000 		.4byte	0x1e12
 5618 064f 00       		.byte	0
 5619 0650 24       		.uleb128 0x24
 5620 0651 01       		.byte	0x1
 5621 0652 30030000 		.4byte	.LASF32
 5622 0656 01       		.byte	0x1
 5623 0657 3E       		.byte	0x3e
 5624 0658 01       		.byte	0x1
ARM GAS  /tmp/ccj4yzJk.s 			page 100


 5625 0659 30000000 		.4byte	0x30
 5626 065d 00000000 		.4byte	.LFB1
 5627 0661 28000000 		.4byte	.LFE1
 5628 0665 FE050000 		.4byte	.LLST29
 5629 0669 01       		.byte	0x1
 5630 066a E6060000 		.4byte	0x6e6
 5631 066e 18       		.uleb128 0x18
 5632 066f 4A4400   		.ascii	"JD\000"
 5633 0672 01       		.byte	0x1
 5634 0673 3E       		.byte	0x3e
 5635 0674 29000000 		.4byte	0x29
 5636 0678 2A060000 		.4byte	.LLST30
 5637 067c 19       		.uleb128 0x19
 5638 067d 42030000 		.4byte	.LASF19
 5639 0681 01       		.byte	0x1
 5640 0682 3E       		.byte	0x3e
 5641 0683 94010000 		.4byte	0x194
 5642 0687 52060000 		.4byte	.LLST31
 5643 068b 19       		.uleb128 0x19
 5644 068c 99000000 		.4byte	.LASF21
 5645 0690 01       		.byte	0x1
 5646 0691 3E       		.byte	0x3e
 5647 0692 47010000 		.4byte	0x147
 5648 0696 73060000 		.4byte	.LLST32
 5649 069a 1B       		.uleb128 0x1b
 5650 069b 72737400 		.ascii	"rst\000"
 5651 069f 01       		.byte	0x1
 5652 06a0 3E       		.byte	0x3e
 5653 06a1 CA010000 		.4byte	0x1ca
 5654 06a5 02       		.byte	0x2
 5655 06a6 91       		.byte	0x91
 5656 06a7 00       		.sleb128 0
 5657 06a8 25       		.uleb128 0x25
 5658 06a9 16000000 		.4byte	.LVL191
 5659 06ad 50020000 		.4byte	0x250
 5660 06b1 22       		.uleb128 0x22
 5661 06b2 01       		.byte	0x1
 5662 06b3 53       		.byte	0x53
 5663 06b4 03       		.byte	0x3
 5664 06b5 F3       		.byte	0xf3
 5665 06b6 01       		.uleb128 0x1
 5666 06b7 53       		.byte	0x53
 5667 06b8 22       		.uleb128 0x22
 5668 06b9 01       		.byte	0x1
 5669 06ba 52       		.byte	0x52
 5670 06bb 03       		.byte	0x3
 5671 06bc F3       		.byte	0xf3
 5672 06bd 01       		.uleb128 0x1
 5673 06be 52       		.byte	0x52
 5674 06bf 22       		.uleb128 0x22
 5675 06c0 06       		.byte	0x6
 5676 06c1 50       		.byte	0x50
 5677 06c2 93       		.byte	0x93
 5678 06c3 04       		.uleb128 0x4
 5679 06c4 51       		.byte	0x51
 5680 06c5 93       		.byte	0x93
 5681 06c6 04       		.uleb128 0x4
ARM GAS  /tmp/ccj4yzJk.s 			page 101


 5682 06c7 05       		.byte	0x5
 5683 06c8 F3       		.byte	0xf3
 5684 06c9 03       		.uleb128 0x3
 5685 06ca F5       		.byte	0xf5
 5686 06cb 00       		.uleb128 0
 5687 06cc 29       		.uleb128 0x29
 5688 06cd 22       		.uleb128 0x22
 5689 06ce 02       		.byte	0x2
 5690 06cf 7D       		.byte	0x7d
 5691 06d0 08       		.sleb128 8
 5692 06d1 02       		.byte	0x2
 5693 06d2 74       		.byte	0x74
 5694 06d3 00       		.sleb128 0
 5695 06d4 22       		.uleb128 0x22
 5696 06d5 02       		.byte	0x2
 5697 06d6 7D       		.byte	0x7d
 5698 06d7 00       		.sleb128 0
 5699 06d8 0B       		.byte	0xb
 5700 06d9 F4       		.byte	0xf4
 5701 06da 29       		.uleb128 0x29
 5702 06db 08       		.byte	0x8
 5703 06dc 1895D409 		.4byte	0x9d49518
 5704 06e0 6822E2BF 		.4byte	0xbfe22268
 5705 06e4 00       		.byte	0
 5706 06e5 00       		.byte	0
 5707 06e6 13       		.uleb128 0x13
 5708 06e7 9A010000 		.4byte	0x19a
 5709 06eb 00000000 		.4byte	.LFB4
 5710 06ef 38000000 		.4byte	.LFE4
 5711 06f3 94060000 		.4byte	.LLST33
 5712 06f7 01       		.byte	0x1
 5713 06f8 17070000 		.4byte	0x717
 5714 06fc 14       		.uleb128 0x14
 5715 06fd A8010000 		.4byte	0x1a8
 5716 0701 B4060000 		.4byte	.LLST34
 5717 0705 14       		.uleb128 0x14
 5718 0706 B3010000 		.4byte	0x1b3
 5719 070a D2060000 		.4byte	.LLST35
 5720 070e 15       		.uleb128 0x15
 5721 070f BE010000 		.4byte	0x1be
 5722 0713 02       		.byte	0x2
 5723 0714 91       		.byte	0x91
 5724 0715 00       		.sleb128 0
 5725 0716 00       		.byte	0
 5726 0717 13       		.uleb128 0x13
 5727 0718 D0010000 		.4byte	0x1d0
 5728 071c 00000000 		.4byte	.LFB5
 5729 0720 32000000 		.4byte	.LFE5
 5730 0724 FA060000 		.4byte	.LLST36
 5731 0728 01       		.byte	0x1
 5732 0729 50070000 		.4byte	0x750
 5733 072d 14       		.uleb128 0x14
 5734 072e E2010000 		.4byte	0x1e2
 5735 0732 1A070000 		.4byte	.LLST37
 5736 0736 14       		.uleb128 0x14
 5737 0737 EC010000 		.4byte	0x1ec
 5738 073b 42070000 		.4byte	.LLST38
ARM GAS  /tmp/ccj4yzJk.s 			page 102


 5739 073f 15       		.uleb128 0x15
 5740 0740 F7010000 		.4byte	0x1f7
 5741 0744 02       		.byte	0x2
 5742 0745 91       		.byte	0x91
 5743 0746 00       		.sleb128 0
 5744 0747 15       		.uleb128 0x15
 5745 0748 02020000 		.4byte	0x202
 5746 074c 02       		.byte	0x2
 5747 074d 91       		.byte	0x91
 5748 074e 08       		.sleb128 8
 5749 074f 00       		.byte	0
 5750 0750 17       		.uleb128 0x17
 5751 0751 01       		.byte	0x1
 5752 0752 A8000000 		.4byte	.LASF33
 5753 0756 01       		.byte	0x1
 5754 0757 E4       		.byte	0xe4
 5755 0758 01       		.byte	0x1
 5756 0759 30000000 		.4byte	0x30
 5757 075d 00000000 		.4byte	.LFB6
 5758 0761 4C020000 		.4byte	.LFE6
 5759 0765 6A070000 		.4byte	.LLST39
 5760 0769 01       		.byte	0x1
 5761 076a 74090000 		.4byte	0x974
 5762 076e 18       		.uleb128 0x18
 5763 076f 4A4400   		.ascii	"JD\000"
 5764 0772 01       		.byte	0x1
 5765 0773 E4       		.byte	0xe4
 5766 0774 29000000 		.4byte	0x29
 5767 0778 97070000 		.4byte	.LLST40
 5768 077c 19       		.uleb128 0x19
 5769 077d 42030000 		.4byte	.LASF19
 5770 0781 01       		.byte	0x1
 5771 0782 E4       		.byte	0xe4
 5772 0783 94010000 		.4byte	0x194
 5773 0787 BF070000 		.4byte	.LLST41
 5774 078b 19       		.uleb128 0x19
 5775 078c 99000000 		.4byte	.LASF21
 5776 0790 01       		.byte	0x1
 5777 0791 E4       		.byte	0xe4
 5778 0792 47010000 		.4byte	0x147
 5779 0796 04080000 		.4byte	.LLST42
 5780 079a 1A       		.uleb128 0x1a
 5781 079b A0000000 		.4byte	.LASF20
 5782 079f 01       		.byte	0x1
 5783 07a0 E5       		.byte	0xe5
 5784 07a1 29000000 		.4byte	0x29
 5785 07a5 02       		.byte	0x2
 5786 07a6 91       		.byte	0x91
 5787 07a7 00       		.sleb128 0
 5788 07a8 1B       		.uleb128 0x1b
 5789 07a9 72737400 		.ascii	"rst\000"
 5790 07ad 01       		.byte	0x1
 5791 07ae E5       		.byte	0xe5
 5792 07af CA010000 		.4byte	0x1ca
 5793 07b3 02       		.byte	0x2
 5794 07b4 91       		.byte	0x91
 5795 07b5 08       		.sleb128 8
ARM GAS  /tmp/ccj4yzJk.s 			page 103


 5796 07b6 1C       		.uleb128 0x1c
 5797 07b7 72657400 		.ascii	"ret\000"
 5798 07bb 01       		.byte	0x1
 5799 07bc E7       		.byte	0xe7
 5800 07bd 30000000 		.4byte	0x30
 5801 07c1 49080000 		.4byte	.LLST43
 5802 07c5 26       		.uleb128 0x26
 5803 07c6 FD010000 		.4byte	.LASF34
 5804 07ca 01       		.byte	0x1
 5805 07cb E8       		.byte	0xe8
 5806 07cc E5000000 		.4byte	0xe5
 5807 07d0 03       		.byte	0x3
 5808 07d1 91       		.byte	0x91
 5809 07d2 A87F     		.sleb128 -88
 5810 07d4 26       		.uleb128 0x26
 5811 07d5 03020000 		.4byte	.LASF35
 5812 07d9 01       		.byte	0x1
 5813 07da E8       		.byte	0xe8
 5814 07db E5000000 		.4byte	0xe5
 5815 07df 02       		.byte	0x2
 5816 07e0 91       		.byte	0x91
 5817 07e1 40       		.sleb128 -64
 5818 07e2 1F       		.uleb128 0x1f
 5819 07e3 D0010000 		.4byte	0x1d0
 5820 07e7 3A010000 		.4byte	.LBB52
 5821 07eb 50000000 		.4byte	.Ldebug_ranges0+0x50
 5822 07ef 01       		.byte	0x1
 5823 07f0 F8       		.byte	0xf8
 5824 07f1 1A080000 		.4byte	0x81a
 5825 07f5 14       		.uleb128 0x14
 5826 07f6 02020000 		.4byte	0x202
 5827 07fa 67080000 		.4byte	.LLST44
 5828 07fe 14       		.uleb128 0x14
 5829 07ff F7010000 		.4byte	0x1f7
 5830 0803 8F080000 		.4byte	.LLST45
 5831 0807 14       		.uleb128 0x14
 5832 0808 EC010000 		.4byte	0x1ec
 5833 080c B1080000 		.4byte	.LLST46
 5834 0810 14       		.uleb128 0x14
 5835 0811 E2010000 		.4byte	0x1e2
 5836 0815 E9080000 		.4byte	.LLST47
 5837 0819 00       		.byte	0
 5838 081a 1F       		.uleb128 0x1f
 5839 081b D0010000 		.4byte	0x1d0
 5840 081f 52010000 		.4byte	.LBB55
 5841 0823 68000000 		.4byte	.Ldebug_ranges0+0x68
 5842 0827 01       		.byte	0x1
 5843 0828 F9       		.byte	0xf9
 5844 0829 52080000 		.4byte	0x852
 5845 082d 14       		.uleb128 0x14
 5846 082e 02020000 		.4byte	0x202
 5847 0832 11090000 		.4byte	.LLST48
 5848 0836 14       		.uleb128 0x14
 5849 0837 F7010000 		.4byte	0x1f7
 5850 083b 40090000 		.4byte	.LLST49
 5851 083f 14       		.uleb128 0x14
 5852 0840 EC010000 		.4byte	0x1ec
ARM GAS  /tmp/ccj4yzJk.s 			page 104


 5853 0844 6F090000 		.4byte	.LLST50
 5854 0848 14       		.uleb128 0x14
 5855 0849 E2010000 		.4byte	0x1e2
 5856 084d A7090000 		.4byte	.LLST51
 5857 0851 00       		.byte	0
 5858 0852 1F       		.uleb128 0x1f
 5859 0853 D0010000 		.4byte	0x1d0
 5860 0857 68010000 		.4byte	.LBB59
 5861 085b 88000000 		.4byte	.Ldebug_ranges0+0x88
 5862 085f 01       		.byte	0x1
 5863 0860 FA       		.byte	0xfa
 5864 0861 8A080000 		.4byte	0x88a
 5865 0865 14       		.uleb128 0x14
 5866 0866 02020000 		.4byte	0x202
 5867 086a DF090000 		.4byte	.LLST52
 5868 086e 14       		.uleb128 0x14
 5869 086f F7010000 		.4byte	0x1f7
 5870 0873 0E0A0000 		.4byte	.LLST53
 5871 0877 14       		.uleb128 0x14
 5872 0878 EC010000 		.4byte	0x1ec
 5873 087c 3D0A0000 		.4byte	.LLST54
 5874 0880 14       		.uleb128 0x14
 5875 0881 E2010000 		.4byte	0x1e2
 5876 0885 750A0000 		.4byte	.LLST55
 5877 0889 00       		.byte	0
 5878 088a 27       		.uleb128 0x27
 5879 088b 9A010000 		.4byte	0x19a
 5880 088f D0010000 		.4byte	.LBB68
 5881 0893 0E020000 		.4byte	.LBE68
 5882 0897 01       		.byte	0x1
 5883 0898 F1       		.byte	0xf1
 5884 0899 B9080000 		.4byte	0x8b9
 5885 089d 14       		.uleb128 0x14
 5886 089e BE010000 		.4byte	0x1be
 5887 08a2 AD0A0000 		.4byte	.LLST56
 5888 08a6 14       		.uleb128 0x14
 5889 08a7 B3010000 		.4byte	0x1b3
 5890 08ab C30A0000 		.4byte	.LLST57
 5891 08af 14       		.uleb128 0x14
 5892 08b0 A8010000 		.4byte	0x1a8
 5893 08b4 DF0A0000 		.4byte	.LLST58
 5894 08b8 00       		.byte	0
 5895 08b9 27       		.uleb128 0x27
 5896 08ba 9A010000 		.4byte	0x19a
 5897 08be 0E020000 		.4byte	.LBB70
 5898 08c2 4C020000 		.4byte	.LBE70
 5899 08c6 01       		.byte	0x1
 5900 08c7 F6       		.byte	0xf6
 5901 08c8 EB080000 		.4byte	0x8eb
 5902 08cc 15       		.uleb128 0x15
 5903 08cd BE010000 		.4byte	0x1be
 5904 08d1 03       		.byte	0x3
 5905 08d2 91       		.byte	0x91
 5906 08d3 40       		.sleb128 -64
 5907 08d4 9F       		.byte	0x9f
 5908 08d5 28       		.uleb128 0x28
 5909 08d6 B3010000 		.4byte	0x1b3
ARM GAS  /tmp/ccj4yzJk.s 			page 105


 5910 08da 08       		.byte	0x8
 5911 08db 00000000 		.4byte	0
 5912 08df 0000F03F 		.4byte	0x3ff00000
 5913 08e3 15       		.uleb128 0x15
 5914 08e4 A8010000 		.4byte	0x1a8
 5915 08e8 01       		.byte	0x1
 5916 08e9 58       		.byte	0x58
 5917 08ea 00       		.byte	0
 5918 08eb 21       		.uleb128 0x21
 5919 08ec 22000000 		.4byte	.LVL201
 5920 08f0 50020000 		.4byte	0x250
 5921 08f4 22090000 		.4byte	0x922
 5922 08f8 22       		.uleb128 0x22
 5923 08f9 01       		.byte	0x1
 5924 08fa 53       		.byte	0x53
 5925 08fb 02       		.byte	0x2
 5926 08fc 76       		.byte	0x76
 5927 08fd 00       		.sleb128 0
 5928 08fe 22       		.uleb128 0x22
 5929 08ff 01       		.byte	0x1
 5930 0900 52       		.byte	0x52
 5931 0901 02       		.byte	0x2
 5932 0902 77       		.byte	0x77
 5933 0903 00       		.sleb128 0
 5934 0904 22       		.uleb128 0x22
 5935 0905 06       		.byte	0x6
 5936 0906 50       		.byte	0x50
 5937 0907 93       		.byte	0x93
 5938 0908 04       		.uleb128 0x4
 5939 0909 51       		.byte	0x51
 5940 090a 93       		.byte	0x93
 5941 090b 04       		.uleb128 0x4
 5942 090c 05       		.byte	0x5
 5943 090d F3       		.byte	0xf3
 5944 090e 03       		.uleb128 0x3
 5945 090f F5       		.byte	0xf5
 5946 0910 00       		.uleb128 0
 5947 0911 29       		.uleb128 0x29
 5948 0912 22       		.uleb128 0x22
 5949 0913 02       		.byte	0x2
 5950 0914 7D       		.byte	0x7d
 5951 0915 08       		.sleb128 8
 5952 0916 02       		.byte	0x2
 5953 0917 78       		.byte	0x78
 5954 0918 00       		.sleb128 0
 5955 0919 22       		.uleb128 0x22
 5956 091a 02       		.byte	0x2
 5957 091b 7D       		.byte	0x7d
 5958 091c 00       		.sleb128 0
 5959 091d 03       		.byte	0x3
 5960 091e F5       		.byte	0xf5
 5961 091f 04       		.uleb128 0x4
 5962 0920 29       		.uleb128 0x29
 5963 0921 00       		.byte	0
 5964 0922 21       		.uleb128 0x21
 5965 0923 A0000000 		.4byte	.LVL208
 5966 0927 50020000 		.4byte	0x250
ARM GAS  /tmp/ccj4yzJk.s 			page 106


 5967 092b 4E090000 		.4byte	0x94e
 5968 092f 22       		.uleb128 0x22
 5969 0930 01       		.byte	0x1
 5970 0931 53       		.byte	0x53
 5971 0932 02       		.byte	0x2
 5972 0933 76       		.byte	0x76
 5973 0934 00       		.sleb128 0
 5974 0935 22       		.uleb128 0x22
 5975 0936 01       		.byte	0x1
 5976 0937 52       		.byte	0x52
 5977 0938 02       		.byte	0x2
 5978 0939 77       		.byte	0x77
 5979 093a 00       		.sleb128 0
 5980 093b 22       		.uleb128 0x22
 5981 093c 02       		.byte	0x2
 5982 093d 7D       		.byte	0x7d
 5983 093e 08       		.sleb128 8
 5984 093f 03       		.byte	0x3
 5985 0940 91       		.byte	0x91
 5986 0941 A87F     		.sleb128 -88
 5987 0943 22       		.uleb128 0x22
 5988 0944 02       		.byte	0x2
 5989 0945 7D       		.byte	0x7d
 5990 0946 00       		.sleb128 0
 5991 0947 05       		.byte	0x5
 5992 0948 91       		.byte	0x91
 5993 0949 00       		.sleb128 0
 5994 094a F6       		.byte	0xf6
 5995 094b 08       		.byte	0x8
 5996 094c 29       		.uleb128 0x29
 5997 094d 00       		.byte	0
 5998 094e 25       		.uleb128 0x25
 5999 094f 0A010000 		.4byte	.LVL213
 6000 0953 50020000 		.4byte	0x250
 6001 0957 22       		.uleb128 0x22
 6002 0958 01       		.byte	0x1
 6003 0959 53       		.byte	0x53
 6004 095a 02       		.byte	0x2
 6005 095b 76       		.byte	0x76
 6006 095c 00       		.sleb128 0
 6007 095d 22       		.uleb128 0x22
 6008 095e 01       		.byte	0x1
 6009 095f 52       		.byte	0x52
 6010 0960 02       		.byte	0x2
 6011 0961 77       		.byte	0x77
 6012 0962 00       		.sleb128 0
 6013 0963 22       		.uleb128 0x22
 6014 0964 02       		.byte	0x2
 6015 0965 7D       		.byte	0x7d
 6016 0966 08       		.sleb128 8
 6017 0967 02       		.byte	0x2
 6018 0968 75       		.byte	0x75
 6019 0969 00       		.sleb128 0
 6020 096a 22       		.uleb128 0x22
 6021 096b 02       		.byte	0x2
 6022 096c 7D       		.byte	0x7d
 6023 096d 00       		.sleb128 0
ARM GAS  /tmp/ccj4yzJk.s 			page 107


 6024 096e 03       		.byte	0x3
 6025 096f F5       		.byte	0xf5
 6026 0970 04       		.uleb128 0x4
 6027 0971 29       		.uleb128 0x29
 6028 0972 00       		.byte	0
 6029 0973 00       		.byte	0
 6030 0974 24       		.uleb128 0x24
 6031 0975 01       		.byte	0x1
 6032 0976 4B030000 		.4byte	.LASF36
 6033 097a 01       		.byte	0x1
 6034 097b BE       		.byte	0xbe
 6035 097c 01       		.byte	0x1
 6036 097d 30000000 		.4byte	0x30
 6037 0981 00000000 		.4byte	.LFB3
 6038 0985 28000000 		.4byte	.LFE3
 6039 0989 F20A0000 		.4byte	.LLST59
 6040 098d 01       		.byte	0x1
 6041 098e 0A0A0000 		.4byte	0xa0a
 6042 0992 18       		.uleb128 0x18
 6043 0993 4A4400   		.ascii	"JD\000"
 6044 0996 01       		.byte	0x1
 6045 0997 BE       		.byte	0xbe
 6046 0998 29000000 		.4byte	0x29
 6047 099c 1E0B0000 		.4byte	.LLST60
 6048 09a0 19       		.uleb128 0x19
 6049 09a1 42030000 		.4byte	.LASF19
 6050 09a5 01       		.byte	0x1
 6051 09a6 BE       		.byte	0xbe
 6052 09a7 94010000 		.4byte	0x194
 6053 09ab 460B0000 		.4byte	.LLST61
 6054 09af 19       		.uleb128 0x19
 6055 09b0 99000000 		.4byte	.LASF21
 6056 09b4 01       		.byte	0x1
 6057 09b5 BE       		.byte	0xbe
 6058 09b6 47010000 		.4byte	0x147
 6059 09ba 670B0000 		.4byte	.LLST62
 6060 09be 1B       		.uleb128 0x1b
 6061 09bf 72737400 		.ascii	"rst\000"
 6062 09c3 01       		.byte	0x1
 6063 09c4 BE       		.byte	0xbe
 6064 09c5 CA010000 		.4byte	0x1ca
 6065 09c9 02       		.byte	0x2
 6066 09ca 91       		.byte	0x91
 6067 09cb 00       		.sleb128 0
 6068 09cc 25       		.uleb128 0x25
 6069 09cd 16000000 		.4byte	.LVL252
 6070 09d1 50070000 		.4byte	0x750
 6071 09d5 22       		.uleb128 0x22
 6072 09d6 01       		.byte	0x1
 6073 09d7 53       		.byte	0x53
 6074 09d8 03       		.byte	0x3
 6075 09d9 F3       		.byte	0xf3
 6076 09da 01       		.uleb128 0x1
 6077 09db 53       		.byte	0x53
 6078 09dc 22       		.uleb128 0x22
 6079 09dd 01       		.byte	0x1
 6080 09de 52       		.byte	0x52
ARM GAS  /tmp/ccj4yzJk.s 			page 108


 6081 09df 03       		.byte	0x3
 6082 09e0 F3       		.byte	0xf3
 6083 09e1 01       		.uleb128 0x1
 6084 09e2 52       		.byte	0x52
 6085 09e3 22       		.uleb128 0x22
 6086 09e4 06       		.byte	0x6
 6087 09e5 50       		.byte	0x50
 6088 09e6 93       		.byte	0x93
 6089 09e7 04       		.uleb128 0x4
 6090 09e8 51       		.byte	0x51
 6091 09e9 93       		.byte	0x93
 6092 09ea 04       		.uleb128 0x4
 6093 09eb 05       		.byte	0x5
 6094 09ec F3       		.byte	0xf3
 6095 09ed 03       		.uleb128 0x3
 6096 09ee F5       		.byte	0xf5
 6097 09ef 00       		.uleb128 0
 6098 09f0 29       		.uleb128 0x29
 6099 09f1 22       		.uleb128 0x22
 6100 09f2 02       		.byte	0x2
 6101 09f3 7D       		.byte	0x7d
 6102 09f4 08       		.sleb128 8
 6103 09f5 02       		.byte	0x2
 6104 09f6 74       		.byte	0x74
 6105 09f7 00       		.sleb128 0
 6106 09f8 22       		.uleb128 0x22
 6107 09f9 02       		.byte	0x2
 6108 09fa 7D       		.byte	0x7d
 6109 09fb 00       		.sleb128 0
 6110 09fc 0B       		.byte	0xb
 6111 09fd F4       		.byte	0xf4
 6112 09fe 29       		.uleb128 0x29
 6113 09ff 08       		.byte	0x8
 6114 0a00 1895D409 		.4byte	0x9d49518
 6115 0a04 6822E2BF 		.4byte	0xbfe22268
 6116 0a08 00       		.byte	0
 6117 0a09 00       		.byte	0
 6118 0a0a 29       		.uleb128 0x29
 6119 0a0b 01       		.byte	0x1
 6120 0a0c C7030000 		.4byte	.LASF37
 6121 0a10 01       		.byte	0x1
 6122 0a11 1301     		.2byte	0x113
 6123 0a13 01       		.byte	0x1
 6124 0a14 30000000 		.4byte	0x30
 6125 0a18 00000000 		.4byte	.LFB7
 6126 0a1c 14080000 		.4byte	.LFE7
 6127 0a20 880B0000 		.4byte	.LLST63
 6128 0a24 01       		.byte	0x1
 6129 0a25 58100000 		.4byte	0x1058
 6130 0a29 2A       		.uleb128 0x2a
 6131 0a2a 4A4400   		.ascii	"JD\000"
 6132 0a2d 01       		.byte	0x1
 6133 0a2e 1301     		.2byte	0x113
 6134 0a30 29000000 		.4byte	0x29
 6135 0a34 B50B0000 		.4byte	.LLST64
 6136 0a38 2B       		.uleb128 0x2b
 6137 0a39 42030000 		.4byte	.LASF19
ARM GAS  /tmp/ccj4yzJk.s 			page 109


 6138 0a3d 01       		.byte	0x1
 6139 0a3e 1301     		.2byte	0x113
 6140 0a40 94010000 		.4byte	0x194
 6141 0a44 DD0B0000 		.4byte	.LLST65
 6142 0a48 2B       		.uleb128 0x2b
 6143 0a49 33010000 		.4byte	.LASF38
 6144 0a4d 01       		.byte	0x1
 6145 0a4e 1401     		.2byte	0x114
 6146 0a50 69100000 		.4byte	0x1069
 6147 0a54 FB0B0000 		.4byte	.LLST66
 6148 0a58 2C       		.uleb128 0x2c
 6149 0a59 A0000000 		.4byte	.LASF20
 6150 0a5d 01       		.byte	0x1
 6151 0a5e 1401     		.2byte	0x114
 6152 0a60 29000000 		.4byte	0x29
 6153 0a64 02       		.byte	0x2
 6154 0a65 91       		.byte	0x91
 6155 0a66 00       		.sleb128 0
 6156 0a67 2D       		.uleb128 0x2d
 6157 0a68 72737400 		.ascii	"rst\000"
 6158 0a6c 01       		.byte	0x1
 6159 0a6d 1501     		.2byte	0x115
 6160 0a6f CA010000 		.4byte	0x1ca
 6161 0a73 02       		.byte	0x2
 6162 0a74 91       		.byte	0x91
 6163 0a75 08       		.sleb128 8
 6164 0a76 2E       		.uleb128 0x2e
 6165 0a77 6A6400   		.ascii	"jd\000"
 6166 0a7a 01       		.byte	0x1
 6167 0a7b 1701     		.2byte	0x117
 6168 0a7d 30000000 		.4byte	0x30
 6169 0a81 270C0000 		.4byte	.LLST67
 6170 0a85 2E       		.uleb128 0x2e
 6171 0a86 5400     		.ascii	"T\000"
 6172 0a88 01       		.byte	0x1
 6173 0a89 1801     		.2byte	0x118
 6174 0a8b 29000000 		.4byte	0x29
 6175 0a8f 410C0000 		.4byte	.LLST68
 6176 0a93 2E       		.uleb128 0x2e
 6177 0a94 4F00     		.ascii	"O\000"
 6178 0a96 01       		.byte	0x1
 6179 0a97 1801     		.2byte	0x118
 6180 0a99 29000000 		.4byte	0x29
 6181 0a9d 660C0000 		.4byte	.LLST69
 6182 0aa1 2F       		.uleb128 0x2f
 6183 0aa2 D8020000 		.4byte	.LASF25
 6184 0aa6 01       		.byte	0x1
 6185 0aa7 1801     		.2byte	0x118
 6186 0aa9 29000000 		.4byte	0x29
 6187 0aad A20C0000 		.4byte	.LLST70
 6188 0ab1 2E       		.uleb128 0x2e
 6189 0ab2 483000   		.ascii	"H0\000"
 6190 0ab5 01       		.byte	0x1
 6191 0ab6 1801     		.2byte	0x118
 6192 0ab8 29000000 		.4byte	0x29
 6193 0abc C70C0000 		.4byte	.LLST71
 6194 0ac0 2E       		.uleb128 0x2e
ARM GAS  /tmp/ccj4yzJk.s 			page 110


 6195 0ac1 483100   		.ascii	"H1\000"
 6196 0ac4 01       		.byte	0x1
 6197 0ac5 1801     		.2byte	0x118
 6198 0ac7 29000000 		.4byte	0x29
 6199 0acb EF0C0000 		.4byte	.LLST72
 6200 0acf 2E       		.uleb128 0x2e
 6201 0ad0 48617400 		.ascii	"Hat\000"
 6202 0ad4 01       		.byte	0x1
 6203 0ad5 1901     		.2byte	0x119
 6204 0ad7 29000000 		.4byte	0x29
 6205 0adb 470D0000 		.4byte	.LLST73
 6206 0adf 2E       		.uleb128 0x2e
 6207 0ae0 48617200 		.ascii	"Har\000"
 6208 0ae4 01       		.byte	0x1
 6209 0ae5 1901     		.2byte	0x119
 6210 0ae7 29000000 		.4byte	0x29
 6211 0aeb 6C0D0000 		.4byte	.LLST74
 6212 0aef 2E       		.uleb128 0x2e
 6213 0af0 48617300 		.ascii	"Has\000"
 6214 0af4 01       		.byte	0x1
 6215 0af5 1901     		.2byte	0x119
 6216 0af7 29000000 		.4byte	0x29
 6217 0afb 910D0000 		.4byte	.LLST75
 6218 0aff 2F       		.uleb128 0x2f
 6219 0b00 67030000 		.4byte	.LASF26
 6220 0b04 01       		.byte	0x1
 6221 0b05 1901     		.2byte	0x119
 6222 0b07 29000000 		.4byte	0x29
 6223 0b0b B60D0000 		.4byte	.LLST76
 6224 0b0f 2F       		.uleb128 0x2f
 6225 0b10 4E010000 		.4byte	.LASF27
 6226 0b14 01       		.byte	0x1
 6227 0b15 1901     		.2byte	0x119
 6228 0b17 29000000 		.4byte	0x29
 6229 0b1b DE0D0000 		.4byte	.LLST77
 6230 0b1f 2E       		.uleb128 0x2e
 6231 0b20 6D7400   		.ascii	"mt\000"
 6232 0b23 01       		.byte	0x1
 6233 0b24 1A01     		.2byte	0x11a
 6234 0b26 29000000 		.4byte	0x29
 6235 0b2a 130E0000 		.4byte	.LLST78
 6236 0b2e 2E       		.uleb128 0x2e
 6237 0b2f 6D7200   		.ascii	"mr\000"
 6238 0b32 01       		.byte	0x1
 6239 0b33 1A01     		.2byte	0x11a
 6240 0b35 29000000 		.4byte	0x29
 6241 0b39 860E0000 		.4byte	.LLST79
 6242 0b3d 2E       		.uleb128 0x2e
 6243 0b3e 6D7300   		.ascii	"ms\000"
 6244 0b41 01       		.byte	0x1
 6245 0b42 1A01     		.2byte	0x11a
 6246 0b44 29000000 		.4byte	0x29
 6247 0b48 DD0E0000 		.4byte	.LLST80
 6248 0b4c 2E       		.uleb128 0x2e
 6249 0b4d 6D737400 		.ascii	"mst\000"
 6250 0b51 01       		.byte	0x1
 6251 0b52 1A01     		.2byte	0x11a
ARM GAS  /tmp/ccj4yzJk.s 			page 111


 6252 0b54 29000000 		.4byte	0x29
 6253 0b58 4C0F0000 		.4byte	.LLST81
 6254 0b5c 2E       		.uleb128 0x2e
 6255 0b5d 6D737200 		.ascii	"msr\000"
 6256 0b61 01       		.byte	0x1
 6257 0b62 1A01     		.2byte	0x11a
 6258 0b64 29000000 		.4byte	0x29
 6259 0b68 710F0000 		.4byte	.LLST82
 6260 0b6c 2E       		.uleb128 0x2e
 6261 0b6d 6D737300 		.ascii	"mss\000"
 6262 0b71 01       		.byte	0x1
 6263 0b72 1A01     		.2byte	0x11a
 6264 0b74 29000000 		.4byte	0x29
 6265 0b78 960F0000 		.4byte	.LLST83
 6266 0b7c 2E       		.uleb128 0x2e
 6267 0b7d 6E7400   		.ascii	"nt\000"
 6268 0b80 01       		.byte	0x1
 6269 0b81 1A01     		.2byte	0x11a
 6270 0b83 29000000 		.4byte	0x29
 6271 0b87 BB0F0000 		.4byte	.LLST84
 6272 0b8b 2E       		.uleb128 0x2e
 6273 0b8c 6E7200   		.ascii	"nr\000"
 6274 0b8f 01       		.byte	0x1
 6275 0b90 1A01     		.2byte	0x11a
 6276 0b92 29000000 		.4byte	0x29
 6277 0b96 E00F0000 		.4byte	.LLST85
 6278 0b9a 2E       		.uleb128 0x2e
 6279 0b9b 6E7300   		.ascii	"ns\000"
 6280 0b9e 01       		.byte	0x1
 6281 0b9f 1A01     		.2byte	0x11a
 6282 0ba1 29000000 		.4byte	0x29
 6283 0ba5 05100000 		.4byte	.LLST86
 6284 0ba9 30       		.uleb128 0x30
 6285 0baa DE010000 		.4byte	.LASF39
 6286 0bae 01       		.byte	0x1
 6287 0baf 1B01     		.2byte	0x11b
 6288 0bb1 94000000 		.4byte	0x94
 6289 0bb5 03       		.byte	0x3
 6290 0bb6 91       		.byte	0x91
 6291 0bb7 A87F     		.sleb128 -88
 6292 0bb9 30       		.uleb128 0x30
 6293 0bba E3010000 		.4byte	.LASF40
 6294 0bbe 01       		.byte	0x1
 6295 0bbf 1B01     		.2byte	0x11b
 6296 0bc1 94000000 		.4byte	0x94
 6297 0bc5 03       		.byte	0x3
 6298 0bc6 91       		.byte	0x91
 6299 0bc7 B87F     		.sleb128 -72
 6300 0bc9 30       		.uleb128 0x30
 6301 0bca E8010000 		.4byte	.LASF41
 6302 0bce 01       		.byte	0x1
 6303 0bcf 1B01     		.2byte	0x11b
 6304 0bd1 94000000 		.4byte	0x94
 6305 0bd5 02       		.byte	0x2
 6306 0bd6 91       		.byte	0x91
 6307 0bd7 48       		.sleb128 -56
 6308 0bd8 2F       		.uleb128 0x2f
ARM GAS  /tmp/ccj4yzJk.s 			page 112


 6309 0bd9 37020000 		.4byte	.LASF42
 6310 0bdd 01       		.byte	0x1
 6311 0bde 1B01     		.2byte	0x11b
 6312 0be0 94000000 		.4byte	0x94
 6313 0be4 1D100000 		.4byte	.LLST87
 6314 0be8 2F       		.uleb128 0x2f
 6315 0be9 2D020000 		.4byte	.LASF43
 6316 0bed 01       		.byte	0x1
 6317 0bee 1B01     		.2byte	0x11b
 6318 0bf0 94000000 		.4byte	0x94
 6319 0bf4 48100000 		.4byte	.LLST88
 6320 0bf8 2F       		.uleb128 0x2f
 6321 0bf9 32020000 		.4byte	.LASF44
 6322 0bfd 01       		.byte	0x1
 6323 0bfe 1B01     		.2byte	0x11b
 6324 0c00 94000000 		.4byte	0x94
 6325 0c04 9C100000 		.4byte	.LLST89
 6326 0c08 2E       		.uleb128 0x2e
 6327 0c09 646D7400 		.ascii	"dmt\000"
 6328 0c0d 01       		.byte	0x1
 6329 0c0e 1C01     		.2byte	0x11c
 6330 0c10 29000000 		.4byte	0x29
 6331 0c14 F2100000 		.4byte	.LLST90
 6332 0c18 2E       		.uleb128 0x2e
 6333 0c19 646D7200 		.ascii	"dmr\000"
 6334 0c1d 01       		.byte	0x1
 6335 0c1e 1C01     		.2byte	0x11c
 6336 0c20 29000000 		.4byte	0x29
 6337 0c24 18110000 		.4byte	.LLST91
 6338 0c28 2E       		.uleb128 0x2e
 6339 0c29 646D7300 		.ascii	"dms\000"
 6340 0c2d 01       		.byte	0x1
 6341 0c2e 1C01     		.2byte	0x11c
 6342 0c30 29000000 		.4byte	0x29
 6343 0c34 30110000 		.4byte	.LLST92
 6344 0c38 31       		.uleb128 0x31
 6345 0c39 72657400 		.ascii	"ret\000"
 6346 0c3d 01       		.byte	0x1
 6347 0c3e 1D01     		.2byte	0x11d
 6348 0c40 30000000 		.4byte	0x30
 6349 0c44 01       		.byte	0x1
 6350 0c45 53       		.byte	0x53
 6351 0c46 32       		.uleb128 0x32
 6352 0c47 4D010000 		.4byte	0x14d
 6353 0c4b E8000000 		.4byte	.LBB72
 6354 0c4f A8000000 		.4byte	.Ldebug_ranges0+0xa8
 6355 0c53 01       		.byte	0x1
 6356 0c54 3601     		.2byte	0x136
 6357 0c56 8C0C0000 		.4byte	0xc8c
 6358 0c5a 15       		.uleb128 0x15
 6359 0c5b 7F010000 		.4byte	0x17f
 6360 0c5f 04       		.byte	0x4
 6361 0c60 91       		.byte	0x91
 6362 0c61 B87F     		.sleb128 -72
 6363 0c63 9F       		.byte	0x9f
 6364 0c64 15       		.uleb128 0x15
 6365 0c65 74010000 		.4byte	0x174
ARM GAS  /tmp/ccj4yzJk.s 			page 113


 6366 0c69 02       		.byte	0x2
 6367 0c6a 91       		.byte	0x91
 6368 0c6b 00       		.sleb128 0
 6369 0c6c 14       		.uleb128 0x14
 6370 0c6d 6A010000 		.4byte	0x16a
 6371 0c71 51110000 		.4byte	.LLST93
 6372 0c75 15       		.uleb128 0x15
 6373 0c76 5F010000 		.4byte	0x15f
 6374 0c7a 01       		.byte	0x1
 6375 0c7b 57       		.byte	0x57
 6376 0c7c 20       		.uleb128 0x20
 6377 0c7d D0000000 		.4byte	.Ldebug_ranges0+0xd0
 6378 0c81 16       		.uleb128 0x16
 6379 0c82 8A010000 		.4byte	0x18a
 6380 0c86 99110000 		.4byte	.LLST94
 6381 0c8a 00       		.byte	0
 6382 0c8b 00       		.byte	0
 6383 0c8c 21       		.uleb128 0x21
 6384 0c8d 14000000 		.4byte	.LVL254
 6385 0c91 8A1E0000 		.4byte	0x1e8a
 6386 0c95 A80C0000 		.4byte	0xca8
 6387 0c99 22       		.uleb128 0x22
 6388 0c9a 06       		.byte	0x6
 6389 0c9b 50       		.byte	0x50
 6390 0c9c 93       		.byte	0x93
 6391 0c9d 04       		.uleb128 0x4
 6392 0c9e 51       		.byte	0x51
 6393 0c9f 93       		.byte	0x93
 6394 0ca0 04       		.uleb128 0x4
 6395 0ca1 05       		.byte	0x5
 6396 0ca2 F3       		.byte	0xf3
 6397 0ca3 03       		.uleb128 0x3
 6398 0ca4 F5       		.byte	0xf5
 6399 0ca5 00       		.uleb128 0
 6400 0ca6 29       		.uleb128 0x29
 6401 0ca7 00       		.byte	0
 6402 0ca8 21       		.uleb128 0x21
 6403 0ca9 38000000 		.4byte	.LVL261
 6404 0cad E21D0000 		.4byte	0x1de2
 6405 0cb1 C50C0000 		.4byte	0xcc5
 6406 0cb5 22       		.uleb128 0x22
 6407 0cb6 06       		.byte	0x6
 6408 0cb7 50       		.byte	0x50
 6409 0cb8 93       		.byte	0x93
 6410 0cb9 04       		.uleb128 0x4
 6411 0cba 51       		.byte	0x51
 6412 0cbb 93       		.byte	0x93
 6413 0cbc 04       		.uleb128 0x4
 6414 0cbd 06       		.byte	0x6
 6415 0cbe 91       		.byte	0x91
 6416 0cbf C87E     		.sleb128 -184
 6417 0cc1 F6       		.byte	0xf6
 6418 0cc2 08       		.byte	0x8
 6419 0cc3 29       		.uleb128 0x29
 6420 0cc4 00       		.byte	0
 6421 0cc5 33       		.uleb128 0x33
 6422 0cc6 50000000 		.4byte	.LVL264
ARM GAS  /tmp/ccj4yzJk.s 			page 114


 6423 0cca 02       		.byte	0x2
 6424 0ccb 74       		.byte	0x74
 6425 0ccc 00       		.sleb128 0
 6426 0ccd D90C0000 		.4byte	0xcd9
 6427 0cd1 22       		.uleb128 0x22
 6428 0cd2 01       		.byte	0x1
 6429 0cd3 52       		.byte	0x52
 6430 0cd4 03       		.byte	0x3
 6431 0cd5 91       		.byte	0x91
 6432 0cd6 A87F     		.sleb128 -88
 6433 0cd8 00       		.byte	0
 6434 0cd9 33       		.uleb128 0x33
 6435 0cda 58000000 		.4byte	.LVL265
 6436 0cde 02       		.byte	0x2
 6437 0cdf 74       		.byte	0x74
 6438 0ce0 00       		.sleb128 0
 6439 0ce1 FC0C0000 		.4byte	0xcfc
 6440 0ce5 22       		.uleb128 0x22
 6441 0ce6 01       		.byte	0x1
 6442 0ce7 52       		.byte	0x52
 6443 0ce8 03       		.byte	0x3
 6444 0ce9 91       		.byte	0x91
 6445 0cea B87F     		.sleb128 -72
 6446 0cec 22       		.uleb128 0x22
 6447 0ced 06       		.byte	0x6
 6448 0cee 50       		.byte	0x50
 6449 0cef 93       		.byte	0x93
 6450 0cf0 04       		.uleb128 0x4
 6451 0cf1 51       		.byte	0x51
 6452 0cf2 93       		.byte	0x93
 6453 0cf3 04       		.uleb128 0x4
 6454 0cf4 06       		.byte	0x6
 6455 0cf5 91       		.byte	0x91
 6456 0cf6 C87E     		.sleb128 -184
 6457 0cf8 F6       		.byte	0xf6
 6458 0cf9 08       		.byte	0x8
 6459 0cfa 29       		.uleb128 0x29
 6460 0cfb 00       		.byte	0
 6461 0cfc 33       		.uleb128 0x33
 6462 0cfd 6C000000 		.4byte	.LVL267
 6463 0d01 02       		.byte	0x2
 6464 0d02 74       		.byte	0x74
 6465 0d03 00       		.sleb128 0
 6466 0d04 0F0D0000 		.4byte	0xd0f
 6467 0d08 22       		.uleb128 0x22
 6468 0d09 01       		.byte	0x1
 6469 0d0a 52       		.byte	0x52
 6470 0d0b 02       		.byte	0x2
 6471 0d0c 91       		.byte	0x91
 6472 0d0d 48       		.sleb128 -56
 6473 0d0e 00       		.byte	0
 6474 0d0f 21       		.uleb128 0x21
 6475 0d10 74000000 		.4byte	.LVL268
 6476 0d14 FA1D0000 		.4byte	0x1dfa
 6477 0d18 2B0D0000 		.4byte	0xd2b
 6478 0d1c 22       		.uleb128 0x22
 6479 0d1d 06       		.byte	0x6
ARM GAS  /tmp/ccj4yzJk.s 			page 115


 6480 0d1e 50       		.byte	0x50
 6481 0d1f 93       		.byte	0x93
 6482 0d20 04       		.uleb128 0x4
 6483 0d21 51       		.byte	0x51
 6484 0d22 93       		.byte	0x93
 6485 0d23 04       		.uleb128 0x4
 6486 0d24 05       		.byte	0x5
 6487 0d25 91       		.byte	0x91
 6488 0d26 00       		.sleb128 0
 6489 0d27 F6       		.byte	0xf6
 6490 0d28 08       		.byte	0x8
 6491 0d29 29       		.uleb128 0x29
 6492 0d2a 00       		.byte	0
 6493 0d2b 23       		.uleb128 0x23
 6494 0d2c 78000000 		.4byte	.LVL269
 6495 0d30 121E0000 		.4byte	0x1e12
 6496 0d34 23       		.uleb128 0x23
 6497 0d35 84000000 		.4byte	.LVL271
 6498 0d39 FA1D0000 		.4byte	0x1dfa
 6499 0d3d 23       		.uleb128 0x23
 6500 0d3e 88000000 		.4byte	.LVL272
 6501 0d42 121E0000 		.4byte	0x1e12
 6502 0d46 23       		.uleb128 0x23
 6503 0d47 94000000 		.4byte	.LVL274
 6504 0d4b FA1D0000 		.4byte	0x1dfa
 6505 0d4f 23       		.uleb128 0x23
 6506 0d50 98000000 		.4byte	.LVL275
 6507 0d54 121E0000 		.4byte	0x1e12
 6508 0d58 23       		.uleb128 0x23
 6509 0d59 BC000000 		.4byte	.LVL279
 6510 0d5d FA1D0000 		.4byte	0x1dfa
 6511 0d61 23       		.uleb128 0x23
 6512 0d62 C0000000 		.4byte	.LVL280
 6513 0d66 2A1E0000 		.4byte	0x1e2a
 6514 0d6a 23       		.uleb128 0x23
 6515 0d6b CC000000 		.4byte	.LVL281
 6516 0d6f FA1D0000 		.4byte	0x1dfa
 6517 0d73 23       		.uleb128 0x23
 6518 0d74 D0000000 		.4byte	.LVL282
 6519 0d78 2A1E0000 		.4byte	0x1e2a
 6520 0d7c 23       		.uleb128 0x23
 6521 0d7d AA010000 		.4byte	.LVL306
 6522 0d81 421E0000 		.4byte	0x1e42
 6523 0d85 23       		.uleb128 0x23
 6524 0d86 AE010000 		.4byte	.LVL307
 6525 0d8a 5A1E0000 		.4byte	0x1e5a
 6526 0d8e 21       		.uleb128 0x21
 6527 0d8f 14040000 		.4byte	.LVL366
 6528 0d93 A21E0000 		.4byte	0x1ea2
 6529 0d97 CA0D0000 		.4byte	0xdca
 6530 0d9b 22       		.uleb128 0x22
 6531 0d9c 06       		.byte	0x6
 6532 0d9d 52       		.byte	0x52
 6533 0d9e 93       		.byte	0x93
 6534 0d9f 04       		.uleb128 0x4
 6535 0da0 53       		.byte	0x53
 6536 0da1 93       		.byte	0x93
ARM GAS  /tmp/ccj4yzJk.s 			page 116


 6537 0da2 04       		.uleb128 0x4
 6538 0da3 06       		.byte	0x6
 6539 0da4 91       		.byte	0x91
 6540 0da5 D87E     		.sleb128 -168
 6541 0da7 F6       		.byte	0xf6
 6542 0da8 08       		.byte	0x8
 6543 0da9 29       		.uleb128 0x29
 6544 0daa 22       		.uleb128 0x22
 6545 0dab 06       		.byte	0x6
 6546 0dac 50       		.byte	0x50
 6547 0dad 93       		.byte	0x93
 6548 0dae 04       		.uleb128 0x4
 6549 0daf 51       		.byte	0x51
 6550 0db0 93       		.byte	0x93
 6551 0db1 04       		.uleb128 0x4
 6552 0db2 06       		.byte	0x6
 6553 0db3 91       		.byte	0x91
 6554 0db4 E07E     		.sleb128 -160
 6555 0db6 F6       		.byte	0xf6
 6556 0db7 08       		.byte	0x8
 6557 0db8 29       		.uleb128 0x29
 6558 0db9 22       		.uleb128 0x22
 6559 0dba 02       		.byte	0x2
 6560 0dbb 7D       		.byte	0x7d
 6561 0dbc 08       		.sleb128 8
 6562 0dbd 03       		.byte	0x3
 6563 0dbe F5       		.byte	0xf5
 6564 0dbf 0A       		.uleb128 0xa
 6565 0dc0 29       		.uleb128 0x29
 6566 0dc1 22       		.uleb128 0x22
 6567 0dc2 02       		.byte	0x2
 6568 0dc3 7D       		.byte	0x7d
 6569 0dc4 00       		.sleb128 0
 6570 0dc5 03       		.byte	0x3
 6571 0dc6 F5       		.byte	0xf5
 6572 0dc7 04       		.uleb128 0x4
 6573 0dc8 29       		.uleb128 0x29
 6574 0dc9 00       		.byte	0
 6575 0dca 21       		.uleb128 0x21
 6576 0dcb 34040000 		.4byte	.LVL369
 6577 0dcf A21E0000 		.4byte	0x1ea2
 6578 0dd3 EF0D0000 		.4byte	0xdef
 6579 0dd7 22       		.uleb128 0x22
 6580 0dd8 06       		.byte	0x6
 6581 0dd9 50       		.byte	0x50
 6582 0dda 93       		.byte	0x93
 6583 0ddb 04       		.uleb128 0x4
 6584 0ddc 51       		.byte	0x51
 6585 0ddd 93       		.byte	0x93
 6586 0dde 04       		.uleb128 0x4
 6587 0ddf 06       		.byte	0x6
 6588 0de0 91       		.byte	0x91
 6589 0de1 E07E     		.sleb128 -160
 6590 0de3 F6       		.byte	0xf6
 6591 0de4 08       		.byte	0x8
 6592 0de5 29       		.uleb128 0x29
 6593 0de6 22       		.uleb128 0x22
ARM GAS  /tmp/ccj4yzJk.s 			page 117


 6594 0de7 02       		.byte	0x2
 6595 0de8 7D       		.byte	0x7d
 6596 0de9 00       		.sleb128 0
 6597 0dea 03       		.byte	0x3
 6598 0deb F5       		.byte	0xf5
 6599 0dec 04       		.uleb128 0x4
 6600 0ded 29       		.uleb128 0x29
 6601 0dee 00       		.byte	0
 6602 0def 21       		.uleb128 0x21
 6603 0df0 54040000 		.4byte	.LVL372
 6604 0df4 A21E0000 		.4byte	0x1ea2
 6605 0df8 140E0000 		.4byte	0xe14
 6606 0dfc 22       		.uleb128 0x22
 6607 0dfd 06       		.byte	0x6
 6608 0dfe 50       		.byte	0x50
 6609 0dff 93       		.byte	0x93
 6610 0e00 04       		.uleb128 0x4
 6611 0e01 51       		.byte	0x51
 6612 0e02 93       		.byte	0x93
 6613 0e03 04       		.uleb128 0x4
 6614 0e04 06       		.byte	0x6
 6615 0e05 91       		.byte	0x91
 6616 0e06 807F     		.sleb128 -128
 6617 0e08 F6       		.byte	0xf6
 6618 0e09 08       		.byte	0x8
 6619 0e0a 29       		.uleb128 0x29
 6620 0e0b 22       		.uleb128 0x22
 6621 0e0c 02       		.byte	0x2
 6622 0e0d 7D       		.byte	0x7d
 6623 0e0e 00       		.sleb128 0
 6624 0e0f 03       		.byte	0x3
 6625 0e10 F5       		.byte	0xf5
 6626 0e11 04       		.uleb128 0x4
 6627 0e12 29       		.uleb128 0x29
 6628 0e13 00       		.byte	0
 6629 0e14 21       		.uleb128 0x21
 6630 0e15 74040000 		.4byte	.LVL375
 6631 0e19 A21E0000 		.4byte	0x1ea2
 6632 0e1d 2A0E0000 		.4byte	0xe2a
 6633 0e21 22       		.uleb128 0x22
 6634 0e22 02       		.byte	0x2
 6635 0e23 7D       		.byte	0x7d
 6636 0e24 00       		.sleb128 0
 6637 0e25 03       		.byte	0x3
 6638 0e26 F5       		.byte	0xf5
 6639 0e27 04       		.uleb128 0x4
 6640 0e28 29       		.uleb128 0x29
 6641 0e29 00       		.byte	0
 6642 0e2a 21       		.uleb128 0x21
 6643 0e2b 94040000 		.4byte	.LVL377
 6644 0e2f A21E0000 		.4byte	0x1ea2
 6645 0e33 400E0000 		.4byte	0xe40
 6646 0e37 22       		.uleb128 0x22
 6647 0e38 02       		.byte	0x2
 6648 0e39 7D       		.byte	0x7d
 6649 0e3a 00       		.sleb128 0
 6650 0e3b 03       		.byte	0x3
ARM GAS  /tmp/ccj4yzJk.s 			page 118


 6651 0e3c F5       		.byte	0xf5
 6652 0e3d 04       		.uleb128 0x4
 6653 0e3e 29       		.uleb128 0x29
 6654 0e3f 00       		.byte	0
 6655 0e40 23       		.uleb128 0x23
 6656 0e41 EC040000 		.4byte	.LVL392
 6657 0e45 FA1D0000 		.4byte	0x1dfa
 6658 0e49 23       		.uleb128 0x23
 6659 0e4a F0040000 		.4byte	.LVL393
 6660 0e4e 121E0000 		.4byte	0x1e12
 6661 0e52 21       		.uleb128 0x21
 6662 0e53 14050000 		.4byte	.LVL394
 6663 0e57 FA1D0000 		.4byte	0x1dfa
 6664 0e5b 6F0E0000 		.4byte	0xe6f
 6665 0e5f 22       		.uleb128 0x22
 6666 0e60 06       		.byte	0x6
 6667 0e61 50       		.byte	0x50
 6668 0e62 93       		.byte	0x93
 6669 0e63 04       		.uleb128 0x4
 6670 0e64 51       		.byte	0x51
 6671 0e65 93       		.byte	0x93
 6672 0e66 04       		.uleb128 0x4
 6673 0e67 06       		.byte	0x6
 6674 0e68 91       		.byte	0x91
 6675 0e69 E07E     		.sleb128 -160
 6676 0e6b F6       		.byte	0xf6
 6677 0e6c 08       		.byte	0x8
 6678 0e6d 29       		.uleb128 0x29
 6679 0e6e 00       		.byte	0
 6680 0e6f 23       		.uleb128 0x23
 6681 0e70 18050000 		.4byte	.LVL395
 6682 0e74 121E0000 		.4byte	0x1e12
 6683 0e78 23       		.uleb128 0x23
 6684 0e79 30050000 		.4byte	.LVL397
 6685 0e7d FA1D0000 		.4byte	0x1dfa
 6686 0e81 23       		.uleb128 0x23
 6687 0e82 34050000 		.4byte	.LVL398
 6688 0e86 2A1E0000 		.4byte	0x1e2a
 6689 0e8a 21       		.uleb128 0x21
 6690 0e8b 40050000 		.4byte	.LVL400
 6691 0e8f FA1D0000 		.4byte	0x1dfa
 6692 0e93 A70E0000 		.4byte	0xea7
 6693 0e97 22       		.uleb128 0x22
 6694 0e98 06       		.byte	0x6
 6695 0e99 50       		.byte	0x50
 6696 0e9a 93       		.byte	0x93
 6697 0e9b 04       		.uleb128 0x4
 6698 0e9c 51       		.byte	0x51
 6699 0e9d 93       		.byte	0x93
 6700 0e9e 04       		.uleb128 0x4
 6701 0e9f 06       		.byte	0x6
 6702 0ea0 91       		.byte	0x91
 6703 0ea1 E07E     		.sleb128 -160
 6704 0ea3 F6       		.byte	0xf6
 6705 0ea4 08       		.byte	0x8
 6706 0ea5 29       		.uleb128 0x29
 6707 0ea6 00       		.byte	0
ARM GAS  /tmp/ccj4yzJk.s 			page 119


 6708 0ea7 23       		.uleb128 0x23
 6709 0ea8 44050000 		.4byte	.LVL401
 6710 0eac 2A1E0000 		.4byte	0x1e2a
 6711 0eb0 21       		.uleb128 0x21
 6712 0eb1 5C050000 		.4byte	.LVL404
 6713 0eb5 FA1D0000 		.4byte	0x1dfa
 6714 0eb9 CD0E0000 		.4byte	0xecd
 6715 0ebd 22       		.uleb128 0x22
 6716 0ebe 06       		.byte	0x6
 6717 0ebf 50       		.byte	0x50
 6718 0ec0 93       		.byte	0x93
 6719 0ec1 04       		.uleb128 0x4
 6720 0ec2 51       		.byte	0x51
 6721 0ec3 93       		.byte	0x93
 6722 0ec4 04       		.uleb128 0x4
 6723 0ec5 06       		.byte	0x6
 6724 0ec6 91       		.byte	0x91
 6725 0ec7 887F     		.sleb128 -120
 6726 0ec9 F6       		.byte	0xf6
 6727 0eca 08       		.byte	0x8
 6728 0ecb 29       		.uleb128 0x29
 6729 0ecc 00       		.byte	0
 6730 0ecd 23       		.uleb128 0x23
 6731 0ece 60050000 		.4byte	.LVL405
 6732 0ed2 2A1E0000 		.4byte	0x1e2a
 6733 0ed6 23       		.uleb128 0x23
 6734 0ed7 84050000 		.4byte	.LVL409
 6735 0edb FA1D0000 		.4byte	0x1dfa
 6736 0edf 23       		.uleb128 0x23
 6737 0ee0 88050000 		.4byte	.LVL410
 6738 0ee4 121E0000 		.4byte	0x1e12
 6739 0ee8 21       		.uleb128 0x21
 6740 0ee9 94050000 		.4byte	.LVL411
 6741 0eed FA1D0000 		.4byte	0x1dfa
 6742 0ef1 050F0000 		.4byte	0xf05
 6743 0ef5 22       		.uleb128 0x22
 6744 0ef6 06       		.byte	0x6
 6745 0ef7 50       		.byte	0x50
 6746 0ef8 93       		.byte	0x93
 6747 0ef9 04       		.uleb128 0x4
 6748 0efa 51       		.byte	0x51
 6749 0efb 93       		.byte	0x93
 6750 0efc 04       		.uleb128 0x4
 6751 0efd 06       		.byte	0x6
 6752 0efe 91       		.byte	0x91
 6753 0eff 807F     		.sleb128 -128
 6754 0f01 F6       		.byte	0xf6
 6755 0f02 08       		.byte	0x8
 6756 0f03 29       		.uleb128 0x29
 6757 0f04 00       		.byte	0
 6758 0f05 23       		.uleb128 0x23
 6759 0f06 98050000 		.4byte	.LVL412
 6760 0f0a 121E0000 		.4byte	0x1e12
 6761 0f0e 23       		.uleb128 0x23
 6762 0f0f B0050000 		.4byte	.LVL414
 6763 0f13 FA1D0000 		.4byte	0x1dfa
 6764 0f17 23       		.uleb128 0x23
ARM GAS  /tmp/ccj4yzJk.s 			page 120


 6765 0f18 B4050000 		.4byte	.LVL415
 6766 0f1c 2A1E0000 		.4byte	0x1e2a
 6767 0f20 21       		.uleb128 0x21
 6768 0f21 C0050000 		.4byte	.LVL416
 6769 0f25 FA1D0000 		.4byte	0x1dfa
 6770 0f29 3D0F0000 		.4byte	0xf3d
 6771 0f2d 22       		.uleb128 0x22
 6772 0f2e 06       		.byte	0x6
 6773 0f2f 50       		.byte	0x50
 6774 0f30 93       		.byte	0x93
 6775 0f31 04       		.uleb128 0x4
 6776 0f32 51       		.byte	0x51
 6777 0f33 93       		.byte	0x93
 6778 0f34 04       		.uleb128 0x4
 6779 0f35 06       		.byte	0x6
 6780 0f36 91       		.byte	0x91
 6781 0f37 807F     		.sleb128 -128
 6782 0f39 F6       		.byte	0xf6
 6783 0f3a 08       		.byte	0x8
 6784 0f3b 29       		.uleb128 0x29
 6785 0f3c 00       		.byte	0
 6786 0f3d 23       		.uleb128 0x23
 6787 0f3e C4050000 		.4byte	.LVL417
 6788 0f42 2A1E0000 		.4byte	0x1e2a
 6789 0f46 21       		.uleb128 0x21
 6790 0f47 DC050000 		.4byte	.LVL419
 6791 0f4b FA1D0000 		.4byte	0x1dfa
 6792 0f4f 630F0000 		.4byte	0xf63
 6793 0f53 22       		.uleb128 0x22
 6794 0f54 06       		.byte	0x6
 6795 0f55 50       		.byte	0x50
 6796 0f56 93       		.byte	0x93
 6797 0f57 04       		.uleb128 0x4
 6798 0f58 51       		.byte	0x51
 6799 0f59 93       		.byte	0x93
 6800 0f5a 04       		.uleb128 0x4
 6801 0f5b 06       		.byte	0x6
 6802 0f5c 91       		.byte	0x91
 6803 0f5d 907F     		.sleb128 -112
 6804 0f5f F6       		.byte	0xf6
 6805 0f60 08       		.byte	0x8
 6806 0f61 29       		.uleb128 0x29
 6807 0f62 00       		.byte	0
 6808 0f63 23       		.uleb128 0x23
 6809 0f64 E0050000 		.4byte	.LVL420
 6810 0f68 2A1E0000 		.4byte	0x1e2a
 6811 0f6c 23       		.uleb128 0x23
 6812 0f6d 04060000 		.4byte	.LVL424
 6813 0f71 5A1E0000 		.4byte	0x1e5a
 6814 0f75 23       		.uleb128 0x23
 6815 0f76 10060000 		.4byte	.LVL426
 6816 0f7a 5A1E0000 		.4byte	0x1e5a
 6817 0f7e 21       		.uleb128 0x21
 6818 0f7f 1C060000 		.4byte	.LVL429
 6819 0f83 721E0000 		.4byte	0x1e72
 6820 0f87 9B0F0000 		.4byte	0xf9b
 6821 0f8b 22       		.uleb128 0x22
ARM GAS  /tmp/ccj4yzJk.s 			page 121


 6822 0f8c 06       		.byte	0x6
 6823 0f8d 50       		.byte	0x50
 6824 0f8e 93       		.byte	0x93
 6825 0f8f 04       		.uleb128 0x4
 6826 0f90 51       		.byte	0x51
 6827 0f91 93       		.byte	0x93
 6828 0f92 04       		.uleb128 0x4
 6829 0f93 06       		.byte	0x6
 6830 0f94 91       		.byte	0x91
 6831 0f95 D87E     		.sleb128 -168
 6832 0f97 F6       		.byte	0xf6
 6833 0f98 08       		.byte	0x8
 6834 0f99 29       		.uleb128 0x29
 6835 0f9a 00       		.byte	0
 6836 0f9b 21       		.uleb128 0x21
 6837 0f9c 5E060000 		.4byte	.LVL434
 6838 0fa0 FA1D0000 		.4byte	0x1dfa
 6839 0fa4 B80F0000 		.4byte	0xfb8
 6840 0fa8 22       		.uleb128 0x22
 6841 0fa9 06       		.byte	0x6
 6842 0faa 50       		.byte	0x50
 6843 0fab 93       		.byte	0x93
 6844 0fac 04       		.uleb128 0x4
 6845 0fad 51       		.byte	0x51
 6846 0fae 93       		.byte	0x93
 6847 0faf 04       		.uleb128 0x4
 6848 0fb0 06       		.byte	0x6
 6849 0fb1 91       		.byte	0x91
 6850 0fb2 E07E     		.sleb128 -160
 6851 0fb4 F6       		.byte	0xf6
 6852 0fb5 08       		.byte	0x8
 6853 0fb6 29       		.uleb128 0x29
 6854 0fb7 00       		.byte	0
 6855 0fb8 23       		.uleb128 0x23
 6856 0fb9 62060000 		.4byte	.LVL435
 6857 0fbd 2A1E0000 		.4byte	0x1e2a
 6858 0fc1 23       		.uleb128 0x23
 6859 0fc2 6E060000 		.4byte	.LVL436
 6860 0fc6 FA1D0000 		.4byte	0x1dfa
 6861 0fca 23       		.uleb128 0x23
 6862 0fcb 72060000 		.4byte	.LVL437
 6863 0fcf 2A1E0000 		.4byte	0x1e2a
 6864 0fd3 21       		.uleb128 0x21
 6865 0fd4 9C060000 		.4byte	.LVL441
 6866 0fd8 FA1D0000 		.4byte	0x1dfa
 6867 0fdc F00F0000 		.4byte	0xff0
 6868 0fe0 22       		.uleb128 0x22
 6869 0fe1 06       		.byte	0x6
 6870 0fe2 50       		.byte	0x50
 6871 0fe3 93       		.byte	0x93
 6872 0fe4 04       		.uleb128 0x4
 6873 0fe5 51       		.byte	0x51
 6874 0fe6 93       		.byte	0x93
 6875 0fe7 04       		.uleb128 0x4
 6876 0fe8 06       		.byte	0x6
 6877 0fe9 91       		.byte	0x91
 6878 0fea 887F     		.sleb128 -120
ARM GAS  /tmp/ccj4yzJk.s 			page 122


 6879 0fec F6       		.byte	0xf6
 6880 0fed 08       		.byte	0x8
 6881 0fee 29       		.uleb128 0x29
 6882 0fef 00       		.byte	0
 6883 0ff0 23       		.uleb128 0x23
 6884 0ff1 A0060000 		.4byte	.LVL442
 6885 0ff5 121E0000 		.4byte	0x1e12
 6886 0ff9 21       		.uleb128 0x21
 6887 0ffa D4060000 		.4byte	.LVL447
 6888 0ffe FA1D0000 		.4byte	0x1dfa
 6889 1002 16100000 		.4byte	0x1016
 6890 1006 22       		.uleb128 0x22
 6891 1007 06       		.byte	0x6
 6892 1008 50       		.byte	0x50
 6893 1009 93       		.byte	0x93
 6894 100a 04       		.uleb128 0x4
 6895 100b 51       		.byte	0x51
 6896 100c 93       		.byte	0x93
 6897 100d 04       		.uleb128 0x4
 6898 100e 06       		.byte	0x6
 6899 100f 91       		.byte	0x91
 6900 1010 807F     		.sleb128 -128
 6901 1012 F6       		.byte	0xf6
 6902 1013 08       		.byte	0x8
 6903 1014 29       		.uleb128 0x29
 6904 1015 00       		.byte	0
 6905 1016 23       		.uleb128 0x23
 6906 1017 D8060000 		.4byte	.LVL448
 6907 101b 2A1E0000 		.4byte	0x1e2a
 6908 101f 23       		.uleb128 0x23
 6909 1020 E4060000 		.4byte	.LVL449
 6910 1024 FA1D0000 		.4byte	0x1dfa
 6911 1028 23       		.uleb128 0x23
 6912 1029 E8060000 		.4byte	.LVL450
 6913 102d 2A1E0000 		.4byte	0x1e2a
 6914 1031 21       		.uleb128 0x21
 6915 1032 12070000 		.4byte	.LVL453
 6916 1036 FA1D0000 		.4byte	0x1dfa
 6917 103a 4E100000 		.4byte	0x104e
 6918 103e 22       		.uleb128 0x22
 6919 103f 06       		.byte	0x6
 6920 1040 50       		.byte	0x50
 6921 1041 93       		.byte	0x93
 6922 1042 04       		.uleb128 0x4
 6923 1043 51       		.byte	0x51
 6924 1044 93       		.byte	0x93
 6925 1045 04       		.uleb128 0x4
 6926 1046 06       		.byte	0x6
 6927 1047 91       		.byte	0x91
 6928 1048 907F     		.sleb128 -112
 6929 104a F6       		.byte	0xf6
 6930 104b 08       		.byte	0x8
 6931 104c 29       		.uleb128 0x29
 6932 104d 00       		.byte	0
 6933 104e 23       		.uleb128 0x23
 6934 104f 16070000 		.4byte	.LVL454
 6935 1053 121E0000 		.4byte	0x1e12
ARM GAS  /tmp/ccj4yzJk.s 			page 123


 6936 1057 00       		.byte	0
 6937 1058 0C       		.uleb128 0xc
 6938 1059 01       		.byte	0x1
 6939 105a 69100000 		.4byte	0x1069
 6940 105e 0D       		.uleb128 0xd
 6941 105f 29000000 		.4byte	0x29
 6942 1063 0D       		.uleb128 0xd
 6943 1064 47010000 		.4byte	0x147
 6944 1068 00       		.byte	0
 6945 1069 0B       		.uleb128 0xb
 6946 106a 04       		.byte	0x4
 6947 106b 58100000 		.4byte	0x1058
 6948 106f 29       		.uleb128 0x29
 6949 1070 01       		.byte	0x1
 6950 1071 9B010000 		.4byte	.LASF45
 6951 1075 01       		.byte	0x1
 6952 1076 C701     		.2byte	0x1c7
 6953 1078 01       		.byte	0x1
 6954 1079 30000000 		.4byte	0x30
 6955 107d 00000000 		.4byte	.LFB9
 6956 1081 A4030000 		.4byte	.LFE9
 6957 1085 E1110000 		.4byte	.LLST95
 6958 1089 01       		.byte	0x1
 6959 108a 73130000 		.4byte	0x1373
 6960 108e 2A       		.uleb128 0x2a
 6961 108f 4A4400   		.ascii	"JD\000"
 6962 1092 01       		.byte	0x1
 6963 1093 C701     		.2byte	0x1c7
 6964 1095 29000000 		.4byte	0x29
 6965 1099 0E120000 		.4byte	.LLST96
 6966 109d 2B       		.uleb128 0x2b
 6967 109e 42030000 		.4byte	.LASF19
 6968 10a2 01       		.byte	0x1
 6969 10a3 C701     		.2byte	0x1c7
 6970 10a5 94010000 		.4byte	0x194
 6971 10a9 33120000 		.4byte	.LLST97
 6972 10ad 2B       		.uleb128 0x2b
 6973 10ae 33010000 		.4byte	.LASF38
 6974 10b2 01       		.byte	0x1
 6975 10b3 C701     		.2byte	0x1c7
 6976 10b5 69100000 		.4byte	0x1069
 6977 10b9 BD120000 		.4byte	.LLST98
 6978 10bd 2C       		.uleb128 0x2c
 6979 10be A0000000 		.4byte	.LASF20
 6980 10c2 01       		.byte	0x1
 6981 10c3 C701     		.2byte	0x1c7
 6982 10c5 29000000 		.4byte	0x29
 6983 10c9 02       		.byte	0x2
 6984 10ca 91       		.byte	0x91
 6985 10cb 00       		.sleb128 0
 6986 10cc 2C       		.uleb128 0x2c
 6987 10cd 7F030000 		.4byte	.LASF46
 6988 10d1 01       		.byte	0x1
 6989 10d2 C701     		.2byte	0x1c7
 6990 10d4 30000000 		.4byte	0x30
 6991 10d8 02       		.byte	0x2
 6992 10d9 91       		.byte	0x91
ARM GAS  /tmp/ccj4yzJk.s 			page 124


 6993 10da 08       		.sleb128 8
 6994 10db 2D       		.uleb128 0x2d
 6995 10dc 72737400 		.ascii	"rst\000"
 6996 10e0 01       		.byte	0x1
 6997 10e1 C701     		.2byte	0x1c7
 6998 10e3 CA010000 		.4byte	0x1ca
 6999 10e7 02       		.byte	0x2
 7000 10e8 91       		.byte	0x91
 7001 10e9 0C       		.sleb128 12
 7002 10ea 2E       		.uleb128 0x2e
 7003 10eb 72657400 		.ascii	"ret\000"
 7004 10ef 01       		.byte	0x1
 7005 10f0 C901     		.2byte	0x1c9
 7006 10f2 30000000 		.4byte	0x30
 7007 10f6 DB120000 		.4byte	.LLST99
 7008 10fa 30       		.uleb128 0x30
 7009 10fb FD010000 		.4byte	.LASF34
 7010 10ff 01       		.byte	0x1
 7011 1100 CA01     		.2byte	0x1ca
 7012 1102 E5000000 		.4byte	0xe5
 7013 1106 03       		.byte	0x3
 7014 1107 91       		.byte	0x91
 7015 1108 A87F     		.sleb128 -88
 7016 110a 30       		.uleb128 0x30
 7017 110b 03020000 		.4byte	.LASF35
 7018 110f 01       		.byte	0x1
 7019 1110 CA01     		.2byte	0x1ca
 7020 1112 E5000000 		.4byte	0xe5
 7021 1116 02       		.byte	0x2
 7022 1117 91       		.byte	0x91
 7023 1118 40       		.sleb128 -64
 7024 1119 32       		.uleb128 0x32
 7025 111a 9A010000 		.4byte	0x19a
 7026 111e 36000000 		.4byte	.LBB80
 7027 1122 F8000000 		.4byte	.Ldebug_ranges0+0xf8
 7028 1126 01       		.byte	0x1
 7029 1127 D801     		.2byte	0x1d8
 7030 1129 49110000 		.4byte	0x1149
 7031 112d 14       		.uleb128 0x14
 7032 112e BE010000 		.4byte	0x1be
 7033 1132 7E130000 		.4byte	.LLST100
 7034 1136 14       		.uleb128 0x14
 7035 1137 B3010000 		.4byte	0x1b3
 7036 113b A2130000 		.4byte	.LLST101
 7037 113f 14       		.uleb128 0x14
 7038 1140 A8010000 		.4byte	0x1a8
 7039 1144 D2130000 		.4byte	.LLST102
 7040 1148 00       		.byte	0
 7041 1149 34       		.uleb128 0x34
 7042 114a 72000000 		.4byte	.LBB83
 7043 114e 7A010000 		.4byte	.LBE83
 7044 1152 07120000 		.4byte	0x1207
 7045 1156 2E       		.uleb128 0x2e
 7046 1157 64617900 		.ascii	"day\000"
 7047 115b 01       		.byte	0x1
 7048 115c DE01     		.2byte	0x1de
 7049 115e 30000000 		.4byte	0x30
ARM GAS  /tmp/ccj4yzJk.s 			page 125


 7050 1162 F0130000 		.4byte	.LLST103
 7051 1166 21       		.uleb128 0x21
 7052 1167 A6000000 		.4byte	.LVL488
 7053 116b 0A0A0000 		.4byte	0xa0a
 7054 116f 8F110000 		.4byte	0x118f
 7055 1173 22       		.uleb128 0x22
 7056 1174 01       		.byte	0x1
 7057 1175 53       		.byte	0x53
 7058 1176 02       		.byte	0x2
 7059 1177 79       		.byte	0x79
 7060 1178 00       		.sleb128 0
 7061 1179 22       		.uleb128 0x22
 7062 117a 01       		.byte	0x1
 7063 117b 52       		.byte	0x52
 7064 117c 02       		.byte	0x2
 7065 117d 77       		.byte	0x77
 7066 117e 00       		.sleb128 0
 7067 117f 22       		.uleb128 0x22
 7068 1180 02       		.byte	0x2
 7069 1181 7D       		.byte	0x7d
 7070 1182 08       		.sleb128 8
 7071 1183 02       		.byte	0x2
 7072 1184 7A       		.byte	0x7a
 7073 1185 00       		.sleb128 0
 7074 1186 22       		.uleb128 0x22
 7075 1187 02       		.byte	0x2
 7076 1188 7D       		.byte	0x7d
 7077 1189 00       		.sleb128 0
 7078 118a 03       		.byte	0x3
 7079 118b F5       		.byte	0xf5
 7080 118c 04       		.uleb128 0x4
 7081 118d 29       		.uleb128 0x29
 7082 118e 00       		.byte	0
 7083 118f 21       		.uleb128 0x21
 7084 1190 D6000000 		.4byte	.LVL492
 7085 1194 0A0A0000 		.4byte	0xa0a
 7086 1198 B8110000 		.4byte	0x11b8
 7087 119c 22       		.uleb128 0x22
 7088 119d 01       		.byte	0x1
 7089 119e 53       		.byte	0x53
 7090 119f 02       		.byte	0x2
 7091 11a0 79       		.byte	0x79
 7092 11a1 00       		.sleb128 0
 7093 11a2 22       		.uleb128 0x22
 7094 11a3 01       		.byte	0x1
 7095 11a4 52       		.byte	0x52
 7096 11a5 02       		.byte	0x2
 7097 11a6 77       		.byte	0x77
 7098 11a7 00       		.sleb128 0
 7099 11a8 22       		.uleb128 0x22
 7100 11a9 02       		.byte	0x2
 7101 11aa 7D       		.byte	0x7d
 7102 11ab 08       		.sleb128 8
 7103 11ac 02       		.byte	0x2
 7104 11ad 7A       		.byte	0x7a
 7105 11ae 00       		.sleb128 0
 7106 11af 22       		.uleb128 0x22
ARM GAS  /tmp/ccj4yzJk.s 			page 126


 7107 11b0 02       		.byte	0x2
 7108 11b1 7D       		.byte	0x7d
 7109 11b2 00       		.sleb128 0
 7110 11b3 03       		.byte	0x3
 7111 11b4 F5       		.byte	0xf5
 7112 11b5 04       		.uleb128 0x4
 7113 11b6 29       		.uleb128 0x29
 7114 11b7 00       		.byte	0
 7115 11b8 21       		.uleb128 0x21
 7116 11b9 0A010000 		.4byte	.LVL497
 7117 11bd 0A0A0000 		.4byte	0xa0a
 7118 11c1 E1110000 		.4byte	0x11e1
 7119 11c5 22       		.uleb128 0x22
 7120 11c6 01       		.byte	0x1
 7121 11c7 53       		.byte	0x53
 7122 11c8 02       		.byte	0x2
 7123 11c9 79       		.byte	0x79
 7124 11ca 00       		.sleb128 0
 7125 11cb 22       		.uleb128 0x22
 7126 11cc 01       		.byte	0x1
 7127 11cd 52       		.byte	0x52
 7128 11ce 02       		.byte	0x2
 7129 11cf 74       		.byte	0x74
 7130 11d0 00       		.sleb128 0
 7131 11d1 22       		.uleb128 0x22
 7132 11d2 02       		.byte	0x2
 7133 11d3 7D       		.byte	0x7d
 7134 11d4 08       		.sleb128 8
 7135 11d5 02       		.byte	0x2
 7136 11d6 7A       		.byte	0x7a
 7137 11d7 00       		.sleb128 0
 7138 11d8 22       		.uleb128 0x22
 7139 11d9 02       		.byte	0x2
 7140 11da 7D       		.byte	0x7d
 7141 11db 00       		.sleb128 0
 7142 11dc 03       		.byte	0x3
 7143 11dd F5       		.byte	0xf5
 7144 11de 06       		.uleb128 0x6
 7145 11df 29       		.uleb128 0x29
 7146 11e0 00       		.byte	0
 7147 11e1 25       		.uleb128 0x25
 7148 11e2 32010000 		.4byte	.LVL500
 7149 11e6 0A0A0000 		.4byte	0xa0a
 7150 11ea 22       		.uleb128 0x22
 7151 11eb 01       		.byte	0x1
 7152 11ec 53       		.byte	0x53
 7153 11ed 02       		.byte	0x2
 7154 11ee 79       		.byte	0x79
 7155 11ef 00       		.sleb128 0
 7156 11f0 22       		.uleb128 0x22
 7157 11f1 01       		.byte	0x1
 7158 11f2 52       		.byte	0x52
 7159 11f3 02       		.byte	0x2
 7160 11f4 74       		.byte	0x74
 7161 11f5 00       		.sleb128 0
 7162 11f6 22       		.uleb128 0x22
 7163 11f7 02       		.byte	0x2
ARM GAS  /tmp/ccj4yzJk.s 			page 127


 7164 11f8 7D       		.byte	0x7d
 7165 11f9 08       		.sleb128 8
 7166 11fa 02       		.byte	0x2
 7167 11fb 7A       		.byte	0x7a
 7168 11fc 00       		.sleb128 0
 7169 11fd 22       		.uleb128 0x22
 7170 11fe 02       		.byte	0x2
 7171 11ff 7D       		.byte	0x7d
 7172 1200 00       		.sleb128 0
 7173 1201 03       		.byte	0x3
 7174 1202 F5       		.byte	0xf5
 7175 1203 06       		.uleb128 0x6
 7176 1204 29       		.uleb128 0x29
 7177 1205 00       		.byte	0
 7178 1206 00       		.byte	0
 7179 1207 32       		.uleb128 0x32
 7180 1208 D0010000 		.4byte	0x1d0
 7181 120c 7E010000 		.4byte	.LBB84
 7182 1210 10010000 		.4byte	.Ldebug_ranges0+0x110
 7183 1214 01       		.byte	0x1
 7184 1215 F201     		.2byte	0x1f2
 7185 1217 40120000 		.4byte	0x1240
 7186 121b 14       		.uleb128 0x14
 7187 121c 02020000 		.4byte	0x202
 7188 1220 30140000 		.4byte	.LLST104
 7189 1224 14       		.uleb128 0x14
 7190 1225 F7010000 		.4byte	0x1f7
 7191 1229 58140000 		.4byte	.LLST105
 7192 122d 14       		.uleb128 0x14
 7193 122e EC010000 		.4byte	0x1ec
 7194 1232 7A140000 		.4byte	.LLST106
 7195 1236 14       		.uleb128 0x14
 7196 1237 E2010000 		.4byte	0x1e2
 7197 123b A2140000 		.4byte	.LLST107
 7198 123f 00       		.byte	0
 7199 1240 32       		.uleb128 0x32
 7200 1241 D0010000 		.4byte	0x1d0
 7201 1245 AA010000 		.4byte	.LBB87
 7202 1249 28010000 		.4byte	.Ldebug_ranges0+0x128
 7203 124d 01       		.byte	0x1
 7204 124e F301     		.2byte	0x1f3
 7205 1250 79120000 		.4byte	0x1279
 7206 1254 14       		.uleb128 0x14
 7207 1255 02020000 		.4byte	0x202
 7208 1259 C4140000 		.4byte	.LLST108
 7209 125d 14       		.uleb128 0x14
 7210 125e F7010000 		.4byte	0x1f7
 7211 1262 E6140000 		.4byte	.LLST109
 7212 1266 14       		.uleb128 0x14
 7213 1267 EC010000 		.4byte	0x1ec
 7214 126b 08150000 		.4byte	.LLST110
 7215 126f 14       		.uleb128 0x14
 7216 1270 E2010000 		.4byte	0x1e2
 7217 1274 30150000 		.4byte	.LLST111
 7218 1278 00       		.byte	0
 7219 1279 32       		.uleb128 0x32
 7220 127a D0010000 		.4byte	0x1d0
ARM GAS  /tmp/ccj4yzJk.s 			page 128


 7221 127e D6010000 		.4byte	.LBB90
 7222 1282 40010000 		.4byte	.Ldebug_ranges0+0x140
 7223 1286 01       		.byte	0x1
 7224 1287 F401     		.2byte	0x1f4
 7225 1289 B2120000 		.4byte	0x12b2
 7226 128d 14       		.uleb128 0x14
 7227 128e 02020000 		.4byte	0x202
 7228 1292 52150000 		.4byte	.LLST112
 7229 1296 14       		.uleb128 0x14
 7230 1297 F7010000 		.4byte	0x1f7
 7231 129b 7A150000 		.4byte	.LLST113
 7232 129f 14       		.uleb128 0x14
 7233 12a0 EC010000 		.4byte	0x1ec
 7234 12a4 9C150000 		.4byte	.LLST114
 7235 12a8 14       		.uleb128 0x14
 7236 12a9 E2010000 		.4byte	0x1e2
 7237 12ad C4150000 		.4byte	.LLST115
 7238 12b1 00       		.byte	0
 7239 12b2 35       		.uleb128 0x35
 7240 12b3 9A010000 		.4byte	0x19a
 7241 12b7 06030000 		.4byte	.LBB94
 7242 12bb 44030000 		.4byte	.LBE94
 7243 12bf 01       		.byte	0x1
 7244 12c0 EF01     		.2byte	0x1ef
 7245 12c2 E2120000 		.4byte	0x12e2
 7246 12c6 14       		.uleb128 0x14
 7247 12c7 BE010000 		.4byte	0x1be
 7248 12cb E6150000 		.4byte	.LLST116
 7249 12cf 14       		.uleb128 0x14
 7250 12d0 B3010000 		.4byte	0x1b3
 7251 12d4 FB150000 		.4byte	.LLST117
 7252 12d8 14       		.uleb128 0x14
 7253 12d9 A8010000 		.4byte	0x1a8
 7254 12dd 17160000 		.4byte	.LLST118
 7255 12e1 00       		.byte	0
 7256 12e2 35       		.uleb128 0x35
 7257 12e3 9A010000 		.4byte	0x19a
 7258 12e7 44030000 		.4byte	.LBB96
 7259 12eb 84030000 		.4byte	.LBE96
 7260 12ef 01       		.byte	0x1
 7261 12f0 D401     		.2byte	0x1d4
 7262 12f2 12130000 		.4byte	0x1312
 7263 12f6 14       		.uleb128 0x14
 7264 12f7 BE010000 		.4byte	0x1be
 7265 12fb 2A160000 		.4byte	.LLST119
 7266 12ff 14       		.uleb128 0x14
 7267 1300 B3010000 		.4byte	0x1b3
 7268 1304 40160000 		.4byte	.LLST120
 7269 1308 14       		.uleb128 0x14
 7270 1309 A8010000 		.4byte	0x1a8
 7271 130d 5C160000 		.4byte	.LLST121
 7272 1311 00       		.byte	0
 7273 1312 21       		.uleb128 0x21
 7274 1313 26000000 		.4byte	.LVL478
 7275 1317 0A0A0000 		.4byte	0xa0a
 7276 131b 4A130000 		.4byte	0x134a
 7277 131f 22       		.uleb128 0x22
ARM GAS  /tmp/ccj4yzJk.s 			page 129


 7278 1320 01       		.byte	0x1
 7279 1321 53       		.byte	0x53
 7280 1322 02       		.byte	0x2
 7281 1323 79       		.byte	0x79
 7282 1324 00       		.sleb128 0
 7283 1325 22       		.uleb128 0x22
 7284 1326 01       		.byte	0x1
 7285 1327 52       		.byte	0x52
 7286 1328 02       		.byte	0x2
 7287 1329 77       		.byte	0x77
 7288 132a 00       		.sleb128 0
 7289 132b 22       		.uleb128 0x22
 7290 132c 06       		.byte	0x6
 7291 132d 50       		.byte	0x50
 7292 132e 93       		.byte	0x93
 7293 132f 04       		.uleb128 0x4
 7294 1330 51       		.byte	0x51
 7295 1331 93       		.byte	0x93
 7296 1332 04       		.uleb128 0x4
 7297 1333 06       		.byte	0x6
 7298 1334 91       		.byte	0x91
 7299 1335 F87E     		.sleb128 -136
 7300 1337 F6       		.byte	0xf6
 7301 1338 08       		.byte	0x8
 7302 1339 29       		.uleb128 0x29
 7303 133a 22       		.uleb128 0x22
 7304 133b 02       		.byte	0x2
 7305 133c 7D       		.byte	0x7d
 7306 133d 08       		.sleb128 8
 7307 133e 02       		.byte	0x2
 7308 133f 78       		.byte	0x78
 7309 1340 00       		.sleb128 0
 7310 1341 22       		.uleb128 0x22
 7311 1342 02       		.byte	0x2
 7312 1343 7D       		.byte	0x7d
 7313 1344 00       		.sleb128 0
 7314 1345 03       		.byte	0x3
 7315 1346 F5       		.byte	0xf5
 7316 1347 04       		.uleb128 0x4
 7317 1348 29       		.uleb128 0x29
 7318 1349 00       		.byte	0
 7319 134a 25       		.uleb128 0x25
 7320 134b BA020000 		.4byte	.LVL531
 7321 134f 0A0A0000 		.4byte	0xa0a
 7322 1353 22       		.uleb128 0x22
 7323 1354 01       		.byte	0x1
 7324 1355 53       		.byte	0x53
 7325 1356 02       		.byte	0x2
 7326 1357 79       		.byte	0x79
 7327 1358 00       		.sleb128 0
 7328 1359 22       		.uleb128 0x22
 7329 135a 01       		.byte	0x1
 7330 135b 52       		.byte	0x52
 7331 135c 02       		.byte	0x2
 7332 135d 77       		.byte	0x77
 7333 135e 00       		.sleb128 0
 7334 135f 22       		.uleb128 0x22
ARM GAS  /tmp/ccj4yzJk.s 			page 130


 7335 1360 02       		.byte	0x2
 7336 1361 7D       		.byte	0x7d
 7337 1362 08       		.sleb128 8
 7338 1363 03       		.byte	0x3
 7339 1364 91       		.byte	0x91
 7340 1365 A87F     		.sleb128 -88
 7341 1367 22       		.uleb128 0x22
 7342 1368 02       		.byte	0x2
 7343 1369 7D       		.byte	0x7d
 7344 136a 00       		.sleb128 0
 7345 136b 05       		.byte	0x5
 7346 136c 91       		.byte	0x91
 7347 136d 00       		.sleb128 0
 7348 136e F6       		.byte	0xf6
 7349 136f 08       		.byte	0x8
 7350 1370 29       		.uleb128 0x29
 7351 1371 00       		.byte	0
 7352 1372 00       		.byte	0
 7353 1373 36       		.uleb128 0x36
 7354 1374 01       		.byte	0x1
 7355 1375 B0020000 		.4byte	.LASF47
 7356 1379 01       		.byte	0x1
 7357 137a A901     		.2byte	0x1a9
 7358 137c 01       		.byte	0x1
 7359 137d 30000000 		.4byte	0x30
 7360 1381 00000000 		.4byte	.LFB8
 7361 1385 1C000000 		.4byte	.LFE8
 7362 1389 6F160000 		.4byte	.LLST122
 7363 138d 01       		.byte	0x1
 7364 138e 1D140000 		.4byte	0x141d
 7365 1392 2A       		.uleb128 0x2a
 7366 1393 4A4400   		.ascii	"JD\000"
 7367 1396 01       		.byte	0x1
 7368 1397 A901     		.2byte	0x1a9
 7369 1399 29000000 		.4byte	0x29
 7370 139d 9B160000 		.4byte	.LLST123
 7371 13a1 2B       		.uleb128 0x2b
 7372 13a2 42030000 		.4byte	.LASF19
 7373 13a6 01       		.byte	0x1
 7374 13a7 A901     		.2byte	0x1a9
 7375 13a9 94010000 		.4byte	0x194
 7376 13ad C3160000 		.4byte	.LLST124
 7377 13b1 2B       		.uleb128 0x2b
 7378 13b2 33010000 		.4byte	.LASF38
 7379 13b6 01       		.byte	0x1
 7380 13b7 AA01     		.2byte	0x1aa
 7381 13b9 69100000 		.4byte	0x1069
 7382 13bd E4160000 		.4byte	.LLST125
 7383 13c1 2C       		.uleb128 0x2c
 7384 13c2 A0000000 		.4byte	.LASF20
 7385 13c6 01       		.byte	0x1
 7386 13c7 AA01     		.2byte	0x1aa
 7387 13c9 29000000 		.4byte	0x29
 7388 13cd 02       		.byte	0x2
 7389 13ce 91       		.byte	0x91
 7390 13cf 00       		.sleb128 0
 7391 13d0 2D       		.uleb128 0x2d
ARM GAS  /tmp/ccj4yzJk.s 			page 131


 7392 13d1 72737400 		.ascii	"rst\000"
 7393 13d5 01       		.byte	0x1
 7394 13d6 AB01     		.2byte	0x1ab
 7395 13d8 CA010000 		.4byte	0x1ca
 7396 13dc 02       		.byte	0x2
 7397 13dd 91       		.byte	0x91
 7398 13de 08       		.sleb128 8
 7399 13df 25       		.uleb128 0x25
 7400 13e0 18000000 		.4byte	.LVL557
 7401 13e4 6F100000 		.4byte	0x106f
 7402 13e8 22       		.uleb128 0x22
 7403 13e9 01       		.byte	0x1
 7404 13ea 53       		.byte	0x53
 7405 13eb 03       		.byte	0x3
 7406 13ec F3       		.byte	0xf3
 7407 13ed 01       		.uleb128 0x1
 7408 13ee 53       		.byte	0x53
 7409 13ef 22       		.uleb128 0x22
 7410 13f0 01       		.byte	0x1
 7411 13f1 52       		.byte	0x52
 7412 13f2 03       		.byte	0x3
 7413 13f3 F3       		.byte	0xf3
 7414 13f4 01       		.uleb128 0x1
 7415 13f5 52       		.byte	0x52
 7416 13f6 22       		.uleb128 0x22
 7417 13f7 06       		.byte	0x6
 7418 13f8 50       		.byte	0x50
 7419 13f9 93       		.byte	0x93
 7420 13fa 04       		.uleb128 0x4
 7421 13fb 51       		.byte	0x51
 7422 13fc 93       		.byte	0x93
 7423 13fd 04       		.uleb128 0x4
 7424 13fe 05       		.byte	0x5
 7425 13ff F3       		.byte	0xf3
 7426 1400 03       		.uleb128 0x3
 7427 1401 F5       		.byte	0xf5
 7428 1402 00       		.uleb128 0
 7429 1403 29       		.uleb128 0x29
 7430 1404 22       		.uleb128 0x22
 7431 1405 02       		.byte	0x2
 7432 1406 7D       		.byte	0x7d
 7433 1407 0C       		.sleb128 12
 7434 1408 02       		.byte	0x2
 7435 1409 74       		.byte	0x74
 7436 140a 00       		.sleb128 0
 7437 140b 22       		.uleb128 0x22
 7438 140c 02       		.byte	0x2
 7439 140d 7D       		.byte	0x7d
 7440 140e 08       		.sleb128 8
 7441 140f 01       		.byte	0x1
 7442 1410 31       		.byte	0x31
 7443 1411 22       		.uleb128 0x22
 7444 1412 02       		.byte	0x2
 7445 1413 7D       		.byte	0x7d
 7446 1414 00       		.sleb128 0
 7447 1415 05       		.byte	0x5
 7448 1416 91       		.byte	0x91
ARM GAS  /tmp/ccj4yzJk.s 			page 132


 7449 1417 00       		.sleb128 0
 7450 1418 F6       		.byte	0xf6
 7451 1419 08       		.byte	0x8
 7452 141a 29       		.uleb128 0x29
 7453 141b 00       		.byte	0
 7454 141c 00       		.byte	0
 7455 141d 29       		.uleb128 0x29
 7456 141e 01       		.byte	0x1
 7457 141f 07030000 		.4byte	.LASF48
 7458 1423 01       		.byte	0x1
 7459 1424 0702     		.2byte	0x207
 7460 1426 01       		.byte	0x1
 7461 1427 30000000 		.4byte	0x30
 7462 142b 00000000 		.4byte	.LFB10
 7463 142f 16070000 		.4byte	.LFE10
 7464 1433 05170000 		.4byte	.LLST126
 7465 1437 01       		.byte	0x1
 7466 1438 DD190000 		.4byte	0x19dd
 7467 143c 2A       		.uleb128 0x2a
 7468 143d 4A4400   		.ascii	"JD\000"
 7469 1440 01       		.byte	0x1
 7470 1441 0702     		.2byte	0x207
 7471 1443 29000000 		.4byte	0x29
 7472 1447 32170000 		.4byte	.LLST127
 7473 144b 2B       		.uleb128 0x2b
 7474 144c 42030000 		.4byte	.LASF19
 7475 1450 01       		.byte	0x1
 7476 1451 0702     		.2byte	0x207
 7477 1453 94010000 		.4byte	0x194
 7478 1457 5A170000 		.4byte	.LLST128
 7479 145b 2B       		.uleb128 0x2b
 7480 145c B0030000 		.4byte	.LASF49
 7481 1460 01       		.byte	0x1
 7482 1461 0702     		.2byte	0x207
 7483 1463 20010000 		.4byte	0x120
 7484 1467 78170000 		.4byte	.LLST129
 7485 146b 2C       		.uleb128 0x2c
 7486 146c F5030000 		.4byte	.LASF50
 7487 1470 01       		.byte	0x1
 7488 1471 0802     		.2byte	0x208
 7489 1473 76000000 		.4byte	0x76
 7490 1477 02       		.byte	0x2
 7491 1478 91       		.byte	0x91
 7492 1479 00       		.sleb128 0
 7493 147a 2C       		.uleb128 0x2c
 7494 147b A0000000 		.4byte	.LASF20
 7495 147f 01       		.byte	0x1
 7496 1480 0802     		.2byte	0x208
 7497 1482 29000000 		.4byte	0x29
 7498 1486 02       		.byte	0x2
 7499 1487 91       		.byte	0x91
 7500 1488 08       		.sleb128 8
 7501 1489 2D       		.uleb128 0x2d
 7502 148a 72737400 		.ascii	"rst\000"
 7503 148e 01       		.byte	0x1
 7504 148f 0802     		.2byte	0x208
 7505 1491 CA010000 		.4byte	0x1ca
ARM GAS  /tmp/ccj4yzJk.s 			page 133


 7506 1495 02       		.byte	0x2
 7507 1496 91       		.byte	0x91
 7508 1497 10       		.sleb128 16
 7509 1498 2E       		.uleb128 0x2e
 7510 1499 6A6400   		.ascii	"jd\000"
 7511 149c 01       		.byte	0x1
 7512 149d 0A02     		.2byte	0x20a
 7513 149f 30000000 		.4byte	0x30
 7514 14a3 A4170000 		.4byte	.LLST130
 7515 14a7 2E       		.uleb128 0x2e
 7516 14a8 5400     		.ascii	"T\000"
 7517 14aa 01       		.byte	0x1
 7518 14ab 0B02     		.2byte	0x20b
 7519 14ad 29000000 		.4byte	0x29
 7520 14b1 BE170000 		.4byte	.LLST131
 7521 14b5 2E       		.uleb128 0x2e
 7522 14b6 4F00     		.ascii	"O\000"
 7523 14b8 01       		.byte	0x1
 7524 14b9 0B02     		.2byte	0x20b
 7525 14bb 29000000 		.4byte	0x29
 7526 14bf E3170000 		.4byte	.LLST132
 7527 14c3 2F       		.uleb128 0x2f
 7528 14c4 D8020000 		.4byte	.LASF25
 7529 14c8 01       		.byte	0x1
 7530 14c9 0B02     		.2byte	0x20b
 7531 14cb 29000000 		.4byte	0x29
 7532 14cf 1F180000 		.4byte	.LLST133
 7533 14d3 2E       		.uleb128 0x2e
 7534 14d4 483000   		.ascii	"H0\000"
 7535 14d7 01       		.byte	0x1
 7536 14d8 0B02     		.2byte	0x20b
 7537 14da 29000000 		.4byte	0x29
 7538 14de 44180000 		.4byte	.LLST134
 7539 14e2 2E       		.uleb128 0x2e
 7540 14e3 483100   		.ascii	"H1\000"
 7541 14e6 01       		.byte	0x1
 7542 14e7 0B02     		.2byte	0x20b
 7543 14e9 29000000 		.4byte	0x29
 7544 14ed 6C180000 		.4byte	.LLST135
 7545 14f1 2E       		.uleb128 0x2e
 7546 14f2 48617400 		.ascii	"Hat\000"
 7547 14f6 01       		.byte	0x1
 7548 14f7 0C02     		.2byte	0x20c
 7549 14f9 29000000 		.4byte	0x29
 7550 14fd C4180000 		.4byte	.LLST136
 7551 1501 2E       		.uleb128 0x2e
 7552 1502 48617200 		.ascii	"Har\000"
 7553 1506 01       		.byte	0x1
 7554 1507 0C02     		.2byte	0x20c
 7555 1509 29000000 		.4byte	0x29
 7556 150d E9180000 		.4byte	.LLST137
 7557 1511 2E       		.uleb128 0x2e
 7558 1512 48617300 		.ascii	"Has\000"
 7559 1516 01       		.byte	0x1
 7560 1517 0C02     		.2byte	0x20c
 7561 1519 29000000 		.4byte	0x29
 7562 151d 0E190000 		.4byte	.LLST138
ARM GAS  /tmp/ccj4yzJk.s 			page 134


 7563 1521 37       		.uleb128 0x37
 7564 1522 67030000 		.4byte	.LASF26
 7565 1526 01       		.byte	0x1
 7566 1527 0C02     		.2byte	0x20c
 7567 1529 29000000 		.4byte	0x29
 7568 152d 37       		.uleb128 0x37
 7569 152e 4E010000 		.4byte	.LASF27
 7570 1532 01       		.byte	0x1
 7571 1533 0C02     		.2byte	0x20c
 7572 1535 29000000 		.4byte	0x29
 7573 1539 2E       		.uleb128 0x2e
 7574 153a 6D7400   		.ascii	"mt\000"
 7575 153d 01       		.byte	0x1
 7576 153e 0D02     		.2byte	0x20d
 7577 1540 29000000 		.4byte	0x29
 7578 1544 26190000 		.4byte	.LLST139
 7579 1548 2E       		.uleb128 0x2e
 7580 1549 6D7200   		.ascii	"mr\000"
 7581 154c 01       		.byte	0x1
 7582 154d 0D02     		.2byte	0x20d
 7583 154f 29000000 		.4byte	0x29
 7584 1553 99190000 		.4byte	.LLST140
 7585 1557 2E       		.uleb128 0x2e
 7586 1558 6D7300   		.ascii	"ms\000"
 7587 155b 01       		.byte	0x1
 7588 155c 0D02     		.2byte	0x20d
 7589 155e 29000000 		.4byte	0x29
 7590 1562 F0190000 		.4byte	.LLST141
 7591 1566 2E       		.uleb128 0x2e
 7592 1567 6D737400 		.ascii	"mst\000"
 7593 156b 01       		.byte	0x1
 7594 156c 0D02     		.2byte	0x20d
 7595 156e 29000000 		.4byte	0x29
 7596 1572 541A0000 		.4byte	.LLST142
 7597 1576 2E       		.uleb128 0x2e
 7598 1577 6D737200 		.ascii	"msr\000"
 7599 157b 01       		.byte	0x1
 7600 157c 0D02     		.2byte	0x20d
 7601 157e 29000000 		.4byte	0x29
 7602 1582 791A0000 		.4byte	.LLST143
 7603 1586 2E       		.uleb128 0x2e
 7604 1587 6D737300 		.ascii	"mss\000"
 7605 158b 01       		.byte	0x1
 7606 158c 0D02     		.2byte	0x20d
 7607 158e 29000000 		.4byte	0x29
 7608 1592 9E1A0000 		.4byte	.LLST144
 7609 1596 2E       		.uleb128 0x2e
 7610 1597 6E7400   		.ascii	"nt\000"
 7611 159a 01       		.byte	0x1
 7612 159b 0D02     		.2byte	0x20d
 7613 159d 29000000 		.4byte	0x29
 7614 15a1 C31A0000 		.4byte	.LLST145
 7615 15a5 2E       		.uleb128 0x2e
 7616 15a6 6E7200   		.ascii	"nr\000"
 7617 15a9 01       		.byte	0x1
 7618 15aa 0D02     		.2byte	0x20d
 7619 15ac 29000000 		.4byte	0x29
ARM GAS  /tmp/ccj4yzJk.s 			page 135


 7620 15b0 E81A0000 		.4byte	.LLST146
 7621 15b4 38       		.uleb128 0x38
 7622 15b5 6E7300   		.ascii	"ns\000"
 7623 15b8 01       		.byte	0x1
 7624 15b9 0D02     		.2byte	0x20d
 7625 15bb 29000000 		.4byte	0x29
 7626 15bf 30       		.uleb128 0x30
 7627 15c0 DE010000 		.4byte	.LASF39
 7628 15c4 01       		.byte	0x1
 7629 15c5 0E02     		.2byte	0x20e
 7630 15c7 94000000 		.4byte	0x94
 7631 15cb 03       		.byte	0x3
 7632 15cc 91       		.byte	0x91
 7633 15cd A87F     		.sleb128 -88
 7634 15cf 30       		.uleb128 0x30
 7635 15d0 E3010000 		.4byte	.LASF40
 7636 15d4 01       		.byte	0x1
 7637 15d5 0E02     		.2byte	0x20e
 7638 15d7 94000000 		.4byte	0x94
 7639 15db 03       		.byte	0x3
 7640 15dc 91       		.byte	0x91
 7641 15dd B87F     		.sleb128 -72
 7642 15df 30       		.uleb128 0x30
 7643 15e0 E8010000 		.4byte	.LASF41
 7644 15e4 01       		.byte	0x1
 7645 15e5 0E02     		.2byte	0x20e
 7646 15e7 94000000 		.4byte	0x94
 7647 15eb 02       		.byte	0x2
 7648 15ec 91       		.byte	0x91
 7649 15ed 48       		.sleb128 -56
 7650 15ee 2F       		.uleb128 0x2f
 7651 15ef 37020000 		.4byte	.LASF42
 7652 15f3 01       		.byte	0x1
 7653 15f4 0E02     		.2byte	0x20e
 7654 15f6 94000000 		.4byte	0x94
 7655 15fa 0D1B0000 		.4byte	.LLST147
 7656 15fe 2F       		.uleb128 0x2f
 7657 15ff 2D020000 		.4byte	.LASF43
 7658 1603 01       		.byte	0x1
 7659 1604 0E02     		.2byte	0x20e
 7660 1606 94000000 		.4byte	0x94
 7661 160a 381B0000 		.4byte	.LLST148
 7662 160e 2F       		.uleb128 0x2f
 7663 160f 32020000 		.4byte	.LASF44
 7664 1613 01       		.byte	0x1
 7665 1614 0E02     		.2byte	0x20e
 7666 1616 94000000 		.4byte	0x94
 7667 161a 8C1B0000 		.4byte	.LLST149
 7668 161e 2E       		.uleb128 0x2e
 7669 161f 646D7400 		.ascii	"dmt\000"
 7670 1623 01       		.byte	0x1
 7671 1624 0F02     		.2byte	0x20f
 7672 1626 29000000 		.4byte	0x29
 7673 162a E21B0000 		.4byte	.LLST150
 7674 162e 38       		.uleb128 0x38
 7675 162f 646D7200 		.ascii	"dmr\000"
 7676 1633 01       		.byte	0x1
ARM GAS  /tmp/ccj4yzJk.s 			page 136


 7677 1634 0F02     		.2byte	0x20f
 7678 1636 29000000 		.4byte	0x29
 7679 163a 2E       		.uleb128 0x2e
 7680 163b 646D7300 		.ascii	"dms\000"
 7681 163f 01       		.byte	0x1
 7682 1640 0F02     		.2byte	0x20f
 7683 1642 29000000 		.4byte	0x29
 7684 1646 081C0000 		.4byte	.LLST151
 7685 164a 31       		.uleb128 0x31
 7686 164b 72657400 		.ascii	"ret\000"
 7687 164f 01       		.byte	0x1
 7688 1650 1002     		.2byte	0x210
 7689 1652 30000000 		.4byte	0x30
 7690 1656 01       		.byte	0x1
 7691 1657 53       		.byte	0x53
 7692 1658 32       		.uleb128 0x32
 7693 1659 4D010000 		.4byte	0x14d
 7694 165d EE000000 		.4byte	.LBB101
 7695 1661 58010000 		.4byte	.Ldebug_ranges0+0x158
 7696 1665 01       		.byte	0x1
 7697 1666 2702     		.2byte	0x227
 7698 1668 9E160000 		.4byte	0x169e
 7699 166c 15       		.uleb128 0x15
 7700 166d 7F010000 		.4byte	0x17f
 7701 1671 04       		.byte	0x4
 7702 1672 91       		.byte	0x91
 7703 1673 B87F     		.sleb128 -72
 7704 1675 9F       		.byte	0x9f
 7705 1676 15       		.uleb128 0x15
 7706 1677 74010000 		.4byte	0x174
 7707 167b 02       		.byte	0x2
 7708 167c 91       		.byte	0x91
 7709 167d 08       		.sleb128 8
 7710 167e 14       		.uleb128 0x14
 7711 167f 6A010000 		.4byte	0x16a
 7712 1683 201C0000 		.4byte	.LLST152
 7713 1687 15       		.uleb128 0x15
 7714 1688 5F010000 		.4byte	0x15f
 7715 168c 01       		.byte	0x1
 7716 168d 57       		.byte	0x57
 7717 168e 20       		.uleb128 0x20
 7718 168f 80010000 		.4byte	.Ldebug_ranges0+0x180
 7719 1693 16       		.uleb128 0x16
 7720 1694 8A010000 		.4byte	0x18a
 7721 1698 681C0000 		.4byte	.LLST153
 7722 169c 00       		.byte	0
 7723 169d 00       		.byte	0
 7724 169e 21       		.uleb128 0x21
 7725 169f 14000000 		.4byte	.LVL559
 7726 16a3 8A1E0000 		.4byte	0x1e8a
 7727 16a7 BA160000 		.4byte	0x16ba
 7728 16ab 22       		.uleb128 0x22
 7729 16ac 06       		.byte	0x6
 7730 16ad 50       		.byte	0x50
 7731 16ae 93       		.byte	0x93
 7732 16af 04       		.uleb128 0x4
 7733 16b0 51       		.byte	0x51
ARM GAS  /tmp/ccj4yzJk.s 			page 137


 7734 16b1 93       		.byte	0x93
 7735 16b2 04       		.uleb128 0x4
 7736 16b3 05       		.byte	0x5
 7737 16b4 F3       		.byte	0xf3
 7738 16b5 03       		.uleb128 0x3
 7739 16b6 F5       		.byte	0xf5
 7740 16b7 00       		.uleb128 0
 7741 16b8 29       		.uleb128 0x29
 7742 16b9 00       		.byte	0
 7743 16ba 21       		.uleb128 0x21
 7744 16bb 38000000 		.4byte	.LVL566
 7745 16bf E21D0000 		.4byte	0x1de2
 7746 16c3 D7160000 		.4byte	0x16d7
 7747 16c7 22       		.uleb128 0x22
 7748 16c8 06       		.byte	0x6
 7749 16c9 50       		.byte	0x50
 7750 16ca 93       		.byte	0x93
 7751 16cb 04       		.uleb128 0x4
 7752 16cc 51       		.byte	0x51
 7753 16cd 93       		.byte	0x93
 7754 16ce 04       		.uleb128 0x4
 7755 16cf 06       		.byte	0x6
 7756 16d0 91       		.byte	0x91
 7757 16d1 C87E     		.sleb128 -184
 7758 16d3 F6       		.byte	0xf6
 7759 16d4 08       		.byte	0x8
 7760 16d5 29       		.uleb128 0x29
 7761 16d6 00       		.byte	0
 7762 16d7 33       		.uleb128 0x33
 7763 16d8 52000000 		.4byte	.LVL569
 7764 16dc 02       		.byte	0x2
 7765 16dd 78       		.byte	0x78
 7766 16de 00       		.sleb128 0
 7767 16df F1160000 		.4byte	0x16f1
 7768 16e3 22       		.uleb128 0x22
 7769 16e4 01       		.byte	0x1
 7770 16e5 53       		.byte	0x53
 7771 16e6 03       		.byte	0x3
 7772 16e7 91       		.byte	0x91
 7773 16e8 A87F     		.sleb128 -88
 7774 16ea 22       		.uleb128 0x22
 7775 16eb 01       		.byte	0x1
 7776 16ec 52       		.byte	0x52
 7777 16ed 02       		.byte	0x2
 7778 16ee 76       		.byte	0x76
 7779 16ef 00       		.sleb128 0
 7780 16f0 00       		.byte	0
 7781 16f1 33       		.uleb128 0x33
 7782 16f2 5C000000 		.4byte	.LVL570
 7783 16f6 02       		.byte	0x2
 7784 16f7 78       		.byte	0x78
 7785 16f8 00       		.sleb128 0
 7786 16f9 1A170000 		.4byte	0x171a
 7787 16fd 22       		.uleb128 0x22
 7788 16fe 01       		.byte	0x1
 7789 16ff 53       		.byte	0x53
 7790 1700 03       		.byte	0x3
ARM GAS  /tmp/ccj4yzJk.s 			page 138


 7791 1701 91       		.byte	0x91
 7792 1702 B87F     		.sleb128 -72
 7793 1704 22       		.uleb128 0x22
 7794 1705 01       		.byte	0x1
 7795 1706 52       		.byte	0x52
 7796 1707 02       		.byte	0x2
 7797 1708 76       		.byte	0x76
 7798 1709 00       		.sleb128 0
 7799 170a 22       		.uleb128 0x22
 7800 170b 06       		.byte	0x6
 7801 170c 50       		.byte	0x50
 7802 170d 93       		.byte	0x93
 7803 170e 04       		.uleb128 0x4
 7804 170f 51       		.byte	0x51
 7805 1710 93       		.byte	0x93
 7806 1711 04       		.uleb128 0x4
 7807 1712 06       		.byte	0x6
 7808 1713 91       		.byte	0x91
 7809 1714 C87E     		.sleb128 -184
 7810 1716 F6       		.byte	0xf6
 7811 1717 08       		.byte	0x8
 7812 1718 29       		.uleb128 0x29
 7813 1719 00       		.byte	0
 7814 171a 33       		.uleb128 0x33
 7815 171b 72000000 		.4byte	.LVL572
 7816 171f 02       		.byte	0x2
 7817 1720 78       		.byte	0x78
 7818 1721 00       		.sleb128 0
 7819 1722 33170000 		.4byte	0x1733
 7820 1726 22       		.uleb128 0x22
 7821 1727 01       		.byte	0x1
 7822 1728 53       		.byte	0x53
 7823 1729 02       		.byte	0x2
 7824 172a 91       		.byte	0x91
 7825 172b 48       		.sleb128 -56
 7826 172c 22       		.uleb128 0x22
 7827 172d 01       		.byte	0x1
 7828 172e 52       		.byte	0x52
 7829 172f 02       		.byte	0x2
 7830 1730 76       		.byte	0x76
 7831 1731 00       		.sleb128 0
 7832 1732 00       		.byte	0
 7833 1733 21       		.uleb128 0x21
 7834 1734 7A000000 		.4byte	.LVL573
 7835 1738 FA1D0000 		.4byte	0x1dfa
 7836 173c 4F170000 		.4byte	0x174f
 7837 1740 22       		.uleb128 0x22
 7838 1741 06       		.byte	0x6
 7839 1742 50       		.byte	0x50
 7840 1743 93       		.byte	0x93
 7841 1744 04       		.uleb128 0x4
 7842 1745 51       		.byte	0x51
 7843 1746 93       		.byte	0x93
 7844 1747 04       		.uleb128 0x4
 7845 1748 05       		.byte	0x5
 7846 1749 91       		.byte	0x91
 7847 174a 08       		.sleb128 8
ARM GAS  /tmp/ccj4yzJk.s 			page 139


 7848 174b F6       		.byte	0xf6
 7849 174c 08       		.byte	0x8
 7850 174d 29       		.uleb128 0x29
 7851 174e 00       		.byte	0
 7852 174f 23       		.uleb128 0x23
 7853 1750 7E000000 		.4byte	.LVL574
 7854 1754 121E0000 		.4byte	0x1e12
 7855 1758 23       		.uleb128 0x23
 7856 1759 8A000000 		.4byte	.LVL576
 7857 175d FA1D0000 		.4byte	0x1dfa
 7858 1761 23       		.uleb128 0x23
 7859 1762 8E000000 		.4byte	.LVL577
 7860 1766 121E0000 		.4byte	0x1e12
 7861 176a 23       		.uleb128 0x23
 7862 176b 9A000000 		.4byte	.LVL579
 7863 176f FA1D0000 		.4byte	0x1dfa
 7864 1773 23       		.uleb128 0x23
 7865 1774 9E000000 		.4byte	.LVL580
 7866 1778 121E0000 		.4byte	0x1e12
 7867 177c 23       		.uleb128 0x23
 7868 177d C2000000 		.4byte	.LVL584
 7869 1781 FA1D0000 		.4byte	0x1dfa
 7870 1785 23       		.uleb128 0x23
 7871 1786 C6000000 		.4byte	.LVL585
 7872 178a 2A1E0000 		.4byte	0x1e2a
 7873 178e 23       		.uleb128 0x23
 7874 178f D2000000 		.4byte	.LVL586
 7875 1793 FA1D0000 		.4byte	0x1dfa
 7876 1797 23       		.uleb128 0x23
 7877 1798 D6000000 		.4byte	.LVL587
 7878 179c 2A1E0000 		.4byte	0x1e2a
 7879 17a0 23       		.uleb128 0x23
 7880 17a1 B0010000 		.4byte	.LVL611
 7881 17a5 421E0000 		.4byte	0x1e42
 7882 17a9 23       		.uleb128 0x23
 7883 17aa B4010000 		.4byte	.LVL612
 7884 17ae 5A1E0000 		.4byte	0x1e5a
 7885 17b2 21       		.uleb128 0x21
 7886 17b3 1A040000 		.4byte	.LVL670
 7887 17b7 A21E0000 		.4byte	0x1ea2
 7888 17bb EE170000 		.4byte	0x17ee
 7889 17bf 22       		.uleb128 0x22
 7890 17c0 06       		.byte	0x6
 7891 17c1 52       		.byte	0x52
 7892 17c2 93       		.byte	0x93
 7893 17c3 04       		.uleb128 0x4
 7894 17c4 53       		.byte	0x53
 7895 17c5 93       		.byte	0x93
 7896 17c6 04       		.uleb128 0x4
 7897 17c7 06       		.byte	0x6
 7898 17c8 91       		.byte	0x91
 7899 17c9 E07E     		.sleb128 -160
 7900 17cb F6       		.byte	0xf6
 7901 17cc 08       		.byte	0x8
 7902 17cd 29       		.uleb128 0x29
 7903 17ce 22       		.uleb128 0x22
 7904 17cf 06       		.byte	0x6
ARM GAS  /tmp/ccj4yzJk.s 			page 140


 7905 17d0 50       		.byte	0x50
 7906 17d1 93       		.byte	0x93
 7907 17d2 04       		.uleb128 0x4
 7908 17d3 51       		.byte	0x51
 7909 17d4 93       		.byte	0x93
 7910 17d5 04       		.uleb128 0x4
 7911 17d6 06       		.byte	0x6
 7912 17d7 91       		.byte	0x91
 7913 17d8 D07E     		.sleb128 -176
 7914 17da F6       		.byte	0xf6
 7915 17db 08       		.byte	0x8
 7916 17dc 29       		.uleb128 0x29
 7917 17dd 22       		.uleb128 0x22
 7918 17de 02       		.byte	0x2
 7919 17df 7D       		.byte	0x7d
 7920 17e0 08       		.sleb128 8
 7921 17e1 03       		.byte	0x3
 7922 17e2 F5       		.byte	0xf5
 7923 17e3 0A       		.uleb128 0xa
 7924 17e4 29       		.uleb128 0x29
 7925 17e5 22       		.uleb128 0x22
 7926 17e6 02       		.byte	0x2
 7927 17e7 7D       		.byte	0x7d
 7928 17e8 00       		.sleb128 0
 7929 17e9 03       		.byte	0x3
 7930 17ea F5       		.byte	0xf5
 7931 17eb 04       		.uleb128 0x4
 7932 17ec 29       		.uleb128 0x29
 7933 17ed 00       		.byte	0
 7934 17ee 21       		.uleb128 0x21
 7935 17ef 3A040000 		.4byte	.LVL673
 7936 17f3 A21E0000 		.4byte	0x1ea2
 7937 17f7 13180000 		.4byte	0x1813
 7938 17fb 22       		.uleb128 0x22
 7939 17fc 06       		.byte	0x6
 7940 17fd 50       		.byte	0x50
 7941 17fe 93       		.byte	0x93
 7942 17ff 04       		.uleb128 0x4
 7943 1800 51       		.byte	0x51
 7944 1801 93       		.byte	0x93
 7945 1802 04       		.uleb128 0x4
 7946 1803 06       		.byte	0x6
 7947 1804 91       		.byte	0x91
 7948 1805 D07E     		.sleb128 -176
 7949 1807 F6       		.byte	0xf6
 7950 1808 08       		.byte	0x8
 7951 1809 29       		.uleb128 0x29
 7952 180a 22       		.uleb128 0x22
 7953 180b 02       		.byte	0x2
 7954 180c 7D       		.byte	0x7d
 7955 180d 00       		.sleb128 0
 7956 180e 03       		.byte	0x3
 7957 180f F5       		.byte	0xf5
 7958 1810 04       		.uleb128 0x4
 7959 1811 29       		.uleb128 0x29
 7960 1812 00       		.byte	0
 7961 1813 21       		.uleb128 0x21
ARM GAS  /tmp/ccj4yzJk.s 			page 141


 7962 1814 5A040000 		.4byte	.LVL676
 7963 1818 A21E0000 		.4byte	0x1ea2
 7964 181c 38180000 		.4byte	0x1838
 7965 1820 22       		.uleb128 0x22
 7966 1821 06       		.byte	0x6
 7967 1822 50       		.byte	0x50
 7968 1823 93       		.byte	0x93
 7969 1824 04       		.uleb128 0x4
 7970 1825 51       		.byte	0x51
 7971 1826 93       		.byte	0x93
 7972 1827 04       		.uleb128 0x4
 7973 1828 06       		.byte	0x6
 7974 1829 91       		.byte	0x91
 7975 182a 807F     		.sleb128 -128
 7976 182c F6       		.byte	0xf6
 7977 182d 08       		.byte	0x8
 7978 182e 29       		.uleb128 0x29
 7979 182f 22       		.uleb128 0x22
 7980 1830 02       		.byte	0x2
 7981 1831 7D       		.byte	0x7d
 7982 1832 00       		.sleb128 0
 7983 1833 03       		.byte	0x3
 7984 1834 F5       		.byte	0xf5
 7985 1835 04       		.uleb128 0x4
 7986 1836 29       		.uleb128 0x29
 7987 1837 00       		.byte	0
 7988 1838 21       		.uleb128 0x21
 7989 1839 7A040000 		.4byte	.LVL679
 7990 183d A21E0000 		.4byte	0x1ea2
 7991 1841 4E180000 		.4byte	0x184e
 7992 1845 22       		.uleb128 0x22
 7993 1846 02       		.byte	0x2
 7994 1847 7D       		.byte	0x7d
 7995 1848 00       		.sleb128 0
 7996 1849 03       		.byte	0x3
 7997 184a F5       		.byte	0xf5
 7998 184b 04       		.uleb128 0x4
 7999 184c 29       		.uleb128 0x29
 8000 184d 00       		.byte	0
 8001 184e 21       		.uleb128 0x21
 8002 184f 9A040000 		.4byte	.LVL681
 8003 1853 A21E0000 		.4byte	0x1ea2
 8004 1857 64180000 		.4byte	0x1864
 8005 185b 22       		.uleb128 0x22
 8006 185c 02       		.byte	0x2
 8007 185d 7D       		.byte	0x7d
 8008 185e 00       		.sleb128 0
 8009 185f 03       		.byte	0x3
 8010 1860 F5       		.byte	0xf5
 8011 1861 04       		.uleb128 0x4
 8012 1862 29       		.uleb128 0x29
 8013 1863 00       		.byte	0
 8014 1864 23       		.uleb128 0x23
 8015 1865 F2040000 		.4byte	.LVL696
 8016 1869 FA1D0000 		.4byte	0x1dfa
 8017 186d 21       		.uleb128 0x21
 8018 186e FA040000 		.4byte	.LVL697
ARM GAS  /tmp/ccj4yzJk.s 			page 142


 8019 1872 FA1D0000 		.4byte	0x1dfa
 8020 1876 8A180000 		.4byte	0x188a
 8021 187a 22       		.uleb128 0x22
 8022 187b 06       		.byte	0x6
 8023 187c 50       		.byte	0x50
 8024 187d 93       		.byte	0x93
 8025 187e 04       		.uleb128 0x4
 8026 187f 51       		.byte	0x51
 8027 1880 93       		.byte	0x93
 8028 1881 04       		.uleb128 0x4
 8029 1882 06       		.byte	0x6
 8030 1883 91       		.byte	0x91
 8031 1884 E07E     		.sleb128 -160
 8032 1886 F6       		.byte	0xf6
 8033 1887 08       		.byte	0x8
 8034 1888 29       		.uleb128 0x29
 8035 1889 00       		.byte	0
 8036 188a 23       		.uleb128 0x23
 8037 188b 14050000 		.4byte	.LVL698
 8038 188f FA1D0000 		.4byte	0x1dfa
 8039 1893 21       		.uleb128 0x21
 8040 1894 1C050000 		.4byte	.LVL699
 8041 1898 FA1D0000 		.4byte	0x1dfa
 8042 189c B0180000 		.4byte	0x18b0
 8043 18a0 22       		.uleb128 0x22
 8044 18a1 06       		.byte	0x6
 8045 18a2 50       		.byte	0x50
 8046 18a3 93       		.byte	0x93
 8047 18a4 04       		.uleb128 0x4
 8048 18a5 51       		.byte	0x51
 8049 18a6 93       		.byte	0x93
 8050 18a7 04       		.uleb128 0x4
 8051 18a8 06       		.byte	0x6
 8052 18a9 91       		.byte	0x91
 8053 18aa E07E     		.sleb128 -160
 8054 18ac F6       		.byte	0xf6
 8055 18ad 08       		.byte	0x8
 8056 18ae 29       		.uleb128 0x29
 8057 18af 00       		.byte	0
 8058 18b0 21       		.uleb128 0x21
 8059 18b1 24050000 		.4byte	.LVL700
 8060 18b5 FA1D0000 		.4byte	0x1dfa
 8061 18b9 CD180000 		.4byte	0x18cd
 8062 18bd 22       		.uleb128 0x22
 8063 18be 06       		.byte	0x6
 8064 18bf 50       		.byte	0x50
 8065 18c0 93       		.byte	0x93
 8066 18c1 04       		.uleb128 0x4
 8067 18c2 51       		.byte	0x51
 8068 18c3 93       		.byte	0x93
 8069 18c4 04       		.uleb128 0x4
 8070 18c5 06       		.byte	0x6
 8071 18c6 91       		.byte	0x91
 8072 18c7 887F     		.sleb128 -120
 8073 18c9 F6       		.byte	0xf6
 8074 18ca 08       		.byte	0x8
 8075 18cb 29       		.uleb128 0x29
ARM GAS  /tmp/ccj4yzJk.s 			page 143


 8076 18cc 00       		.byte	0
 8077 18cd 23       		.uleb128 0x23
 8078 18ce 2C050000 		.4byte	.LVL701
 8079 18d2 FA1D0000 		.4byte	0x1dfa
 8080 18d6 23       		.uleb128 0x23
 8081 18d7 30050000 		.4byte	.LVL702
 8082 18db 121E0000 		.4byte	0x1e12
 8083 18df 21       		.uleb128 0x21
 8084 18e0 3C050000 		.4byte	.LVL703
 8085 18e4 FA1D0000 		.4byte	0x1dfa
 8086 18e8 FC180000 		.4byte	0x18fc
 8087 18ec 22       		.uleb128 0x22
 8088 18ed 06       		.byte	0x6
 8089 18ee 50       		.byte	0x50
 8090 18ef 93       		.byte	0x93
 8091 18f0 04       		.uleb128 0x4
 8092 18f1 51       		.byte	0x51
 8093 18f2 93       		.byte	0x93
 8094 18f3 04       		.uleb128 0x4
 8095 18f4 06       		.byte	0x6
 8096 18f5 91       		.byte	0x91
 8097 18f6 D07E     		.sleb128 -176
 8098 18f8 F6       		.byte	0xf6
 8099 18f9 08       		.byte	0x8
 8100 18fa 29       		.uleb128 0x29
 8101 18fb 00       		.byte	0
 8102 18fc 23       		.uleb128 0x23
 8103 18fd 40050000 		.4byte	.LVL704
 8104 1901 121E0000 		.4byte	0x1e12
 8105 1905 23       		.uleb128 0x23
 8106 1906 58050000 		.4byte	.LVL706
 8107 190a FA1D0000 		.4byte	0x1dfa
 8108 190e 23       		.uleb128 0x23
 8109 190f 5C050000 		.4byte	.LVL707
 8110 1913 2A1E0000 		.4byte	0x1e2a
 8111 1917 21       		.uleb128 0x21
 8112 1918 68050000 		.4byte	.LVL708
 8113 191c FA1D0000 		.4byte	0x1dfa
 8114 1920 34190000 		.4byte	0x1934
 8115 1924 22       		.uleb128 0x22
 8116 1925 06       		.byte	0x6
 8117 1926 50       		.byte	0x50
 8118 1927 93       		.byte	0x93
 8119 1928 04       		.uleb128 0x4
 8120 1929 51       		.byte	0x51
 8121 192a 93       		.byte	0x93
 8122 192b 04       		.uleb128 0x4
 8123 192c 06       		.byte	0x6
 8124 192d 91       		.byte	0x91
 8125 192e D07E     		.sleb128 -176
 8126 1930 F6       		.byte	0xf6
 8127 1931 08       		.byte	0x8
 8128 1932 29       		.uleb128 0x29
 8129 1933 00       		.byte	0
 8130 1934 23       		.uleb128 0x23
 8131 1935 6C050000 		.4byte	.LVL709
 8132 1939 2A1E0000 		.4byte	0x1e2a
ARM GAS  /tmp/ccj4yzJk.s 			page 144


 8133 193d 23       		.uleb128 0x23
 8134 193e 84050000 		.4byte	.LVL711
 8135 1942 FA1D0000 		.4byte	0x1dfa
 8136 1946 23       		.uleb128 0x23
 8137 1947 88050000 		.4byte	.LVL712
 8138 194b 2A1E0000 		.4byte	0x1e2a
 8139 194f 21       		.uleb128 0x21
 8140 1950 AC050000 		.4byte	.LVL716
 8141 1954 FA1D0000 		.4byte	0x1dfa
 8142 1958 6C190000 		.4byte	0x196c
 8143 195c 22       		.uleb128 0x22
 8144 195d 06       		.byte	0x6
 8145 195e 50       		.byte	0x50
 8146 195f 93       		.byte	0x93
 8147 1960 04       		.uleb128 0x4
 8148 1961 51       		.byte	0x51
 8149 1962 93       		.byte	0x93
 8150 1963 04       		.uleb128 0x4
 8151 1964 06       		.byte	0x6
 8152 1965 91       		.byte	0x91
 8153 1966 E07E     		.sleb128 -160
 8154 1968 F6       		.byte	0xf6
 8155 1969 08       		.byte	0x8
 8156 196a 29       		.uleb128 0x29
 8157 196b 00       		.byte	0
 8158 196c 23       		.uleb128 0x23
 8159 196d B4050000 		.4byte	.LVL717
 8160 1971 FA1D0000 		.4byte	0x1dfa
 8161 1975 21       		.uleb128 0x21
 8162 1976 BC050000 		.4byte	.LVL718
 8163 197a FA1D0000 		.4byte	0x1dfa
 8164 197e 92190000 		.4byte	0x1992
 8165 1982 22       		.uleb128 0x22
 8166 1983 06       		.byte	0x6
 8167 1984 50       		.byte	0x50
 8168 1985 93       		.byte	0x93
 8169 1986 04       		.uleb128 0x4
 8170 1987 51       		.byte	0x51
 8171 1988 93       		.byte	0x93
 8172 1989 04       		.uleb128 0x4
 8173 198a 06       		.byte	0x6
 8174 198b 91       		.byte	0x91
 8175 198c 887F     		.sleb128 -120
 8176 198e F6       		.byte	0xf6
 8177 198f 08       		.byte	0x8
 8178 1990 29       		.uleb128 0x29
 8179 1991 00       		.byte	0
 8180 1992 21       		.uleb128 0x21
 8181 1993 D4050000 		.4byte	.LVL720
 8182 1997 FA1D0000 		.4byte	0x1dfa
 8183 199b AF190000 		.4byte	0x19af
 8184 199f 22       		.uleb128 0x22
 8185 19a0 06       		.byte	0x6
 8186 19a1 50       		.byte	0x50
 8187 19a2 93       		.byte	0x93
 8188 19a3 04       		.uleb128 0x4
 8189 19a4 51       		.byte	0x51
ARM GAS  /tmp/ccj4yzJk.s 			page 145


 8190 19a5 93       		.byte	0x93
 8191 19a6 04       		.uleb128 0x4
 8192 19a7 06       		.byte	0x6
 8193 19a8 91       		.byte	0x91
 8194 19a9 D07E     		.sleb128 -176
 8195 19ab F6       		.byte	0xf6
 8196 19ac 08       		.byte	0x8
 8197 19ad 29       		.uleb128 0x29
 8198 19ae 00       		.byte	0
 8199 19af 23       		.uleb128 0x23
 8200 19b0 D8050000 		.4byte	.LVL721
 8201 19b4 2A1E0000 		.4byte	0x1e2a
 8202 19b8 23       		.uleb128 0x23
 8203 19b9 E4050000 		.4byte	.LVL722
 8204 19bd FA1D0000 		.4byte	0x1dfa
 8205 19c1 23       		.uleb128 0x23
 8206 19c2 E8050000 		.4byte	.LVL723
 8207 19c6 2A1E0000 		.4byte	0x1e2a
 8208 19ca 23       		.uleb128 0x23
 8209 19cb 12060000 		.4byte	.LVL726
 8210 19cf FA1D0000 		.4byte	0x1dfa
 8211 19d3 23       		.uleb128 0x23
 8212 19d4 16060000 		.4byte	.LVL727
 8213 19d8 121E0000 		.4byte	0x1e12
 8214 19dc 00       		.byte	0
 8215 19dd 29       		.uleb128 0x29
 8216 19de 01       		.byte	0x1
 8217 19df 34000000 		.4byte	.LASF51
 8218 19e3 01       		.byte	0x1
 8219 19e4 A302     		.2byte	0x2a3
 8220 19e6 01       		.byte	0x1
 8221 19e7 30000000 		.4byte	0x30
 8222 19eb 00000000 		.4byte	.LFB12
 8223 19ef E2030000 		.4byte	.LFE12
 8224 19f3 B01C0000 		.4byte	.LLST154
 8225 19f7 01       		.byte	0x1
 8226 19f8 211D0000 		.4byte	0x1d21
 8227 19fc 2A       		.uleb128 0x2a
 8228 19fd 4A4400   		.ascii	"JD\000"
 8229 1a00 01       		.byte	0x1
 8230 1a01 A302     		.2byte	0x2a3
 8231 1a03 29000000 		.4byte	0x29
 8232 1a07 DD1C0000 		.4byte	.LLST155
 8233 1a0b 2B       		.uleb128 0x2b
 8234 1a0c 42030000 		.4byte	.LASF19
 8235 1a10 01       		.byte	0x1
 8236 1a11 A302     		.2byte	0x2a3
 8237 1a13 94010000 		.4byte	0x194
 8238 1a17 021D0000 		.4byte	.LLST156
 8239 1a1b 2B       		.uleb128 0x2b
 8240 1a1c B0030000 		.4byte	.LASF49
 8241 1a20 01       		.byte	0x1
 8242 1a21 A302     		.2byte	0x2a3
 8243 1a23 20010000 		.4byte	0x120
 8244 1a27 6B1D0000 		.4byte	.LLST157
 8245 1a2b 2C       		.uleb128 0x2c
 8246 1a2c F5030000 		.4byte	.LASF50
ARM GAS  /tmp/ccj4yzJk.s 			page 146


 8247 1a30 01       		.byte	0x1
 8248 1a31 A402     		.2byte	0x2a4
 8249 1a33 76000000 		.4byte	0x76
 8250 1a37 02       		.byte	0x2
 8251 1a38 91       		.byte	0x91
 8252 1a39 00       		.sleb128 0
 8253 1a3a 2C       		.uleb128 0x2c
 8254 1a3b A0000000 		.4byte	.LASF20
 8255 1a3f 01       		.byte	0x1
 8256 1a40 A402     		.2byte	0x2a4
 8257 1a42 29000000 		.4byte	0x29
 8258 1a46 02       		.byte	0x2
 8259 1a47 91       		.byte	0x91
 8260 1a48 08       		.sleb128 8
 8261 1a49 2C       		.uleb128 0x2c
 8262 1a4a 7F030000 		.4byte	.LASF46
 8263 1a4e 01       		.byte	0x1
 8264 1a4f A402     		.2byte	0x2a4
 8265 1a51 30000000 		.4byte	0x30
 8266 1a55 02       		.byte	0x2
 8267 1a56 91       		.byte	0x91
 8268 1a57 10       		.sleb128 16
 8269 1a58 2D       		.uleb128 0x2d
 8270 1a59 72737400 		.ascii	"rst\000"
 8271 1a5d 01       		.byte	0x1
 8272 1a5e A402     		.2byte	0x2a4
 8273 1a60 CA010000 		.4byte	0x1ca
 8274 1a64 02       		.byte	0x2
 8275 1a65 91       		.byte	0x91
 8276 1a66 14       		.sleb128 20
 8277 1a67 2E       		.uleb128 0x2e
 8278 1a68 72657400 		.ascii	"ret\000"
 8279 1a6c 01       		.byte	0x1
 8280 1a6d A602     		.2byte	0x2a6
 8281 1a6f 30000000 		.4byte	0x30
 8282 1a73 D41D0000 		.4byte	.LLST158
 8283 1a77 30       		.uleb128 0x30
 8284 1a78 FD010000 		.4byte	.LASF34
 8285 1a7c 01       		.byte	0x1
 8286 1a7d A702     		.2byte	0x2a7
 8287 1a7f E5000000 		.4byte	0xe5
 8288 1a83 03       		.byte	0x3
 8289 1a84 91       		.byte	0x91
 8290 1a85 A87F     		.sleb128 -88
 8291 1a87 30       		.uleb128 0x30
 8292 1a88 03020000 		.4byte	.LASF35
 8293 1a8c 01       		.byte	0x1
 8294 1a8d A702     		.2byte	0x2a7
 8295 1a8f E5000000 		.4byte	0xe5
 8296 1a93 02       		.byte	0x2
 8297 1a94 91       		.byte	0x91
 8298 1a95 40       		.sleb128 -64
 8299 1a96 32       		.uleb128 0x32
 8300 1a97 9A010000 		.4byte	0x19a
 8301 1a9b 36000000 		.4byte	.LBB109
 8302 1a9f A8010000 		.4byte	.Ldebug_ranges0+0x1a8
 8303 1aa3 01       		.byte	0x1
ARM GAS  /tmp/ccj4yzJk.s 			page 147


 8304 1aa4 B502     		.2byte	0x2b5
 8305 1aa6 C61A0000 		.4byte	0x1ac6
 8306 1aaa 14       		.uleb128 0x14
 8307 1aab BE010000 		.4byte	0x1be
 8308 1aaf 6C1E0000 		.4byte	.LLST159
 8309 1ab3 14       		.uleb128 0x14
 8310 1ab4 B3010000 		.4byte	0x1b3
 8311 1ab8 901E0000 		.4byte	.LLST160
 8312 1abc 14       		.uleb128 0x14
 8313 1abd A8010000 		.4byte	0x1a8
 8314 1ac1 C01E0000 		.4byte	.LLST161
 8315 1ac5 00       		.byte	0
 8316 1ac6 34       		.uleb128 0x34
 8317 1ac7 7E000000 		.4byte	.LBB112
 8318 1acb A4010000 		.4byte	.LBE112
 8319 1acf A41B0000 		.4byte	0x1ba4
 8320 1ad3 2E       		.uleb128 0x2e
 8321 1ad4 64617900 		.ascii	"day\000"
 8322 1ad8 01       		.byte	0x1
 8323 1ad9 BB02     		.2byte	0x2bb
 8324 1adb 30000000 		.4byte	0x30
 8325 1adf E01E0000 		.4byte	.LLST162
 8326 1ae3 21       		.uleb128 0x21
 8327 1ae4 BA000000 		.4byte	.LVL760
 8328 1ae8 1D140000 		.4byte	0x141d
 8329 1aec 151B0000 		.4byte	0x1b15
 8330 1af0 22       		.uleb128 0x22
 8331 1af1 01       		.byte	0x1
 8332 1af2 53       		.byte	0x53
 8333 1af3 02       		.byte	0x2
 8334 1af4 77       		.byte	0x77
 8335 1af5 00       		.sleb128 0
 8336 1af6 22       		.uleb128 0x22
 8337 1af7 01       		.byte	0x1
 8338 1af8 52       		.byte	0x52
 8339 1af9 02       		.byte	0x2
 8340 1afa 76       		.byte	0x76
 8341 1afb 00       		.sleb128 0
 8342 1afc 22       		.uleb128 0x22
 8343 1afd 02       		.byte	0x2
 8344 1afe 7D       		.byte	0x7d
 8345 1aff 10       		.sleb128 16
 8346 1b00 02       		.byte	0x2
 8347 1b01 79       		.byte	0x79
 8348 1b02 00       		.sleb128 0
 8349 1b03 22       		.uleb128 0x22
 8350 1b04 02       		.byte	0x2
 8351 1b05 7D       		.byte	0x7d
 8352 1b06 08       		.sleb128 8
 8353 1b07 05       		.byte	0x5
 8354 1b08 91       		.byte	0x91
 8355 1b09 08       		.sleb128 8
 8356 1b0a F6       		.byte	0xf6
 8357 1b0b 08       		.byte	0x8
 8358 1b0c 29       		.uleb128 0x29
 8359 1b0d 22       		.uleb128 0x22
 8360 1b0e 02       		.byte	0x2
ARM GAS  /tmp/ccj4yzJk.s 			page 148


 8361 1b0f 7D       		.byte	0x7d
 8362 1b10 00       		.sleb128 0
 8363 1b11 02       		.byte	0x2
 8364 1b12 75       		.byte	0x75
 8365 1b13 00       		.sleb128 0
 8366 1b14 00       		.byte	0
 8367 1b15 21       		.uleb128 0x21
 8368 1b16 F2000000 		.4byte	.LVL764
 8369 1b1a 1D140000 		.4byte	0x141d
 8370 1b1e 471B0000 		.4byte	0x1b47
 8371 1b22 22       		.uleb128 0x22
 8372 1b23 01       		.byte	0x1
 8373 1b24 53       		.byte	0x53
 8374 1b25 02       		.byte	0x2
 8375 1b26 77       		.byte	0x77
 8376 1b27 00       		.sleb128 0
 8377 1b28 22       		.uleb128 0x22
 8378 1b29 01       		.byte	0x1
 8379 1b2a 52       		.byte	0x52
 8380 1b2b 02       		.byte	0x2
 8381 1b2c 76       		.byte	0x76
 8382 1b2d 00       		.sleb128 0
 8383 1b2e 22       		.uleb128 0x22
 8384 1b2f 02       		.byte	0x2
 8385 1b30 7D       		.byte	0x7d
 8386 1b31 10       		.sleb128 16
 8387 1b32 02       		.byte	0x2
 8388 1b33 79       		.byte	0x79
 8389 1b34 00       		.sleb128 0
 8390 1b35 22       		.uleb128 0x22
 8391 1b36 02       		.byte	0x2
 8392 1b37 7D       		.byte	0x7d
 8393 1b38 08       		.sleb128 8
 8394 1b39 05       		.byte	0x5
 8395 1b3a 91       		.byte	0x91
 8396 1b3b 08       		.sleb128 8
 8397 1b3c F6       		.byte	0xf6
 8398 1b3d 08       		.byte	0x8
 8399 1b3e 29       		.uleb128 0x29
 8400 1b3f 22       		.uleb128 0x22
 8401 1b40 02       		.byte	0x2
 8402 1b41 7D       		.byte	0x7d
 8403 1b42 00       		.sleb128 0
 8404 1b43 02       		.byte	0x2
 8405 1b44 75       		.byte	0x75
 8406 1b45 00       		.sleb128 0
 8407 1b46 00       		.byte	0
 8408 1b47 21       		.uleb128 0x21
 8409 1b48 2C010000 		.4byte	.LVL769
 8410 1b4c 1D140000 		.4byte	0x141d
 8411 1b50 771B0000 		.4byte	0x1b77
 8412 1b54 22       		.uleb128 0x22
 8413 1b55 01       		.byte	0x1
 8414 1b56 53       		.byte	0x53
 8415 1b57 02       		.byte	0x2
 8416 1b58 77       		.byte	0x77
 8417 1b59 00       		.sleb128 0
ARM GAS  /tmp/ccj4yzJk.s 			page 149


 8418 1b5a 22       		.uleb128 0x22
 8419 1b5b 01       		.byte	0x1
 8420 1b5c 52       		.byte	0x52
 8421 1b5d 02       		.byte	0x2
 8422 1b5e 76       		.byte	0x76
 8423 1b5f 00       		.sleb128 0
 8424 1b60 22       		.uleb128 0x22
 8425 1b61 02       		.byte	0x2
 8426 1b62 7D       		.byte	0x7d
 8427 1b63 10       		.sleb128 16
 8428 1b64 02       		.byte	0x2
 8429 1b65 79       		.byte	0x79
 8430 1b66 00       		.sleb128 0
 8431 1b67 22       		.uleb128 0x22
 8432 1b68 02       		.byte	0x2
 8433 1b69 7D       		.byte	0x7d
 8434 1b6a 08       		.sleb128 8
 8435 1b6b 03       		.byte	0x3
 8436 1b6c F5       		.byte	0xf5
 8437 1b6d 04       		.uleb128 0x4
 8438 1b6e 29       		.uleb128 0x29
 8439 1b6f 22       		.uleb128 0x22
 8440 1b70 02       		.byte	0x2
 8441 1b71 7D       		.byte	0x7d
 8442 1b72 00       		.sleb128 0
 8443 1b73 02       		.byte	0x2
 8444 1b74 75       		.byte	0x75
 8445 1b75 00       		.sleb128 0
 8446 1b76 00       		.byte	0
 8447 1b77 25       		.uleb128 0x25
 8448 1b78 5A010000 		.4byte	.LVL772
 8449 1b7c 1D140000 		.4byte	0x141d
 8450 1b80 22       		.uleb128 0x22
 8451 1b81 01       		.byte	0x1
 8452 1b82 53       		.byte	0x53
 8453 1b83 02       		.byte	0x2
 8454 1b84 77       		.byte	0x77
 8455 1b85 00       		.sleb128 0
 8456 1b86 22       		.uleb128 0x22
 8457 1b87 01       		.byte	0x1
 8458 1b88 52       		.byte	0x52
 8459 1b89 02       		.byte	0x2
 8460 1b8a 76       		.byte	0x76
 8461 1b8b 00       		.sleb128 0
 8462 1b8c 22       		.uleb128 0x22
 8463 1b8d 02       		.byte	0x2
 8464 1b8e 7D       		.byte	0x7d
 8465 1b8f 10       		.sleb128 16
 8466 1b90 02       		.byte	0x2
 8467 1b91 79       		.byte	0x79
 8468 1b92 00       		.sleb128 0
 8469 1b93 22       		.uleb128 0x22
 8470 1b94 02       		.byte	0x2
 8471 1b95 7D       		.byte	0x7d
 8472 1b96 08       		.sleb128 8
 8473 1b97 03       		.byte	0x3
 8474 1b98 F5       		.byte	0xf5
ARM GAS  /tmp/ccj4yzJk.s 			page 150


 8475 1b99 04       		.uleb128 0x4
 8476 1b9a 29       		.uleb128 0x29
 8477 1b9b 22       		.uleb128 0x22
 8478 1b9c 02       		.byte	0x2
 8479 1b9d 7D       		.byte	0x7d
 8480 1b9e 00       		.sleb128 0
 8481 1b9f 02       		.byte	0x2
 8482 1ba0 75       		.byte	0x75
 8483 1ba1 00       		.sleb128 0
 8484 1ba2 00       		.byte	0
 8485 1ba3 00       		.byte	0
 8486 1ba4 32       		.uleb128 0x32
 8487 1ba5 D0010000 		.4byte	0x1d0
 8488 1ba9 A8010000 		.4byte	.LBB113
 8489 1bad C0010000 		.4byte	.Ldebug_ranges0+0x1c0
 8490 1bb1 01       		.byte	0x1
 8491 1bb2 CF02     		.2byte	0x2cf
 8492 1bb4 DD1B0000 		.4byte	0x1bdd
 8493 1bb8 14       		.uleb128 0x14
 8494 1bb9 02020000 		.4byte	0x202
 8495 1bbd 201F0000 		.4byte	.LLST163
 8496 1bc1 14       		.uleb128 0x14
 8497 1bc2 F7010000 		.4byte	0x1f7
 8498 1bc6 481F0000 		.4byte	.LLST164
 8499 1bca 14       		.uleb128 0x14
 8500 1bcb EC010000 		.4byte	0x1ec
 8501 1bcf 701F0000 		.4byte	.LLST165
 8502 1bd3 14       		.uleb128 0x14
 8503 1bd4 E2010000 		.4byte	0x1e2
 8504 1bd8 981F0000 		.4byte	.LLST166
 8505 1bdc 00       		.byte	0
 8506 1bdd 32       		.uleb128 0x32
 8507 1bde D0010000 		.4byte	0x1d0
 8508 1be2 D4010000 		.4byte	.LBB116
 8509 1be6 D8010000 		.4byte	.Ldebug_ranges0+0x1d8
 8510 1bea 01       		.byte	0x1
 8511 1beb D002     		.2byte	0x2d0
 8512 1bed 161C0000 		.4byte	0x1c16
 8513 1bf1 14       		.uleb128 0x14
 8514 1bf2 02020000 		.4byte	0x202
 8515 1bf6 BA1F0000 		.4byte	.LLST167
 8516 1bfa 14       		.uleb128 0x14
 8517 1bfb F7010000 		.4byte	0x1f7
 8518 1bff DC1F0000 		.4byte	.LLST168
 8519 1c03 14       		.uleb128 0x14
 8520 1c04 EC010000 		.4byte	0x1ec
 8521 1c08 FE1F0000 		.4byte	.LLST169
 8522 1c0c 14       		.uleb128 0x14
 8523 1c0d E2010000 		.4byte	0x1e2
 8524 1c11 26200000 		.4byte	.LLST170
 8525 1c15 00       		.byte	0
 8526 1c16 32       		.uleb128 0x32
 8527 1c17 D0010000 		.4byte	0x1d0
 8528 1c1b 02020000 		.4byte	.LBB121
 8529 1c1f F8010000 		.4byte	.Ldebug_ranges0+0x1f8
 8530 1c23 01       		.byte	0x1
 8531 1c24 D102     		.2byte	0x2d1
ARM GAS  /tmp/ccj4yzJk.s 			page 151


 8532 1c26 4F1C0000 		.4byte	0x1c4f
 8533 1c2a 14       		.uleb128 0x14
 8534 1c2b 02020000 		.4byte	0x202
 8535 1c2f 48200000 		.4byte	.LLST171
 8536 1c33 14       		.uleb128 0x14
 8537 1c34 F7010000 		.4byte	0x1f7
 8538 1c38 70200000 		.4byte	.LLST172
 8539 1c3c 14       		.uleb128 0x14
 8540 1c3d EC010000 		.4byte	0x1ec
 8541 1c41 92200000 		.4byte	.LLST173
 8542 1c45 14       		.uleb128 0x14
 8543 1c46 E2010000 		.4byte	0x1e2
 8544 1c4a BA200000 		.4byte	.LLST174
 8545 1c4e 00       		.byte	0
 8546 1c4f 35       		.uleb128 0x35
 8547 1c50 9A010000 		.4byte	0x19a
 8548 1c54 42030000 		.4byte	.LBB127
 8549 1c58 80030000 		.4byte	.LBE127
 8550 1c5c 01       		.byte	0x1
 8551 1c5d CC02     		.2byte	0x2cc
 8552 1c5f 7F1C0000 		.4byte	0x1c7f
 8553 1c63 14       		.uleb128 0x14
 8554 1c64 BE010000 		.4byte	0x1be
 8555 1c68 DC200000 		.4byte	.LLST175
 8556 1c6c 14       		.uleb128 0x14
 8557 1c6d B3010000 		.4byte	0x1b3
 8558 1c71 F1200000 		.4byte	.LLST176
 8559 1c75 14       		.uleb128 0x14
 8560 1c76 A8010000 		.4byte	0x1a8
 8561 1c7a 0D210000 		.4byte	.LLST177
 8562 1c7e 00       		.byte	0
 8563 1c7f 35       		.uleb128 0x35
 8564 1c80 9A010000 		.4byte	0x19a
 8565 1c84 80030000 		.4byte	.LBB129
 8566 1c88 C2030000 		.4byte	.LBE129
 8567 1c8c 01       		.byte	0x1
 8568 1c8d B102     		.2byte	0x2b1
 8569 1c8f AF1C0000 		.4byte	0x1caf
 8570 1c93 14       		.uleb128 0x14
 8571 1c94 BE010000 		.4byte	0x1be
 8572 1c98 21210000 		.4byte	.LLST178
 8573 1c9c 14       		.uleb128 0x14
 8574 1c9d B3010000 		.4byte	0x1b3
 8575 1ca1 37210000 		.4byte	.LLST179
 8576 1ca5 14       		.uleb128 0x14
 8577 1ca6 A8010000 		.4byte	0x1a8
 8578 1caa 53210000 		.4byte	.LLST180
 8579 1cae 00       		.byte	0
 8580 1caf 21       		.uleb128 0x21
 8581 1cb0 26000000 		.4byte	.LVL751
 8582 1cb4 1D140000 		.4byte	0x141d
 8583 1cb8 F11C0000 		.4byte	0x1cf1
 8584 1cbc 22       		.uleb128 0x22
 8585 1cbd 01       		.byte	0x1
 8586 1cbe 53       		.byte	0x53
 8587 1cbf 02       		.byte	0x2
 8588 1cc0 77       		.byte	0x77
ARM GAS  /tmp/ccj4yzJk.s 			page 152


 8589 1cc1 00       		.sleb128 0
 8590 1cc2 22       		.uleb128 0x22
 8591 1cc3 01       		.byte	0x1
 8592 1cc4 52       		.byte	0x52
 8593 1cc5 02       		.byte	0x2
 8594 1cc6 76       		.byte	0x76
 8595 1cc7 00       		.sleb128 0
 8596 1cc8 22       		.uleb128 0x22
 8597 1cc9 06       		.byte	0x6
 8598 1cca 50       		.byte	0x50
 8599 1ccb 93       		.byte	0x93
 8600 1ccc 04       		.uleb128 0x4
 8601 1ccd 51       		.byte	0x51
 8602 1cce 93       		.byte	0x93
 8603 1ccf 04       		.uleb128 0x4
 8604 1cd0 06       		.byte	0x6
 8605 1cd1 91       		.byte	0x91
 8606 1cd2 807F     		.sleb128 -128
 8607 1cd4 F6       		.byte	0xf6
 8608 1cd5 08       		.byte	0x8
 8609 1cd6 29       		.uleb128 0x29
 8610 1cd7 22       		.uleb128 0x22
 8611 1cd8 02       		.byte	0x2
 8612 1cd9 7D       		.byte	0x7d
 8613 1cda 10       		.sleb128 16
 8614 1cdb 03       		.byte	0x3
 8615 1cdc 91       		.byte	0x91
 8616 1cdd 14       		.sleb128 20
 8617 1cde 06       		.byte	0x6
 8618 1cdf 22       		.uleb128 0x22
 8619 1ce0 02       		.byte	0x2
 8620 1ce1 7D       		.byte	0x7d
 8621 1ce2 08       		.sleb128 8
 8622 1ce3 05       		.byte	0x5
 8623 1ce4 91       		.byte	0x91
 8624 1ce5 08       		.sleb128 8
 8625 1ce6 F6       		.byte	0xf6
 8626 1ce7 08       		.byte	0x8
 8627 1ce8 29       		.uleb128 0x29
 8628 1ce9 22       		.uleb128 0x22
 8629 1cea 02       		.byte	0x2
 8630 1ceb 7D       		.byte	0x7d
 8631 1cec 00       		.sleb128 0
 8632 1ced 02       		.byte	0x2
 8633 1cee 75       		.byte	0x75
 8634 1cef 00       		.sleb128 0
 8635 1cf0 00       		.byte	0
 8636 1cf1 25       		.uleb128 0x25
 8637 1cf2 F2020000 		.4byte	.LVL804
 8638 1cf6 1D140000 		.4byte	0x141d
 8639 1cfa 22       		.uleb128 0x22
 8640 1cfb 01       		.byte	0x1
 8641 1cfc 53       		.byte	0x53
 8642 1cfd 02       		.byte	0x2
 8643 1cfe 77       		.byte	0x77
 8644 1cff 00       		.sleb128 0
 8645 1d00 22       		.uleb128 0x22
ARM GAS  /tmp/ccj4yzJk.s 			page 153


 8646 1d01 01       		.byte	0x1
 8647 1d02 52       		.byte	0x52
 8648 1d03 02       		.byte	0x2
 8649 1d04 76       		.byte	0x76
 8650 1d05 00       		.sleb128 0
 8651 1d06 22       		.uleb128 0x22
 8652 1d07 02       		.byte	0x2
 8653 1d08 7D       		.byte	0x7d
 8654 1d09 10       		.sleb128 16
 8655 1d0a 03       		.byte	0x3
 8656 1d0b 91       		.byte	0x91
 8657 1d0c A87F     		.sleb128 -88
 8658 1d0e 22       		.uleb128 0x22
 8659 1d0f 02       		.byte	0x2
 8660 1d10 7D       		.byte	0x7d
 8661 1d11 08       		.sleb128 8
 8662 1d12 05       		.byte	0x5
 8663 1d13 91       		.byte	0x91
 8664 1d14 08       		.sleb128 8
 8665 1d15 F6       		.byte	0xf6
 8666 1d16 08       		.byte	0x8
 8667 1d17 29       		.uleb128 0x29
 8668 1d18 22       		.uleb128 0x22
 8669 1d19 02       		.byte	0x2
 8670 1d1a 7D       		.byte	0x7d
 8671 1d1b 00       		.sleb128 0
 8672 1d1c 02       		.byte	0x2
 8673 1d1d 75       		.byte	0x75
 8674 1d1e 00       		.sleb128 0
 8675 1d1f 00       		.byte	0
 8676 1d20 00       		.byte	0
 8677 1d21 36       		.uleb128 0x36
 8678 1d22 01       		.byte	0x1
 8679 1d23 55020000 		.4byte	.LASF52
 8680 1d27 01       		.byte	0x1
 8681 1d28 8B02     		.2byte	0x28b
 8682 1d2a 01       		.byte	0x1
 8683 1d2b 30000000 		.4byte	0x30
 8684 1d2f 00000000 		.4byte	.LFB11
 8685 1d33 20000000 		.4byte	.LFE11
 8686 1d37 67210000 		.4byte	.LLST181
 8687 1d3b 01       		.byte	0x1
 8688 1d3c E21D0000 		.4byte	0x1de2
 8689 1d40 2A       		.uleb128 0x2a
 8690 1d41 4A4400   		.ascii	"JD\000"
 8691 1d44 01       		.byte	0x1
 8692 1d45 8B02     		.2byte	0x28b
 8693 1d47 29000000 		.4byte	0x29
 8694 1d4b 93210000 		.4byte	.LLST182
 8695 1d4f 2B       		.uleb128 0x2b
 8696 1d50 42030000 		.4byte	.LASF19
 8697 1d54 01       		.byte	0x1
 8698 1d55 8B02     		.2byte	0x28b
 8699 1d57 94010000 		.4byte	0x194
 8700 1d5b BB210000 		.4byte	.LLST183
 8701 1d5f 2B       		.uleb128 0x2b
 8702 1d60 B0030000 		.4byte	.LASF49
ARM GAS  /tmp/ccj4yzJk.s 			page 154


 8703 1d64 01       		.byte	0x1
 8704 1d65 8B02     		.2byte	0x28b
 8705 1d67 20010000 		.4byte	0x120
 8706 1d6b DC210000 		.4byte	.LLST184
 8707 1d6f 2C       		.uleb128 0x2c
 8708 1d70 F5030000 		.4byte	.LASF50
 8709 1d74 01       		.byte	0x1
 8710 1d75 8C02     		.2byte	0x28c
 8711 1d77 76000000 		.4byte	0x76
 8712 1d7b 02       		.byte	0x2
 8713 1d7c 91       		.byte	0x91
 8714 1d7d 00       		.sleb128 0
 8715 1d7e 2C       		.uleb128 0x2c
 8716 1d7f A0000000 		.4byte	.LASF20
 8717 1d83 01       		.byte	0x1
 8718 1d84 8C02     		.2byte	0x28c
 8719 1d86 29000000 		.4byte	0x29
 8720 1d8a 02       		.byte	0x2
 8721 1d8b 91       		.byte	0x91
 8722 1d8c 08       		.sleb128 8
 8723 1d8d 2D       		.uleb128 0x2d
 8724 1d8e 72737400 		.ascii	"rst\000"
 8725 1d92 01       		.byte	0x1
 8726 1d93 8C02     		.2byte	0x28c
 8727 1d95 CA010000 		.4byte	0x1ca
 8728 1d99 02       		.byte	0x2
 8729 1d9a 91       		.byte	0x91
 8730 1d9b 10       		.sleb128 16
 8731 1d9c 25       		.uleb128 0x25
 8732 1d9d 1C000000 		.4byte	.LVL829
 8733 1da1 DD190000 		.4byte	0x19dd
 8734 1da5 22       		.uleb128 0x22
 8735 1da6 01       		.byte	0x1
 8736 1da7 53       		.byte	0x53
 8737 1da8 03       		.byte	0x3
 8738 1da9 F3       		.byte	0xf3
 8739 1daa 01       		.uleb128 0x1
 8740 1dab 53       		.byte	0x53
 8741 1dac 22       		.uleb128 0x22
 8742 1dad 01       		.byte	0x1
 8743 1dae 52       		.byte	0x52
 8744 1daf 03       		.byte	0x3
 8745 1db0 F3       		.byte	0xf3
 8746 1db1 01       		.uleb128 0x1
 8747 1db2 52       		.byte	0x52
 8748 1db3 22       		.uleb128 0x22
 8749 1db4 06       		.byte	0x6
 8750 1db5 50       		.byte	0x50
 8751 1db6 93       		.byte	0x93
 8752 1db7 04       		.uleb128 0x4
 8753 1db8 51       		.byte	0x51
 8754 1db9 93       		.byte	0x93
 8755 1dba 04       		.uleb128 0x4
 8756 1dbb 05       		.byte	0x5
 8757 1dbc F3       		.byte	0xf3
 8758 1dbd 03       		.uleb128 0x3
 8759 1dbe F5       		.byte	0xf5
ARM GAS  /tmp/ccj4yzJk.s 			page 155


 8760 1dbf 00       		.uleb128 0
 8761 1dc0 29       		.uleb128 0x29
 8762 1dc1 22       		.uleb128 0x22
 8763 1dc2 02       		.byte	0x2
 8764 1dc3 7D       		.byte	0x7d
 8765 1dc4 14       		.sleb128 20
 8766 1dc5 02       		.byte	0x2
 8767 1dc6 74       		.byte	0x74
 8768 1dc7 00       		.sleb128 0
 8769 1dc8 22       		.uleb128 0x22
 8770 1dc9 02       		.byte	0x2
 8771 1dca 7D       		.byte	0x7d
 8772 1dcb 10       		.sleb128 16
 8773 1dcc 01       		.byte	0x1
 8774 1dcd 31       		.byte	0x31
 8775 1dce 22       		.uleb128 0x22
 8776 1dcf 02       		.byte	0x2
 8777 1dd0 7D       		.byte	0x7d
 8778 1dd1 08       		.sleb128 8
 8779 1dd2 05       		.byte	0x5
 8780 1dd3 91       		.byte	0x91
 8781 1dd4 08       		.sleb128 8
 8782 1dd5 F6       		.byte	0xf6
 8783 1dd6 08       		.byte	0x8
 8784 1dd7 29       		.uleb128 0x29
 8785 1dd8 22       		.uleb128 0x22
 8786 1dd9 02       		.byte	0x2
 8787 1dda 7D       		.byte	0x7d
 8788 1ddb 00       		.sleb128 0
 8789 1ddc 03       		.byte	0x3
 8790 1ddd 91       		.byte	0x91
 8791 1dde 00       		.sleb128 0
 8792 1ddf 06       		.byte	0x6
 8793 1de0 00       		.byte	0
 8794 1de1 00       		.byte	0
 8795 1de2 39       		.uleb128 0x39
 8796 1de3 01       		.byte	0x1
 8797 1de4 5F000000 		.4byte	.LASF53
 8798 1de8 03       		.byte	0x3
 8799 1de9 2D       		.byte	0x2d
 8800 1dea 01       		.byte	0x1
 8801 1deb 29000000 		.4byte	0x29
 8802 1def 01       		.byte	0x1
 8803 1df0 FA1D0000 		.4byte	0x1dfa
 8804 1df4 0D       		.uleb128 0xd
 8805 1df5 29000000 		.4byte	0x29
 8806 1df9 00       		.byte	0
 8807 1dfa 39       		.uleb128 0x39
 8808 1dfb 01       		.byte	0x1
 8809 1dfc A2030000 		.4byte	.LASF54
 8810 1e00 04       		.byte	0x4
 8811 1e01 53       		.byte	0x53
 8812 1e02 01       		.byte	0x1
 8813 1e03 29000000 		.4byte	0x29
 8814 1e07 01       		.byte	0x1
 8815 1e08 121E0000 		.4byte	0x1e12
 8816 1e0c 0D       		.uleb128 0xd
ARM GAS  /tmp/ccj4yzJk.s 			page 156


 8817 1e0d 29000000 		.4byte	0x29
 8818 1e11 00       		.byte	0
 8819 1e12 3A       		.uleb128 0x3a
 8820 1e13 01       		.byte	0x1
 8821 1e14 73696E00 		.ascii	"sin\000"
 8822 1e18 05       		.byte	0x5
 8823 1e19 6E       		.byte	0x6e
 8824 1e1a 01       		.byte	0x1
 8825 1e1b 29000000 		.4byte	0x29
 8826 1e1f 01       		.byte	0x1
 8827 1e20 2A1E0000 		.4byte	0x1e2a
 8828 1e24 0D       		.uleb128 0xd
 8829 1e25 29000000 		.4byte	0x29
 8830 1e29 00       		.byte	0
 8831 1e2a 3A       		.uleb128 0x3a
 8832 1e2b 01       		.byte	0x1
 8833 1e2c 636F7300 		.ascii	"cos\000"
 8834 1e30 05       		.byte	0x5
 8835 1e31 6D       		.byte	0x6d
 8836 1e32 01       		.byte	0x1
 8837 1e33 29000000 		.4byte	0x29
 8838 1e37 01       		.byte	0x1
 8839 1e38 421E0000 		.4byte	0x1e42
 8840 1e3c 0D       		.uleb128 0xd
 8841 1e3d 29000000 		.4byte	0x29
 8842 1e41 00       		.byte	0
 8843 1e42 39       		.uleb128 0x39
 8844 1e43 01       		.byte	0x1
 8845 1e44 62030000 		.4byte	.LASF55
 8846 1e48 05       		.byte	0x5
 8847 1e49 7C       		.byte	0x7c
 8848 1e4a 01       		.byte	0x1
 8849 1e4b 29000000 		.4byte	0x29
 8850 1e4f 01       		.byte	0x1
 8851 1e50 5A1E0000 		.4byte	0x1e5a
 8852 1e54 0D       		.uleb128 0xd
 8853 1e55 29000000 		.4byte	0x29
 8854 1e59 00       		.byte	0
 8855 1e5a 39       		.uleb128 0x39
 8856 1e5b 01       		.byte	0x1
 8857 1e5c 00000000 		.4byte	.LASF56
 8858 1e60 04       		.byte	0x4
 8859 1e61 4D       		.byte	0x4d
 8860 1e62 01       		.byte	0x1
 8861 1e63 29000000 		.4byte	0x29
 8862 1e67 01       		.byte	0x1
 8863 1e68 721E0000 		.4byte	0x1e72
 8864 1e6c 0D       		.uleb128 0xd
 8865 1e6d 29000000 		.4byte	0x29
 8866 1e71 00       		.byte	0
 8867 1e72 39       		.uleb128 0x39
 8868 1e73 01       		.byte	0x1
 8869 1e74 1C020000 		.4byte	.LASF57
 8870 1e78 04       		.byte	0x4
 8871 1e79 BF       		.byte	0xbf
 8872 1e7a 01       		.byte	0x1
 8873 1e7b 29000000 		.4byte	0x29
ARM GAS  /tmp/ccj4yzJk.s 			page 157


 8874 1e7f 01       		.byte	0x1
 8875 1e80 8A1E0000 		.4byte	0x1e8a
 8876 1e84 0D       		.uleb128 0xd
 8877 1e85 29000000 		.4byte	0x29
 8878 1e89 00       		.byte	0
 8879 1e8a 39       		.uleb128 0x39
 8880 1e8b 01       		.byte	0x1
 8881 1e8c EC020000 		.4byte	.LASF58
 8882 1e90 06       		.byte	0x6
 8883 1e91 26       		.byte	0x26
 8884 1e92 01       		.byte	0x1
 8885 1e93 29000000 		.4byte	0x29
 8886 1e97 01       		.byte	0x1
 8887 1e98 A21E0000 		.4byte	0x1ea2
 8888 1e9c 0D       		.uleb128 0xd
 8889 1e9d 29000000 		.4byte	0x29
 8890 1ea1 00       		.byte	0
 8891 1ea2 3B       		.uleb128 0x3b
 8892 1ea3 01       		.byte	0x1
 8893 1ea4 ED010000 		.4byte	.LASF60
 8894 1ea8 04       		.byte	0x4
 8895 1ea9 D3       		.byte	0xd3
 8896 1eaa 01       		.byte	0x1
 8897 1eab 29000000 		.4byte	0x29
 8898 1eaf 01       		.byte	0x1
 8899 1eb0 0D       		.uleb128 0xd
 8900 1eb1 29000000 		.4byte	0x29
 8901 1eb5 0D       		.uleb128 0xd
 8902 1eb6 29000000 		.4byte	0x29
 8903 1eba 0D       		.uleb128 0xd
 8904 1ebb 29000000 		.4byte	0x29
 8905 1ebf 0D       		.uleb128 0xd
 8906 1ec0 29000000 		.4byte	0x29
 8907 1ec4 00       		.byte	0
 8908 1ec5 00       		.byte	0
 8909              		.section	.debug_abbrev,"",%progbits
 8910              	.Ldebug_abbrev0:
 8911 0000 01       		.uleb128 0x1
 8912 0001 11       		.uleb128 0x11
 8913 0002 01       		.byte	0x1
 8914 0003 25       		.uleb128 0x25
 8915 0004 0E       		.uleb128 0xe
 8916 0005 13       		.uleb128 0x13
 8917 0006 0B       		.uleb128 0xb
 8918 0007 03       		.uleb128 0x3
 8919 0008 0E       		.uleb128 0xe
 8920 0009 1B       		.uleb128 0x1b
 8921 000a 0E       		.uleb128 0xe
 8922 000b 55       		.uleb128 0x55
 8923 000c 06       		.uleb128 0x6
 8924 000d 11       		.uleb128 0x11
 8925 000e 01       		.uleb128 0x1
 8926 000f 52       		.uleb128 0x52
 8927 0010 01       		.uleb128 0x1
 8928 0011 10       		.uleb128 0x10
 8929 0012 06       		.uleb128 0x6
 8930 0013 00       		.byte	0
ARM GAS  /tmp/ccj4yzJk.s 			page 158


 8931 0014 00       		.byte	0
 8932 0015 02       		.uleb128 0x2
 8933 0016 24       		.uleb128 0x24
 8934 0017 00       		.byte	0
 8935 0018 0B       		.uleb128 0xb
 8936 0019 0B       		.uleb128 0xb
 8937 001a 3E       		.uleb128 0x3e
 8938 001b 0B       		.uleb128 0xb
 8939 001c 03       		.uleb128 0x3
 8940 001d 0E       		.uleb128 0xe
 8941 001e 00       		.byte	0
 8942 001f 00       		.byte	0
 8943 0020 03       		.uleb128 0x3
 8944 0021 24       		.uleb128 0x24
 8945 0022 00       		.byte	0
 8946 0023 0B       		.uleb128 0xb
 8947 0024 0B       		.uleb128 0xb
 8948 0025 3E       		.uleb128 0x3e
 8949 0026 0B       		.uleb128 0xb
 8950 0027 03       		.uleb128 0x3
 8951 0028 08       		.uleb128 0x8
 8952 0029 00       		.byte	0
 8953 002a 00       		.byte	0
 8954 002b 04       		.uleb128 0x4
 8955 002c 0F       		.uleb128 0xf
 8956 002d 00       		.byte	0
 8957 002e 0B       		.uleb128 0xb
 8958 002f 0B       		.uleb128 0xb
 8959 0030 00       		.byte	0
 8960 0031 00       		.byte	0
 8961 0032 05       		.uleb128 0x5
 8962 0033 13       		.uleb128 0x13
 8963 0034 01       		.byte	0x1
 8964 0035 03       		.uleb128 0x3
 8965 0036 0E       		.uleb128 0xe
 8966 0037 0B       		.uleb128 0xb
 8967 0038 0B       		.uleb128 0xb
 8968 0039 3A       		.uleb128 0x3a
 8969 003a 0B       		.uleb128 0xb
 8970 003b 3B       		.uleb128 0x3b
 8971 003c 0B       		.uleb128 0xb
 8972 003d 01       		.uleb128 0x1
 8973 003e 13       		.uleb128 0x13
 8974 003f 00       		.byte	0
 8975 0040 00       		.byte	0
 8976 0041 06       		.uleb128 0x6
 8977 0042 0D       		.uleb128 0xd
 8978 0043 00       		.byte	0
 8979 0044 03       		.uleb128 0x3
 8980 0045 08       		.uleb128 0x8
 8981 0046 3A       		.uleb128 0x3a
 8982 0047 0B       		.uleb128 0xb
 8983 0048 3B       		.uleb128 0x3b
 8984 0049 0B       		.uleb128 0xb
 8985 004a 49       		.uleb128 0x49
 8986 004b 13       		.uleb128 0x13
 8987 004c 38       		.uleb128 0x38
ARM GAS  /tmp/ccj4yzJk.s 			page 159


 8988 004d 0A       		.uleb128 0xa
 8989 004e 00       		.byte	0
 8990 004f 00       		.byte	0
 8991 0050 07       		.uleb128 0x7
 8992 0051 13       		.uleb128 0x13
 8993 0052 01       		.byte	0x1
 8994 0053 03       		.uleb128 0x3
 8995 0054 0E       		.uleb128 0xe
 8996 0055 0B       		.uleb128 0xb
 8997 0056 0B       		.uleb128 0xb
 8998 0057 3A       		.uleb128 0x3a
 8999 0058 0B       		.uleb128 0xb
 9000 0059 3B       		.uleb128 0x3b
 9001 005a 05       		.uleb128 0x5
 9002 005b 01       		.uleb128 0x1
 9003 005c 13       		.uleb128 0x13
 9004 005d 00       		.byte	0
 9005 005e 00       		.byte	0
 9006 005f 08       		.uleb128 0x8
 9007 0060 0D       		.uleb128 0xd
 9008 0061 00       		.byte	0
 9009 0062 03       		.uleb128 0x3
 9010 0063 0E       		.uleb128 0xe
 9011 0064 3A       		.uleb128 0x3a
 9012 0065 0B       		.uleb128 0xb
 9013 0066 3B       		.uleb128 0x3b
 9014 0067 05       		.uleb128 0x5
 9015 0068 49       		.uleb128 0x49
 9016 0069 13       		.uleb128 0x13
 9017 006a 38       		.uleb128 0x38
 9018 006b 0A       		.uleb128 0xa
 9019 006c 00       		.byte	0
 9020 006d 00       		.byte	0
 9021 006e 09       		.uleb128 0x9
 9022 006f 0D       		.uleb128 0xd
 9023 0070 00       		.byte	0
 9024 0071 03       		.uleb128 0x3
 9025 0072 08       		.uleb128 0x8
 9026 0073 3A       		.uleb128 0x3a
 9027 0074 0B       		.uleb128 0xb
 9028 0075 3B       		.uleb128 0x3b
 9029 0076 05       		.uleb128 0x5
 9030 0077 49       		.uleb128 0x49
 9031 0078 13       		.uleb128 0x13
 9032 0079 38       		.uleb128 0x38
 9033 007a 0A       		.uleb128 0xa
 9034 007b 00       		.byte	0
 9035 007c 00       		.byte	0
 9036 007d 0A       		.uleb128 0xa
 9037 007e 16       		.uleb128 0x16
 9038 007f 00       		.byte	0
 9039 0080 03       		.uleb128 0x3
 9040 0081 0E       		.uleb128 0xe
 9041 0082 3A       		.uleb128 0x3a
 9042 0083 0B       		.uleb128 0xb
 9043 0084 3B       		.uleb128 0x3b
 9044 0085 0B       		.uleb128 0xb
ARM GAS  /tmp/ccj4yzJk.s 			page 160


 9045 0086 49       		.uleb128 0x49
 9046 0087 13       		.uleb128 0x13
 9047 0088 00       		.byte	0
 9048 0089 00       		.byte	0
 9049 008a 0B       		.uleb128 0xb
 9050 008b 0F       		.uleb128 0xf
 9051 008c 00       		.byte	0
 9052 008d 0B       		.uleb128 0xb
 9053 008e 0B       		.uleb128 0xb
 9054 008f 49       		.uleb128 0x49
 9055 0090 13       		.uleb128 0x13
 9056 0091 00       		.byte	0
 9057 0092 00       		.byte	0
 9058 0093 0C       		.uleb128 0xc
 9059 0094 15       		.uleb128 0x15
 9060 0095 01       		.byte	0x1
 9061 0096 27       		.uleb128 0x27
 9062 0097 0C       		.uleb128 0xc
 9063 0098 01       		.uleb128 0x1
 9064 0099 13       		.uleb128 0x13
 9065 009a 00       		.byte	0
 9066 009b 00       		.byte	0
 9067 009c 0D       		.uleb128 0xd
 9068 009d 05       		.uleb128 0x5
 9069 009e 00       		.byte	0
 9070 009f 49       		.uleb128 0x49
 9071 00a0 13       		.uleb128 0x13
 9072 00a1 00       		.byte	0
 9073 00a2 00       		.byte	0
 9074 00a3 0E       		.uleb128 0xe
 9075 00a4 2E       		.uleb128 0x2e
 9076 00a5 01       		.byte	0x1
 9077 00a6 3F       		.uleb128 0x3f
 9078 00a7 0C       		.uleb128 0xc
 9079 00a8 03       		.uleb128 0x3
 9080 00a9 0E       		.uleb128 0xe
 9081 00aa 3A       		.uleb128 0x3a
 9082 00ab 0B       		.uleb128 0xb
 9083 00ac 3B       		.uleb128 0x3b
 9084 00ad 0B       		.uleb128 0xb
 9085 00ae 27       		.uleb128 0x27
 9086 00af 0C       		.uleb128 0xc
 9087 00b0 49       		.uleb128 0x49
 9088 00b1 13       		.uleb128 0x13
 9089 00b2 20       		.uleb128 0x20
 9090 00b3 0B       		.uleb128 0xb
 9091 00b4 01       		.uleb128 0x1
 9092 00b5 13       		.uleb128 0x13
 9093 00b6 00       		.byte	0
 9094 00b7 00       		.byte	0
 9095 00b8 0F       		.uleb128 0xf
 9096 00b9 05       		.uleb128 0x5
 9097 00ba 00       		.byte	0
 9098 00bb 03       		.uleb128 0x3
 9099 00bc 0E       		.uleb128 0xe
 9100 00bd 3A       		.uleb128 0x3a
 9101 00be 0B       		.uleb128 0xb
ARM GAS  /tmp/ccj4yzJk.s 			page 161


 9102 00bf 3B       		.uleb128 0x3b
 9103 00c0 0B       		.uleb128 0xb
 9104 00c1 49       		.uleb128 0x49
 9105 00c2 13       		.uleb128 0x13
 9106 00c3 00       		.byte	0
 9107 00c4 00       		.byte	0
 9108 00c5 10       		.uleb128 0x10
 9109 00c6 05       		.uleb128 0x5
 9110 00c7 00       		.byte	0
 9111 00c8 03       		.uleb128 0x3
 9112 00c9 08       		.uleb128 0x8
 9113 00ca 3A       		.uleb128 0x3a
 9114 00cb 0B       		.uleb128 0xb
 9115 00cc 3B       		.uleb128 0x3b
 9116 00cd 0B       		.uleb128 0xb
 9117 00ce 49       		.uleb128 0x49
 9118 00cf 13       		.uleb128 0x13
 9119 00d0 00       		.byte	0
 9120 00d1 00       		.byte	0
 9121 00d2 11       		.uleb128 0x11
 9122 00d3 34       		.uleb128 0x34
 9123 00d4 00       		.byte	0
 9124 00d5 03       		.uleb128 0x3
 9125 00d6 08       		.uleb128 0x8
 9126 00d7 3A       		.uleb128 0x3a
 9127 00d8 0B       		.uleb128 0xb
 9128 00d9 3B       		.uleb128 0x3b
 9129 00da 0B       		.uleb128 0xb
 9130 00db 49       		.uleb128 0x49
 9131 00dc 13       		.uleb128 0x13
 9132 00dd 00       		.byte	0
 9133 00de 00       		.byte	0
 9134 00df 12       		.uleb128 0x12
 9135 00e0 2E       		.uleb128 0x2e
 9136 00e1 01       		.byte	0x1
 9137 00e2 3F       		.uleb128 0x3f
 9138 00e3 0C       		.uleb128 0xc
 9139 00e4 03       		.uleb128 0x3
 9140 00e5 0E       		.uleb128 0xe
 9141 00e6 3A       		.uleb128 0x3a
 9142 00e7 0B       		.uleb128 0xb
 9143 00e8 3B       		.uleb128 0x3b
 9144 00e9 0B       		.uleb128 0xb
 9145 00ea 27       		.uleb128 0x27
 9146 00eb 0C       		.uleb128 0xc
 9147 00ec 20       		.uleb128 0x20
 9148 00ed 0B       		.uleb128 0xb
 9149 00ee 01       		.uleb128 0x1
 9150 00ef 13       		.uleb128 0x13
 9151 00f0 00       		.byte	0
 9152 00f1 00       		.byte	0
 9153 00f2 13       		.uleb128 0x13
 9154 00f3 2E       		.uleb128 0x2e
 9155 00f4 01       		.byte	0x1
 9156 00f5 31       		.uleb128 0x31
 9157 00f6 13       		.uleb128 0x13
 9158 00f7 11       		.uleb128 0x11
ARM GAS  /tmp/ccj4yzJk.s 			page 162


 9159 00f8 01       		.uleb128 0x1
 9160 00f9 12       		.uleb128 0x12
 9161 00fa 01       		.uleb128 0x1
 9162 00fb 40       		.uleb128 0x40
 9163 00fc 06       		.uleb128 0x6
 9164 00fd 9642     		.uleb128 0x2116
 9165 00ff 0C       		.uleb128 0xc
 9166 0100 01       		.uleb128 0x1
 9167 0101 13       		.uleb128 0x13
 9168 0102 00       		.byte	0
 9169 0103 00       		.byte	0
 9170 0104 14       		.uleb128 0x14
 9171 0105 05       		.uleb128 0x5
 9172 0106 00       		.byte	0
 9173 0107 31       		.uleb128 0x31
 9174 0108 13       		.uleb128 0x13
 9175 0109 02       		.uleb128 0x2
 9176 010a 06       		.uleb128 0x6
 9177 010b 00       		.byte	0
 9178 010c 00       		.byte	0
 9179 010d 15       		.uleb128 0x15
 9180 010e 05       		.uleb128 0x5
 9181 010f 00       		.byte	0
 9182 0110 31       		.uleb128 0x31
 9183 0111 13       		.uleb128 0x13
 9184 0112 02       		.uleb128 0x2
 9185 0113 0A       		.uleb128 0xa
 9186 0114 00       		.byte	0
 9187 0115 00       		.byte	0
 9188 0116 16       		.uleb128 0x16
 9189 0117 34       		.uleb128 0x34
 9190 0118 00       		.byte	0
 9191 0119 31       		.uleb128 0x31
 9192 011a 13       		.uleb128 0x13
 9193 011b 02       		.uleb128 0x2
 9194 011c 06       		.uleb128 0x6
 9195 011d 00       		.byte	0
 9196 011e 00       		.byte	0
 9197 011f 17       		.uleb128 0x17
 9198 0120 2E       		.uleb128 0x2e
 9199 0121 01       		.byte	0x1
 9200 0122 3F       		.uleb128 0x3f
 9201 0123 0C       		.uleb128 0xc
 9202 0124 03       		.uleb128 0x3
 9203 0125 0E       		.uleb128 0xe
 9204 0126 3A       		.uleb128 0x3a
 9205 0127 0B       		.uleb128 0xb
 9206 0128 3B       		.uleb128 0x3b
 9207 0129 0B       		.uleb128 0xb
 9208 012a 27       		.uleb128 0x27
 9209 012b 0C       		.uleb128 0xc
 9210 012c 49       		.uleb128 0x49
 9211 012d 13       		.uleb128 0x13
 9212 012e 11       		.uleb128 0x11
 9213 012f 01       		.uleb128 0x1
 9214 0130 12       		.uleb128 0x12
 9215 0131 01       		.uleb128 0x1
ARM GAS  /tmp/ccj4yzJk.s 			page 163


 9216 0132 40       		.uleb128 0x40
 9217 0133 06       		.uleb128 0x6
 9218 0134 9642     		.uleb128 0x2116
 9219 0136 0C       		.uleb128 0xc
 9220 0137 01       		.uleb128 0x1
 9221 0138 13       		.uleb128 0x13
 9222 0139 00       		.byte	0
 9223 013a 00       		.byte	0
 9224 013b 18       		.uleb128 0x18
 9225 013c 05       		.uleb128 0x5
 9226 013d 00       		.byte	0
 9227 013e 03       		.uleb128 0x3
 9228 013f 08       		.uleb128 0x8
 9229 0140 3A       		.uleb128 0x3a
 9230 0141 0B       		.uleb128 0xb
 9231 0142 3B       		.uleb128 0x3b
 9232 0143 0B       		.uleb128 0xb
 9233 0144 49       		.uleb128 0x49
 9234 0145 13       		.uleb128 0x13
 9235 0146 02       		.uleb128 0x2
 9236 0147 06       		.uleb128 0x6
 9237 0148 00       		.byte	0
 9238 0149 00       		.byte	0
 9239 014a 19       		.uleb128 0x19
 9240 014b 05       		.uleb128 0x5
 9241 014c 00       		.byte	0
 9242 014d 03       		.uleb128 0x3
 9243 014e 0E       		.uleb128 0xe
 9244 014f 3A       		.uleb128 0x3a
 9245 0150 0B       		.uleb128 0xb
 9246 0151 3B       		.uleb128 0x3b
 9247 0152 0B       		.uleb128 0xb
 9248 0153 49       		.uleb128 0x49
 9249 0154 13       		.uleb128 0x13
 9250 0155 02       		.uleb128 0x2
 9251 0156 06       		.uleb128 0x6
 9252 0157 00       		.byte	0
 9253 0158 00       		.byte	0
 9254 0159 1A       		.uleb128 0x1a
 9255 015a 05       		.uleb128 0x5
 9256 015b 00       		.byte	0
 9257 015c 03       		.uleb128 0x3
 9258 015d 0E       		.uleb128 0xe
 9259 015e 3A       		.uleb128 0x3a
 9260 015f 0B       		.uleb128 0xb
 9261 0160 3B       		.uleb128 0x3b
 9262 0161 0B       		.uleb128 0xb
 9263 0162 49       		.uleb128 0x49
 9264 0163 13       		.uleb128 0x13
 9265 0164 02       		.uleb128 0x2
 9266 0165 0A       		.uleb128 0xa
 9267 0166 00       		.byte	0
 9268 0167 00       		.byte	0
 9269 0168 1B       		.uleb128 0x1b
 9270 0169 05       		.uleb128 0x5
 9271 016a 00       		.byte	0
 9272 016b 03       		.uleb128 0x3
ARM GAS  /tmp/ccj4yzJk.s 			page 164


 9273 016c 08       		.uleb128 0x8
 9274 016d 3A       		.uleb128 0x3a
 9275 016e 0B       		.uleb128 0xb
 9276 016f 3B       		.uleb128 0x3b
 9277 0170 0B       		.uleb128 0xb
 9278 0171 49       		.uleb128 0x49
 9279 0172 13       		.uleb128 0x13
 9280 0173 02       		.uleb128 0x2
 9281 0174 0A       		.uleb128 0xa
 9282 0175 00       		.byte	0
 9283 0176 00       		.byte	0
 9284 0177 1C       		.uleb128 0x1c
 9285 0178 34       		.uleb128 0x34
 9286 0179 00       		.byte	0
 9287 017a 03       		.uleb128 0x3
 9288 017b 08       		.uleb128 0x8
 9289 017c 3A       		.uleb128 0x3a
 9290 017d 0B       		.uleb128 0xb
 9291 017e 3B       		.uleb128 0x3b
 9292 017f 0B       		.uleb128 0xb
 9293 0180 49       		.uleb128 0x49
 9294 0181 13       		.uleb128 0x13
 9295 0182 02       		.uleb128 0x2
 9296 0183 06       		.uleb128 0x6
 9297 0184 00       		.byte	0
 9298 0185 00       		.byte	0
 9299 0186 1D       		.uleb128 0x1d
 9300 0187 34       		.uleb128 0x34
 9301 0188 00       		.byte	0
 9302 0189 03       		.uleb128 0x3
 9303 018a 0E       		.uleb128 0xe
 9304 018b 3A       		.uleb128 0x3a
 9305 018c 0B       		.uleb128 0xb
 9306 018d 3B       		.uleb128 0x3b
 9307 018e 0B       		.uleb128 0xb
 9308 018f 49       		.uleb128 0x49
 9309 0190 13       		.uleb128 0x13
 9310 0191 02       		.uleb128 0x2
 9311 0192 06       		.uleb128 0x6
 9312 0193 00       		.byte	0
 9313 0194 00       		.byte	0
 9314 0195 1E       		.uleb128 0x1e
 9315 0196 34       		.uleb128 0x34
 9316 0197 00       		.byte	0
 9317 0198 03       		.uleb128 0x3
 9318 0199 08       		.uleb128 0x8
 9319 019a 3A       		.uleb128 0x3a
 9320 019b 0B       		.uleb128 0xb
 9321 019c 3B       		.uleb128 0x3b
 9322 019d 0B       		.uleb128 0xb
 9323 019e 49       		.uleb128 0x49
 9324 019f 13       		.uleb128 0x13
 9325 01a0 02       		.uleb128 0x2
 9326 01a1 0A       		.uleb128 0xa
 9327 01a2 00       		.byte	0
 9328 01a3 00       		.byte	0
 9329 01a4 1F       		.uleb128 0x1f
ARM GAS  /tmp/ccj4yzJk.s 			page 165


 9330 01a5 1D       		.uleb128 0x1d
 9331 01a6 01       		.byte	0x1
 9332 01a7 31       		.uleb128 0x31
 9333 01a8 13       		.uleb128 0x13
 9334 01a9 52       		.uleb128 0x52
 9335 01aa 01       		.uleb128 0x1
 9336 01ab 55       		.uleb128 0x55
 9337 01ac 06       		.uleb128 0x6
 9338 01ad 58       		.uleb128 0x58
 9339 01ae 0B       		.uleb128 0xb
 9340 01af 59       		.uleb128 0x59
 9341 01b0 0B       		.uleb128 0xb
 9342 01b1 01       		.uleb128 0x1
 9343 01b2 13       		.uleb128 0x13
 9344 01b3 00       		.byte	0
 9345 01b4 00       		.byte	0
 9346 01b5 20       		.uleb128 0x20
 9347 01b6 0B       		.uleb128 0xb
 9348 01b7 01       		.byte	0x1
 9349 01b8 55       		.uleb128 0x55
 9350 01b9 06       		.uleb128 0x6
 9351 01ba 00       		.byte	0
 9352 01bb 00       		.byte	0
 9353 01bc 21       		.uleb128 0x21
 9354 01bd 898201   		.uleb128 0x4109
 9355 01c0 01       		.byte	0x1
 9356 01c1 11       		.uleb128 0x11
 9357 01c2 01       		.uleb128 0x1
 9358 01c3 31       		.uleb128 0x31
 9359 01c4 13       		.uleb128 0x13
 9360 01c5 01       		.uleb128 0x1
 9361 01c6 13       		.uleb128 0x13
 9362 01c7 00       		.byte	0
 9363 01c8 00       		.byte	0
 9364 01c9 22       		.uleb128 0x22
 9365 01ca 8A8201   		.uleb128 0x410a
 9366 01cd 00       		.byte	0
 9367 01ce 02       		.uleb128 0x2
 9368 01cf 0A       		.uleb128 0xa
 9369 01d0 9142     		.uleb128 0x2111
 9370 01d2 0A       		.uleb128 0xa
 9371 01d3 00       		.byte	0
 9372 01d4 00       		.byte	0
 9373 01d5 23       		.uleb128 0x23
 9374 01d6 898201   		.uleb128 0x4109
 9375 01d9 00       		.byte	0
 9376 01da 11       		.uleb128 0x11
 9377 01db 01       		.uleb128 0x1
 9378 01dc 31       		.uleb128 0x31
 9379 01dd 13       		.uleb128 0x13
 9380 01de 00       		.byte	0
 9381 01df 00       		.byte	0
 9382 01e0 24       		.uleb128 0x24
 9383 01e1 2E       		.uleb128 0x2e
 9384 01e2 01       		.byte	0x1
 9385 01e3 3F       		.uleb128 0x3f
 9386 01e4 0C       		.uleb128 0xc
ARM GAS  /tmp/ccj4yzJk.s 			page 166


 9387 01e5 03       		.uleb128 0x3
 9388 01e6 0E       		.uleb128 0xe
 9389 01e7 3A       		.uleb128 0x3a
 9390 01e8 0B       		.uleb128 0xb
 9391 01e9 3B       		.uleb128 0x3b
 9392 01ea 0B       		.uleb128 0xb
 9393 01eb 27       		.uleb128 0x27
 9394 01ec 0C       		.uleb128 0xc
 9395 01ed 49       		.uleb128 0x49
 9396 01ee 13       		.uleb128 0x13
 9397 01ef 11       		.uleb128 0x11
 9398 01f0 01       		.uleb128 0x1
 9399 01f1 12       		.uleb128 0x12
 9400 01f2 01       		.uleb128 0x1
 9401 01f3 40       		.uleb128 0x40
 9402 01f4 06       		.uleb128 0x6
 9403 01f5 9742     		.uleb128 0x2117
 9404 01f7 0C       		.uleb128 0xc
 9405 01f8 01       		.uleb128 0x1
 9406 01f9 13       		.uleb128 0x13
 9407 01fa 00       		.byte	0
 9408 01fb 00       		.byte	0
 9409 01fc 25       		.uleb128 0x25
 9410 01fd 898201   		.uleb128 0x4109
 9411 0200 01       		.byte	0x1
 9412 0201 11       		.uleb128 0x11
 9413 0202 01       		.uleb128 0x1
 9414 0203 31       		.uleb128 0x31
 9415 0204 13       		.uleb128 0x13
 9416 0205 00       		.byte	0
 9417 0206 00       		.byte	0
 9418 0207 26       		.uleb128 0x26
 9419 0208 34       		.uleb128 0x34
 9420 0209 00       		.byte	0
 9421 020a 03       		.uleb128 0x3
 9422 020b 0E       		.uleb128 0xe
 9423 020c 3A       		.uleb128 0x3a
 9424 020d 0B       		.uleb128 0xb
 9425 020e 3B       		.uleb128 0x3b
 9426 020f 0B       		.uleb128 0xb
 9427 0210 49       		.uleb128 0x49
 9428 0211 13       		.uleb128 0x13
 9429 0212 02       		.uleb128 0x2
 9430 0213 0A       		.uleb128 0xa
 9431 0214 00       		.byte	0
 9432 0215 00       		.byte	0
 9433 0216 27       		.uleb128 0x27
 9434 0217 1D       		.uleb128 0x1d
 9435 0218 01       		.byte	0x1
 9436 0219 31       		.uleb128 0x31
 9437 021a 13       		.uleb128 0x13
 9438 021b 11       		.uleb128 0x11
 9439 021c 01       		.uleb128 0x1
 9440 021d 12       		.uleb128 0x12
 9441 021e 01       		.uleb128 0x1
 9442 021f 58       		.uleb128 0x58
 9443 0220 0B       		.uleb128 0xb
ARM GAS  /tmp/ccj4yzJk.s 			page 167


 9444 0221 59       		.uleb128 0x59
 9445 0222 0B       		.uleb128 0xb
 9446 0223 01       		.uleb128 0x1
 9447 0224 13       		.uleb128 0x13
 9448 0225 00       		.byte	0
 9449 0226 00       		.byte	0
 9450 0227 28       		.uleb128 0x28
 9451 0228 05       		.uleb128 0x5
 9452 0229 00       		.byte	0
 9453 022a 31       		.uleb128 0x31
 9454 022b 13       		.uleb128 0x13
 9455 022c 1C       		.uleb128 0x1c
 9456 022d 0A       		.uleb128 0xa
 9457 022e 00       		.byte	0
 9458 022f 00       		.byte	0
 9459 0230 29       		.uleb128 0x29
 9460 0231 2E       		.uleb128 0x2e
 9461 0232 01       		.byte	0x1
 9462 0233 3F       		.uleb128 0x3f
 9463 0234 0C       		.uleb128 0xc
 9464 0235 03       		.uleb128 0x3
 9465 0236 0E       		.uleb128 0xe
 9466 0237 3A       		.uleb128 0x3a
 9467 0238 0B       		.uleb128 0xb
 9468 0239 3B       		.uleb128 0x3b
 9469 023a 05       		.uleb128 0x5
 9470 023b 27       		.uleb128 0x27
 9471 023c 0C       		.uleb128 0xc
 9472 023d 49       		.uleb128 0x49
 9473 023e 13       		.uleb128 0x13
 9474 023f 11       		.uleb128 0x11
 9475 0240 01       		.uleb128 0x1
 9476 0241 12       		.uleb128 0x12
 9477 0242 01       		.uleb128 0x1
 9478 0243 40       		.uleb128 0x40
 9479 0244 06       		.uleb128 0x6
 9480 0245 9642     		.uleb128 0x2116
 9481 0247 0C       		.uleb128 0xc
 9482 0248 01       		.uleb128 0x1
 9483 0249 13       		.uleb128 0x13
 9484 024a 00       		.byte	0
 9485 024b 00       		.byte	0
 9486 024c 2A       		.uleb128 0x2a
 9487 024d 05       		.uleb128 0x5
 9488 024e 00       		.byte	0
 9489 024f 03       		.uleb128 0x3
 9490 0250 08       		.uleb128 0x8
 9491 0251 3A       		.uleb128 0x3a
 9492 0252 0B       		.uleb128 0xb
 9493 0253 3B       		.uleb128 0x3b
 9494 0254 05       		.uleb128 0x5
 9495 0255 49       		.uleb128 0x49
 9496 0256 13       		.uleb128 0x13
 9497 0257 02       		.uleb128 0x2
 9498 0258 06       		.uleb128 0x6
 9499 0259 00       		.byte	0
 9500 025a 00       		.byte	0
ARM GAS  /tmp/ccj4yzJk.s 			page 168


 9501 025b 2B       		.uleb128 0x2b
 9502 025c 05       		.uleb128 0x5
 9503 025d 00       		.byte	0
 9504 025e 03       		.uleb128 0x3
 9505 025f 0E       		.uleb128 0xe
 9506 0260 3A       		.uleb128 0x3a
 9507 0261 0B       		.uleb128 0xb
 9508 0262 3B       		.uleb128 0x3b
 9509 0263 05       		.uleb128 0x5
 9510 0264 49       		.uleb128 0x49
 9511 0265 13       		.uleb128 0x13
 9512 0266 02       		.uleb128 0x2
 9513 0267 06       		.uleb128 0x6
 9514 0268 00       		.byte	0
 9515 0269 00       		.byte	0
 9516 026a 2C       		.uleb128 0x2c
 9517 026b 05       		.uleb128 0x5
 9518 026c 00       		.byte	0
 9519 026d 03       		.uleb128 0x3
 9520 026e 0E       		.uleb128 0xe
 9521 026f 3A       		.uleb128 0x3a
 9522 0270 0B       		.uleb128 0xb
 9523 0271 3B       		.uleb128 0x3b
 9524 0272 05       		.uleb128 0x5
 9525 0273 49       		.uleb128 0x49
 9526 0274 13       		.uleb128 0x13
 9527 0275 02       		.uleb128 0x2
 9528 0276 0A       		.uleb128 0xa
 9529 0277 00       		.byte	0
 9530 0278 00       		.byte	0
 9531 0279 2D       		.uleb128 0x2d
 9532 027a 05       		.uleb128 0x5
 9533 027b 00       		.byte	0
 9534 027c 03       		.uleb128 0x3
 9535 027d 08       		.uleb128 0x8
 9536 027e 3A       		.uleb128 0x3a
 9537 027f 0B       		.uleb128 0xb
 9538 0280 3B       		.uleb128 0x3b
 9539 0281 05       		.uleb128 0x5
 9540 0282 49       		.uleb128 0x49
 9541 0283 13       		.uleb128 0x13
 9542 0284 02       		.uleb128 0x2
 9543 0285 0A       		.uleb128 0xa
 9544 0286 00       		.byte	0
 9545 0287 00       		.byte	0
 9546 0288 2E       		.uleb128 0x2e
 9547 0289 34       		.uleb128 0x34
 9548 028a 00       		.byte	0
 9549 028b 03       		.uleb128 0x3
 9550 028c 08       		.uleb128 0x8
 9551 028d 3A       		.uleb128 0x3a
 9552 028e 0B       		.uleb128 0xb
 9553 028f 3B       		.uleb128 0x3b
 9554 0290 05       		.uleb128 0x5
 9555 0291 49       		.uleb128 0x49
 9556 0292 13       		.uleb128 0x13
 9557 0293 02       		.uleb128 0x2
ARM GAS  /tmp/ccj4yzJk.s 			page 169


 9558 0294 06       		.uleb128 0x6
 9559 0295 00       		.byte	0
 9560 0296 00       		.byte	0
 9561 0297 2F       		.uleb128 0x2f
 9562 0298 34       		.uleb128 0x34
 9563 0299 00       		.byte	0
 9564 029a 03       		.uleb128 0x3
 9565 029b 0E       		.uleb128 0xe
 9566 029c 3A       		.uleb128 0x3a
 9567 029d 0B       		.uleb128 0xb
 9568 029e 3B       		.uleb128 0x3b
 9569 029f 05       		.uleb128 0x5
 9570 02a0 49       		.uleb128 0x49
 9571 02a1 13       		.uleb128 0x13
 9572 02a2 02       		.uleb128 0x2
 9573 02a3 06       		.uleb128 0x6
 9574 02a4 00       		.byte	0
 9575 02a5 00       		.byte	0
 9576 02a6 30       		.uleb128 0x30
 9577 02a7 34       		.uleb128 0x34
 9578 02a8 00       		.byte	0
 9579 02a9 03       		.uleb128 0x3
 9580 02aa 0E       		.uleb128 0xe
 9581 02ab 3A       		.uleb128 0x3a
 9582 02ac 0B       		.uleb128 0xb
 9583 02ad 3B       		.uleb128 0x3b
 9584 02ae 05       		.uleb128 0x5
 9585 02af 49       		.uleb128 0x49
 9586 02b0 13       		.uleb128 0x13
 9587 02b1 02       		.uleb128 0x2
 9588 02b2 0A       		.uleb128 0xa
 9589 02b3 00       		.byte	0
 9590 02b4 00       		.byte	0
 9591 02b5 31       		.uleb128 0x31
 9592 02b6 34       		.uleb128 0x34
 9593 02b7 00       		.byte	0
 9594 02b8 03       		.uleb128 0x3
 9595 02b9 08       		.uleb128 0x8
 9596 02ba 3A       		.uleb128 0x3a
 9597 02bb 0B       		.uleb128 0xb
 9598 02bc 3B       		.uleb128 0x3b
 9599 02bd 05       		.uleb128 0x5
 9600 02be 49       		.uleb128 0x49
 9601 02bf 13       		.uleb128 0x13
 9602 02c0 02       		.uleb128 0x2
 9603 02c1 0A       		.uleb128 0xa
 9604 02c2 00       		.byte	0
 9605 02c3 00       		.byte	0
 9606 02c4 32       		.uleb128 0x32
 9607 02c5 1D       		.uleb128 0x1d
 9608 02c6 01       		.byte	0x1
 9609 02c7 31       		.uleb128 0x31
 9610 02c8 13       		.uleb128 0x13
 9611 02c9 52       		.uleb128 0x52
 9612 02ca 01       		.uleb128 0x1
 9613 02cb 55       		.uleb128 0x55
 9614 02cc 06       		.uleb128 0x6
ARM GAS  /tmp/ccj4yzJk.s 			page 170


 9615 02cd 58       		.uleb128 0x58
 9616 02ce 0B       		.uleb128 0xb
 9617 02cf 59       		.uleb128 0x59
 9618 02d0 05       		.uleb128 0x5
 9619 02d1 01       		.uleb128 0x1
 9620 02d2 13       		.uleb128 0x13
 9621 02d3 00       		.byte	0
 9622 02d4 00       		.byte	0
 9623 02d5 33       		.uleb128 0x33
 9624 02d6 898201   		.uleb128 0x4109
 9625 02d9 01       		.byte	0x1
 9626 02da 11       		.uleb128 0x11
 9627 02db 01       		.uleb128 0x1
 9628 02dc 9342     		.uleb128 0x2113
 9629 02de 0A       		.uleb128 0xa
 9630 02df 01       		.uleb128 0x1
 9631 02e0 13       		.uleb128 0x13
 9632 02e1 00       		.byte	0
 9633 02e2 00       		.byte	0
 9634 02e3 34       		.uleb128 0x34
 9635 02e4 0B       		.uleb128 0xb
 9636 02e5 01       		.byte	0x1
 9637 02e6 11       		.uleb128 0x11
 9638 02e7 01       		.uleb128 0x1
 9639 02e8 12       		.uleb128 0x12
 9640 02e9 01       		.uleb128 0x1
 9641 02ea 01       		.uleb128 0x1
 9642 02eb 13       		.uleb128 0x13
 9643 02ec 00       		.byte	0
 9644 02ed 00       		.byte	0
 9645 02ee 35       		.uleb128 0x35
 9646 02ef 1D       		.uleb128 0x1d
 9647 02f0 01       		.byte	0x1
 9648 02f1 31       		.uleb128 0x31
 9649 02f2 13       		.uleb128 0x13
 9650 02f3 11       		.uleb128 0x11
 9651 02f4 01       		.uleb128 0x1
 9652 02f5 12       		.uleb128 0x12
 9653 02f6 01       		.uleb128 0x1
 9654 02f7 58       		.uleb128 0x58
 9655 02f8 0B       		.uleb128 0xb
 9656 02f9 59       		.uleb128 0x59
 9657 02fa 05       		.uleb128 0x5
 9658 02fb 01       		.uleb128 0x1
 9659 02fc 13       		.uleb128 0x13
 9660 02fd 00       		.byte	0
 9661 02fe 00       		.byte	0
 9662 02ff 36       		.uleb128 0x36
 9663 0300 2E       		.uleb128 0x2e
 9664 0301 01       		.byte	0x1
 9665 0302 3F       		.uleb128 0x3f
 9666 0303 0C       		.uleb128 0xc
 9667 0304 03       		.uleb128 0x3
 9668 0305 0E       		.uleb128 0xe
 9669 0306 3A       		.uleb128 0x3a
 9670 0307 0B       		.uleb128 0xb
 9671 0308 3B       		.uleb128 0x3b
ARM GAS  /tmp/ccj4yzJk.s 			page 171


 9672 0309 05       		.uleb128 0x5
 9673 030a 27       		.uleb128 0x27
 9674 030b 0C       		.uleb128 0xc
 9675 030c 49       		.uleb128 0x49
 9676 030d 13       		.uleb128 0x13
 9677 030e 11       		.uleb128 0x11
 9678 030f 01       		.uleb128 0x1
 9679 0310 12       		.uleb128 0x12
 9680 0311 01       		.uleb128 0x1
 9681 0312 40       		.uleb128 0x40
 9682 0313 06       		.uleb128 0x6
 9683 0314 9742     		.uleb128 0x2117
 9684 0316 0C       		.uleb128 0xc
 9685 0317 01       		.uleb128 0x1
 9686 0318 13       		.uleb128 0x13
 9687 0319 00       		.byte	0
 9688 031a 00       		.byte	0
 9689 031b 37       		.uleb128 0x37
 9690 031c 34       		.uleb128 0x34
 9691 031d 00       		.byte	0
 9692 031e 03       		.uleb128 0x3
 9693 031f 0E       		.uleb128 0xe
 9694 0320 3A       		.uleb128 0x3a
 9695 0321 0B       		.uleb128 0xb
 9696 0322 3B       		.uleb128 0x3b
 9697 0323 05       		.uleb128 0x5
 9698 0324 49       		.uleb128 0x49
 9699 0325 13       		.uleb128 0x13
 9700 0326 00       		.byte	0
 9701 0327 00       		.byte	0
 9702 0328 38       		.uleb128 0x38
 9703 0329 34       		.uleb128 0x34
 9704 032a 00       		.byte	0
 9705 032b 03       		.uleb128 0x3
 9706 032c 08       		.uleb128 0x8
 9707 032d 3A       		.uleb128 0x3a
 9708 032e 0B       		.uleb128 0xb
 9709 032f 3B       		.uleb128 0x3b
 9710 0330 05       		.uleb128 0x5
 9711 0331 49       		.uleb128 0x49
 9712 0332 13       		.uleb128 0x13
 9713 0333 00       		.byte	0
 9714 0334 00       		.byte	0
 9715 0335 39       		.uleb128 0x39
 9716 0336 2E       		.uleb128 0x2e
 9717 0337 01       		.byte	0x1
 9718 0338 3F       		.uleb128 0x3f
 9719 0339 0C       		.uleb128 0xc
 9720 033a 03       		.uleb128 0x3
 9721 033b 0E       		.uleb128 0xe
 9722 033c 3A       		.uleb128 0x3a
 9723 033d 0B       		.uleb128 0xb
 9724 033e 3B       		.uleb128 0x3b
 9725 033f 0B       		.uleb128 0xb
 9726 0340 27       		.uleb128 0x27
 9727 0341 0C       		.uleb128 0xc
 9728 0342 49       		.uleb128 0x49
ARM GAS  /tmp/ccj4yzJk.s 			page 172


 9729 0343 13       		.uleb128 0x13
 9730 0344 3C       		.uleb128 0x3c
 9731 0345 0C       		.uleb128 0xc
 9732 0346 01       		.uleb128 0x1
 9733 0347 13       		.uleb128 0x13
 9734 0348 00       		.byte	0
 9735 0349 00       		.byte	0
 9736 034a 3A       		.uleb128 0x3a
 9737 034b 2E       		.uleb128 0x2e
 9738 034c 01       		.byte	0x1
 9739 034d 3F       		.uleb128 0x3f
 9740 034e 0C       		.uleb128 0xc
 9741 034f 03       		.uleb128 0x3
 9742 0350 08       		.uleb128 0x8
 9743 0351 3A       		.uleb128 0x3a
 9744 0352 0B       		.uleb128 0xb
 9745 0353 3B       		.uleb128 0x3b
 9746 0354 0B       		.uleb128 0xb
 9747 0355 27       		.uleb128 0x27
 9748 0356 0C       		.uleb128 0xc
 9749 0357 49       		.uleb128 0x49
 9750 0358 13       		.uleb128 0x13
 9751 0359 3C       		.uleb128 0x3c
 9752 035a 0C       		.uleb128 0xc
 9753 035b 01       		.uleb128 0x1
 9754 035c 13       		.uleb128 0x13
 9755 035d 00       		.byte	0
 9756 035e 00       		.byte	0
 9757 035f 3B       		.uleb128 0x3b
 9758 0360 2E       		.uleb128 0x2e
 9759 0361 01       		.byte	0x1
 9760 0362 3F       		.uleb128 0x3f
 9761 0363 0C       		.uleb128 0xc
 9762 0364 03       		.uleb128 0x3
 9763 0365 0E       		.uleb128 0xe
 9764 0366 3A       		.uleb128 0x3a
 9765 0367 0B       		.uleb128 0xb
 9766 0368 3B       		.uleb128 0x3b
 9767 0369 0B       		.uleb128 0xb
 9768 036a 27       		.uleb128 0x27
 9769 036b 0C       		.uleb128 0xc
 9770 036c 49       		.uleb128 0x49
 9771 036d 13       		.uleb128 0x13
 9772 036e 3C       		.uleb128 0x3c
 9773 036f 0C       		.uleb128 0xc
 9774 0370 00       		.byte	0
 9775 0371 00       		.byte	0
 9776 0372 00       		.byte	0
 9777              		.section	.debug_loc,"",%progbits
 9778              	.Ldebug_loc0:
 9779              	.LLST0:
 9780 0000 00000000 		.4byte	.LFB0
 9781 0004 02000000 		.4byte	.LCFI0
 9782 0008 0200     		.2byte	0x2
 9783 000a 7D       		.byte	0x7d
 9784 000b 00       		.sleb128 0
 9785 000c 02000000 		.4byte	.LCFI0
ARM GAS  /tmp/ccj4yzJk.s 			page 173


 9786 0010 A8000000 		.4byte	.LFE0
 9787 0014 0200     		.2byte	0x2
 9788 0016 7D       		.byte	0x7d
 9789 0017 10       		.sleb128 16
 9790 0018 00000000 		.4byte	0
 9791 001c 00000000 		.4byte	0
 9792              	.LLST1:
 9793 0020 00000000 		.4byte	.LVL0
 9794 0024 14000000 		.4byte	.LVL2
 9795 0028 0100     		.2byte	0x1
 9796 002a 50       		.byte	0x50
 9797 002b 14000000 		.4byte	.LVL2
 9798 002f A8000000 		.4byte	.LFE0
 9799 0033 0100     		.2byte	0x1
 9800 0035 56       		.byte	0x56
 9801 0036 00000000 		.4byte	0
 9802 003a 00000000 		.4byte	0
 9803              	.LLST2:
 9804 003e 00000000 		.4byte	.LVL0
 9805 0042 0E000000 		.4byte	.LVL1
 9806 0046 0600     		.2byte	0x6
 9807 0048 52       		.byte	0x52
 9808 0049 93       		.byte	0x93
 9809 004a 04       		.uleb128 0x4
 9810 004b 53       		.byte	0x53
 9811 004c 93       		.byte	0x93
 9812 004d 04       		.uleb128 0x4
 9813 004e 0E000000 		.4byte	.LVL1
 9814 0052 A8000000 		.4byte	.LFE0
 9815 0056 0600     		.2byte	0x6
 9816 0058 F3       		.byte	0xf3
 9817 0059 03       		.uleb128 0x3
 9818 005a F5       		.byte	0xf5
 9819 005b 02       		.uleb128 0x2
 9820 005c 29       		.uleb128 0x29
 9821 005d 9F       		.byte	0x9f
 9822 005e 00000000 		.4byte	0
 9823 0062 00000000 		.4byte	0
 9824              	.LLST3:
 9825 0066 48000000 		.4byte	.LVL6
 9826 006a 62000000 		.4byte	.LVL9
 9827 006e 0600     		.2byte	0x6
 9828 0070 54       		.byte	0x54
 9829 0071 93       		.byte	0x93
 9830 0072 04       		.uleb128 0x4
 9831 0073 55       		.byte	0x55
 9832 0074 93       		.byte	0x93
 9833 0075 04       		.uleb128 0x4
 9834 0076 64000000 		.4byte	.LVL10
 9835 007a 8E000000 		.4byte	.LVL13
 9836 007e 0600     		.2byte	0x6
 9837 0080 54       		.byte	0x54
 9838 0081 93       		.byte	0x93
 9839 0082 04       		.uleb128 0x4
 9840 0083 55       		.byte	0x55
 9841 0084 93       		.byte	0x93
 9842 0085 04       		.uleb128 0x4
ARM GAS  /tmp/ccj4yzJk.s 			page 174


 9843 0086 90000000 		.4byte	.LVL14
 9844 008a A4000000 		.4byte	.LVL16
 9845 008e 0600     		.2byte	0x6
 9846 0090 54       		.byte	0x54
 9847 0091 93       		.byte	0x93
 9848 0092 04       		.uleb128 0x4
 9849 0093 55       		.byte	0x55
 9850 0094 93       		.byte	0x93
 9851 0095 04       		.uleb128 0x4
 9852 0096 A6000000 		.4byte	.LVL17
 9853 009a A8000000 		.4byte	.LFE0
 9854 009e 0600     		.2byte	0x6
 9855 00a0 54       		.byte	0x54
 9856 00a1 93       		.byte	0x93
 9857 00a2 04       		.uleb128 0x4
 9858 00a3 55       		.byte	0x55
 9859 00a4 93       		.byte	0x93
 9860 00a5 04       		.uleb128 0x4
 9861 00a6 00000000 		.4byte	0
 9862 00aa 00000000 		.4byte	0
 9863              	.LLST4:
 9864 00ae 00000000 		.4byte	.LFB2
 9865 00b2 04000000 		.4byte	.LCFI1
 9866 00b6 0200     		.2byte	0x2
 9867 00b8 7D       		.byte	0x7d
 9868 00b9 00       		.sleb128 0
 9869 00ba 04000000 		.4byte	.LCFI1
 9870 00be 06000000 		.4byte	.LCFI2
 9871 00c2 0200     		.2byte	0x2
 9872 00c4 7D       		.byte	0x7d
 9873 00c5 24       		.sleb128 36
 9874 00c6 06000000 		.4byte	.LCFI2
 9875 00ca 00060000 		.4byte	.LFE2
 9876 00ce 0300     		.2byte	0x3
 9877 00d0 7D       		.byte	0x7d
 9878 00d1 F000     		.sleb128 112
 9879 00d3 00000000 		.4byte	0
 9880 00d7 00000000 		.4byte	0
 9881              	.LLST5:
 9882 00db 00000000 		.4byte	.LVL18
 9883 00df 0D000000 		.4byte	.LVL19-1
 9884 00e3 0600     		.2byte	0x6
 9885 00e5 50       		.byte	0x50
 9886 00e6 93       		.byte	0x93
 9887 00e7 04       		.uleb128 0x4
 9888 00e8 51       		.byte	0x51
 9889 00e9 93       		.byte	0x93
 9890 00ea 04       		.uleb128 0x4
 9891 00eb 0D000000 		.4byte	.LVL19-1
 9892 00ef 00060000 		.4byte	.LFE2
 9893 00f3 0600     		.2byte	0x6
 9894 00f5 F3       		.byte	0xf3
 9895 00f6 03       		.uleb128 0x3
 9896 00f7 F5       		.byte	0xf5
 9897 00f8 00       		.uleb128 0
 9898 00f9 29       		.uleb128 0x29
 9899 00fa 9F       		.byte	0x9f
ARM GAS  /tmp/ccj4yzJk.s 			page 175


 9900 00fb 00000000 		.4byte	0
 9901 00ff 00000000 		.4byte	0
 9902              	.LLST6:
 9903 0103 00000000 		.4byte	.LVL18
 9904 0107 0D000000 		.4byte	.LVL19-1
 9905 010b 0100     		.2byte	0x1
 9906 010d 52       		.byte	0x52
 9907 010e 0D000000 		.4byte	.LVL19-1
 9908 0112 2E010000 		.4byte	.LVL54
 9909 0116 0100     		.2byte	0x1
 9910 0118 56       		.byte	0x56
 9911 0119 2E010000 		.4byte	.LVL54
 9912 011d 36010000 		.4byte	.LVL55
 9913 0121 0400     		.2byte	0x4
 9914 0123 F3       		.byte	0xf3
 9915 0124 01       		.uleb128 0x1
 9916 0125 52       		.byte	0x52
 9917 0126 9F       		.byte	0x9f
 9918 0127 36010000 		.4byte	.LVL55
 9919 012b D8040000 		.4byte	.LVL163
 9920 012f 0100     		.2byte	0x1
 9921 0131 56       		.byte	0x56
 9922 0132 D8040000 		.4byte	.LVL163
 9923 0136 88050000 		.4byte	.LVL178
 9924 013a 0400     		.2byte	0x4
 9925 013c F3       		.byte	0xf3
 9926 013d 01       		.uleb128 0x1
 9927 013e 52       		.byte	0x52
 9928 013f 9F       		.byte	0x9f
 9929 0140 88050000 		.4byte	.LVL178
 9930 0144 00060000 		.4byte	.LFE2
 9931 0148 0100     		.2byte	0x1
 9932 014a 56       		.byte	0x56
 9933 014b 00000000 		.4byte	0
 9934 014f 00000000 		.4byte	0
 9935              	.LLST7:
 9936 0153 00000000 		.4byte	.LVL18
 9937 0157 0D000000 		.4byte	.LVL19-1
 9938 015b 0100     		.2byte	0x1
 9939 015d 53       		.byte	0x53
 9940 015e 0D000000 		.4byte	.LVL19-1
 9941 0162 00060000 		.4byte	.LFE2
 9942 0166 0100     		.2byte	0x1
 9943 0168 57       		.byte	0x57
 9944 0169 00000000 		.4byte	0
 9945 016d 00000000 		.4byte	0
 9946              	.LLST8:
 9947 0171 2A000000 		.4byte	.LVL24
 9948 0175 2E010000 		.4byte	.LVL54
 9949 0179 1000     		.2byte	0x10
 9950 017b F5       		.byte	0xf5
 9951 017c 0A       		.uleb128 0xa
 9952 017d 29       		.uleb128 0x29
 9953 017e F4       		.byte	0xf4
 9954 017f 29       		.uleb128 0x29
 9955 0180 08       		.byte	0x8
 9956 0181 00000000 		.4byte	0
ARM GAS  /tmp/ccj4yzJk.s 			page 176


 9957 0185 00002E40 		.4byte	0x402e0000
 9958 0189 1E       		.byte	0x1e
 9959 018a 9F       		.byte	0x9f
 9960 018b 36010000 		.4byte	.LVL55
 9961 018f 74010000 		.4byte	.LVL64
 9962 0193 1000     		.2byte	0x10
 9963 0195 F5       		.byte	0xf5
 9964 0196 0A       		.uleb128 0xa
 9965 0197 29       		.uleb128 0x29
 9966 0198 F4       		.byte	0xf4
 9967 0199 29       		.uleb128 0x29
 9968 019a 08       		.byte	0x8
 9969 019b 00000000 		.4byte	0
 9970 019f 00002E40 		.4byte	0x402e0000
 9971 01a3 1E       		.byte	0x1e
 9972 01a4 9F       		.byte	0x9f
 9973 01a5 00000000 		.4byte	0
 9974 01a9 00000000 		.4byte	0
 9975              	.LLST9:
 9976 01ad 22000000 		.4byte	.LVL22
 9977 01b1 25000000 		.4byte	.LVL23-1
 9978 01b5 0600     		.2byte	0x6
 9979 01b7 50       		.byte	0x50
 9980 01b8 93       		.byte	0x93
 9981 01b9 04       		.uleb128 0x4
 9982 01ba 51       		.byte	0x51
 9983 01bb 93       		.byte	0x93
 9984 01bc 04       		.uleb128 0x4
 9985 01bd 25000000 		.4byte	.LVL23-1
 9986 01c1 00060000 		.4byte	.LFE2
 9987 01c5 0300     		.2byte	0x3
 9988 01c7 91       		.byte	0x91
 9989 01c8 B07F     		.sleb128 -80
 9990 01ca 00000000 		.4byte	0
 9991 01ce 00000000 		.4byte	0
 9992              	.LLST10:
 9993 01d2 72000000 		.4byte	.LVL33
 9994 01d6 AC000000 		.4byte	.LVL41
 9995 01da 0600     		.2byte	0x6
 9996 01dc 54       		.byte	0x54
 9997 01dd 93       		.byte	0x93
 9998 01de 04       		.uleb128 0x4
 9999 01df 55       		.byte	0x55
 10000 01e0 93       		.byte	0x93
 10001 01e1 04       		.uleb128 0x4
 10002 01e2 78010000 		.4byte	.LVL65
 10003 01e6 7E010000 		.4byte	.LVL66
 10004 01ea 0600     		.2byte	0x6
 10005 01ec 50       		.byte	0x50
 10006 01ed 93       		.byte	0x93
 10007 01ee 04       		.uleb128 0x4
 10008 01ef 51       		.byte	0x51
 10009 01f0 93       		.byte	0x93
 10010 01f1 04       		.uleb128 0x4
 10011 01f2 7E010000 		.4byte	.LVL66
 10012 01f6 00060000 		.4byte	.LFE2
 10013 01fa 0300     		.2byte	0x3
ARM GAS  /tmp/ccj4yzJk.s 			page 177


 10014 01fc 91       		.byte	0x91
 10015 01fd A07F     		.sleb128 -96
 10016 01ff 00000000 		.4byte	0
 10017 0203 00000000 		.4byte	0
 10018              	.LLST11:
 10019 0207 9E000000 		.4byte	.LVL39
 10020 020b A5000000 		.4byte	.LVL40-1
 10021 020f 0600     		.2byte	0x6
 10022 0211 52       		.byte	0x52
 10023 0212 93       		.byte	0x93
 10024 0213 04       		.uleb128 0x4
 10025 0214 53       		.byte	0x53
 10026 0215 93       		.byte	0x93
 10027 0216 04       		.uleb128 0x4
 10028 0217 AC000000 		.4byte	.LVL41
 10029 021b AE000000 		.4byte	.LVL42
 10030 021f 0600     		.2byte	0x6
 10031 0221 50       		.byte	0x50
 10032 0222 93       		.byte	0x93
 10033 0223 04       		.uleb128 0x4
 10034 0224 51       		.byte	0x51
 10035 0225 93       		.byte	0x93
 10036 0226 04       		.uleb128 0x4
 10037 0227 AE000000 		.4byte	.LVL42
 10038 022b BB000000 		.4byte	.LVL43-1
 10039 022f 0600     		.2byte	0x6
 10040 0231 50       		.byte	0x50
 10041 0232 93       		.byte	0x93
 10042 0233 04       		.uleb128 0x4
 10043 0234 54       		.byte	0x54
 10044 0235 93       		.byte	0x93
 10045 0236 04       		.uleb128 0x4
 10046 0237 BB000000 		.4byte	.LVL43-1
 10047 023b E6000000 		.4byte	.LVL46
 10048 023f 0600     		.2byte	0x6
 10049 0241 55       		.byte	0x55
 10050 0242 93       		.byte	0x93
 10051 0243 04       		.uleb128 0x4
 10052 0244 54       		.byte	0x54
 10053 0245 93       		.byte	0x93
 10054 0246 04       		.uleb128 0x4
 10055 0247 4E010000 		.4byte	.LVL59
 10056 024b 70010000 		.4byte	.LVL63
 10057 024f 0600     		.2byte	0x6
 10058 0251 55       		.byte	0x55
 10059 0252 93       		.byte	0x93
 10060 0253 04       		.uleb128 0x4
 10061 0254 54       		.byte	0x54
 10062 0255 93       		.byte	0x93
 10063 0256 04       		.uleb128 0x4
 10064 0257 00000000 		.4byte	0
 10065 025b 00000000 		.4byte	0
 10066              	.LLST12:
 10067 025f 86020000 		.4byte	.LVL92
 10068 0263 8A020000 		.4byte	.LVL93
 10069 0267 0600     		.2byte	0x6
 10070 0269 50       		.byte	0x50
ARM GAS  /tmp/ccj4yzJk.s 			page 178


 10071 026a 93       		.byte	0x93
 10072 026b 04       		.uleb128 0x4
 10073 026c 51       		.byte	0x51
 10074 026d 93       		.byte	0x93
 10075 026e 04       		.uleb128 0x4
 10076 026f 8A020000 		.4byte	.LVL93
 10077 0273 88050000 		.4byte	.LVL178
 10078 0277 0300     		.2byte	0x3
 10079 0279 91       		.byte	0x91
 10080 027a B87F     		.sleb128 -72
 10081 027c 00000000 		.4byte	0
 10082 0280 00000000 		.4byte	0
 10083              	.LLST13:
 10084 0284 B4020000 		.4byte	.LVL98
 10085 0288 B8020000 		.4byte	.LVL99
 10086 028c 0600     		.2byte	0x6
 10087 028e 50       		.byte	0x50
 10088 028f 93       		.byte	0x93
 10089 0290 04       		.uleb128 0x4
 10090 0291 51       		.byte	0x51
 10091 0292 93       		.byte	0x93
 10092 0293 04       		.uleb128 0x4
 10093 0294 B8020000 		.4byte	.LVL99
 10094 0298 88050000 		.4byte	.LVL178
 10095 029c 0200     		.2byte	0x2
 10096 029e 91       		.byte	0x91
 10097 029f 40       		.sleb128 -64
 10098 02a0 00000000 		.4byte	0
 10099 02a4 00000000 		.4byte	0
 10100              	.LLST14:
 10101 02a8 DC020000 		.4byte	.LVL104
 10102 02ac E0020000 		.4byte	.LVL105
 10103 02b0 0600     		.2byte	0x6
 10104 02b2 50       		.byte	0x50
 10105 02b3 93       		.byte	0x93
 10106 02b4 04       		.uleb128 0x4
 10107 02b5 51       		.byte	0x51
 10108 02b6 93       		.byte	0x93
 10109 02b7 04       		.uleb128 0x4
 10110 02b8 E0020000 		.4byte	.LVL105
 10111 02bc 88050000 		.4byte	.LVL178
 10112 02c0 0200     		.2byte	0x2
 10113 02c2 91       		.byte	0x91
 10114 02c3 48       		.sleb128 -56
 10115 02c4 00000000 		.4byte	0
 10116 02c8 00000000 		.4byte	0
 10117              	.LLST15:
 10118 02cc 5C030000 		.4byte	.LVL120
 10119 02d0 E6030000 		.4byte	.LVL138
 10120 02d4 0600     		.2byte	0x6
 10121 02d6 5A       		.byte	0x5a
 10122 02d7 93       		.byte	0x93
 10123 02d8 04       		.uleb128 0x4
 10124 02d9 5B       		.byte	0x5b
 10125 02da 93       		.byte	0x93
 10126 02db 04       		.uleb128 0x4
 10127 02dc 00000000 		.4byte	0
ARM GAS  /tmp/ccj4yzJk.s 			page 179


 10128 02e0 00000000 		.4byte	0
 10129              	.LLST16:
 10130 02e4 DC030000 		.4byte	.LVL136
 10131 02e8 F4030000 		.4byte	.LVL140
 10132 02ec 0600     		.2byte	0x6
 10133 02ee 54       		.byte	0x54
 10134 02ef 93       		.byte	0x93
 10135 02f0 04       		.uleb128 0x4
 10136 02f1 55       		.byte	0x55
 10137 02f2 93       		.byte	0x93
 10138 02f3 04       		.uleb128 0x4
 10139 02f4 F4030000 		.4byte	.LVL140
 10140 02f8 F8030000 		.4byte	.LVL141
 10141 02fc 0600     		.2byte	0x6
 10142 02fe 50       		.byte	0x50
 10143 02ff 93       		.byte	0x93
 10144 0300 04       		.uleb128 0x4
 10145 0301 51       		.byte	0x51
 10146 0302 93       		.byte	0x93
 10147 0303 04       		.uleb128 0x4
 10148 0304 F8030000 		.4byte	.LVL141
 10149 0308 88050000 		.4byte	.LVL178
 10150 030c 0200     		.2byte	0x2
 10151 030e 91       		.byte	0x91
 10152 030f 50       		.sleb128 -48
 10153 0310 00000000 		.4byte	0
 10154 0314 00000000 		.4byte	0
 10155              	.LLST17:
 10156 0318 A2010000 		.4byte	.LVL70
 10157 031c A8010000 		.4byte	.LVL71
 10158 0320 0600     		.2byte	0x6
 10159 0322 50       		.byte	0x50
 10160 0323 93       		.byte	0x93
 10161 0324 04       		.uleb128 0x4
 10162 0325 51       		.byte	0x51
 10163 0326 93       		.byte	0x93
 10164 0327 04       		.uleb128 0x4
 10165 0328 A8010000 		.4byte	.LVL71
 10166 032c 06050000 		.4byte	.LVL168
 10167 0330 0300     		.2byte	0x3
 10168 0332 91       		.byte	0x91
 10169 0333 A87F     		.sleb128 -88
 10170 0335 06050000 		.4byte	.LVL168
 10171 0339 88050000 		.4byte	.LVL178
 10172 033d 1A00     		.2byte	0x1a
 10173 033f 91       		.byte	0x91
 10174 0340 A87F     		.sleb128 -88
 10175 0342 F6       		.byte	0xf6
 10176 0343 08       		.byte	0x8
 10177 0344 29       		.uleb128 0x29
 10178 0345 91       		.byte	0x91
 10179 0346 B87F     		.sleb128 -72
 10180 0348 F6       		.byte	0xf6
 10181 0349 08       		.byte	0x8
 10182 034a 29       		.uleb128 0x29
 10183 034b F4       		.byte	0xf4
 10184 034c 29       		.uleb128 0x29
ARM GAS  /tmp/ccj4yzJk.s 			page 180


 10185 034d 08       		.byte	0x8
 10186 034e 00000000 		.4byte	0
 10187 0352 00807640 		.4byte	0x40768000
 10188 0356 1B       		.byte	0x1b
 10189 0357 1C       		.byte	0x1c
 10190 0358 9F       		.byte	0x9f
 10191 0359 88050000 		.4byte	.LVL178
 10192 035d AE050000 		.4byte	.LVL181
 10193 0361 0300     		.2byte	0x3
 10194 0363 91       		.byte	0x91
 10195 0364 A87F     		.sleb128 -88
 10196 0366 AE050000 		.4byte	.LVL181
 10197 036a B0050000 		.4byte	.LVL182
 10198 036e 0600     		.2byte	0x6
 10199 0370 50       		.byte	0x50
 10200 0371 93       		.byte	0x93
 10201 0372 04       		.uleb128 0x4
 10202 0373 51       		.byte	0x51
 10203 0374 93       		.byte	0x93
 10204 0375 04       		.uleb128 0x4
 10205 0376 B0050000 		.4byte	.LVL182
 10206 037a 00060000 		.4byte	.LFE2
 10207 037e 0300     		.2byte	0x3
 10208 0380 91       		.byte	0x91
 10209 0381 A87F     		.sleb128 -88
 10210 0383 00000000 		.4byte	0
 10211 0387 00000000 		.4byte	0
 10212              	.LLST18:
 10213 038b C8010000 		.4byte	.LVL74
 10214 038f CC010000 		.4byte	.LVL75
 10215 0393 0600     		.2byte	0x6
 10216 0395 50       		.byte	0x50
 10217 0396 93       		.byte	0x93
 10218 0397 04       		.uleb128 0x4
 10219 0398 51       		.byte	0x51
 10220 0399 93       		.byte	0x93
 10221 039a 04       		.uleb128 0x4
 10222 039b CC010000 		.4byte	.LVL75
 10223 039f 06050000 		.4byte	.LVL168
 10224 03a3 0300     		.2byte	0x3
 10225 03a5 91       		.byte	0x91
 10226 03a6 A07F     		.sleb128 -96
 10227 03a8 06050000 		.4byte	.LVL168
 10228 03ac 88050000 		.4byte	.LVL178
 10229 03b0 0B00     		.2byte	0xb
 10230 03b2 91       		.byte	0x91
 10231 03b3 A07F     		.sleb128 -96
 10232 03b5 F6       		.byte	0xf6
 10233 03b6 08       		.byte	0x8
 10234 03b7 29       		.uleb128 0x29
 10235 03b8 F5       		.byte	0xf5
 10236 03b9 0A       		.uleb128 0xa
 10237 03ba 29       		.uleb128 0x29
 10238 03bb 22       		.byte	0x22
 10239 03bc 9F       		.byte	0x9f
 10240 03bd 88050000 		.4byte	.LVL178
 10241 03c1 FE050000 		.4byte	.LVL189
ARM GAS  /tmp/ccj4yzJk.s 			page 181


 10242 03c5 0300     		.2byte	0x3
 10243 03c7 91       		.byte	0x91
 10244 03c8 A07F     		.sleb128 -96
 10245 03ca FE050000 		.4byte	.LVL189
 10246 03ce 00060000 		.4byte	.LFE2
 10247 03d2 0600     		.2byte	0x6
 10248 03d4 50       		.byte	0x50
 10249 03d5 93       		.byte	0x93
 10250 03d6 04       		.uleb128 0x4
 10251 03d7 51       		.byte	0x51
 10252 03d8 93       		.byte	0x93
 10253 03d9 04       		.uleb128 0x4
 10254 03da 00000000 		.4byte	0
 10255 03de 00000000 		.4byte	0
 10256              	.LLST19:
 10257 03e2 D6010000 		.4byte	.LVL77
 10258 03e6 DC010000 		.4byte	.LVL78
 10259 03ea 0600     		.2byte	0x6
 10260 03ec 50       		.byte	0x50
 10261 03ed 93       		.byte	0x93
 10262 03ee 04       		.uleb128 0x4
 10263 03ef 51       		.byte	0x51
 10264 03f0 93       		.byte	0x93
 10265 03f1 04       		.uleb128 0x4
 10266 03f2 DC010000 		.4byte	.LVL78
 10267 03f6 06050000 		.4byte	.LVL168
 10268 03fa 0300     		.2byte	0x3
 10269 03fc 91       		.byte	0x91
 10270 03fd 987F     		.sleb128 -104
 10271 03ff 06050000 		.4byte	.LVL168
 10272 0403 88050000 		.4byte	.LVL178
 10273 0407 1500     		.2byte	0x15
 10274 0409 7D       		.byte	0x7d
 10275 040a 00       		.sleb128 0
 10276 040b F6       		.byte	0xf6
 10277 040c 08       		.byte	0x8
 10278 040d 29       		.uleb128 0x29
 10279 040e F5       		.byte	0xf5
 10280 040f 04       		.uleb128 0x4
 10281 0410 29       		.uleb128 0x29
 10282 0411 F5       		.byte	0xf5
 10283 0412 08       		.uleb128 0x8
 10284 0413 29       		.uleb128 0x29
 10285 0414 1E       		.byte	0x1e
 10286 0415 1B       		.byte	0x1b
 10287 0416 91       		.byte	0x91
 10288 0417 987F     		.sleb128 -104
 10289 0419 F6       		.byte	0xf6
 10290 041a 08       		.byte	0x8
 10291 041b 29       		.uleb128 0x29
 10292 041c 22       		.byte	0x22
 10293 041d 9F       		.byte	0x9f
 10294 041e 88050000 		.4byte	.LVL178
 10295 0422 D6050000 		.4byte	.LVL185
 10296 0426 0300     		.2byte	0x3
 10297 0428 91       		.byte	0x91
 10298 0429 987F     		.sleb128 -104
ARM GAS  /tmp/ccj4yzJk.s 			page 182


 10299 042b D6050000 		.4byte	.LVL185
 10300 042f D8050000 		.4byte	.LVL186
 10301 0433 0600     		.2byte	0x6
 10302 0435 50       		.byte	0x50
 10303 0436 93       		.byte	0x93
 10304 0437 04       		.uleb128 0x4
 10305 0438 51       		.byte	0x51
 10306 0439 93       		.byte	0x93
 10307 043a 04       		.uleb128 0x4
 10308 043b D8050000 		.4byte	.LVL186
 10309 043f 00060000 		.4byte	.LFE2
 10310 0443 0300     		.2byte	0x3
 10311 0445 91       		.byte	0x91
 10312 0446 987F     		.sleb128 -104
 10313 0448 00000000 		.4byte	0
 10314 044c 00000000 		.4byte	0
 10315              	.LLST20:
 10316 0450 52020000 		.4byte	.LVL87
 10317 0454 86030000 		.4byte	.LVL126
 10318 0458 1700     		.2byte	0x17
 10319 045a 91       		.byte	0x91
 10320 045b A87F     		.sleb128 -88
 10321 045d F6       		.byte	0xf6
 10322 045e 08       		.byte	0x8
 10323 045f 29       		.uleb128 0x29
 10324 0460 F4       		.byte	0xf4
 10325 0461 29       		.uleb128 0x29
 10326 0462 08       		.byte	0x8
 10327 0463 68E6C935 		.4byte	0x35c9e668
 10328 0467 C58F7640 		.4byte	0x40768fc5
 10329 046b 1E       		.byte	0x1e
 10330 046c F5       		.byte	0xf5
 10331 046d 08       		.uleb128 0x8
 10332 046e 29       		.uleb128 0x29
 10333 046f 22       		.byte	0x22
 10334 0470 9F       		.byte	0x9f
 10335 0471 00000000 		.4byte	0
 10336 0475 00000000 		.4byte	0
 10337              	.LLST21:
 10338 0479 52020000 		.4byte	.LVL87
 10339 047d 86030000 		.4byte	.LVL126
 10340 0481 1700     		.2byte	0x17
 10341 0483 91       		.byte	0x91
 10342 0484 A07F     		.sleb128 -96
 10343 0486 F6       		.byte	0xf6
 10344 0487 08       		.byte	0x8
 10345 0488 29       		.uleb128 0x29
 10346 0489 F4       		.byte	0xf4
 10347 048a 29       		.uleb128 0x29
 10348 048b 08       		.byte	0x8
 10349 048c 68E6C935 		.4byte	0x35c9e668
 10350 0490 C58F7640 		.4byte	0x40768fc5
 10351 0494 1E       		.byte	0x1e
 10352 0495 F5       		.byte	0xf5
 10353 0496 08       		.uleb128 0x8
 10354 0497 29       		.uleb128 0x29
 10355 0498 22       		.byte	0x22
ARM GAS  /tmp/ccj4yzJk.s 			page 183


 10356 0499 9F       		.byte	0x9f
 10357 049a 00000000 		.4byte	0
 10358 049e 00000000 		.4byte	0
 10359              	.LLST22:
 10360 04a2 52020000 		.4byte	.LVL87
 10361 04a6 86030000 		.4byte	.LVL126
 10362 04aa 1700     		.2byte	0x17
 10363 04ac 91       		.byte	0x91
 10364 04ad 987F     		.sleb128 -104
 10365 04af F6       		.byte	0xf6
 10366 04b0 08       		.byte	0x8
 10367 04b1 29       		.uleb128 0x29
 10368 04b2 F4       		.byte	0xf4
 10369 04b3 29       		.uleb128 0x29
 10370 04b4 08       		.byte	0x8
 10371 04b5 68E6C935 		.4byte	0x35c9e668
 10372 04b9 C58F7640 		.4byte	0x40768fc5
 10373 04bd 1E       		.byte	0x1e
 10374 04be F5       		.byte	0xf5
 10375 04bf 08       		.uleb128 0x8
 10376 04c0 29       		.uleb128 0x29
 10377 04c1 22       		.byte	0x22
 10378 04c2 9F       		.byte	0x9f
 10379 04c3 00000000 		.4byte	0
 10380 04c7 00000000 		.4byte	0
 10381              	.LLST23:
 10382 04cb 30040000 		.4byte	.LVL145
 10383 04cf 88050000 		.4byte	.LVL178
 10384 04d3 1400     		.2byte	0x14
 10385 04d5 91       		.byte	0x91
 10386 04d6 B87F     		.sleb128 -72
 10387 04d8 F6       		.byte	0xf6
 10388 04d9 08       		.byte	0x8
 10389 04da 29       		.uleb128 0x29
 10390 04db F4       		.byte	0xf4
 10391 04dc 29       		.uleb128 0x29
 10392 04dd 08       		.byte	0x8
 10393 04de 00000000 		.4byte	0
 10394 04e2 00807640 		.4byte	0x40768000
 10395 04e6 1B       		.byte	0x1b
 10396 04e7 1F       		.byte	0x1f
 10397 04e8 9F       		.byte	0x9f
 10398 04e9 00000000 		.4byte	0
 10399 04ed 00000000 		.4byte	0
 10400              	.LLST24:
 10401 04f1 AA040000 		.4byte	.LVL157
 10402 04f5 88050000 		.4byte	.LVL178
 10403 04f9 0600     		.2byte	0x6
 10404 04fb 5A       		.byte	0x5a
 10405 04fc 93       		.byte	0x93
 10406 04fd 04       		.uleb128 0x4
 10407 04fe 5B       		.byte	0x5b
 10408 04ff 93       		.byte	0x93
 10409 0500 04       		.uleb128 0x4
 10410 0501 00000000 		.4byte	0
 10411 0505 00000000 		.4byte	0
 10412              	.LLST25:
ARM GAS  /tmp/ccj4yzJk.s 			page 184


 10413 0509 06050000 		.4byte	.LVL168
 10414 050d 88050000 		.4byte	.LVL178
 10415 0511 0E00     		.2byte	0xe
 10416 0513 7D       		.byte	0x7d
 10417 0514 00       		.sleb128 0
 10418 0515 F6       		.byte	0xf6
 10419 0516 08       		.byte	0x8
 10420 0517 29       		.uleb128 0x29
 10421 0518 F5       		.byte	0xf5
 10422 0519 04       		.uleb128 0x4
 10423 051a 29       		.uleb128 0x29
 10424 051b F5       		.byte	0xf5
 10425 051c 08       		.uleb128 0x8
 10426 051d 29       		.uleb128 0x29
 10427 051e 1E       		.byte	0x1e
 10428 051f 1B       		.byte	0x1b
 10429 0520 9F       		.byte	0x9f
 10430 0521 00000000 		.4byte	0
 10431 0525 00000000 		.4byte	0
 10432              	.LLST26:
 10433 0529 AC000000 		.4byte	.LVL41
 10434 052d AE000000 		.4byte	.LVL42
 10435 0531 0600     		.2byte	0x6
 10436 0533 50       		.byte	0x50
 10437 0534 93       		.byte	0x93
 10438 0535 04       		.uleb128 0x4
 10439 0536 51       		.byte	0x51
 10440 0537 93       		.byte	0x93
 10441 0538 04       		.uleb128 0x4
 10442 0539 AE000000 		.4byte	.LVL42
 10443 053d BB000000 		.4byte	.LVL43-1
 10444 0541 0600     		.2byte	0x6
 10445 0543 50       		.byte	0x50
 10446 0544 93       		.byte	0x93
 10447 0545 04       		.uleb128 0x4
 10448 0546 54       		.byte	0x54
 10449 0547 93       		.byte	0x93
 10450 0548 04       		.uleb128 0x4
 10451 0549 BB000000 		.4byte	.LVL43-1
 10452 054d E6000000 		.4byte	.LVL46
 10453 0551 0600     		.2byte	0x6
 10454 0553 55       		.byte	0x55
 10455 0554 93       		.byte	0x93
 10456 0555 04       		.uleb128 0x4
 10457 0556 54       		.byte	0x54
 10458 0557 93       		.byte	0x93
 10459 0558 04       		.uleb128 0x4
 10460 0559 4E010000 		.4byte	.LVL59
 10461 055d 70010000 		.4byte	.LVL63
 10462 0561 0600     		.2byte	0x6
 10463 0563 55       		.byte	0x55
 10464 0564 93       		.byte	0x93
 10465 0565 04       		.uleb128 0x4
 10466 0566 54       		.byte	0x54
 10467 0567 93       		.byte	0x93
 10468 0568 04       		.uleb128 0x4
 10469 0569 00000000 		.4byte	0
ARM GAS  /tmp/ccj4yzJk.s 			page 185


 10470 056d 00000000 		.4byte	0
 10471              	.LLST27:
 10472 0571 AC000000 		.4byte	.LVL41
 10473 0575 2E010000 		.4byte	.LVL54
 10474 0579 0100     		.2byte	0x1
 10475 057b 56       		.byte	0x56
 10476 057c 2E010000 		.4byte	.LVL54
 10477 0580 36010000 		.4byte	.LVL55
 10478 0584 0400     		.2byte	0x4
 10479 0586 F3       		.byte	0xf3
 10480 0587 01       		.uleb128 0x1
 10481 0588 52       		.byte	0x52
 10482 0589 9F       		.byte	0x9f
 10483 058a 36010000 		.4byte	.LVL55
 10484 058e D8040000 		.4byte	.LVL163
 10485 0592 0100     		.2byte	0x1
 10486 0594 56       		.byte	0x56
 10487 0595 D8040000 		.4byte	.LVL163
 10488 0599 88050000 		.4byte	.LVL178
 10489 059d 0400     		.2byte	0x4
 10490 059f F3       		.byte	0xf3
 10491 05a0 01       		.uleb128 0x1
 10492 05a1 52       		.byte	0x52
 10493 05a2 9F       		.byte	0x9f
 10494 05a3 88050000 		.4byte	.LVL178
 10495 05a7 00060000 		.4byte	.LFE2
 10496 05ab 0100     		.2byte	0x1
 10497 05ad 56       		.byte	0x56
 10498 05ae 00000000 		.4byte	0
 10499 05b2 00000000 		.4byte	0
 10500              	.LLST28:
 10501 05b6 E8000000 		.4byte	.LVL47
 10502 05ba 02010000 		.4byte	.LVL50
 10503 05be 0600     		.2byte	0x6
 10504 05c0 54       		.byte	0x54
 10505 05c1 93       		.byte	0x93
 10506 05c2 04       		.uleb128 0x4
 10507 05c3 55       		.byte	0x55
 10508 05c4 93       		.byte	0x93
 10509 05c5 04       		.uleb128 0x4
 10510 05c6 04010000 		.4byte	.LVL51
 10511 05ca 2E010000 		.4byte	.LVL54
 10512 05ce 0600     		.2byte	0x6
 10513 05d0 54       		.byte	0x54
 10514 05d1 93       		.byte	0x93
 10515 05d2 04       		.uleb128 0x4
 10516 05d3 55       		.byte	0x55
 10517 05d4 93       		.byte	0x93
 10518 05d5 04       		.uleb128 0x4
 10519 05d6 36010000 		.4byte	.LVL55
 10520 05da 4A010000 		.4byte	.LVL57
 10521 05de 0600     		.2byte	0x6
 10522 05e0 54       		.byte	0x54
 10523 05e1 93       		.byte	0x93
 10524 05e2 04       		.uleb128 0x4
 10525 05e3 55       		.byte	0x55
 10526 05e4 93       		.byte	0x93
ARM GAS  /tmp/ccj4yzJk.s 			page 186


 10527 05e5 04       		.uleb128 0x4
 10528 05e6 4C010000 		.4byte	.LVL58
 10529 05ea 4E010000 		.4byte	.LVL59
 10530 05ee 0600     		.2byte	0x6
 10531 05f0 54       		.byte	0x54
 10532 05f1 93       		.byte	0x93
 10533 05f2 04       		.uleb128 0x4
 10534 05f3 55       		.byte	0x55
 10535 05f4 93       		.byte	0x93
 10536 05f5 04       		.uleb128 0x4
 10537 05f6 00000000 		.4byte	0
 10538 05fa 00000000 		.4byte	0
 10539              	.LLST29:
 10540 05fe 00000000 		.4byte	.LFB1
 10541 0602 02000000 		.4byte	.LCFI3
 10542 0606 0200     		.2byte	0x2
 10543 0608 7D       		.byte	0x7d
 10544 0609 00       		.sleb128 0
 10545 060a 02000000 		.4byte	.LCFI3
 10546 060e 0A000000 		.4byte	.LCFI4
 10547 0612 0200     		.2byte	0x2
 10548 0614 7D       		.byte	0x7d
 10549 0615 0C       		.sleb128 12
 10550 0616 0A000000 		.4byte	.LCFI4
 10551 061a 28000000 		.4byte	.LFE1
 10552 061e 0200     		.2byte	0x2
 10553 0620 7D       		.byte	0x7d
 10554 0621 20       		.sleb128 32
 10555 0622 00000000 		.4byte	0
 10556 0626 00000000 		.4byte	0
 10557              	.LLST30:
 10558 062a 00000000 		.4byte	.LVL190
 10559 062e 15000000 		.4byte	.LVL191-1
 10560 0632 0600     		.2byte	0x6
 10561 0634 50       		.byte	0x50
 10562 0635 93       		.byte	0x93
 10563 0636 04       		.uleb128 0x4
 10564 0637 51       		.byte	0x51
 10565 0638 93       		.byte	0x93
 10566 0639 04       		.uleb128 0x4
 10567 063a 15000000 		.4byte	.LVL191-1
 10568 063e 28000000 		.4byte	.LFE1
 10569 0642 0600     		.2byte	0x6
 10570 0644 F3       		.byte	0xf3
 10571 0645 03       		.uleb128 0x3
 10572 0646 F5       		.byte	0xf5
 10573 0647 00       		.uleb128 0
 10574 0648 29       		.uleb128 0x29
 10575 0649 9F       		.byte	0x9f
 10576 064a 00000000 		.4byte	0
 10577 064e 00000000 		.4byte	0
 10578              	.LLST31:
 10579 0652 00000000 		.4byte	.LVL190
 10580 0656 15000000 		.4byte	.LVL191-1
 10581 065a 0100     		.2byte	0x1
 10582 065c 52       		.byte	0x52
 10583 065d 15000000 		.4byte	.LVL191-1
ARM GAS  /tmp/ccj4yzJk.s 			page 187


 10584 0661 28000000 		.4byte	.LFE1
 10585 0665 0400     		.2byte	0x4
 10586 0667 F3       		.byte	0xf3
 10587 0668 01       		.uleb128 0x1
 10588 0669 52       		.byte	0x52
 10589 066a 9F       		.byte	0x9f
 10590 066b 00000000 		.4byte	0
 10591 066f 00000000 		.4byte	0
 10592              	.LLST32:
 10593 0673 00000000 		.4byte	.LVL190
 10594 0677 15000000 		.4byte	.LVL191-1
 10595 067b 0100     		.2byte	0x1
 10596 067d 53       		.byte	0x53
 10597 067e 15000000 		.4byte	.LVL191-1
 10598 0682 28000000 		.4byte	.LFE1
 10599 0686 0400     		.2byte	0x4
 10600 0688 F3       		.byte	0xf3
 10601 0689 01       		.uleb128 0x1
 10602 068a 53       		.byte	0x53
 10603 068b 9F       		.byte	0x9f
 10604 068c 00000000 		.4byte	0
 10605 0690 00000000 		.4byte	0
 10606              	.LLST33:
 10607 0694 00000000 		.4byte	.LFB4
 10608 0698 02000000 		.4byte	.LCFI5
 10609 069c 0200     		.2byte	0x2
 10610 069e 7D       		.byte	0x7d
 10611 069f 00       		.sleb128 0
 10612 06a0 02000000 		.4byte	.LCFI5
 10613 06a4 38000000 		.4byte	.LFE4
 10614 06a8 0200     		.2byte	0x2
 10615 06aa 7D       		.byte	0x7d
 10616 06ab 18       		.sleb128 24
 10617 06ac 00000000 		.4byte	0
 10618 06b0 00000000 		.4byte	0
 10619              	.LLST34:
 10620 06b4 00000000 		.4byte	.LVL192
 10621 06b8 08000000 		.4byte	.LVL193
 10622 06bc 0100     		.2byte	0x1
 10623 06be 50       		.byte	0x50
 10624 06bf 08000000 		.4byte	.LVL193
 10625 06c3 38000000 		.4byte	.LFE4
 10626 06c7 0100     		.2byte	0x1
 10627 06c9 57       		.byte	0x57
 10628 06ca 00000000 		.4byte	0
 10629 06ce 00000000 		.4byte	0
 10630              	.LLST35:
 10631 06d2 00000000 		.4byte	.LVL192
 10632 06d6 0F000000 		.4byte	.LVL194-1
 10633 06da 0600     		.2byte	0x6
 10634 06dc 52       		.byte	0x52
 10635 06dd 93       		.byte	0x93
 10636 06de 04       		.uleb128 0x4
 10637 06df 53       		.byte	0x53
 10638 06e0 93       		.byte	0x93
 10639 06e1 04       		.uleb128 0x4
 10640 06e2 0F000000 		.4byte	.LVL194-1
ARM GAS  /tmp/ccj4yzJk.s 			page 188


 10641 06e6 38000000 		.4byte	.LFE4
 10642 06ea 0600     		.2byte	0x6
 10643 06ec F3       		.byte	0xf3
 10644 06ed 03       		.uleb128 0x3
 10645 06ee F5       		.byte	0xf5
 10646 06ef 02       		.uleb128 0x2
 10647 06f0 29       		.uleb128 0x29
 10648 06f1 9F       		.byte	0x9f
 10649 06f2 00000000 		.4byte	0
 10650 06f6 00000000 		.4byte	0
 10651              	.LLST36:
 10652 06fa 00000000 		.4byte	.LFB5
 10653 06fe 04000000 		.4byte	.LCFI6
 10654 0702 0200     		.2byte	0x2
 10655 0704 7D       		.byte	0x7d
 10656 0705 00       		.sleb128 0
 10657 0706 04000000 		.4byte	.LCFI6
 10658 070a 32000000 		.4byte	.LFE5
 10659 070e 0200     		.2byte	0x2
 10660 0710 7D       		.byte	0x7d
 10661 0711 20       		.sleb128 32
 10662 0712 00000000 		.4byte	0
 10663 0716 00000000 		.4byte	0
 10664              	.LLST37:
 10665 071a 00000000 		.4byte	.LVL197
 10666 071e 0F000000 		.4byte	.LVL198-1
 10667 0722 0600     		.2byte	0x6
 10668 0724 50       		.byte	0x50
 10669 0725 93       		.byte	0x93
 10670 0726 04       		.uleb128 0x4
 10671 0727 51       		.byte	0x51
 10672 0728 93       		.byte	0x93
 10673 0729 04       		.uleb128 0x4
 10674 072a 0F000000 		.4byte	.LVL198-1
 10675 072e 32000000 		.4byte	.LFE5
 10676 0732 0600     		.2byte	0x6
 10677 0734 F3       		.byte	0xf3
 10678 0735 03       		.uleb128 0x3
 10679 0736 F5       		.byte	0xf5
 10680 0737 00       		.uleb128 0
 10681 0738 29       		.uleb128 0x29
 10682 0739 9F       		.byte	0x9f
 10683 073a 00000000 		.4byte	0
 10684 073e 00000000 		.4byte	0
 10685              	.LLST38:
 10686 0742 00000000 		.4byte	.LVL197
 10687 0746 0F000000 		.4byte	.LVL198-1
 10688 074a 0600     		.2byte	0x6
 10689 074c 52       		.byte	0x52
 10690 074d 93       		.byte	0x93
 10691 074e 04       		.uleb128 0x4
 10692 074f 53       		.byte	0x53
 10693 0750 93       		.byte	0x93
 10694 0751 04       		.uleb128 0x4
 10695 0752 0F000000 		.4byte	.LVL198-1
 10696 0756 32000000 		.4byte	.LFE5
 10697 075a 0600     		.2byte	0x6
ARM GAS  /tmp/ccj4yzJk.s 			page 189


 10698 075c F3       		.byte	0xf3
 10699 075d 03       		.uleb128 0x3
 10700 075e F5       		.byte	0xf5
 10701 075f 02       		.uleb128 0x2
 10702 0760 29       		.uleb128 0x29
 10703 0761 9F       		.byte	0x9f
 10704 0762 00000000 		.4byte	0
 10705 0766 00000000 		.4byte	0
 10706              	.LLST39:
 10707 076a 00000000 		.4byte	.LFB6
 10708 076e 04000000 		.4byte	.LCFI7
 10709 0772 0200     		.2byte	0x2
 10710 0774 7D       		.byte	0x7d
 10711 0775 00       		.sleb128 0
 10712 0776 04000000 		.4byte	.LCFI7
 10713 077a 06000000 		.4byte	.LCFI8
 10714 077e 0200     		.2byte	0x2
 10715 0780 7D       		.byte	0x7d
 10716 0781 24       		.sleb128 36
 10717 0782 06000000 		.4byte	.LCFI8
 10718 0786 4C020000 		.4byte	.LFE6
 10719 078a 0300     		.2byte	0x3
 10720 078c 7D       		.byte	0x7d
 10721 078d 9001     		.sleb128 144
 10722 078f 00000000 		.4byte	0
 10723 0793 00000000 		.4byte	0
 10724              	.LLST40:
 10725 0797 00000000 		.4byte	.LVL200
 10726 079b 21000000 		.4byte	.LVL201-1
 10727 079f 0600     		.2byte	0x6
 10728 07a1 50       		.byte	0x50
 10729 07a2 93       		.byte	0x93
 10730 07a3 04       		.uleb128 0x4
 10731 07a4 51       		.byte	0x51
 10732 07a5 93       		.byte	0x93
 10733 07a6 04       		.uleb128 0x4
 10734 07a7 21000000 		.4byte	.LVL201-1
 10735 07ab 4C020000 		.4byte	.LFE6
 10736 07af 0600     		.2byte	0x6
 10737 07b1 F3       		.byte	0xf3
 10738 07b2 03       		.uleb128 0x3
 10739 07b3 F5       		.byte	0xf5
 10740 07b4 00       		.uleb128 0
 10741 07b5 29       		.uleb128 0x29
 10742 07b6 9F       		.byte	0x9f
 10743 07b7 00000000 		.4byte	0
 10744 07bb 00000000 		.4byte	0
 10745              	.LLST41:
 10746 07bf 00000000 		.4byte	.LVL200
 10747 07c3 21000000 		.4byte	.LVL201-1
 10748 07c7 0100     		.2byte	0x1
 10749 07c9 52       		.byte	0x52
 10750 07ca 21000000 		.4byte	.LVL201-1
 10751 07ce 36010000 		.4byte	.LVL215
 10752 07d2 0100     		.2byte	0x1
 10753 07d4 57       		.byte	0x57
 10754 07d5 36010000 		.4byte	.LVL215
ARM GAS  /tmp/ccj4yzJk.s 			page 190


 10755 07d9 D0010000 		.4byte	.LVL241
 10756 07dd 0400     		.2byte	0x4
 10757 07df F3       		.byte	0xf3
 10758 07e0 01       		.uleb128 0x1
 10759 07e1 52       		.byte	0x52
 10760 07e2 9F       		.byte	0x9f
 10761 07e3 D0010000 		.4byte	.LVL241
 10762 07e7 2A020000 		.4byte	.LVL248
 10763 07eb 0100     		.2byte	0x1
 10764 07ed 57       		.byte	0x57
 10765 07ee 2A020000 		.4byte	.LVL248
 10766 07f2 4C020000 		.4byte	.LFE6
 10767 07f6 0400     		.2byte	0x4
 10768 07f8 F3       		.byte	0xf3
 10769 07f9 01       		.uleb128 0x1
 10770 07fa 52       		.byte	0x52
 10771 07fb 9F       		.byte	0x9f
 10772 07fc 00000000 		.4byte	0
 10773 0800 00000000 		.4byte	0
 10774              	.LLST42:
 10775 0804 00000000 		.4byte	.LVL200
 10776 0808 21000000 		.4byte	.LVL201-1
 10777 080c 0100     		.2byte	0x1
 10778 080e 53       		.byte	0x53
 10779 080f 21000000 		.4byte	.LVL201-1
 10780 0813 12010000 		.4byte	.LVL214
 10781 0817 0100     		.2byte	0x1
 10782 0819 56       		.byte	0x56
 10783 081a 12010000 		.4byte	.LVL214
 10784 081e D0010000 		.4byte	.LVL241
 10785 0822 0400     		.2byte	0x4
 10786 0824 F3       		.byte	0xf3
 10787 0825 01       		.uleb128 0x1
 10788 0826 53       		.byte	0x53
 10789 0827 9F       		.byte	0x9f
 10790 0828 D0010000 		.4byte	.LVL241
 10791 082c 28020000 		.4byte	.LVL247
 10792 0830 0100     		.2byte	0x1
 10793 0832 56       		.byte	0x56
 10794 0833 28020000 		.4byte	.LVL247
 10795 0837 4C020000 		.4byte	.LFE6
 10796 083b 0400     		.2byte	0x4
 10797 083d F3       		.byte	0xf3
 10798 083e 01       		.uleb128 0x1
 10799 083f 53       		.byte	0x53
 10800 0840 9F       		.byte	0x9f
 10801 0841 00000000 		.4byte	0
 10802 0845 00000000 		.4byte	0
 10803              	.LLST43:
 10804 0849 22000000 		.4byte	.LVL201
 10805 084d 38000000 		.4byte	.LVL202
 10806 0851 0100     		.2byte	0x1
 10807 0853 50       		.byte	0x50
 10808 0854 38000000 		.4byte	.LVL202
 10809 0858 4C020000 		.4byte	.LFE6
 10810 085c 0100     		.2byte	0x1
 10811 085e 59       		.byte	0x59
ARM GAS  /tmp/ccj4yzJk.s 			page 191


 10812 085f 00000000 		.4byte	0
 10813 0863 00000000 		.4byte	0
 10814              	.LLST44:
 10815 0867 3A010000 		.4byte	.LVL216
 10816 086b 4E010000 		.4byte	.LVL219
 10817 086f 0600     		.2byte	0x6
 10818 0871 56       		.byte	0x56
 10819 0872 93       		.byte	0x93
 10820 0873 04       		.uleb128 0x4
 10821 0874 57       		.byte	0x57
 10822 0875 93       		.byte	0x93
 10823 0876 04       		.uleb128 0x4
 10824 0877 AA010000 		.4byte	.LVL232
 10825 087b C4010000 		.4byte	.LVL237
 10826 087f 0600     		.2byte	0x6
 10827 0881 56       		.byte	0x56
 10828 0882 93       		.byte	0x93
 10829 0883 04       		.uleb128 0x4
 10830 0884 57       		.byte	0x57
 10831 0885 93       		.byte	0x93
 10832 0886 04       		.uleb128 0x4
 10833 0887 00000000 		.4byte	0
 10834 088b 00000000 		.4byte	0
 10835              	.LLST45:
 10836 088f 3A010000 		.4byte	.LVL216
 10837 0893 7A010000 		.4byte	.LVL225
 10838 0897 0300     		.2byte	0x3
 10839 0899 91       		.byte	0x91
 10840 089a 887F     		.sleb128 -120
 10841 089c 82010000 		.4byte	.LVL226
 10842 08a0 D0010000 		.4byte	.LVL241
 10843 08a4 0300     		.2byte	0x3
 10844 08a6 91       		.byte	0x91
 10845 08a7 887F     		.sleb128 -120
 10846 08a9 00000000 		.4byte	0
 10847 08ad 00000000 		.4byte	0
 10848              	.LLST46:
 10849 08b1 3A010000 		.4byte	.LVL216
 10850 08b5 4A010000 		.4byte	.LVL218
 10851 08b9 0600     		.2byte	0x6
 10852 08bb 54       		.byte	0x54
 10853 08bc 93       		.byte	0x93
 10854 08bd 04       		.uleb128 0x4
 10855 08be 55       		.byte	0x55
 10856 08bf 93       		.byte	0x93
 10857 08c0 04       		.uleb128 0x4
 10858 08c1 AA010000 		.4byte	.LVL232
 10859 08c5 BC010000 		.4byte	.LVL234
 10860 08c9 0600     		.2byte	0x6
 10861 08cb 54       		.byte	0x54
 10862 08cc 93       		.byte	0x93
 10863 08cd 04       		.uleb128 0x4
 10864 08ce 55       		.byte	0x55
 10865 08cf 93       		.byte	0x93
 10866 08d0 04       		.uleb128 0x4
 10867 08d1 BE010000 		.4byte	.LVL235
 10868 08d5 C0010000 		.4byte	.LVL236
ARM GAS  /tmp/ccj4yzJk.s 			page 192


 10869 08d9 0600     		.2byte	0x6
 10870 08db 54       		.byte	0x54
 10871 08dc 93       		.byte	0x93
 10872 08dd 04       		.uleb128 0x4
 10873 08de 55       		.byte	0x55
 10874 08df 93       		.byte	0x93
 10875 08e0 04       		.uleb128 0x4
 10876 08e1 00000000 		.4byte	0
 10877 08e5 00000000 		.4byte	0
 10878              	.LLST47:
 10879 08e9 3A010000 		.4byte	.LVL216
 10880 08ed 7A010000 		.4byte	.LVL225
 10881 08f1 0600     		.2byte	0x6
 10882 08f3 5A       		.byte	0x5a
 10883 08f4 93       		.byte	0x93
 10884 08f5 04       		.uleb128 0x4
 10885 08f6 5B       		.byte	0x5b
 10886 08f7 93       		.byte	0x93
 10887 08f8 04       		.uleb128 0x4
 10888 08f9 82010000 		.4byte	.LVL226
 10889 08fd D0010000 		.4byte	.LVL241
 10890 0901 0600     		.2byte	0x6
 10891 0903 5A       		.byte	0x5a
 10892 0904 93       		.byte	0x93
 10893 0905 04       		.uleb128 0x4
 10894 0906 5B       		.byte	0x5b
 10895 0907 93       		.byte	0x93
 10896 0908 04       		.uleb128 0x4
 10897 0909 00000000 		.4byte	0
 10898 090d 00000000 		.4byte	0
 10899              	.LLST48:
 10900 0911 4E010000 		.4byte	.LVL219
 10901 0915 7A010000 		.4byte	.LVL225
 10902 0919 0300     		.2byte	0x3
 10903 091b 91       		.byte	0x91
 10904 091c 807F     		.sleb128 -128
 10905 091e 82010000 		.4byte	.LVL226
 10906 0922 AA010000 		.4byte	.LVL232
 10907 0926 0300     		.2byte	0x3
 10908 0928 91       		.byte	0x91
 10909 0929 807F     		.sleb128 -128
 10910 092b C4010000 		.4byte	.LVL237
 10911 092f D0010000 		.4byte	.LVL241
 10912 0933 0300     		.2byte	0x3
 10913 0935 91       		.byte	0x91
 10914 0936 807F     		.sleb128 -128
 10915 0938 00000000 		.4byte	0
 10916 093c 00000000 		.4byte	0
 10917              	.LLST49:
 10918 0940 4E010000 		.4byte	.LVL219
 10919 0944 7A010000 		.4byte	.LVL225
 10920 0948 0300     		.2byte	0x3
 10921 094a 91       		.byte	0x91
 10922 094b 907F     		.sleb128 -112
 10923 094d 82010000 		.4byte	.LVL226
 10924 0951 AA010000 		.4byte	.LVL232
 10925 0955 0300     		.2byte	0x3
ARM GAS  /tmp/ccj4yzJk.s 			page 193


 10926 0957 91       		.byte	0x91
 10927 0958 907F     		.sleb128 -112
 10928 095a C4010000 		.4byte	.LVL237
 10929 095e D0010000 		.4byte	.LVL241
 10930 0962 0300     		.2byte	0x3
 10931 0964 91       		.byte	0x91
 10932 0965 907F     		.sleb128 -112
 10933 0967 00000000 		.4byte	0
 10934 096b 00000000 		.4byte	0
 10935              	.LLST50:
 10936 096f 4E010000 		.4byte	.LVL219
 10937 0973 60010000 		.4byte	.LVL221
 10938 0977 0600     		.2byte	0x6
 10939 0979 56       		.byte	0x56
 10940 097a 93       		.byte	0x93
 10941 097b 04       		.uleb128 0x4
 10942 097c 57       		.byte	0x57
 10943 097d 93       		.byte	0x93
 10944 097e 04       		.uleb128 0x4
 10945 097f 96010000 		.4byte	.LVL229
 10946 0983 A8010000 		.4byte	.LVL231
 10947 0987 0600     		.2byte	0x6
 10948 0989 56       		.byte	0x56
 10949 098a 93       		.byte	0x93
 10950 098b 04       		.uleb128 0x4
 10951 098c 57       		.byte	0x57
 10952 098d 93       		.byte	0x93
 10953 098e 04       		.uleb128 0x4
 10954 098f C4010000 		.4byte	.LVL237
 10955 0993 C8010000 		.4byte	.LVL238
 10956 0997 0600     		.2byte	0x6
 10957 0999 56       		.byte	0x56
 10958 099a 93       		.byte	0x93
 10959 099b 04       		.uleb128 0x4
 10960 099c 57       		.byte	0x57
 10961 099d 93       		.byte	0x93
 10962 099e 04       		.uleb128 0x4
 10963 099f 00000000 		.4byte	0
 10964 09a3 00000000 		.4byte	0
 10965              	.LLST51:
 10966 09a7 4E010000 		.4byte	.LVL219
 10967 09ab 7A010000 		.4byte	.LVL225
 10968 09af 0600     		.2byte	0x6
 10969 09b1 5A       		.byte	0x5a
 10970 09b2 93       		.byte	0x93
 10971 09b3 04       		.uleb128 0x4
 10972 09b4 5B       		.byte	0x5b
 10973 09b5 93       		.byte	0x93
 10974 09b6 04       		.uleb128 0x4
 10975 09b7 82010000 		.4byte	.LVL226
 10976 09bb AA010000 		.4byte	.LVL232
 10977 09bf 0600     		.2byte	0x6
 10978 09c1 5A       		.byte	0x5a
 10979 09c2 93       		.byte	0x93
 10980 09c3 04       		.uleb128 0x4
 10981 09c4 5B       		.byte	0x5b
 10982 09c5 93       		.byte	0x93
ARM GAS  /tmp/ccj4yzJk.s 			page 194


 10983 09c6 04       		.uleb128 0x4
 10984 09c7 C4010000 		.4byte	.LVL237
 10985 09cb D0010000 		.4byte	.LVL241
 10986 09cf 0600     		.2byte	0x6
 10987 09d1 5A       		.byte	0x5a
 10988 09d2 93       		.byte	0x93
 10989 09d3 04       		.uleb128 0x4
 10990 09d4 5B       		.byte	0x5b
 10991 09d5 93       		.byte	0x93
 10992 09d6 04       		.uleb128 0x4
 10993 09d7 00000000 		.4byte	0
 10994 09db 00000000 		.4byte	0
 10995              	.LLST52:
 10996 09df 64010000 		.4byte	.LVL222
 10997 09e3 7A010000 		.4byte	.LVL225
 10998 09e7 0300     		.2byte	0x3
 10999 09e9 91       		.byte	0x91
 11000 09ea A07F     		.sleb128 -96
 11001 09ec 82010000 		.4byte	.LVL226
 11002 09f0 96010000 		.4byte	.LVL229
 11003 09f4 0300     		.2byte	0x3
 11004 09f6 91       		.byte	0x91
 11005 09f7 A07F     		.sleb128 -96
 11006 09f9 CA010000 		.4byte	.LVL239
 11007 09fd D0010000 		.4byte	.LVL241
 11008 0a01 0300     		.2byte	0x3
 11009 0a03 91       		.byte	0x91
 11010 0a04 A07F     		.sleb128 -96
 11011 0a06 00000000 		.4byte	0
 11012 0a0a 00000000 		.4byte	0
 11013              	.LLST53:
 11014 0a0e 64010000 		.4byte	.LVL222
 11015 0a12 7A010000 		.4byte	.LVL225
 11016 0a16 0300     		.2byte	0x3
 11017 0a18 91       		.byte	0x91
 11018 0a19 987F     		.sleb128 -104
 11019 0a1b 82010000 		.4byte	.LVL226
 11020 0a1f 96010000 		.4byte	.LVL229
 11021 0a23 0300     		.2byte	0x3
 11022 0a25 91       		.byte	0x91
 11023 0a26 987F     		.sleb128 -104
 11024 0a28 CA010000 		.4byte	.LVL239
 11025 0a2c D0010000 		.4byte	.LVL241
 11026 0a30 0300     		.2byte	0x3
 11027 0a32 91       		.byte	0x91
 11028 0a33 987F     		.sleb128 -104
 11029 0a35 00000000 		.4byte	0
 11030 0a39 00000000 		.4byte	0
 11031              	.LLST54:
 11032 0a3d 64010000 		.4byte	.LVL222
 11033 0a41 76010000 		.4byte	.LVL224
 11034 0a45 0600     		.2byte	0x6
 11035 0a47 54       		.byte	0x54
 11036 0a48 93       		.byte	0x93
 11037 0a49 04       		.uleb128 0x4
 11038 0a4a 55       		.byte	0x55
 11039 0a4b 93       		.byte	0x93
ARM GAS  /tmp/ccj4yzJk.s 			page 195


 11040 0a4c 04       		.uleb128 0x4
 11041 0a4d 82010000 		.4byte	.LVL226
 11042 0a51 94010000 		.4byte	.LVL228
 11043 0a55 0600     		.2byte	0x6
 11044 0a57 54       		.byte	0x54
 11045 0a58 93       		.byte	0x93
 11046 0a59 04       		.uleb128 0x4
 11047 0a5a 55       		.byte	0x55
 11048 0a5b 93       		.byte	0x93
 11049 0a5c 04       		.uleb128 0x4
 11050 0a5d CA010000 		.4byte	.LVL239
 11051 0a61 CE010000 		.4byte	.LVL240
 11052 0a65 0600     		.2byte	0x6
 11053 0a67 54       		.byte	0x54
 11054 0a68 93       		.byte	0x93
 11055 0a69 04       		.uleb128 0x4
 11056 0a6a 55       		.byte	0x55
 11057 0a6b 93       		.byte	0x93
 11058 0a6c 04       		.uleb128 0x4
 11059 0a6d 00000000 		.4byte	0
 11060 0a71 00000000 		.4byte	0
 11061              	.LLST55:
 11062 0a75 64010000 		.4byte	.LVL222
 11063 0a79 7A010000 		.4byte	.LVL225
 11064 0a7d 0600     		.2byte	0x6
 11065 0a7f 5A       		.byte	0x5a
 11066 0a80 93       		.byte	0x93
 11067 0a81 04       		.uleb128 0x4
 11068 0a82 5B       		.byte	0x5b
 11069 0a83 93       		.byte	0x93
 11070 0a84 04       		.uleb128 0x4
 11071 0a85 82010000 		.4byte	.LVL226
 11072 0a89 96010000 		.4byte	.LVL229
 11073 0a8d 0600     		.2byte	0x6
 11074 0a8f 5A       		.byte	0x5a
 11075 0a90 93       		.byte	0x93
 11076 0a91 04       		.uleb128 0x4
 11077 0a92 5B       		.byte	0x5b
 11078 0a93 93       		.byte	0x93
 11079 0a94 04       		.uleb128 0x4
 11080 0a95 CA010000 		.4byte	.LVL239
 11081 0a99 D0010000 		.4byte	.LVL241
 11082 0a9d 0600     		.2byte	0x6
 11083 0a9f 5A       		.byte	0x5a
 11084 0aa0 93       		.byte	0x93
 11085 0aa1 04       		.uleb128 0x4
 11086 0aa2 5B       		.byte	0x5b
 11087 0aa3 93       		.byte	0x93
 11088 0aa4 04       		.uleb128 0x4
 11089 0aa5 00000000 		.4byte	0
 11090 0aa9 00000000 		.4byte	0
 11091              	.LLST56:
 11092 0aad D0010000 		.4byte	.LVL241
 11093 0ab1 0E020000 		.4byte	.LVL245
 11094 0ab5 0400     		.2byte	0x4
 11095 0ab7 91       		.byte	0x91
 11096 0ab8 A87F     		.sleb128 -88
ARM GAS  /tmp/ccj4yzJk.s 			page 196


 11097 0aba 9F       		.byte	0x9f
 11098 0abb 00000000 		.4byte	0
 11099 0abf 00000000 		.4byte	0
 11100              	.LLST57:
 11101 0ac3 D0010000 		.4byte	.LVL241
 11102 0ac7 0E020000 		.4byte	.LVL245
 11103 0acb 0A00     		.2byte	0xa
 11104 0acd 9E       		.byte	0x9e
 11105 0ace 08       		.uleb128 0x8
 11106 0acf 00000000 		.4byte	0
 11107 0ad3 0000F0BF 		.4byte	0xbff00000
 11108 0ad7 00000000 		.4byte	0
 11109 0adb 00000000 		.4byte	0
 11110              	.LLST58:
 11111 0adf D0010000 		.4byte	.LVL241
 11112 0ae3 0E020000 		.4byte	.LVL245
 11113 0ae7 0100     		.2byte	0x1
 11114 0ae9 58       		.byte	0x58
 11115 0aea 00000000 		.4byte	0
 11116 0aee 00000000 		.4byte	0
 11117              	.LLST59:
 11118 0af2 00000000 		.4byte	.LFB3
 11119 0af6 02000000 		.4byte	.LCFI9
 11120 0afa 0200     		.2byte	0x2
 11121 0afc 7D       		.byte	0x7d
 11122 0afd 00       		.sleb128 0
 11123 0afe 02000000 		.4byte	.LCFI9
 11124 0b02 0A000000 		.4byte	.LCFI10
 11125 0b06 0200     		.2byte	0x2
 11126 0b08 7D       		.byte	0x7d
 11127 0b09 0C       		.sleb128 12
 11128 0b0a 0A000000 		.4byte	.LCFI10
 11129 0b0e 28000000 		.4byte	.LFE3
 11130 0b12 0200     		.2byte	0x2
 11131 0b14 7D       		.byte	0x7d
 11132 0b15 20       		.sleb128 32
 11133 0b16 00000000 		.4byte	0
 11134 0b1a 00000000 		.4byte	0
 11135              	.LLST60:
 11136 0b1e 00000000 		.4byte	.LVL251
 11137 0b22 15000000 		.4byte	.LVL252-1
 11138 0b26 0600     		.2byte	0x6
 11139 0b28 50       		.byte	0x50
 11140 0b29 93       		.byte	0x93
 11141 0b2a 04       		.uleb128 0x4
 11142 0b2b 51       		.byte	0x51
 11143 0b2c 93       		.byte	0x93
 11144 0b2d 04       		.uleb128 0x4
 11145 0b2e 15000000 		.4byte	.LVL252-1
 11146 0b32 28000000 		.4byte	.LFE3
 11147 0b36 0600     		.2byte	0x6
 11148 0b38 F3       		.byte	0xf3
 11149 0b39 03       		.uleb128 0x3
 11150 0b3a F5       		.byte	0xf5
 11151 0b3b 00       		.uleb128 0
 11152 0b3c 29       		.uleb128 0x29
 11153 0b3d 9F       		.byte	0x9f
ARM GAS  /tmp/ccj4yzJk.s 			page 197


 11154 0b3e 00000000 		.4byte	0
 11155 0b42 00000000 		.4byte	0
 11156              	.LLST61:
 11157 0b46 00000000 		.4byte	.LVL251
 11158 0b4a 15000000 		.4byte	.LVL252-1
 11159 0b4e 0100     		.2byte	0x1
 11160 0b50 52       		.byte	0x52
 11161 0b51 15000000 		.4byte	.LVL252-1
 11162 0b55 28000000 		.4byte	.LFE3
 11163 0b59 0400     		.2byte	0x4
 11164 0b5b F3       		.byte	0xf3
 11165 0b5c 01       		.uleb128 0x1
 11166 0b5d 52       		.byte	0x52
 11167 0b5e 9F       		.byte	0x9f
 11168 0b5f 00000000 		.4byte	0
 11169 0b63 00000000 		.4byte	0
 11170              	.LLST62:
 11171 0b67 00000000 		.4byte	.LVL251
 11172 0b6b 15000000 		.4byte	.LVL252-1
 11173 0b6f 0100     		.2byte	0x1
 11174 0b71 53       		.byte	0x53
 11175 0b72 15000000 		.4byte	.LVL252-1
 11176 0b76 28000000 		.4byte	.LFE3
 11177 0b7a 0400     		.2byte	0x4
 11178 0b7c F3       		.byte	0xf3
 11179 0b7d 01       		.uleb128 0x1
 11180 0b7e 53       		.byte	0x53
 11181 0b7f 9F       		.byte	0x9f
 11182 0b80 00000000 		.4byte	0
 11183 0b84 00000000 		.4byte	0
 11184              	.LLST63:
 11185 0b88 00000000 		.4byte	.LFB7
 11186 0b8c 04000000 		.4byte	.LCFI11
 11187 0b90 0200     		.2byte	0x2
 11188 0b92 7D       		.byte	0x7d
 11189 0b93 00       		.sleb128 0
 11190 0b94 04000000 		.4byte	.LCFI11
 11191 0b98 06000000 		.4byte	.LCFI12
 11192 0b9c 0200     		.2byte	0x2
 11193 0b9e 7D       		.byte	0x7d
 11194 0b9f 24       		.sleb128 36
 11195 0ba0 06000000 		.4byte	.LCFI12
 11196 0ba4 14080000 		.4byte	.LFE7
 11197 0ba8 0300     		.2byte	0x3
 11198 0baa 7D       		.byte	0x7d
 11199 0bab C801     		.sleb128 200
 11200 0bad 00000000 		.4byte	0
 11201 0bb1 00000000 		.4byte	0
 11202              	.LLST64:
 11203 0bb5 00000000 		.4byte	.LVL253
 11204 0bb9 13000000 		.4byte	.LVL254-1
 11205 0bbd 0600     		.2byte	0x6
 11206 0bbf 50       		.byte	0x50
 11207 0bc0 93       		.byte	0x93
 11208 0bc1 04       		.uleb128 0x4
 11209 0bc2 51       		.byte	0x51
 11210 0bc3 93       		.byte	0x93
ARM GAS  /tmp/ccj4yzJk.s 			page 198


 11211 0bc4 04       		.uleb128 0x4
 11212 0bc5 13000000 		.4byte	.LVL254-1
 11213 0bc9 14080000 		.4byte	.LFE7
 11214 0bcd 0600     		.2byte	0x6
 11215 0bcf F3       		.byte	0xf3
 11216 0bd0 03       		.uleb128 0x3
 11217 0bd1 F5       		.byte	0xf5
 11218 0bd2 00       		.uleb128 0
 11219 0bd3 29       		.uleb128 0x29
 11220 0bd4 9F       		.byte	0x9f
 11221 0bd5 00000000 		.4byte	0
 11222 0bd9 00000000 		.4byte	0
 11223              	.LLST65:
 11224 0bdd 00000000 		.4byte	.LVL253
 11225 0be1 13000000 		.4byte	.LVL254-1
 11226 0be5 0100     		.2byte	0x1
 11227 0be7 52       		.byte	0x52
 11228 0be8 13000000 		.4byte	.LVL254-1
 11229 0bec 14080000 		.4byte	.LFE7
 11230 0bf0 0100     		.2byte	0x1
 11231 0bf2 57       		.byte	0x57
 11232 0bf3 00000000 		.4byte	0
 11233 0bf7 00000000 		.4byte	0
 11234              	.LLST66:
 11235 0bfb 00000000 		.4byte	.LVL253
 11236 0bff 13000000 		.4byte	.LVL254-1
 11237 0c03 0100     		.2byte	0x1
 11238 0c05 53       		.byte	0x53
 11239 0c06 13000000 		.4byte	.LVL254-1
 11240 0c0a 7A000000 		.4byte	.LVL270
 11241 0c0e 0100     		.2byte	0x1
 11242 0c10 54       		.byte	0x54
 11243 0c11 7A000000 		.4byte	.LVL270
 11244 0c15 14080000 		.4byte	.LFE7
 11245 0c19 0400     		.2byte	0x4
 11246 0c1b F3       		.byte	0xf3
 11247 0c1c 01       		.uleb128 0x1
 11248 0c1d 53       		.byte	0x53
 11249 0c1e 9F       		.byte	0x9f
 11250 0c1f 00000000 		.4byte	0
 11251 0c23 00000000 		.4byte	0
 11252              	.LLST67:
 11253 0c27 18000000 		.4byte	.LVL255
 11254 0c2b 8A000000 		.4byte	.LVL273
 11255 0c2f 0800     		.2byte	0x8
 11256 0c31 F5       		.byte	0xf5
 11257 0c32 08       		.uleb128 0x8
 11258 0c33 29       		.uleb128 0x29
 11259 0c34 F7       		.byte	0xf7
 11260 0c35 30       		.uleb128 0x30
 11261 0c36 F7       		.byte	0xf7
 11262 0c37 00       		.uleb128 0
 11263 0c38 9F       		.byte	0x9f
 11264 0c39 00000000 		.4byte	0
 11265 0c3d 00000000 		.4byte	0
 11266              	.LLST68:
 11267 0c41 18000000 		.4byte	.LVL255
ARM GAS  /tmp/ccj4yzJk.s 			page 199


 11268 0c45 1C000000 		.4byte	.LVL256
 11269 0c49 0600     		.2byte	0x6
 11270 0c4b 50       		.byte	0x50
 11271 0c4c 93       		.byte	0x93
 11272 0c4d 04       		.uleb128 0x4
 11273 0c4e 51       		.byte	0x51
 11274 0c4f 93       		.byte	0x93
 11275 0c50 04       		.uleb128 0x4
 11276 0c51 1C000000 		.4byte	.LVL256
 11277 0c55 14080000 		.4byte	.LFE7
 11278 0c59 0300     		.2byte	0x3
 11279 0c5b 91       		.byte	0x91
 11280 0c5c E07E     		.sleb128 -160
 11281 0c5e 00000000 		.4byte	0
 11282 0c62 00000000 		.4byte	0
 11283              	.LLST69:
 11284 0c66 44000000 		.4byte	.LVL262
 11285 0c6a 70010000 		.4byte	.LVL299
 11286 0c6e 1000     		.2byte	0x10
 11287 0c70 F5       		.byte	0xf5
 11288 0c71 0A       		.uleb128 0xa
 11289 0c72 29       		.uleb128 0x29
 11290 0c73 F4       		.byte	0xf4
 11291 0c74 29       		.uleb128 0x29
 11292 0c75 08       		.byte	0x8
 11293 0c76 00000000 		.4byte	0
 11294 0c7a 00002E40 		.4byte	0x402e0000
 11295 0c7e 1E       		.byte	0x1e
 11296 0c7f 9F       		.byte	0x9f
 11297 0c80 78010000 		.4byte	.LVL300
 11298 0c84 B4010000 		.4byte	.LVL309
 11299 0c88 1000     		.2byte	0x10
 11300 0c8a F5       		.byte	0xf5
 11301 0c8b 0A       		.uleb128 0xa
 11302 0c8c 29       		.uleb128 0x29
 11303 0c8d F4       		.byte	0xf4
 11304 0c8e 29       		.uleb128 0x29
 11305 0c8f 08       		.byte	0x8
 11306 0c90 00000000 		.4byte	0
 11307 0c94 00002E40 		.4byte	0x402e0000
 11308 0c98 1E       		.byte	0x1e
 11309 0c99 9F       		.byte	0x9f
 11310 0c9a 00000000 		.4byte	0
 11311 0c9e 00000000 		.4byte	0
 11312              	.LLST70:
 11313 0ca2 34000000 		.4byte	.LVL260
 11314 0ca6 37000000 		.4byte	.LVL261-1
 11315 0caa 0600     		.2byte	0x6
 11316 0cac 50       		.byte	0x50
 11317 0cad 93       		.byte	0x93
 11318 0cae 04       		.uleb128 0x4
 11319 0caf 51       		.byte	0x51
 11320 0cb0 93       		.byte	0x93
 11321 0cb1 04       		.uleb128 0x4
 11322 0cb2 37000000 		.4byte	.LVL261-1
 11323 0cb6 14080000 		.4byte	.LFE7
 11324 0cba 0300     		.2byte	0x3
ARM GAS  /tmp/ccj4yzJk.s 			page 200


 11325 0cbc 91       		.byte	0x91
 11326 0cbd C87E     		.sleb128 -184
 11327 0cbf 00000000 		.4byte	0
 11328 0cc3 00000000 		.4byte	0
 11329              	.LLST71:
 11330 0cc7 B4000000 		.4byte	.LVL278
 11331 0ccb EE000000 		.4byte	.LVL286
 11332 0ccf 0600     		.2byte	0x6
 11333 0cd1 54       		.byte	0x54
 11334 0cd2 93       		.byte	0x93
 11335 0cd3 04       		.uleb128 0x4
 11336 0cd4 55       		.byte	0x55
 11337 0cd5 93       		.byte	0x93
 11338 0cd6 04       		.uleb128 0x4
 11339 0cd7 B6010000 		.4byte	.LVL310
 11340 0cdb F0010000 		.4byte	.LVL317
 11341 0cdf 0600     		.2byte	0x6
 11342 0ce1 5A       		.byte	0x5a
 11343 0ce2 93       		.byte	0x93
 11344 0ce3 04       		.uleb128 0x4
 11345 0ce4 5B       		.byte	0x5b
 11346 0ce5 93       		.byte	0x93
 11347 0ce6 04       		.uleb128 0x4
 11348 0ce7 00000000 		.4byte	0
 11349 0ceb 00000000 		.4byte	0
 11350              	.LLST72:
 11351 0cef E0000000 		.4byte	.LVL284
 11352 0cf3 E7000000 		.4byte	.LVL285-1
 11353 0cf7 0600     		.2byte	0x6
 11354 0cf9 52       		.byte	0x52
 11355 0cfa 93       		.byte	0x93
 11356 0cfb 04       		.uleb128 0x4
 11357 0cfc 53       		.byte	0x53
 11358 0cfd 93       		.byte	0x93
 11359 0cfe 04       		.uleb128 0x4
 11360 0cff EE000000 		.4byte	.LVL286
 11361 0d03 F0000000 		.4byte	.LVL287
 11362 0d07 0600     		.2byte	0x6
 11363 0d09 50       		.byte	0x50
 11364 0d0a 93       		.byte	0x93
 11365 0d0b 04       		.uleb128 0x4
 11366 0d0c 51       		.byte	0x51
 11367 0d0d 93       		.byte	0x93
 11368 0d0e 04       		.uleb128 0x4
 11369 0d0f F0000000 		.4byte	.LVL287
 11370 0d13 FD000000 		.4byte	.LVL288-1
 11371 0d17 0600     		.2byte	0x6
 11372 0d19 50       		.byte	0x50
 11373 0d1a 93       		.byte	0x93
 11374 0d1b 04       		.uleb128 0x4
 11375 0d1c 54       		.byte	0x54
 11376 0d1d 93       		.byte	0x93
 11377 0d1e 04       		.uleb128 0x4
 11378 0d1f FD000000 		.4byte	.LVL288-1
 11379 0d23 28010000 		.4byte	.LVL291
 11380 0d27 0600     		.2byte	0x6
 11381 0d29 55       		.byte	0x55
ARM GAS  /tmp/ccj4yzJk.s 			page 201


 11382 0d2a 93       		.byte	0x93
 11383 0d2b 04       		.uleb128 0x4
 11384 0d2c 54       		.byte	0x54
 11385 0d2d 93       		.byte	0x93
 11386 0d2e 04       		.uleb128 0x4
 11387 0d2f 90010000 		.4byte	.LVL304
 11388 0d33 B2010000 		.4byte	.LVL308
 11389 0d37 0600     		.2byte	0x6
 11390 0d39 55       		.byte	0x55
 11391 0d3a 93       		.byte	0x93
 11392 0d3b 04       		.uleb128 0x4
 11393 0d3c 54       		.byte	0x54
 11394 0d3d 93       		.byte	0x93
 11395 0d3e 04       		.uleb128 0x4
 11396 0d3f 00000000 		.4byte	0
 11397 0d43 00000000 		.4byte	0
 11398              	.LLST73:
 11399 0d47 B8040000 		.4byte	.LVL382
 11400 0d4b BC040000 		.4byte	.LVL383
 11401 0d4f 0600     		.2byte	0x6
 11402 0d51 50       		.byte	0x50
 11403 0d52 93       		.byte	0x93
 11404 0d53 04       		.uleb128 0x4
 11405 0d54 51       		.byte	0x51
 11406 0d55 93       		.byte	0x93
 11407 0d56 04       		.uleb128 0x4
 11408 0d57 BC040000 		.4byte	.LVL383
 11409 0d5b 9C070000 		.4byte	.LVL465
 11410 0d5f 0300     		.2byte	0x3
 11411 0d61 91       		.byte	0x91
 11412 0d62 D87E     		.sleb128 -168
 11413 0d64 00000000 		.4byte	0
 11414 0d68 00000000 		.4byte	0
 11415              	.LLST74:
 11416 0d6c D0040000 		.4byte	.LVL386
 11417 0d70 D4040000 		.4byte	.LVL387
 11418 0d74 0600     		.2byte	0x6
 11419 0d76 50       		.byte	0x50
 11420 0d77 93       		.byte	0x93
 11421 0d78 04       		.uleb128 0x4
 11422 0d79 51       		.byte	0x51
 11423 0d7a 93       		.byte	0x93
 11424 0d7b 04       		.uleb128 0x4
 11425 0d7c D4040000 		.4byte	.LVL387
 11426 0d80 9C070000 		.4byte	.LVL465
 11427 0d84 0300     		.2byte	0x3
 11428 0d86 91       		.byte	0x91
 11429 0d87 887F     		.sleb128 -120
 11430 0d89 00000000 		.4byte	0
 11431 0d8d 00000000 		.4byte	0
 11432              	.LLST75:
 11433 0d91 E4040000 		.4byte	.LVL390
 11434 0d95 E8040000 		.4byte	.LVL391
 11435 0d99 0600     		.2byte	0x6
 11436 0d9b 50       		.byte	0x50
 11437 0d9c 93       		.byte	0x93
 11438 0d9d 04       		.uleb128 0x4
ARM GAS  /tmp/ccj4yzJk.s 			page 202


 11439 0d9e 51       		.byte	0x51
 11440 0d9f 93       		.byte	0x93
 11441 0da0 04       		.uleb128 0x4
 11442 0da1 E8040000 		.4byte	.LVL391
 11443 0da5 9C070000 		.4byte	.LVL465
 11444 0da9 0300     		.2byte	0x3
 11445 0dab 91       		.byte	0x91
 11446 0dac 907F     		.sleb128 -112
 11447 0dae 00000000 		.4byte	0
 11448 0db2 00000000 		.4byte	0
 11449              	.LLST76:
 11450 0db6 7C050000 		.4byte	.LVL408
 11451 0dba 08060000 		.4byte	.LVL425
 11452 0dbe 0600     		.2byte	0x6
 11453 0dc0 5A       		.byte	0x5a
 11454 0dc1 93       		.byte	0x93
 11455 0dc2 04       		.uleb128 0x4
 11456 0dc3 5B       		.byte	0x5b
 11457 0dc4 93       		.byte	0x93
 11458 0dc5 04       		.uleb128 0x4
 11459 0dc6 08060000 		.4byte	.LVL425
 11460 0dca 78060000 		.4byte	.LVL438
 11461 0dce 0600     		.2byte	0x6
 11462 0dd0 54       		.byte	0x54
 11463 0dd1 93       		.byte	0x93
 11464 0dd2 04       		.uleb128 0x4
 11465 0dd3 55       		.byte	0x55
 11466 0dd4 93       		.byte	0x93
 11467 0dd5 04       		.uleb128 0x4
 11468 0dd6 00000000 		.4byte	0
 11469 0dda 00000000 		.4byte	0
 11470              	.LLST77:
 11471 0dde FC050000 		.4byte	.LVL423
 11472 0de2 14060000 		.4byte	.LVL427
 11473 0de6 0600     		.2byte	0x6
 11474 0de8 58       		.byte	0x58
 11475 0de9 93       		.byte	0x93
 11476 0dea 04       		.uleb128 0x4
 11477 0deb 59       		.byte	0x59
 11478 0dec 93       		.byte	0x93
 11479 0ded 04       		.uleb128 0x4
 11480 0dee 14060000 		.4byte	.LVL427
 11481 0df2 18060000 		.4byte	.LVL428
 11482 0df6 0600     		.2byte	0x6
 11483 0df8 50       		.byte	0x50
 11484 0df9 93       		.byte	0x93
 11485 0dfa 04       		.uleb128 0x4
 11486 0dfb 51       		.byte	0x51
 11487 0dfc 93       		.byte	0x93
 11488 0dfd 04       		.uleb128 0x4
 11489 0dfe 18060000 		.4byte	.LVL428
 11490 0e02 9C070000 		.4byte	.LVL465
 11491 0e06 0300     		.2byte	0x3
 11492 0e08 91       		.byte	0x91
 11493 0e09 987F     		.sleb128 -104
 11494 0e0b 00000000 		.4byte	0
 11495 0e0f 00000000 		.4byte	0
ARM GAS  /tmp/ccj4yzJk.s 			page 203


 11496              	.LLST78:
 11497 0e13 E0010000 		.4byte	.LVL314
 11498 0e17 E4010000 		.4byte	.LVL315
 11499 0e1b 0600     		.2byte	0x6
 11500 0e1d 50       		.byte	0x50
 11501 0e1e 93       		.byte	0x93
 11502 0e1f 04       		.uleb128 0x4
 11503 0e20 51       		.byte	0x51
 11504 0e21 93       		.byte	0x93
 11505 0e22 04       		.uleb128 0x4
 11506 0e23 E4010000 		.4byte	.LVL315
 11507 0e27 1C070000 		.4byte	.LVL455
 11508 0e2b 0300     		.2byte	0x3
 11509 0e2d 91       		.byte	0x91
 11510 0e2e E87E     		.sleb128 -152
 11511 0e30 1C070000 		.4byte	.LVL455
 11512 0e34 9C070000 		.4byte	.LVL465
 11513 0e38 1A00     		.2byte	0x1a
 11514 0e3a 91       		.byte	0x91
 11515 0e3b E87E     		.sleb128 -152
 11516 0e3d F6       		.byte	0xf6
 11517 0e3e 08       		.byte	0x8
 11518 0e3f 29       		.uleb128 0x29
 11519 0e40 91       		.byte	0x91
 11520 0e41 D87E     		.sleb128 -168
 11521 0e43 F6       		.byte	0xf6
 11522 0e44 08       		.byte	0x8
 11523 0e45 29       		.uleb128 0x29
 11524 0e46 F4       		.byte	0xf4
 11525 0e47 29       		.uleb128 0x29
 11526 0e48 08       		.byte	0x8
 11527 0e49 00000000 		.4byte	0
 11528 0e4d 00807640 		.4byte	0x40768000
 11529 0e51 1B       		.byte	0x1b
 11530 0e52 1C       		.byte	0x1c
 11531 0e53 9F       		.byte	0x9f
 11532 0e54 9C070000 		.4byte	.LVL465
 11533 0e58 C2070000 		.4byte	.LVL468
 11534 0e5c 0300     		.2byte	0x3
 11535 0e5e 91       		.byte	0x91
 11536 0e5f E87E     		.sleb128 -152
 11537 0e61 C2070000 		.4byte	.LVL468
 11538 0e65 C4070000 		.4byte	.LVL469
 11539 0e69 0600     		.2byte	0x6
 11540 0e6b 50       		.byte	0x50
 11541 0e6c 93       		.byte	0x93
 11542 0e6d 04       		.uleb128 0x4
 11543 0e6e 51       		.byte	0x51
 11544 0e6f 93       		.byte	0x93
 11545 0e70 04       		.uleb128 0x4
 11546 0e71 C4070000 		.4byte	.LVL469
 11547 0e75 14080000 		.4byte	.LFE7
 11548 0e79 0300     		.2byte	0x3
 11549 0e7b 91       		.byte	0x91
 11550 0e7c E87E     		.sleb128 -152
 11551 0e7e 00000000 		.4byte	0
 11552 0e82 00000000 		.4byte	0
ARM GAS  /tmp/ccj4yzJk.s 			page 204


 11553              	.LLST79:
 11554 0e86 04020000 		.4byte	.LVL319
 11555 0e8a 0A020000 		.4byte	.LVL320
 11556 0e8e 0600     		.2byte	0x6
 11557 0e90 50       		.byte	0x50
 11558 0e91 93       		.byte	0x93
 11559 0e92 04       		.uleb128 0x4
 11560 0e93 51       		.byte	0x51
 11561 0e94 93       		.byte	0x93
 11562 0e95 04       		.uleb128 0x4
 11563 0e96 0A020000 		.4byte	.LVL320
 11564 0e9a 1C070000 		.4byte	.LVL455
 11565 0e9e 0300     		.2byte	0x3
 11566 0ea0 91       		.byte	0x91
 11567 0ea1 F07E     		.sleb128 -144
 11568 0ea3 1C070000 		.4byte	.LVL455
 11569 0ea7 9C070000 		.4byte	.LVL465
 11570 0eab 0B00     		.2byte	0xb
 11571 0ead 91       		.byte	0x91
 11572 0eae F07E     		.sleb128 -144
 11573 0eb0 F6       		.byte	0xf6
 11574 0eb1 08       		.byte	0x8
 11575 0eb2 29       		.uleb128 0x29
 11576 0eb3 F5       		.byte	0xf5
 11577 0eb4 0A       		.uleb128 0xa
 11578 0eb5 29       		.uleb128 0x29
 11579 0eb6 22       		.byte	0x22
 11580 0eb7 9F       		.byte	0x9f
 11581 0eb8 9C070000 		.4byte	.LVL465
 11582 0ebc 12080000 		.4byte	.LVL476
 11583 0ec0 0300     		.2byte	0x3
 11584 0ec2 91       		.byte	0x91
 11585 0ec3 F07E     		.sleb128 -144
 11586 0ec5 12080000 		.4byte	.LVL476
 11587 0ec9 14080000 		.4byte	.LFE7
 11588 0ecd 0600     		.2byte	0x6
 11589 0ecf 50       		.byte	0x50
 11590 0ed0 93       		.byte	0x93
 11591 0ed1 04       		.uleb128 0x4
 11592 0ed2 51       		.byte	0x51
 11593 0ed3 93       		.byte	0x93
 11594 0ed4 04       		.uleb128 0x4
 11595 0ed5 00000000 		.4byte	0
 11596 0ed9 00000000 		.4byte	0
 11597              	.LLST80:
 11598 0edd 14020000 		.4byte	.LVL322
 11599 0ee1 1A020000 		.4byte	.LVL323
 11600 0ee5 0600     		.2byte	0x6
 11601 0ee7 50       		.byte	0x50
 11602 0ee8 93       		.byte	0x93
 11603 0ee9 04       		.uleb128 0x4
 11604 0eea 51       		.byte	0x51
 11605 0eeb 93       		.byte	0x93
 11606 0eec 04       		.uleb128 0x4
 11607 0eed 1A020000 		.4byte	.LVL323
 11608 0ef1 1C070000 		.4byte	.LVL455
 11609 0ef5 0300     		.2byte	0x3
ARM GAS  /tmp/ccj4yzJk.s 			page 205


 11610 0ef7 91       		.byte	0x91
 11611 0ef8 F87E     		.sleb128 -136
 11612 0efa 1C070000 		.4byte	.LVL455
 11613 0efe 9C070000 		.4byte	.LVL465
 11614 0f02 1600     		.2byte	0x16
 11615 0f04 91       		.byte	0x91
 11616 0f05 D07E     		.sleb128 -176
 11617 0f07 F6       		.byte	0xf6
 11618 0f08 08       		.byte	0x8
 11619 0f09 29       		.uleb128 0x29
 11620 0f0a F5       		.byte	0xf5
 11621 0f0b 04       		.uleb128 0x4
 11622 0f0c 29       		.uleb128 0x29
 11623 0f0d F5       		.byte	0xf5
 11624 0f0e 08       		.uleb128 0x8
 11625 0f0f 29       		.uleb128 0x29
 11626 0f10 1E       		.byte	0x1e
 11627 0f11 1B       		.byte	0x1b
 11628 0f12 91       		.byte	0x91
 11629 0f13 F87E     		.sleb128 -136
 11630 0f15 F6       		.byte	0xf6
 11631 0f16 08       		.byte	0x8
 11632 0f17 29       		.uleb128 0x29
 11633 0f18 22       		.byte	0x22
 11634 0f19 9F       		.byte	0x9f
 11635 0f1a 9C070000 		.4byte	.LVL465
 11636 0f1e EA070000 		.4byte	.LVL472
 11637 0f22 0300     		.2byte	0x3
 11638 0f24 91       		.byte	0x91
 11639 0f25 F87E     		.sleb128 -136
 11640 0f27 EA070000 		.4byte	.LVL472
 11641 0f2b EC070000 		.4byte	.LVL473
 11642 0f2f 0600     		.2byte	0x6
 11643 0f31 50       		.byte	0x50
 11644 0f32 93       		.byte	0x93
 11645 0f33 04       		.uleb128 0x4
 11646 0f34 51       		.byte	0x51
 11647 0f35 93       		.byte	0x93
 11648 0f36 04       		.uleb128 0x4
 11649 0f37 EC070000 		.4byte	.LVL473
 11650 0f3b 14080000 		.4byte	.LFE7
 11651 0f3f 0300     		.2byte	0x3
 11652 0f41 91       		.byte	0x91
 11653 0f42 F87E     		.sleb128 -136
 11654 0f44 00000000 		.4byte	0
 11655 0f48 00000000 		.4byte	0
 11656              	.LLST81:
 11657 0f4c B0020000 		.4byte	.LVL335
 11658 0f50 B4020000 		.4byte	.LVL336
 11659 0f54 0600     		.2byte	0x6
 11660 0f56 50       		.byte	0x50
 11661 0f57 93       		.byte	0x93
 11662 0f58 04       		.uleb128 0x4
 11663 0f59 51       		.byte	0x51
 11664 0f5a 93       		.byte	0x93
 11665 0f5b 04       		.uleb128 0x4
 11666 0f5c B4020000 		.4byte	.LVL336
ARM GAS  /tmp/ccj4yzJk.s 			page 206


 11667 0f60 9C070000 		.4byte	.LVL465
 11668 0f64 0300     		.2byte	0x3
 11669 0f66 91       		.byte	0x91
 11670 0f67 887F     		.sleb128 -120
 11671 0f69 00000000 		.4byte	0
 11672 0f6d 00000000 		.4byte	0
 11673              	.LLST82:
 11674 0f71 CA020000 		.4byte	.LVL339
 11675 0f75 CE020000 		.4byte	.LVL340
 11676 0f79 0600     		.2byte	0x6
 11677 0f7b 50       		.byte	0x50
 11678 0f7c 93       		.byte	0x93
 11679 0f7d 04       		.uleb128 0x4
 11680 0f7e 51       		.byte	0x51
 11681 0f7f 93       		.byte	0x93
 11682 0f80 04       		.uleb128 0x4
 11683 0f81 CE020000 		.4byte	.LVL340
 11684 0f85 9C070000 		.4byte	.LVL465
 11685 0f89 0300     		.2byte	0x3
 11686 0f8b 91       		.byte	0x91
 11687 0f8c 907F     		.sleb128 -112
 11688 0f8e 00000000 		.4byte	0
 11689 0f92 00000000 		.4byte	0
 11690              	.LLST83:
 11691 0f96 E6020000 		.4byte	.LVL343
 11692 0f9a EE020000 		.4byte	.LVL344
 11693 0f9e 0600     		.2byte	0x6
 11694 0fa0 50       		.byte	0x50
 11695 0fa1 93       		.byte	0x93
 11696 0fa2 04       		.uleb128 0x4
 11697 0fa3 51       		.byte	0x51
 11698 0fa4 93       		.byte	0x93
 11699 0fa5 04       		.uleb128 0x4
 11700 0fa6 EE020000 		.4byte	.LVL344
 11701 0faa 9C070000 		.4byte	.LVL465
 11702 0fae 0300     		.2byte	0x3
 11703 0fb0 91       		.byte	0x91
 11704 0fb1 987F     		.sleb128 -104
 11705 0fb3 00000000 		.4byte	0
 11706 0fb7 00000000 		.4byte	0
 11707              	.LLST84:
 11708 0fbb E4030000 		.4byte	.LVL359
 11709 0fbf E8030000 		.4byte	.LVL360
 11710 0fc3 0600     		.2byte	0x6
 11711 0fc5 50       		.byte	0x50
 11712 0fc6 93       		.byte	0x93
 11713 0fc7 04       		.uleb128 0x4
 11714 0fc8 51       		.byte	0x51
 11715 0fc9 93       		.byte	0x93
 11716 0fca 04       		.uleb128 0x4
 11717 0fcb E8030000 		.4byte	.LVL360
 11718 0fcf 9C070000 		.4byte	.LVL465
 11719 0fd3 0300     		.2byte	0x3
 11720 0fd5 91       		.byte	0x91
 11721 0fd6 807F     		.sleb128 -128
 11722 0fd8 00000000 		.4byte	0
 11723 0fdc 00000000 		.4byte	0
ARM GAS  /tmp/ccj4yzJk.s 			page 207


 11724              	.LLST85:
 11725 0fe0 F4030000 		.4byte	.LVL362
 11726 0fe4 F8030000 		.4byte	.LVL363
 11727 0fe8 0600     		.2byte	0x6
 11728 0fea 50       		.byte	0x50
 11729 0feb 93       		.byte	0x93
 11730 0fec 04       		.uleb128 0x4
 11731 0fed 51       		.byte	0x51
 11732 0fee 93       		.byte	0x93
 11733 0fef 04       		.uleb128 0x4
 11734 0ff0 F8030000 		.4byte	.LVL363
 11735 0ff4 9C070000 		.4byte	.LVL465
 11736 0ff8 0300     		.2byte	0x3
 11737 0ffa 91       		.byte	0x91
 11738 0ffb E07E     		.sleb128 -160
 11739 0ffd 00000000 		.4byte	0
 11740 1001 00000000 		.4byte	0
 11741              	.LLST86:
 11742 1005 04040000 		.4byte	.LVL365
 11743 1009 36050000 		.4byte	.LVL399
 11744 100d 0600     		.2byte	0x6
 11745 100f 58       		.byte	0x58
 11746 1010 93       		.byte	0x93
 11747 1011 04       		.uleb128 0x4
 11748 1012 59       		.byte	0x59
 11749 1013 93       		.byte	0x93
 11750 1014 04       		.uleb128 0x4
 11751 1015 00000000 		.4byte	0
 11752 1019 00000000 		.4byte	0
 11753              	.LLST87:
 11754 101d 5C040000 		.4byte	.LVL373
 11755 1021 60040000 		.4byte	.LVL374
 11756 1025 0800     		.2byte	0x8
 11757 1027 50       		.byte	0x50
 11758 1028 93       		.byte	0x93
 11759 1029 04       		.uleb128 0x4
 11760 102a 51       		.byte	0x51
 11761 102b 93       		.byte	0x93
 11762 102c 04       		.uleb128 0x4
 11763 102d 93       		.byte	0x93
 11764 102e 08       		.uleb128 0x8
 11765 102f 60040000 		.4byte	.LVL374
 11766 1033 9C070000 		.4byte	.LVL465
 11767 1037 0700     		.2byte	0x7
 11768 1039 91       		.byte	0x91
 11769 103a D87E     		.sleb128 -168
 11770 103c 93       		.byte	0x93
 11771 103d 08       		.uleb128 0x8
 11772 103e 93       		.byte	0x93
 11773 103f 08       		.uleb128 0x8
 11774 1040 00000000 		.4byte	0
 11775 1044 00000000 		.4byte	0
 11776              	.LLST88:
 11777 1048 1C040000 		.4byte	.LVL367
 11778 104c 20040000 		.4byte	.LVL368
 11779 1050 0800     		.2byte	0x8
 11780 1052 50       		.byte	0x50
ARM GAS  /tmp/ccj4yzJk.s 			page 208


 11781 1053 93       		.byte	0x93
 11782 1054 04       		.uleb128 0x4
 11783 1055 51       		.byte	0x51
 11784 1056 93       		.byte	0x93
 11785 1057 04       		.uleb128 0x4
 11786 1058 93       		.byte	0x93
 11787 1059 08       		.uleb128 0x8
 11788 105a 20040000 		.4byte	.LVL368
 11789 105e 3C040000 		.4byte	.LVL370
 11790 1062 0700     		.2byte	0x7
 11791 1064 91       		.byte	0x91
 11792 1065 A07F     		.sleb128 -96
 11793 1067 93       		.byte	0x93
 11794 1068 08       		.uleb128 0x8
 11795 1069 93       		.byte	0x93
 11796 106a 08       		.uleb128 0x8
 11797 106b 3C040000 		.4byte	.LVL370
 11798 106f 40040000 		.4byte	.LVL371
 11799 1073 0B00     		.2byte	0xb
 11800 1075 91       		.byte	0x91
 11801 1076 A07F     		.sleb128 -96
 11802 1078 93       		.byte	0x93
 11803 1079 08       		.uleb128 0x8
 11804 107a 50       		.byte	0x50
 11805 107b 93       		.byte	0x93
 11806 107c 04       		.uleb128 0x4
 11807 107d 51       		.byte	0x51
 11808 107e 93       		.byte	0x93
 11809 107f 04       		.uleb128 0x4
 11810 1080 40040000 		.4byte	.LVL371
 11811 1084 9C070000 		.4byte	.LVL465
 11812 1088 0A00     		.2byte	0xa
 11813 108a 91       		.byte	0x91
 11814 108b A07F     		.sleb128 -96
 11815 108d 93       		.byte	0x93
 11816 108e 08       		.uleb128 0x8
 11817 108f 91       		.byte	0x91
 11818 1090 E07E     		.sleb128 -160
 11819 1092 93       		.byte	0x93
 11820 1093 08       		.uleb128 0x8
 11821 1094 00000000 		.4byte	0
 11822 1098 00000000 		.4byte	0
 11823              	.LLST89:
 11824 109c 7C040000 		.4byte	.LVL376
 11825 10a0 A0040000 		.4byte	.LVL378
 11826 10a4 0800     		.2byte	0x8
 11827 10a6 5A       		.byte	0x5a
 11828 10a7 93       		.byte	0x93
 11829 10a8 04       		.uleb128 0x4
 11830 10a9 5B       		.byte	0x5b
 11831 10aa 93       		.byte	0x93
 11832 10ab 04       		.uleb128 0x4
 11833 10ac 93       		.byte	0x93
 11834 10ad 08       		.uleb128 0x8
 11835 10ae A0040000 		.4byte	.LVL378
 11836 10b2 A2040000 		.4byte	.LVL379
 11837 10b6 0C00     		.2byte	0xc
ARM GAS  /tmp/ccj4yzJk.s 			page 209


 11838 10b8 5A       		.byte	0x5a
 11839 10b9 93       		.byte	0x93
 11840 10ba 04       		.uleb128 0x4
 11841 10bb 5B       		.byte	0x5b
 11842 10bc 93       		.byte	0x93
 11843 10bd 04       		.uleb128 0x4
 11844 10be 50       		.byte	0x50
 11845 10bf 93       		.byte	0x93
 11846 10c0 04       		.uleb128 0x4
 11847 10c1 51       		.byte	0x51
 11848 10c2 93       		.byte	0x93
 11849 10c3 04       		.uleb128 0x4
 11850 10c4 A2040000 		.4byte	.LVL379
 11851 10c8 52050000 		.4byte	.LVL403
 11852 10cc 0B00     		.2byte	0xb
 11853 10ce 5A       		.byte	0x5a
 11854 10cf 93       		.byte	0x93
 11855 10d0 04       		.uleb128 0x4
 11856 10d1 5B       		.byte	0x5b
 11857 10d2 93       		.byte	0x93
 11858 10d3 04       		.uleb128 0x4
 11859 10d4 91       		.byte	0x91
 11860 10d5 807F     		.sleb128 -128
 11861 10d7 93       		.byte	0x93
 11862 10d8 08       		.uleb128 0x8
 11863 10d9 52050000 		.4byte	.LVL403
 11864 10dd 9C070000 		.4byte	.LVL465
 11865 10e1 0700     		.2byte	0x7
 11866 10e3 93       		.byte	0x93
 11867 10e4 08       		.uleb128 0x8
 11868 10e5 91       		.byte	0x91
 11869 10e6 807F     		.sleb128 -128
 11870 10e8 93       		.byte	0x93
 11871 10e9 08       		.uleb128 0x8
 11872 10ea 00000000 		.4byte	0
 11873 10ee 00000000 		.4byte	0
 11874              	.LLST90:
 11875 10f2 46060000 		.4byte	.LVL432
 11876 10f6 9C070000 		.4byte	.LVL465
 11877 10fa 1400     		.2byte	0x14
 11878 10fc 91       		.byte	0x91
 11879 10fd D87E     		.sleb128 -168
 11880 10ff F6       		.byte	0xf6
 11881 1100 08       		.byte	0x8
 11882 1101 29       		.uleb128 0x29
 11883 1102 F4       		.byte	0xf4
 11884 1103 29       		.uleb128 0x29
 11885 1104 08       		.byte	0x8
 11886 1105 00000000 		.4byte	0
 11887 1109 00807640 		.4byte	0x40768000
 11888 110d 1B       		.byte	0x1b
 11889 110e 1F       		.byte	0x1f
 11890 110f 9F       		.byte	0x9f
 11891 1110 00000000 		.4byte	0
 11892 1114 00000000 		.4byte	0
 11893              	.LLST91:
 11894 1118 C0060000 		.4byte	.LVL445
ARM GAS  /tmp/ccj4yzJk.s 			page 210


 11895 111c 9C070000 		.4byte	.LVL465
 11896 1120 0600     		.2byte	0x6
 11897 1122 5A       		.byte	0x5a
 11898 1123 93       		.byte	0x93
 11899 1124 04       		.uleb128 0x4
 11900 1125 5B       		.byte	0x5b
 11901 1126 93       		.byte	0x93
 11902 1127 04       		.uleb128 0x4
 11903 1128 00000000 		.4byte	0
 11904 112c 00000000 		.4byte	0
 11905              	.LLST92:
 11906 1130 1C070000 		.4byte	.LVL455
 11907 1134 9C070000 		.4byte	.LVL465
 11908 1138 0F00     		.2byte	0xf
 11909 113a 91       		.byte	0x91
 11910 113b D07E     		.sleb128 -176
 11911 113d F6       		.byte	0xf6
 11912 113e 08       		.byte	0x8
 11913 113f 29       		.uleb128 0x29
 11914 1140 F5       		.byte	0xf5
 11915 1141 04       		.uleb128 0x4
 11916 1142 29       		.uleb128 0x29
 11917 1143 F5       		.byte	0xf5
 11918 1144 08       		.uleb128 0x8
 11919 1145 29       		.uleb128 0x29
 11920 1146 1E       		.byte	0x1e
 11921 1147 1B       		.byte	0x1b
 11922 1148 9F       		.byte	0x9f
 11923 1149 00000000 		.4byte	0
 11924 114d 00000000 		.4byte	0
 11925              	.LLST93:
 11926 1151 EE000000 		.4byte	.LVL286
 11927 1155 F0000000 		.4byte	.LVL287
 11928 1159 0600     		.2byte	0x6
 11929 115b 50       		.byte	0x50
 11930 115c 93       		.byte	0x93
 11931 115d 04       		.uleb128 0x4
 11932 115e 51       		.byte	0x51
 11933 115f 93       		.byte	0x93
 11934 1160 04       		.uleb128 0x4
 11935 1161 F0000000 		.4byte	.LVL287
 11936 1165 FD000000 		.4byte	.LVL288-1
 11937 1169 0600     		.2byte	0x6
 11938 116b 50       		.byte	0x50
 11939 116c 93       		.byte	0x93
 11940 116d 04       		.uleb128 0x4
 11941 116e 54       		.byte	0x54
 11942 116f 93       		.byte	0x93
 11943 1170 04       		.uleb128 0x4
 11944 1171 FD000000 		.4byte	.LVL288-1
 11945 1175 28010000 		.4byte	.LVL291
 11946 1179 0600     		.2byte	0x6
 11947 117b 55       		.byte	0x55
 11948 117c 93       		.byte	0x93
 11949 117d 04       		.uleb128 0x4
 11950 117e 54       		.byte	0x54
 11951 117f 93       		.byte	0x93
ARM GAS  /tmp/ccj4yzJk.s 			page 211


 11952 1180 04       		.uleb128 0x4
 11953 1181 90010000 		.4byte	.LVL304
 11954 1185 B2010000 		.4byte	.LVL308
 11955 1189 0600     		.2byte	0x6
 11956 118b 55       		.byte	0x55
 11957 118c 93       		.byte	0x93
 11958 118d 04       		.uleb128 0x4
 11959 118e 54       		.byte	0x54
 11960 118f 93       		.byte	0x93
 11961 1190 04       		.uleb128 0x4
 11962 1191 00000000 		.4byte	0
 11963 1195 00000000 		.4byte	0
 11964              	.LLST94:
 11965 1199 2A010000 		.4byte	.LVL292
 11966 119d 44010000 		.4byte	.LVL295
 11967 11a1 0600     		.2byte	0x6
 11968 11a3 54       		.byte	0x54
 11969 11a4 93       		.byte	0x93
 11970 11a5 04       		.uleb128 0x4
 11971 11a6 55       		.byte	0x55
 11972 11a7 93       		.byte	0x93
 11973 11a8 04       		.uleb128 0x4
 11974 11a9 46010000 		.4byte	.LVL296
 11975 11ad 70010000 		.4byte	.LVL299
 11976 11b1 0600     		.2byte	0x6
 11977 11b3 54       		.byte	0x54
 11978 11b4 93       		.byte	0x93
 11979 11b5 04       		.uleb128 0x4
 11980 11b6 55       		.byte	0x55
 11981 11b7 93       		.byte	0x93
 11982 11b8 04       		.uleb128 0x4
 11983 11b9 78010000 		.4byte	.LVL300
 11984 11bd 8C010000 		.4byte	.LVL302
 11985 11c1 0600     		.2byte	0x6
 11986 11c3 54       		.byte	0x54
 11987 11c4 93       		.byte	0x93
 11988 11c5 04       		.uleb128 0x4
 11989 11c6 55       		.byte	0x55
 11990 11c7 93       		.byte	0x93
 11991 11c8 04       		.uleb128 0x4
 11992 11c9 8E010000 		.4byte	.LVL303
 11993 11cd 90010000 		.4byte	.LVL304
 11994 11d1 0600     		.2byte	0x6
 11995 11d3 54       		.byte	0x54
 11996 11d4 93       		.byte	0x93
 11997 11d5 04       		.uleb128 0x4
 11998 11d6 55       		.byte	0x55
 11999 11d7 93       		.byte	0x93
 12000 11d8 04       		.uleb128 0x4
 12001 11d9 00000000 		.4byte	0
 12002 11dd 00000000 		.4byte	0
 12003              	.LLST95:
 12004 11e1 00000000 		.4byte	.LFB9
 12005 11e5 04000000 		.4byte	.LCFI13
 12006 11e9 0200     		.2byte	0x2
 12007 11eb 7D       		.byte	0x7d
 12008 11ec 00       		.sleb128 0
ARM GAS  /tmp/ccj4yzJk.s 			page 212


 12009 11ed 04000000 		.4byte	.LCFI13
 12010 11f1 06000000 		.4byte	.LCFI14
 12011 11f5 0200     		.2byte	0x2
 12012 11f7 7D       		.byte	0x7d
 12013 11f8 24       		.sleb128 36
 12014 11f9 06000000 		.4byte	.LCFI14
 12015 11fd A4030000 		.4byte	.LFE9
 12016 1201 0300     		.2byte	0x3
 12017 1203 7D       		.byte	0x7d
 12018 1204 9801     		.sleb128 152
 12019 1206 00000000 		.4byte	0
 12020 120a 00000000 		.4byte	0
 12021              	.LLST96:
 12022 120e 00000000 		.4byte	.LVL477
 12023 1212 25000000 		.4byte	.LVL478-1
 12024 1216 0600     		.2byte	0x6
 12025 1218 50       		.byte	0x50
 12026 1219 93       		.byte	0x93
 12027 121a 04       		.uleb128 0x4
 12028 121b 51       		.byte	0x51
 12029 121c 93       		.byte	0x93
 12030 121d 04       		.uleb128 0x4
 12031 121e 25000000 		.4byte	.LVL478-1
 12032 1222 A4030000 		.4byte	.LFE9
 12033 1226 0300     		.2byte	0x3
 12034 1228 91       		.byte	0x91
 12035 1229 F87E     		.sleb128 -136
 12036 122b 00000000 		.4byte	0
 12037 122f 00000000 		.4byte	0
 12038              	.LLST97:
 12039 1233 00000000 		.4byte	.LVL477
 12040 1237 25000000 		.4byte	.LVL478-1
 12041 123b 0100     		.2byte	0x1
 12042 123d 52       		.byte	0x52
 12043 123e 25000000 		.4byte	.LVL478-1
 12044 1242 EE000000 		.4byte	.LVL494
 12045 1246 0100     		.2byte	0x1
 12046 1248 57       		.byte	0x57
 12047 1249 EE000000 		.4byte	.LVL494
 12048 124d 46010000 		.4byte	.LVL501
 12049 1251 0100     		.2byte	0x1
 12050 1253 54       		.byte	0x54
 12051 1254 46010000 		.4byte	.LVL501
 12052 1258 7A010000 		.4byte	.LVL504
 12053 125c 0100     		.2byte	0x1
 12054 125e 57       		.byte	0x57
 12055 125f 7A010000 		.4byte	.LVL504
 12056 1263 08020000 		.4byte	.LVL518
 12057 1267 0400     		.2byte	0x4
 12058 1269 F3       		.byte	0xf3
 12059 126a 01       		.uleb128 0x1
 12060 126b 52       		.byte	0x52
 12061 126c 9F       		.byte	0x9f
 12062 126d 08020000 		.4byte	.LVL518
 12063 1271 22030000 		.4byte	.LVL539
 12064 1275 0100     		.2byte	0x1
 12065 1277 57       		.byte	0x57
ARM GAS  /tmp/ccj4yzJk.s 			page 213


 12066 1278 22030000 		.4byte	.LVL539
 12067 127c 44030000 		.4byte	.LVL542
 12068 1280 0400     		.2byte	0x4
 12069 1282 F3       		.byte	0xf3
 12070 1283 01       		.uleb128 0x1
 12071 1284 52       		.byte	0x52
 12072 1285 9F       		.byte	0x9f
 12073 1286 44030000 		.4byte	.LVL542
 12074 128a 84030000 		.4byte	.LVL548
 12075 128e 0100     		.2byte	0x1
 12076 1290 57       		.byte	0x57
 12077 1291 84030000 		.4byte	.LVL548
 12078 1295 9C030000 		.4byte	.LVL554
 12079 1299 0400     		.2byte	0x4
 12080 129b F3       		.byte	0xf3
 12081 129c 01       		.uleb128 0x1
 12082 129d 52       		.byte	0x52
 12083 129e 9F       		.byte	0x9f
 12084 129f 9C030000 		.4byte	.LVL554
 12085 12a3 9E030000 		.4byte	.LVL555
 12086 12a7 0100     		.2byte	0x1
 12087 12a9 54       		.byte	0x54
 12088 12aa 9E030000 		.4byte	.LVL555
 12089 12ae A4030000 		.4byte	.LFE9
 12090 12b2 0100     		.2byte	0x1
 12091 12b4 57       		.byte	0x57
 12092 12b5 00000000 		.4byte	0
 12093 12b9 00000000 		.4byte	0
 12094              	.LLST98:
 12095 12bd 00000000 		.4byte	.LVL477
 12096 12c1 25000000 		.4byte	.LVL478-1
 12097 12c5 0100     		.2byte	0x1
 12098 12c7 53       		.byte	0x53
 12099 12c8 25000000 		.4byte	.LVL478-1
 12100 12cc A4030000 		.4byte	.LFE9
 12101 12d0 0100     		.2byte	0x1
 12102 12d2 59       		.byte	0x59
 12103 12d3 00000000 		.4byte	0
 12104 12d7 00000000 		.4byte	0
 12105              	.LLST99:
 12106 12db 26000000 		.4byte	.LVL478
 12107 12df 42000000 		.4byte	.LVL480
 12108 12e3 0100     		.2byte	0x1
 12109 12e5 50       		.byte	0x50
 12110 12e6 42000000 		.4byte	.LVL480
 12111 12ea 92000000 		.4byte	.LVL487
 12112 12ee 0100     		.2byte	0x1
 12113 12f0 54       		.byte	0x54
 12114 12f1 A6000000 		.4byte	.LVL488
 12115 12f5 AE000000 		.4byte	.LVL489
 12116 12f9 0100     		.2byte	0x1
 12117 12fb 50       		.byte	0x50
 12118 12fc D6000000 		.4byte	.LVL492
 12119 1300 DE000000 		.4byte	.LVL493
 12120 1304 0100     		.2byte	0x1
 12121 1306 50       		.byte	0x50
 12122 1307 4A010000 		.4byte	.LVL502
ARM GAS  /tmp/ccj4yzJk.s 			page 214


 12123 130b 62010000 		.4byte	.LVL503
 12124 130f 0100     		.2byte	0x1
 12125 1311 54       		.byte	0x54
 12126 1312 08020000 		.4byte	.LVL518
 12127 1316 1C020000 		.4byte	.LVL519
 12128 131a 0100     		.2byte	0x1
 12129 131c 50       		.byte	0x50
 12130 131d 1C020000 		.4byte	.LVL519
 12131 1321 94020000 		.4byte	.LVL528
 12132 1325 0100     		.2byte	0x1
 12133 1327 54       		.byte	0x54
 12134 1328 94020000 		.4byte	.LVL528
 12135 132c 96020000 		.4byte	.LVL529
 12136 1330 0200     		.2byte	0x2
 12137 1332 30       		.byte	0x30
 12138 1333 9F       		.byte	0x9f
 12139 1334 96020000 		.4byte	.LVL529
 12140 1338 BA020000 		.4byte	.LVL531
 12141 133c 0100     		.2byte	0x1
 12142 133e 54       		.byte	0x54
 12143 133f BA020000 		.4byte	.LVL531
 12144 1343 C4020000 		.4byte	.LVL532
 12145 1347 0100     		.2byte	0x1
 12146 1349 50       		.byte	0x50
 12147 134a C4020000 		.4byte	.LVL532
 12148 134e C8020000 		.4byte	.LVL533
 12149 1352 0100     		.2byte	0x1
 12150 1354 55       		.byte	0x55
 12151 1355 44030000 		.4byte	.LVL542
 12152 1359 50030000 		.4byte	.LVL543
 12153 135d 0100     		.2byte	0x1
 12154 135f 50       		.byte	0x50
 12155 1360 50030000 		.4byte	.LVL543
 12156 1364 82030000 		.4byte	.LVL547
 12157 1368 0100     		.2byte	0x1
 12158 136a 55       		.byte	0x55
 12159 136b 82030000 		.4byte	.LVL547
 12160 136f 84030000 		.4byte	.LVL548
 12161 1373 0100     		.2byte	0x1
 12162 1375 54       		.byte	0x54
 12163 1376 00000000 		.4byte	0
 12164 137a 00000000 		.4byte	0
 12165              	.LLST100:
 12166 137e 36000000 		.4byte	.LVL479
 12167 1382 72000000 		.4byte	.LVL484
 12168 1386 0400     		.2byte	0x4
 12169 1388 91       		.byte	0x91
 12170 1389 A87F     		.sleb128 -88
 12171 138b 9F       		.byte	0x9f
 12172 138c 58020000 		.4byte	.LVL524
 12173 1390 96020000 		.4byte	.LVL529
 12174 1394 0400     		.2byte	0x4
 12175 1396 91       		.byte	0x91
 12176 1397 A87F     		.sleb128 -88
 12177 1399 9F       		.byte	0x9f
 12178 139a 00000000 		.4byte	0
 12179 139e 00000000 		.4byte	0
ARM GAS  /tmp/ccj4yzJk.s 			page 215


 12180              	.LLST101:
 12181 13a2 36000000 		.4byte	.LVL479
 12182 13a6 72000000 		.4byte	.LVL484
 12183 13aa 0A00     		.2byte	0xa
 12184 13ac 9E       		.byte	0x9e
 12185 13ad 08       		.uleb128 0x8
 12186 13ae 00000000 		.4byte	0
 12187 13b2 0000F0BF 		.4byte	0xbff00000
 12188 13b6 58020000 		.4byte	.LVL524
 12189 13ba 96020000 		.4byte	.LVL529
 12190 13be 0A00     		.2byte	0xa
 12191 13c0 9E       		.byte	0x9e
 12192 13c1 08       		.uleb128 0x8
 12193 13c2 00000000 		.4byte	0
 12194 13c6 0000F0BF 		.4byte	0xbff00000
 12195 13ca 00000000 		.4byte	0
 12196 13ce 00000000 		.4byte	0
 12197              	.LLST102:
 12198 13d2 36000000 		.4byte	.LVL479
 12199 13d6 72000000 		.4byte	.LVL484
 12200 13da 0100     		.2byte	0x1
 12201 13dc 58       		.byte	0x58
 12202 13dd 58020000 		.4byte	.LVL524
 12203 13e1 96020000 		.4byte	.LVL529
 12204 13e5 0100     		.2byte	0x1
 12205 13e7 58       		.byte	0x58
 12206 13e8 00000000 		.4byte	0
 12207 13ec 00000000 		.4byte	0
 12208              	.LLST103:
 12209 13f0 72000000 		.4byte	.LVL484
 12210 13f4 AE000000 		.4byte	.LVL489
 12211 13f8 0200     		.2byte	0x2
 12212 13fa 31       		.byte	0x31
 12213 13fb 9F       		.byte	0x9f
 12214 13fc AE000000 		.4byte	.LVL489
 12215 1400 EE000000 		.4byte	.LVL494
 12216 1404 0100     		.2byte	0x1
 12217 1406 55       		.byte	0x55
 12218 1407 0A010000 		.4byte	.LVL497
 12219 140b 32010000 		.4byte	.LVL500
 12220 140f 0100     		.2byte	0x1
 12221 1411 55       		.byte	0x55
 12222 1412 4A010000 		.4byte	.LVL502
 12223 1416 7A010000 		.4byte	.LVL504
 12224 141a 0100     		.2byte	0x1
 12225 141c 55       		.byte	0x55
 12226 141d 9C030000 		.4byte	.LVL554
 12227 1421 A4030000 		.4byte	.LFE9
 12228 1425 0100     		.2byte	0x1
 12229 1427 55       		.byte	0x55
 12230 1428 00000000 		.4byte	0
 12231 142c 00000000 		.4byte	0
 12232              	.LLST104:
 12233 1430 7E010000 		.4byte	.LVL505
 12234 1434 A6010000 		.4byte	.LVL509
 12235 1438 0600     		.2byte	0x6
 12236 143a 56       		.byte	0x56
ARM GAS  /tmp/ccj4yzJk.s 			page 216


 12237 143b 93       		.byte	0x93
 12238 143c 04       		.uleb128 0x4
 12239 143d 57       		.byte	0x57
 12240 143e 93       		.byte	0x93
 12241 143f 04       		.uleb128 0x4
 12242 1440 96030000 		.4byte	.LVL552
 12243 1444 9C030000 		.4byte	.LVL554
 12244 1448 0600     		.2byte	0x6
 12245 144a 56       		.byte	0x56
 12246 144b 93       		.byte	0x93
 12247 144c 04       		.uleb128 0x4
 12248 144d 57       		.byte	0x57
 12249 144e 93       		.byte	0x93
 12250 144f 04       		.uleb128 0x4
 12251 1450 00000000 		.4byte	0
 12252 1454 00000000 		.4byte	0
 12253              	.LLST105:
 12254 1458 7E010000 		.4byte	.LVL505
 12255 145c 00020000 		.4byte	.LVL517
 12256 1460 0300     		.2byte	0x3
 12257 1462 91       		.byte	0x91
 12258 1463 907F     		.sleb128 -112
 12259 1465 84030000 		.4byte	.LVL548
 12260 1469 9C030000 		.4byte	.LVL554
 12261 146d 0300     		.2byte	0x3
 12262 146f 91       		.byte	0x91
 12263 1470 907F     		.sleb128 -112
 12264 1472 00000000 		.4byte	0
 12265 1476 00000000 		.4byte	0
 12266              	.LLST106:
 12267 147a 7E010000 		.4byte	.LVL505
 12268 147e A2010000 		.4byte	.LVL508
 12269 1482 0600     		.2byte	0x6
 12270 1484 54       		.byte	0x54
 12271 1485 93       		.byte	0x93
 12272 1486 04       		.uleb128 0x4
 12273 1487 55       		.byte	0x55
 12274 1488 93       		.byte	0x93
 12275 1489 04       		.uleb128 0x4
 12276 148a 96030000 		.4byte	.LVL552
 12277 148e 98030000 		.4byte	.LVL553
 12278 1492 0600     		.2byte	0x6
 12279 1494 54       		.byte	0x54
 12280 1495 93       		.byte	0x93
 12281 1496 04       		.uleb128 0x4
 12282 1497 55       		.byte	0x55
 12283 1498 93       		.byte	0x93
 12284 1499 04       		.uleb128 0x4
 12285 149a 00000000 		.4byte	0
 12286 149e 00000000 		.4byte	0
 12287              	.LLST107:
 12288 14a2 7E010000 		.4byte	.LVL505
 12289 14a6 00020000 		.4byte	.LVL517
 12290 14aa 0300     		.2byte	0x3
 12291 14ac 91       		.byte	0x91
 12292 14ad F87E     		.sleb128 -136
 12293 14af 84030000 		.4byte	.LVL548
ARM GAS  /tmp/ccj4yzJk.s 			page 217


 12294 14b3 9C030000 		.4byte	.LVL554
 12295 14b7 0300     		.2byte	0x3
 12296 14b9 91       		.byte	0x91
 12297 14ba F87E     		.sleb128 -136
 12298 14bc 00000000 		.4byte	0
 12299 14c0 00000000 		.4byte	0
 12300              	.LLST108:
 12301 14c4 A6010000 		.4byte	.LVL509
 12302 14c8 00020000 		.4byte	.LVL517
 12303 14cc 0300     		.2byte	0x3
 12304 14ce 91       		.byte	0x91
 12305 14cf 807F     		.sleb128 -128
 12306 14d1 84030000 		.4byte	.LVL548
 12307 14d5 96030000 		.4byte	.LVL552
 12308 14d9 0300     		.2byte	0x3
 12309 14db 91       		.byte	0x91
 12310 14dc 807F     		.sleb128 -128
 12311 14de 00000000 		.4byte	0
 12312 14e2 00000000 		.4byte	0
 12313              	.LLST109:
 12314 14e6 A6010000 		.4byte	.LVL509
 12315 14ea 00020000 		.4byte	.LVL517
 12316 14ee 0300     		.2byte	0x3
 12317 14f0 91       		.byte	0x91
 12318 14f1 887F     		.sleb128 -120
 12319 14f3 84030000 		.4byte	.LVL548
 12320 14f7 96030000 		.4byte	.LVL552
 12321 14fb 0300     		.2byte	0x3
 12322 14fd 91       		.byte	0x91
 12323 14fe 887F     		.sleb128 -120
 12324 1500 00000000 		.4byte	0
 12325 1504 00000000 		.4byte	0
 12326              	.LLST110:
 12327 1508 A6010000 		.4byte	.LVL509
 12328 150c CE010000 		.4byte	.LVL512
 12329 1510 0600     		.2byte	0x6
 12330 1512 56       		.byte	0x56
 12331 1513 93       		.byte	0x93
 12332 1514 04       		.uleb128 0x4
 12333 1515 57       		.byte	0x57
 12334 1516 93       		.byte	0x93
 12335 1517 04       		.uleb128 0x4
 12336 1518 90030000 		.4byte	.LVL550
 12337 151c 94030000 		.4byte	.LVL551
 12338 1520 0600     		.2byte	0x6
 12339 1522 56       		.byte	0x56
 12340 1523 93       		.byte	0x93
 12341 1524 04       		.uleb128 0x4
 12342 1525 57       		.byte	0x57
 12343 1526 93       		.byte	0x93
 12344 1527 04       		.uleb128 0x4
 12345 1528 00000000 		.4byte	0
 12346 152c 00000000 		.4byte	0
 12347              	.LLST111:
 12348 1530 A6010000 		.4byte	.LVL509
 12349 1534 00020000 		.4byte	.LVL517
 12350 1538 0300     		.2byte	0x3
ARM GAS  /tmp/ccj4yzJk.s 			page 218


 12351 153a 91       		.byte	0x91
 12352 153b F87E     		.sleb128 -136
 12353 153d 84030000 		.4byte	.LVL548
 12354 1541 96030000 		.4byte	.LVL552
 12355 1545 0300     		.2byte	0x3
 12356 1547 91       		.byte	0x91
 12357 1548 F87E     		.sleb128 -136
 12358 154a 00000000 		.4byte	0
 12359 154e 00000000 		.4byte	0
 12360              	.LLST112:
 12361 1552 D2010000 		.4byte	.LVL513
 12362 1556 00020000 		.4byte	.LVL517
 12363 155a 0600     		.2byte	0x6
 12364 155c 5A       		.byte	0x5a
 12365 155d 93       		.byte	0x93
 12366 155e 04       		.uleb128 0x4
 12367 155f 5B       		.byte	0x5b
 12368 1560 93       		.byte	0x93
 12369 1561 04       		.uleb128 0x4
 12370 1562 84030000 		.4byte	.LVL548
 12371 1566 90030000 		.4byte	.LVL550
 12372 156a 0600     		.2byte	0x6
 12373 156c 5A       		.byte	0x5a
 12374 156d 93       		.byte	0x93
 12375 156e 04       		.uleb128 0x4
 12376 156f 5B       		.byte	0x5b
 12377 1570 93       		.byte	0x93
 12378 1571 04       		.uleb128 0x4
 12379 1572 00000000 		.4byte	0
 12380 1576 00000000 		.4byte	0
 12381              	.LLST113:
 12382 157a D2010000 		.4byte	.LVL513
 12383 157e 00020000 		.4byte	.LVL517
 12384 1582 0300     		.2byte	0x3
 12385 1584 91       		.byte	0x91
 12386 1585 987F     		.sleb128 -104
 12387 1587 84030000 		.4byte	.LVL548
 12388 158b 90030000 		.4byte	.LVL550
 12389 158f 0300     		.2byte	0x3
 12390 1591 91       		.byte	0x91
 12391 1592 987F     		.sleb128 -104
 12392 1594 00000000 		.4byte	0
 12393 1598 00000000 		.4byte	0
 12394              	.LLST114:
 12395 159c D2010000 		.4byte	.LVL513
 12396 15a0 FA010000 		.4byte	.LVL516
 12397 15a4 0600     		.2byte	0x6
 12398 15a6 54       		.byte	0x54
 12399 15a7 93       		.byte	0x93
 12400 15a8 04       		.uleb128 0x4
 12401 15a9 55       		.byte	0x55
 12402 15aa 93       		.byte	0x93
 12403 15ab 04       		.uleb128 0x4
 12404 15ac 84030000 		.4byte	.LVL548
 12405 15b0 86030000 		.4byte	.LVL549
 12406 15b4 0600     		.2byte	0x6
 12407 15b6 54       		.byte	0x54
ARM GAS  /tmp/ccj4yzJk.s 			page 219


 12408 15b7 93       		.byte	0x93
 12409 15b8 04       		.uleb128 0x4
 12410 15b9 55       		.byte	0x55
 12411 15ba 93       		.byte	0x93
 12412 15bb 04       		.uleb128 0x4
 12413 15bc 00000000 		.4byte	0
 12414 15c0 00000000 		.4byte	0
 12415              	.LLST115:
 12416 15c4 D2010000 		.4byte	.LVL513
 12417 15c8 00020000 		.4byte	.LVL517
 12418 15cc 0300     		.2byte	0x3
 12419 15ce 91       		.byte	0x91
 12420 15cf F87E     		.sleb128 -136
 12421 15d1 84030000 		.4byte	.LVL548
 12422 15d5 90030000 		.4byte	.LVL550
 12423 15d9 0300     		.2byte	0x3
 12424 15db 91       		.byte	0x91
 12425 15dc F87E     		.sleb128 -136
 12426 15de 00000000 		.4byte	0
 12427 15e2 00000000 		.4byte	0
 12428              	.LLST116:
 12429 15e6 06030000 		.4byte	.LVL537
 12430 15ea 44030000 		.4byte	.LVL542
 12431 15ee 0300     		.2byte	0x3
 12432 15f0 91       		.byte	0x91
 12433 15f1 40       		.sleb128 -64
 12434 15f2 9F       		.byte	0x9f
 12435 15f3 00000000 		.4byte	0
 12436 15f7 00000000 		.4byte	0
 12437              	.LLST117:
 12438 15fb 06030000 		.4byte	.LVL537
 12439 15ff 44030000 		.4byte	.LVL542
 12440 1603 0A00     		.2byte	0xa
 12441 1605 9E       		.byte	0x9e
 12442 1606 08       		.uleb128 0x8
 12443 1607 00000000 		.4byte	0
 12444 160b 0000F03F 		.4byte	0x3ff00000
 12445 160f 00000000 		.4byte	0
 12446 1613 00000000 		.4byte	0
 12447              	.LLST118:
 12448 1617 06030000 		.4byte	.LVL537
 12449 161b 44030000 		.4byte	.LVL542
 12450 161f 0100     		.2byte	0x1
 12451 1621 58       		.byte	0x58
 12452 1622 00000000 		.4byte	0
 12453 1626 00000000 		.4byte	0
 12454              	.LLST119:
 12455 162a 44030000 		.4byte	.LVL542
 12456 162e 84030000 		.4byte	.LVL548
 12457 1632 0400     		.2byte	0x4
 12458 1634 91       		.byte	0x91
 12459 1635 A87F     		.sleb128 -88
 12460 1637 9F       		.byte	0x9f
 12461 1638 00000000 		.4byte	0
 12462 163c 00000000 		.4byte	0
 12463              	.LLST120:
 12464 1640 44030000 		.4byte	.LVL542
ARM GAS  /tmp/ccj4yzJk.s 			page 220


 12465 1644 84030000 		.4byte	.LVL548
 12466 1648 0A00     		.2byte	0xa
 12467 164a 9E       		.byte	0x9e
 12468 164b 08       		.uleb128 0x8
 12469 164c 00000000 		.4byte	0
 12470 1650 0000F0BF 		.4byte	0xbff00000
 12471 1654 00000000 		.4byte	0
 12472 1658 00000000 		.4byte	0
 12473              	.LLST121:
 12474 165c 44030000 		.4byte	.LVL542
 12475 1660 84030000 		.4byte	.LVL548
 12476 1664 0100     		.2byte	0x1
 12477 1666 58       		.byte	0x58
 12478 1667 00000000 		.4byte	0
 12479 166b 00000000 		.4byte	0
 12480              	.LLST122:
 12481 166f 00000000 		.4byte	.LFB8
 12482 1673 02000000 		.4byte	.LCFI15
 12483 1677 0200     		.2byte	0x2
 12484 1679 7D       		.byte	0x7d
 12485 167a 00       		.sleb128 0
 12486 167b 02000000 		.4byte	.LCFI15
 12487 167f 04000000 		.4byte	.LCFI16
 12488 1683 0200     		.2byte	0x2
 12489 1685 7D       		.byte	0x7d
 12490 1686 0C       		.sleb128 12
 12491 1687 04000000 		.4byte	.LCFI16
 12492 168b 1C000000 		.4byte	.LFE8
 12493 168f 0200     		.2byte	0x2
 12494 1691 7D       		.byte	0x7d
 12495 1692 20       		.sleb128 32
 12496 1693 00000000 		.4byte	0
 12497 1697 00000000 		.4byte	0
 12498              	.LLST123:
 12499 169b 00000000 		.4byte	.LVL556
 12500 169f 17000000 		.4byte	.LVL557-1
 12501 16a3 0600     		.2byte	0x6
 12502 16a5 50       		.byte	0x50
 12503 16a6 93       		.byte	0x93
 12504 16a7 04       		.uleb128 0x4
 12505 16a8 51       		.byte	0x51
 12506 16a9 93       		.byte	0x93
 12507 16aa 04       		.uleb128 0x4
 12508 16ab 17000000 		.4byte	.LVL557-1
 12509 16af 1C000000 		.4byte	.LFE8
 12510 16b3 0600     		.2byte	0x6
 12511 16b5 F3       		.byte	0xf3
 12512 16b6 03       		.uleb128 0x3
 12513 16b7 F5       		.byte	0xf5
 12514 16b8 00       		.uleb128 0
 12515 16b9 29       		.uleb128 0x29
 12516 16ba 9F       		.byte	0x9f
 12517 16bb 00000000 		.4byte	0
 12518 16bf 00000000 		.4byte	0
 12519              	.LLST124:
 12520 16c3 00000000 		.4byte	.LVL556
 12521 16c7 17000000 		.4byte	.LVL557-1
ARM GAS  /tmp/ccj4yzJk.s 			page 221


 12522 16cb 0100     		.2byte	0x1
 12523 16cd 52       		.byte	0x52
 12524 16ce 17000000 		.4byte	.LVL557-1
 12525 16d2 1C000000 		.4byte	.LFE8
 12526 16d6 0400     		.2byte	0x4
 12527 16d8 F3       		.byte	0xf3
 12528 16d9 01       		.uleb128 0x1
 12529 16da 52       		.byte	0x52
 12530 16db 9F       		.byte	0x9f
 12531 16dc 00000000 		.4byte	0
 12532 16e0 00000000 		.4byte	0
 12533              	.LLST125:
 12534 16e4 00000000 		.4byte	.LVL556
 12535 16e8 17000000 		.4byte	.LVL557-1
 12536 16ec 0100     		.2byte	0x1
 12537 16ee 53       		.byte	0x53
 12538 16ef 17000000 		.4byte	.LVL557-1
 12539 16f3 1C000000 		.4byte	.LFE8
 12540 16f7 0400     		.2byte	0x4
 12541 16f9 F3       		.byte	0xf3
 12542 16fa 01       		.uleb128 0x1
 12543 16fb 53       		.byte	0x53
 12544 16fc 9F       		.byte	0x9f
 12545 16fd 00000000 		.4byte	0
 12546 1701 00000000 		.4byte	0
 12547              	.LLST126:
 12548 1705 00000000 		.4byte	.LFB10
 12549 1709 04000000 		.4byte	.LCFI17
 12550 170d 0200     		.2byte	0x2
 12551 170f 7D       		.byte	0x7d
 12552 1710 00       		.sleb128 0
 12553 1711 04000000 		.4byte	.LCFI17
 12554 1715 06000000 		.4byte	.LCFI18
 12555 1719 0200     		.2byte	0x2
 12556 171b 7D       		.byte	0x7d
 12557 171c 24       		.sleb128 36
 12558 171d 06000000 		.4byte	.LCFI18
 12559 1721 16070000 		.4byte	.LFE10
 12560 1725 0300     		.2byte	0x3
 12561 1727 7D       		.byte	0x7d
 12562 1728 C801     		.sleb128 200
 12563 172a 00000000 		.4byte	0
 12564 172e 00000000 		.4byte	0
 12565              	.LLST127:
 12566 1732 00000000 		.4byte	.LVL558
 12567 1736 13000000 		.4byte	.LVL559-1
 12568 173a 0600     		.2byte	0x6
 12569 173c 50       		.byte	0x50
 12570 173d 93       		.byte	0x93
 12571 173e 04       		.uleb128 0x4
 12572 173f 51       		.byte	0x51
 12573 1740 93       		.byte	0x93
 12574 1741 04       		.uleb128 0x4
 12575 1742 13000000 		.4byte	.LVL559-1
 12576 1746 16070000 		.4byte	.LFE10
 12577 174a 0600     		.2byte	0x6
 12578 174c F3       		.byte	0xf3
ARM GAS  /tmp/ccj4yzJk.s 			page 222


 12579 174d 03       		.uleb128 0x3
 12580 174e F5       		.byte	0xf5
 12581 174f 00       		.uleb128 0
 12582 1750 29       		.uleb128 0x29
 12583 1751 9F       		.byte	0x9f
 12584 1752 00000000 		.4byte	0
 12585 1756 00000000 		.4byte	0
 12586              	.LLST128:
 12587 175a 00000000 		.4byte	.LVL558
 12588 175e 13000000 		.4byte	.LVL559-1
 12589 1762 0100     		.2byte	0x1
 12590 1764 52       		.byte	0x52
 12591 1765 13000000 		.4byte	.LVL559-1
 12592 1769 16070000 		.4byte	.LFE10
 12593 176d 0100     		.2byte	0x1
 12594 176f 57       		.byte	0x57
 12595 1770 00000000 		.4byte	0
 12596 1774 00000000 		.4byte	0
 12597              	.LLST129:
 12598 1778 00000000 		.4byte	.LVL558
 12599 177c 13000000 		.4byte	.LVL559-1
 12600 1780 0100     		.2byte	0x1
 12601 1782 53       		.byte	0x53
 12602 1783 13000000 		.4byte	.LVL559-1
 12603 1787 90000000 		.4byte	.LVL578
 12604 178b 0100     		.2byte	0x1
 12605 178d 58       		.byte	0x58
 12606 178e 90000000 		.4byte	.LVL578
 12607 1792 16070000 		.4byte	.LFE10
 12608 1796 0400     		.2byte	0x4
 12609 1798 F3       		.byte	0xf3
 12610 1799 01       		.uleb128 0x1
 12611 179a 53       		.byte	0x53
 12612 179b 9F       		.byte	0x9f
 12613 179c 00000000 		.4byte	0
 12614 17a0 00000000 		.4byte	0
 12615              	.LLST130:
 12616 17a4 18000000 		.4byte	.LVL560
 12617 17a8 80000000 		.4byte	.LVL575
 12618 17ac 0800     		.2byte	0x8
 12619 17ae F5       		.byte	0xf5
 12620 17af 04       		.uleb128 0x4
 12621 17b0 29       		.uleb128 0x29
 12622 17b1 F7       		.byte	0xf7
 12623 17b2 30       		.uleb128 0x30
 12624 17b3 F7       		.byte	0xf7
 12625 17b4 00       		.uleb128 0
 12626 17b5 9F       		.byte	0x9f
 12627 17b6 00000000 		.4byte	0
 12628 17ba 00000000 		.4byte	0
 12629              	.LLST131:
 12630 17be 18000000 		.4byte	.LVL560
 12631 17c2 1C000000 		.4byte	.LVL561
 12632 17c6 0600     		.2byte	0x6
 12633 17c8 50       		.byte	0x50
 12634 17c9 93       		.byte	0x93
 12635 17ca 04       		.uleb128 0x4
ARM GAS  /tmp/ccj4yzJk.s 			page 223


 12636 17cb 51       		.byte	0x51
 12637 17cc 93       		.byte	0x93
 12638 17cd 04       		.uleb128 0x4
 12639 17ce 1C000000 		.4byte	.LVL561
 12640 17d2 16070000 		.4byte	.LFE10
 12641 17d6 0300     		.2byte	0x3
 12642 17d8 91       		.byte	0x91
 12643 17d9 D07E     		.sleb128 -176
 12644 17db 00000000 		.4byte	0
 12645 17df 00000000 		.4byte	0
 12646              	.LLST132:
 12647 17e3 44000000 		.4byte	.LVL567
 12648 17e7 76010000 		.4byte	.LVL604
 12649 17eb 1000     		.2byte	0x10
 12650 17ed F5       		.byte	0xf5
 12651 17ee 0A       		.uleb128 0xa
 12652 17ef 29       		.uleb128 0x29
 12653 17f0 F4       		.byte	0xf4
 12654 17f1 29       		.uleb128 0x29
 12655 17f2 08       		.byte	0x8
 12656 17f3 00000000 		.4byte	0
 12657 17f7 00002E40 		.4byte	0x402e0000
 12658 17fb 1E       		.byte	0x1e
 12659 17fc 9F       		.byte	0x9f
 12660 17fd 7E010000 		.4byte	.LVL605
 12661 1801 BA010000 		.4byte	.LVL614
 12662 1805 1000     		.2byte	0x10
 12663 1807 F5       		.byte	0xf5
 12664 1808 0A       		.uleb128 0xa
 12665 1809 29       		.uleb128 0x29
 12666 180a F4       		.byte	0xf4
 12667 180b 29       		.uleb128 0x29
 12668 180c 08       		.byte	0x8
 12669 180d 00000000 		.4byte	0
 12670 1811 00002E40 		.4byte	0x402e0000
 12671 1815 1E       		.byte	0x1e
 12672 1816 9F       		.byte	0x9f
 12673 1817 00000000 		.4byte	0
 12674 181b 00000000 		.4byte	0
 12675              	.LLST133:
 12676 181f 34000000 		.4byte	.LVL565
 12677 1823 37000000 		.4byte	.LVL566-1
 12678 1827 0600     		.2byte	0x6
 12679 1829 50       		.byte	0x50
 12680 182a 93       		.byte	0x93
 12681 182b 04       		.uleb128 0x4
 12682 182c 51       		.byte	0x51
 12683 182d 93       		.byte	0x93
 12684 182e 04       		.uleb128 0x4
 12685 182f 37000000 		.4byte	.LVL566-1
 12686 1833 16070000 		.4byte	.LFE10
 12687 1837 0300     		.2byte	0x3
 12688 1839 91       		.byte	0x91
 12689 183a C87E     		.sleb128 -184
 12690 183c 00000000 		.4byte	0
 12691 1840 00000000 		.4byte	0
 12692              	.LLST134:
ARM GAS  /tmp/ccj4yzJk.s 			page 224


 12693 1844 BA000000 		.4byte	.LVL583
 12694 1848 F4000000 		.4byte	.LVL591
 12695 184c 0600     		.2byte	0x6
 12696 184e 54       		.byte	0x54
 12697 184f 93       		.byte	0x93
 12698 1850 04       		.uleb128 0x4
 12699 1851 55       		.byte	0x55
 12700 1852 93       		.byte	0x93
 12701 1853 04       		.uleb128 0x4
 12702 1854 C0010000 		.4byte	.LVL615
 12703 1858 F8010000 		.4byte	.LVL622
 12704 185c 0600     		.2byte	0x6
 12705 185e 5A       		.byte	0x5a
 12706 185f 93       		.byte	0x93
 12707 1860 04       		.uleb128 0x4
 12708 1861 5B       		.byte	0x5b
 12709 1862 93       		.byte	0x93
 12710 1863 04       		.uleb128 0x4
 12711 1864 00000000 		.4byte	0
 12712 1868 00000000 		.4byte	0
 12713              	.LLST135:
 12714 186c E6000000 		.4byte	.LVL589
 12715 1870 ED000000 		.4byte	.LVL590-1
 12716 1874 0600     		.2byte	0x6
 12717 1876 52       		.byte	0x52
 12718 1877 93       		.byte	0x93
 12719 1878 04       		.uleb128 0x4
 12720 1879 53       		.byte	0x53
 12721 187a 93       		.byte	0x93
 12722 187b 04       		.uleb128 0x4
 12723 187c F4000000 		.4byte	.LVL591
 12724 1880 F6000000 		.4byte	.LVL592
 12725 1884 0600     		.2byte	0x6
 12726 1886 50       		.byte	0x50
 12727 1887 93       		.byte	0x93
 12728 1888 04       		.uleb128 0x4
 12729 1889 51       		.byte	0x51
 12730 188a 93       		.byte	0x93
 12731 188b 04       		.uleb128 0x4
 12732 188c F6000000 		.4byte	.LVL592
 12733 1890 03010000 		.4byte	.LVL593-1
 12734 1894 0600     		.2byte	0x6
 12735 1896 50       		.byte	0x50
 12736 1897 93       		.byte	0x93
 12737 1898 04       		.uleb128 0x4
 12738 1899 54       		.byte	0x54
 12739 189a 93       		.byte	0x93
 12740 189b 04       		.uleb128 0x4
 12741 189c 03010000 		.4byte	.LVL593-1
 12742 18a0 2E010000 		.4byte	.LVL596
 12743 18a4 0600     		.2byte	0x6
 12744 18a6 55       		.byte	0x55
 12745 18a7 93       		.byte	0x93
 12746 18a8 04       		.uleb128 0x4
 12747 18a9 54       		.byte	0x54
 12748 18aa 93       		.byte	0x93
 12749 18ab 04       		.uleb128 0x4
ARM GAS  /tmp/ccj4yzJk.s 			page 225


 12750 18ac 96010000 		.4byte	.LVL609
 12751 18b0 B8010000 		.4byte	.LVL613
 12752 18b4 0600     		.2byte	0x6
 12753 18b6 55       		.byte	0x55
 12754 18b7 93       		.byte	0x93
 12755 18b8 04       		.uleb128 0x4
 12756 18b9 54       		.byte	0x54
 12757 18ba 93       		.byte	0x93
 12758 18bb 04       		.uleb128 0x4
 12759 18bc 00000000 		.4byte	0
 12760 18c0 00000000 		.4byte	0
 12761              	.LLST136:
 12762 18c4 BE040000 		.4byte	.LVL686
 12763 18c8 C2040000 		.4byte	.LVL687
 12764 18cc 0600     		.2byte	0x6
 12765 18ce 50       		.byte	0x50
 12766 18cf 93       		.byte	0x93
 12767 18d0 04       		.uleb128 0x4
 12768 18d1 51       		.byte	0x51
 12769 18d2 93       		.byte	0x93
 12770 18d3 04       		.uleb128 0x4
 12771 18d4 C2040000 		.4byte	.LVL687
 12772 18d8 9E060000 		.4byte	.LVL738
 12773 18dc 0300     		.2byte	0x3
 12774 18de 91       		.byte	0x91
 12775 18df 807F     		.sleb128 -128
 12776 18e1 00000000 		.4byte	0
 12777 18e5 00000000 		.4byte	0
 12778              	.LLST137:
 12779 18e9 D6040000 		.4byte	.LVL690
 12780 18ed DA040000 		.4byte	.LVL691
 12781 18f1 0600     		.2byte	0x6
 12782 18f3 50       		.byte	0x50
 12783 18f4 93       		.byte	0x93
 12784 18f5 04       		.uleb128 0x4
 12785 18f6 51       		.byte	0x51
 12786 18f7 93       		.byte	0x93
 12787 18f8 04       		.uleb128 0x4
 12788 18f9 DA040000 		.4byte	.LVL691
 12789 18fd 9E060000 		.4byte	.LVL738
 12790 1901 0300     		.2byte	0x3
 12791 1903 91       		.byte	0x91
 12792 1904 887F     		.sleb128 -120
 12793 1906 00000000 		.4byte	0
 12794 190a 00000000 		.4byte	0
 12795              	.LLST138:
 12796 190e EA040000 		.4byte	.LVL695
 12797 1912 9E060000 		.4byte	.LVL738
 12798 1916 0600     		.2byte	0x6
 12799 1918 5A       		.byte	0x5a
 12800 1919 93       		.byte	0x93
 12801 191a 04       		.uleb128 0x4
 12802 191b 5B       		.byte	0x5b
 12803 191c 93       		.byte	0x93
 12804 191d 04       		.uleb128 0x4
 12805 191e 00000000 		.4byte	0
 12806 1922 00000000 		.4byte	0
ARM GAS  /tmp/ccj4yzJk.s 			page 226


 12807              	.LLST139:
 12808 1926 E6010000 		.4byte	.LVL619
 12809 192a EA010000 		.4byte	.LVL620
 12810 192e 0600     		.2byte	0x6
 12811 1930 50       		.byte	0x50
 12812 1931 93       		.byte	0x93
 12813 1932 04       		.uleb128 0x4
 12814 1933 51       		.byte	0x51
 12815 1934 93       		.byte	0x93
 12816 1935 04       		.uleb128 0x4
 12817 1936 EA010000 		.4byte	.LVL620
 12818 193a 32060000 		.4byte	.LVL730
 12819 193e 0300     		.2byte	0x3
 12820 1940 91       		.byte	0x91
 12821 1941 E87E     		.sleb128 -152
 12822 1943 32060000 		.4byte	.LVL730
 12823 1947 9E060000 		.4byte	.LVL738
 12824 194b 1A00     		.2byte	0x1a
 12825 194d 91       		.byte	0x91
 12826 194e E87E     		.sleb128 -152
 12827 1950 F6       		.byte	0xf6
 12828 1951 08       		.byte	0x8
 12829 1952 29       		.uleb128 0x29
 12830 1953 91       		.byte	0x91
 12831 1954 807F     		.sleb128 -128
 12832 1956 F6       		.byte	0xf6
 12833 1957 08       		.byte	0x8
 12834 1958 29       		.uleb128 0x29
 12835 1959 F4       		.byte	0xf4
 12836 195a 29       		.uleb128 0x29
 12837 195b 08       		.byte	0x8
 12838 195c 00000000 		.4byte	0
 12839 1960 00807640 		.4byte	0x40768000
 12840 1964 1B       		.byte	0x1b
 12841 1965 1C       		.byte	0x1c
 12842 1966 9F       		.byte	0x9f
 12843 1967 9E060000 		.4byte	.LVL738
 12844 196b C4060000 		.4byte	.LVL741
 12845 196f 0300     		.2byte	0x3
 12846 1971 91       		.byte	0x91
 12847 1972 E87E     		.sleb128 -152
 12848 1974 C4060000 		.4byte	.LVL741
 12849 1978 C6060000 		.4byte	.LVL742
 12850 197c 0600     		.2byte	0x6
 12851 197e 50       		.byte	0x50
 12852 197f 93       		.byte	0x93
 12853 1980 04       		.uleb128 0x4
 12854 1981 51       		.byte	0x51
 12855 1982 93       		.byte	0x93
 12856 1983 04       		.uleb128 0x4
 12857 1984 C6060000 		.4byte	.LVL742
 12858 1988 16070000 		.4byte	.LFE10
 12859 198c 0300     		.2byte	0x3
 12860 198e 91       		.byte	0x91
 12861 198f E87E     		.sleb128 -152
 12862 1991 00000000 		.4byte	0
 12863 1995 00000000 		.4byte	0
ARM GAS  /tmp/ccj4yzJk.s 			page 227


 12864              	.LLST140:
 12865 1999 0A020000 		.4byte	.LVL624
 12866 199d 10020000 		.4byte	.LVL625
 12867 19a1 0600     		.2byte	0x6
 12868 19a3 50       		.byte	0x50
 12869 19a4 93       		.byte	0x93
 12870 19a5 04       		.uleb128 0x4
 12871 19a6 51       		.byte	0x51
 12872 19a7 93       		.byte	0x93
 12873 19a8 04       		.uleb128 0x4
 12874 19a9 10020000 		.4byte	.LVL625
 12875 19ad 32060000 		.4byte	.LVL730
 12876 19b1 0300     		.2byte	0x3
 12877 19b3 91       		.byte	0x91
 12878 19b4 F07E     		.sleb128 -144
 12879 19b6 32060000 		.4byte	.LVL730
 12880 19ba 9E060000 		.4byte	.LVL738
 12881 19be 0B00     		.2byte	0xb
 12882 19c0 91       		.byte	0x91
 12883 19c1 F07E     		.sleb128 -144
 12884 19c3 F6       		.byte	0xf6
 12885 19c4 08       		.byte	0x8
 12886 19c5 29       		.uleb128 0x29
 12887 19c6 F5       		.byte	0xf5
 12888 19c7 04       		.uleb128 0x4
 12889 19c8 29       		.uleb128 0x29
 12890 19c9 22       		.byte	0x22
 12891 19ca 9F       		.byte	0x9f
 12892 19cb 9E060000 		.4byte	.LVL738
 12893 19cf 14070000 		.4byte	.LVL749
 12894 19d3 0300     		.2byte	0x3
 12895 19d5 91       		.byte	0x91
 12896 19d6 F07E     		.sleb128 -144
 12897 19d8 14070000 		.4byte	.LVL749
 12898 19dc 16070000 		.4byte	.LFE10
 12899 19e0 0600     		.2byte	0x6
 12900 19e2 50       		.byte	0x50
 12901 19e3 93       		.byte	0x93
 12902 19e4 04       		.uleb128 0x4
 12903 19e5 51       		.byte	0x51
 12904 19e6 93       		.byte	0x93
 12905 19e7 04       		.uleb128 0x4
 12906 19e8 00000000 		.4byte	0
 12907 19ec 00000000 		.4byte	0
 12908              	.LLST141:
 12909 19f0 1A020000 		.4byte	.LVL627
 12910 19f4 20020000 		.4byte	.LVL628
 12911 19f8 0600     		.2byte	0x6
 12912 19fa 50       		.byte	0x50
 12913 19fb 93       		.byte	0x93
 12914 19fc 04       		.uleb128 0x4
 12915 19fd 51       		.byte	0x51
 12916 19fe 93       		.byte	0x93
 12917 19ff 04       		.uleb128 0x4
 12918 1a00 20020000 		.4byte	.LVL628
 12919 1a04 32060000 		.4byte	.LVL730
 12920 1a08 0300     		.2byte	0x3
ARM GAS  /tmp/ccj4yzJk.s 			page 228


 12921 1a0a 91       		.byte	0x91
 12922 1a0b F87E     		.sleb128 -136
 12923 1a0d 32060000 		.4byte	.LVL730
 12924 1a11 9E060000 		.4byte	.LVL738
 12925 1a15 0B00     		.2byte	0xb
 12926 1a17 91       		.byte	0x91
 12927 1a18 F87E     		.sleb128 -136
 12928 1a1a F6       		.byte	0xf6
 12929 1a1b 08       		.byte	0x8
 12930 1a1c 29       		.uleb128 0x29
 12931 1a1d F5       		.byte	0xf5
 12932 1a1e 04       		.uleb128 0x4
 12933 1a1f 29       		.uleb128 0x29
 12934 1a20 22       		.byte	0x22
 12935 1a21 9F       		.byte	0x9f
 12936 1a22 9E060000 		.4byte	.LVL738
 12937 1a26 EC060000 		.4byte	.LVL745
 12938 1a2a 0300     		.2byte	0x3
 12939 1a2c 91       		.byte	0x91
 12940 1a2d F87E     		.sleb128 -136
 12941 1a2f EC060000 		.4byte	.LVL745
 12942 1a33 EE060000 		.4byte	.LVL746
 12943 1a37 0600     		.2byte	0x6
 12944 1a39 50       		.byte	0x50
 12945 1a3a 93       		.byte	0x93
 12946 1a3b 04       		.uleb128 0x4
 12947 1a3c 51       		.byte	0x51
 12948 1a3d 93       		.byte	0x93
 12949 1a3e 04       		.uleb128 0x4
 12950 1a3f EE060000 		.4byte	.LVL746
 12951 1a43 16070000 		.4byte	.LFE10
 12952 1a47 0300     		.2byte	0x3
 12953 1a49 91       		.byte	0x91
 12954 1a4a F87E     		.sleb128 -136
 12955 1a4c 00000000 		.4byte	0
 12956 1a50 00000000 		.4byte	0
 12957              	.LLST142:
 12958 1a54 B6020000 		.4byte	.LVL640
 12959 1a58 BA020000 		.4byte	.LVL641
 12960 1a5c 0600     		.2byte	0x6
 12961 1a5e 50       		.byte	0x50
 12962 1a5f 93       		.byte	0x93
 12963 1a60 04       		.uleb128 0x4
 12964 1a61 51       		.byte	0x51
 12965 1a62 93       		.byte	0x93
 12966 1a63 04       		.uleb128 0x4
 12967 1a64 BA020000 		.4byte	.LVL641
 12968 1a68 9E060000 		.4byte	.LVL738
 12969 1a6c 0300     		.2byte	0x3
 12970 1a6e 91       		.byte	0x91
 12971 1a6f 887F     		.sleb128 -120
 12972 1a71 00000000 		.4byte	0
 12973 1a75 00000000 		.4byte	0
 12974              	.LLST143:
 12975 1a79 D0020000 		.4byte	.LVL644
 12976 1a7d D4020000 		.4byte	.LVL645
 12977 1a81 0600     		.2byte	0x6
ARM GAS  /tmp/ccj4yzJk.s 			page 229


 12978 1a83 50       		.byte	0x50
 12979 1a84 93       		.byte	0x93
 12980 1a85 04       		.uleb128 0x4
 12981 1a86 51       		.byte	0x51
 12982 1a87 93       		.byte	0x93
 12983 1a88 04       		.uleb128 0x4
 12984 1a89 D4020000 		.4byte	.LVL645
 12985 1a8d 9E060000 		.4byte	.LVL738
 12986 1a91 0300     		.2byte	0x3
 12987 1a93 91       		.byte	0x91
 12988 1a94 907F     		.sleb128 -112
 12989 1a96 00000000 		.4byte	0
 12990 1a9a 00000000 		.4byte	0
 12991              	.LLST144:
 12992 1a9e EC020000 		.4byte	.LVL648
 12993 1aa2 F4020000 		.4byte	.LVL649
 12994 1aa6 0600     		.2byte	0x6
 12995 1aa8 50       		.byte	0x50
 12996 1aa9 93       		.byte	0x93
 12997 1aaa 04       		.uleb128 0x4
 12998 1aab 51       		.byte	0x51
 12999 1aac 93       		.byte	0x93
 13000 1aad 04       		.uleb128 0x4
 13001 1aae F4020000 		.4byte	.LVL649
 13002 1ab2 9E060000 		.4byte	.LVL738
 13003 1ab6 0300     		.2byte	0x3
 13004 1ab8 91       		.byte	0x91
 13005 1ab9 987F     		.sleb128 -104
 13006 1abb 00000000 		.4byte	0
 13007 1abf 00000000 		.4byte	0
 13008              	.LLST145:
 13009 1ac3 EA030000 		.4byte	.LVL664
 13010 1ac7 EE030000 		.4byte	.LVL665
 13011 1acb 0600     		.2byte	0x6
 13012 1acd 50       		.byte	0x50
 13013 1ace 93       		.byte	0x93
 13014 1acf 04       		.uleb128 0x4
 13015 1ad0 51       		.byte	0x51
 13016 1ad1 93       		.byte	0x93
 13017 1ad2 04       		.uleb128 0x4
 13018 1ad3 EE030000 		.4byte	.LVL665
 13019 1ad7 9E060000 		.4byte	.LVL738
 13020 1adb 0300     		.2byte	0x3
 13021 1add 91       		.byte	0x91
 13022 1ade 807F     		.sleb128 -128
 13023 1ae0 00000000 		.4byte	0
 13024 1ae4 00000000 		.4byte	0
 13025              	.LLST146:
 13026 1ae8 FA030000 		.4byte	.LVL667
 13027 1aec FE030000 		.4byte	.LVL668
 13028 1af0 0600     		.2byte	0x6
 13029 1af2 50       		.byte	0x50
 13030 1af3 93       		.byte	0x93
 13031 1af4 04       		.uleb128 0x4
 13032 1af5 51       		.byte	0x51
 13033 1af6 93       		.byte	0x93
 13034 1af7 04       		.uleb128 0x4
ARM GAS  /tmp/ccj4yzJk.s 			page 230


 13035 1af8 FE030000 		.4byte	.LVL668
 13036 1afc 9E060000 		.4byte	.LVL738
 13037 1b00 0300     		.2byte	0x3
 13038 1b02 91       		.byte	0x91
 13039 1b03 D07E     		.sleb128 -176
 13040 1b05 00000000 		.4byte	0
 13041 1b09 00000000 		.4byte	0
 13042              	.LLST147:
 13043 1b0d 62040000 		.4byte	.LVL677
 13044 1b11 66040000 		.4byte	.LVL678
 13045 1b15 0800     		.2byte	0x8
 13046 1b17 50       		.byte	0x50
 13047 1b18 93       		.byte	0x93
 13048 1b19 04       		.uleb128 0x4
 13049 1b1a 51       		.byte	0x51
 13050 1b1b 93       		.byte	0x93
 13051 1b1c 04       		.uleb128 0x4
 13052 1b1d 93       		.byte	0x93
 13053 1b1e 08       		.uleb128 0x8
 13054 1b1f 66040000 		.4byte	.LVL678
 13055 1b23 9E060000 		.4byte	.LVL738
 13056 1b27 0700     		.2byte	0x7
 13057 1b29 91       		.byte	0x91
 13058 1b2a 807F     		.sleb128 -128
 13059 1b2c 93       		.byte	0x93
 13060 1b2d 08       		.uleb128 0x8
 13061 1b2e 93       		.byte	0x93
 13062 1b2f 08       		.uleb128 0x8
 13063 1b30 00000000 		.4byte	0
 13064 1b34 00000000 		.4byte	0
 13065              	.LLST148:
 13066 1b38 22040000 		.4byte	.LVL671
 13067 1b3c 26040000 		.4byte	.LVL672
 13068 1b40 0800     		.2byte	0x8
 13069 1b42 50       		.byte	0x50
 13070 1b43 93       		.byte	0x93
 13071 1b44 04       		.uleb128 0x4
 13072 1b45 51       		.byte	0x51
 13073 1b46 93       		.byte	0x93
 13074 1b47 04       		.uleb128 0x4
 13075 1b48 93       		.byte	0x93
 13076 1b49 08       		.uleb128 0x8
 13077 1b4a 26040000 		.4byte	.LVL672
 13078 1b4e 42040000 		.4byte	.LVL674
 13079 1b52 0700     		.2byte	0x7
 13080 1b54 91       		.byte	0x91
 13081 1b55 A07F     		.sleb128 -96
 13082 1b57 93       		.byte	0x93
 13083 1b58 08       		.uleb128 0x8
 13084 1b59 93       		.byte	0x93
 13085 1b5a 08       		.uleb128 0x8
 13086 1b5b 42040000 		.4byte	.LVL674
 13087 1b5f 46040000 		.4byte	.LVL675
 13088 1b63 0B00     		.2byte	0xb
 13089 1b65 91       		.byte	0x91
 13090 1b66 A07F     		.sleb128 -96
 13091 1b68 93       		.byte	0x93
ARM GAS  /tmp/ccj4yzJk.s 			page 231


 13092 1b69 08       		.uleb128 0x8
 13093 1b6a 50       		.byte	0x50
 13094 1b6b 93       		.byte	0x93
 13095 1b6c 04       		.uleb128 0x4
 13096 1b6d 51       		.byte	0x51
 13097 1b6e 93       		.byte	0x93
 13098 1b6f 04       		.uleb128 0x4
 13099 1b70 46040000 		.4byte	.LVL675
 13100 1b74 9E060000 		.4byte	.LVL738
 13101 1b78 0A00     		.2byte	0xa
 13102 1b7a 91       		.byte	0x91
 13103 1b7b A07F     		.sleb128 -96
 13104 1b7d 93       		.byte	0x93
 13105 1b7e 08       		.uleb128 0x8
 13106 1b7f 91       		.byte	0x91
 13107 1b80 E07E     		.sleb128 -160
 13108 1b82 93       		.byte	0x93
 13109 1b83 08       		.uleb128 0x8
 13110 1b84 00000000 		.4byte	0
 13111 1b88 00000000 		.4byte	0
 13112              	.LLST149:
 13113 1b8c 82040000 		.4byte	.LVL680
 13114 1b90 A6040000 		.4byte	.LVL682
 13115 1b94 0800     		.2byte	0x8
 13116 1b96 5A       		.byte	0x5a
 13117 1b97 93       		.byte	0x93
 13118 1b98 04       		.uleb128 0x4
 13119 1b99 5B       		.byte	0x5b
 13120 1b9a 93       		.byte	0x93
 13121 1b9b 04       		.uleb128 0x4
 13122 1b9c 93       		.byte	0x93
 13123 1b9d 08       		.uleb128 0x8
 13124 1b9e A6040000 		.4byte	.LVL682
 13125 1ba2 A8040000 		.4byte	.LVL683
 13126 1ba6 0C00     		.2byte	0xc
 13127 1ba8 5A       		.byte	0x5a
 13128 1ba9 93       		.byte	0x93
 13129 1baa 04       		.uleb128 0x4
 13130 1bab 5B       		.byte	0x5b
 13131 1bac 93       		.byte	0x93
 13132 1bad 04       		.uleb128 0x4
 13133 1bae 50       		.byte	0x50
 13134 1baf 93       		.byte	0x93
 13135 1bb0 04       		.uleb128 0x4
 13136 1bb1 51       		.byte	0x51
 13137 1bb2 93       		.byte	0x93
 13138 1bb3 04       		.uleb128 0x4
 13139 1bb4 A8040000 		.4byte	.LVL683
 13140 1bb8 E8040000 		.4byte	.LVL694
 13141 1bbc 0B00     		.2byte	0xb
 13142 1bbe 5A       		.byte	0x5a
 13143 1bbf 93       		.byte	0x93
 13144 1bc0 04       		.uleb128 0x4
 13145 1bc1 5B       		.byte	0x5b
 13146 1bc2 93       		.byte	0x93
 13147 1bc3 04       		.uleb128 0x4
 13148 1bc4 91       		.byte	0x91
ARM GAS  /tmp/ccj4yzJk.s 			page 232


 13149 1bc5 D07E     		.sleb128 -176
 13150 1bc7 93       		.byte	0x93
 13151 1bc8 08       		.uleb128 0x8
 13152 1bc9 E8040000 		.4byte	.LVL694
 13153 1bcd 9E060000 		.4byte	.LVL738
 13154 1bd1 0700     		.2byte	0x7
 13155 1bd3 93       		.byte	0x93
 13156 1bd4 08       		.uleb128 0x8
 13157 1bd5 91       		.byte	0x91
 13158 1bd6 D07E     		.sleb128 -176
 13159 1bd8 93       		.byte	0x93
 13160 1bd9 08       		.uleb128 0x8
 13161 1bda 00000000 		.4byte	0
 13162 1bde 00000000 		.4byte	0
 13163              	.LLST150:
 13164 1be2 A4050000 		.4byte	.LVL715
 13165 1be6 9E060000 		.4byte	.LVL738
 13166 1bea 1400     		.2byte	0x14
 13167 1bec 91       		.byte	0x91
 13168 1bed 807F     		.sleb128 -128
 13169 1bef F6       		.byte	0xf6
 13170 1bf0 08       		.byte	0x8
 13171 1bf1 29       		.uleb128 0x29
 13172 1bf2 F4       		.byte	0xf4
 13173 1bf3 29       		.uleb128 0x29
 13174 1bf4 08       		.byte	0x8
 13175 1bf5 00000000 		.4byte	0
 13176 1bf9 00807640 		.4byte	0x40768000
 13177 1bfd 1B       		.byte	0x1b
 13178 1bfe 1F       		.byte	0x1f
 13179 1bff 9F       		.byte	0x9f
 13180 1c00 00000000 		.4byte	0
 13181 1c04 00000000 		.4byte	0
 13182              	.LLST151:
 13183 1c08 32060000 		.4byte	.LVL730
 13184 1c0c 9E060000 		.4byte	.LVL738
 13185 1c10 0600     		.2byte	0x6
 13186 1c12 54       		.byte	0x54
 13187 1c13 93       		.byte	0x93
 13188 1c14 04       		.uleb128 0x4
 13189 1c15 55       		.byte	0x55
 13190 1c16 93       		.byte	0x93
 13191 1c17 04       		.uleb128 0x4
 13192 1c18 00000000 		.4byte	0
 13193 1c1c 00000000 		.4byte	0
 13194              	.LLST152:
 13195 1c20 F4000000 		.4byte	.LVL591
 13196 1c24 F6000000 		.4byte	.LVL592
 13197 1c28 0600     		.2byte	0x6
 13198 1c2a 50       		.byte	0x50
 13199 1c2b 93       		.byte	0x93
 13200 1c2c 04       		.uleb128 0x4
 13201 1c2d 51       		.byte	0x51
 13202 1c2e 93       		.byte	0x93
 13203 1c2f 04       		.uleb128 0x4
 13204 1c30 F6000000 		.4byte	.LVL592
 13205 1c34 03010000 		.4byte	.LVL593-1
ARM GAS  /tmp/ccj4yzJk.s 			page 233


 13206 1c38 0600     		.2byte	0x6
 13207 1c3a 50       		.byte	0x50
 13208 1c3b 93       		.byte	0x93
 13209 1c3c 04       		.uleb128 0x4
 13210 1c3d 54       		.byte	0x54
 13211 1c3e 93       		.byte	0x93
 13212 1c3f 04       		.uleb128 0x4
 13213 1c40 03010000 		.4byte	.LVL593-1
 13214 1c44 2E010000 		.4byte	.LVL596
 13215 1c48 0600     		.2byte	0x6
 13216 1c4a 55       		.byte	0x55
 13217 1c4b 93       		.byte	0x93
 13218 1c4c 04       		.uleb128 0x4
 13219 1c4d 54       		.byte	0x54
 13220 1c4e 93       		.byte	0x93
 13221 1c4f 04       		.uleb128 0x4
 13222 1c50 96010000 		.4byte	.LVL609
 13223 1c54 B8010000 		.4byte	.LVL613
 13224 1c58 0600     		.2byte	0x6
 13225 1c5a 55       		.byte	0x55
 13226 1c5b 93       		.byte	0x93
 13227 1c5c 04       		.uleb128 0x4
 13228 1c5d 54       		.byte	0x54
 13229 1c5e 93       		.byte	0x93
 13230 1c5f 04       		.uleb128 0x4
 13231 1c60 00000000 		.4byte	0
 13232 1c64 00000000 		.4byte	0
 13233              	.LLST153:
 13234 1c68 30010000 		.4byte	.LVL597
 13235 1c6c 4A010000 		.4byte	.LVL600
 13236 1c70 0600     		.2byte	0x6
 13237 1c72 54       		.byte	0x54
 13238 1c73 93       		.byte	0x93
 13239 1c74 04       		.uleb128 0x4
 13240 1c75 55       		.byte	0x55
 13241 1c76 93       		.byte	0x93
 13242 1c77 04       		.uleb128 0x4
 13243 1c78 4C010000 		.4byte	.LVL601
 13244 1c7c 76010000 		.4byte	.LVL604
 13245 1c80 0600     		.2byte	0x6
 13246 1c82 54       		.byte	0x54
 13247 1c83 93       		.byte	0x93
 13248 1c84 04       		.uleb128 0x4
 13249 1c85 55       		.byte	0x55
 13250 1c86 93       		.byte	0x93
 13251 1c87 04       		.uleb128 0x4
 13252 1c88 7E010000 		.4byte	.LVL605
 13253 1c8c 92010000 		.4byte	.LVL607
 13254 1c90 0600     		.2byte	0x6
 13255 1c92 54       		.byte	0x54
 13256 1c93 93       		.byte	0x93
 13257 1c94 04       		.uleb128 0x4
 13258 1c95 55       		.byte	0x55
 13259 1c96 93       		.byte	0x93
 13260 1c97 04       		.uleb128 0x4
 13261 1c98 94010000 		.4byte	.LVL608
 13262 1c9c 96010000 		.4byte	.LVL609
ARM GAS  /tmp/ccj4yzJk.s 			page 234


 13263 1ca0 0600     		.2byte	0x6
 13264 1ca2 54       		.byte	0x54
 13265 1ca3 93       		.byte	0x93
 13266 1ca4 04       		.uleb128 0x4
 13267 1ca5 55       		.byte	0x55
 13268 1ca6 93       		.byte	0x93
 13269 1ca7 04       		.uleb128 0x4
 13270 1ca8 00000000 		.4byte	0
 13271 1cac 00000000 		.4byte	0
 13272              	.LLST154:
 13273 1cb0 00000000 		.4byte	.LFB12
 13274 1cb4 04000000 		.4byte	.LCFI19
 13275 1cb8 0200     		.2byte	0x2
 13276 1cba 7D       		.byte	0x7d
 13277 1cbb 00       		.sleb128 0
 13278 1cbc 04000000 		.4byte	.LCFI19
 13279 1cc0 06000000 		.4byte	.LCFI20
 13280 1cc4 0200     		.2byte	0x2
 13281 1cc6 7D       		.byte	0x7d
 13282 1cc7 24       		.sleb128 36
 13283 1cc8 06000000 		.4byte	.LCFI20
 13284 1ccc E2030000 		.4byte	.LFE12
 13285 1cd0 0300     		.2byte	0x3
 13286 1cd2 7D       		.byte	0x7d
 13287 1cd3 9801     		.sleb128 152
 13288 1cd5 00000000 		.4byte	0
 13289 1cd9 00000000 		.4byte	0
 13290              	.LLST155:
 13291 1cdd 00000000 		.4byte	.LVL750
 13292 1ce1 25000000 		.4byte	.LVL751-1
 13293 1ce5 0600     		.2byte	0x6
 13294 1ce7 50       		.byte	0x50
 13295 1ce8 93       		.byte	0x93
 13296 1ce9 04       		.uleb128 0x4
 13297 1cea 51       		.byte	0x51
 13298 1ceb 93       		.byte	0x93
 13299 1cec 04       		.uleb128 0x4
 13300 1ced 25000000 		.4byte	.LVL751-1
 13301 1cf1 E2030000 		.4byte	.LFE12
 13302 1cf5 0300     		.2byte	0x3
 13303 1cf7 91       		.byte	0x91
 13304 1cf8 807F     		.sleb128 -128
 13305 1cfa 00000000 		.4byte	0
 13306 1cfe 00000000 		.4byte	0
 13307              	.LLST156:
 13308 1d02 00000000 		.4byte	.LVL750
 13309 1d06 25000000 		.4byte	.LVL751-1
 13310 1d0a 0100     		.2byte	0x1
 13311 1d0c 52       		.byte	0x52
 13312 1d0d 25000000 		.4byte	.LVL751-1
 13313 1d11 98010000 		.4byte	.LVL776
 13314 1d15 0100     		.2byte	0x1
 13315 1d17 56       		.byte	0x56
 13316 1d18 98010000 		.4byte	.LVL776
 13317 1d1c 3A020000 		.4byte	.LVL791
 13318 1d20 0400     		.2byte	0x4
 13319 1d22 F3       		.byte	0xf3
ARM GAS  /tmp/ccj4yzJk.s 			page 235


 13320 1d23 01       		.uleb128 0x1
 13321 1d24 52       		.byte	0x52
 13322 1d25 9F       		.byte	0x9f
 13323 1d26 3A020000 		.4byte	.LVL791
 13324 1d2a 5C030000 		.4byte	.LVL811
 13325 1d2e 0100     		.2byte	0x1
 13326 1d30 56       		.byte	0x56
 13327 1d31 5C030000 		.4byte	.LVL811
 13328 1d35 80030000 		.4byte	.LVL815
 13329 1d39 0400     		.2byte	0x4
 13330 1d3b F3       		.byte	0xf3
 13331 1d3c 01       		.uleb128 0x1
 13332 1d3d 52       		.byte	0x52
 13333 1d3e 9F       		.byte	0x9f
 13334 1d3f 80030000 		.4byte	.LVL815
 13335 1d43 C2030000 		.4byte	.LVL821
 13336 1d47 0100     		.2byte	0x1
 13337 1d49 56       		.byte	0x56
 13338 1d4a C2030000 		.4byte	.LVL821
 13339 1d4e DC030000 		.4byte	.LVL827
 13340 1d52 0400     		.2byte	0x4
 13341 1d54 F3       		.byte	0xf3
 13342 1d55 01       		.uleb128 0x1
 13343 1d56 52       		.byte	0x52
 13344 1d57 9F       		.byte	0x9f
 13345 1d58 DC030000 		.4byte	.LVL827
 13346 1d5c E2030000 		.4byte	.LFE12
 13347 1d60 0100     		.2byte	0x1
 13348 1d62 56       		.byte	0x56
 13349 1d63 00000000 		.4byte	0
 13350 1d67 00000000 		.4byte	0
 13351              	.LLST157:
 13352 1d6b 00000000 		.4byte	.LVL750
 13353 1d6f 25000000 		.4byte	.LVL751-1
 13354 1d73 0100     		.2byte	0x1
 13355 1d75 53       		.byte	0x53
 13356 1d76 25000000 		.4byte	.LVL751-1
 13357 1d7a A4010000 		.4byte	.LVL777
 13358 1d7e 0100     		.2byte	0x1
 13359 1d80 57       		.byte	0x57
 13360 1d81 A4010000 		.4byte	.LVL777
 13361 1d85 3A020000 		.4byte	.LVL791
 13362 1d89 0400     		.2byte	0x4
 13363 1d8b F3       		.byte	0xf3
 13364 1d8c 01       		.uleb128 0x1
 13365 1d8d 53       		.byte	0x53
 13366 1d8e 9F       		.byte	0x9f
 13367 1d8f 3A020000 		.4byte	.LVL791
 13368 1d93 5E030000 		.4byte	.LVL812
 13369 1d97 0100     		.2byte	0x1
 13370 1d99 57       		.byte	0x57
 13371 1d9a 5E030000 		.4byte	.LVL812
 13372 1d9e 80030000 		.4byte	.LVL815
 13373 1da2 0400     		.2byte	0x4
 13374 1da4 F3       		.byte	0xf3
 13375 1da5 01       		.uleb128 0x1
 13376 1da6 53       		.byte	0x53
ARM GAS  /tmp/ccj4yzJk.s 			page 236


 13377 1da7 9F       		.byte	0x9f
 13378 1da8 80030000 		.4byte	.LVL815
 13379 1dac C2030000 		.4byte	.LVL821
 13380 1db0 0100     		.2byte	0x1
 13381 1db2 57       		.byte	0x57
 13382 1db3 C2030000 		.4byte	.LVL821
 13383 1db7 DC030000 		.4byte	.LVL827
 13384 1dbb 0400     		.2byte	0x4
 13385 1dbd F3       		.byte	0xf3
 13386 1dbe 01       		.uleb128 0x1
 13387 1dbf 53       		.byte	0x53
 13388 1dc0 9F       		.byte	0x9f
 13389 1dc1 DC030000 		.4byte	.LVL827
 13390 1dc5 E2030000 		.4byte	.LFE12
 13391 1dc9 0100     		.2byte	0x1
 13392 1dcb 57       		.byte	0x57
 13393 1dcc 00000000 		.4byte	0
 13394 1dd0 00000000 		.4byte	0
 13395              	.LLST158:
 13396 1dd4 26000000 		.4byte	.LVL751
 13397 1dd8 40000000 		.4byte	.LVL753
 13398 1ddc 0100     		.2byte	0x1
 13399 1dde 50       		.byte	0x50
 13400 1ddf 40000000 		.4byte	.LVL753
 13401 1de3 BA000000 		.4byte	.LVL760
 13402 1de7 0100     		.2byte	0x1
 13403 1de9 54       		.byte	0x54
 13404 1dea BA000000 		.4byte	.LVL760
 13405 1dee C4000000 		.4byte	.LVL761
 13406 1df2 0100     		.2byte	0x1
 13407 1df4 50       		.byte	0x50
 13408 1df5 F2000000 		.4byte	.LVL764
 13409 1df9 FC000000 		.4byte	.LVL765
 13410 1dfd 0100     		.2byte	0x1
 13411 1dff 50       		.byte	0x50
 13412 1e00 74010000 		.4byte	.LVL773
 13413 1e04 90010000 		.4byte	.LVL775
 13414 1e08 0100     		.2byte	0x1
 13415 1e0a 54       		.byte	0x54
 13416 1e0b 3A020000 		.4byte	.LVL791
 13417 1e0f 4A020000 		.4byte	.LVL792
 13418 1e13 0100     		.2byte	0x1
 13419 1e15 50       		.byte	0x50
 13420 1e16 4A020000 		.4byte	.LVL792
 13421 1e1a CA020000 		.4byte	.LVL801
 13422 1e1e 0100     		.2byte	0x1
 13423 1e20 54       		.byte	0x54
 13424 1e21 CA020000 		.4byte	.LVL801
 13425 1e25 CC020000 		.4byte	.LVL802
 13426 1e29 0200     		.2byte	0x2
 13427 1e2b 30       		.byte	0x30
 13428 1e2c 9F       		.byte	0x9f
 13429 1e2d CC020000 		.4byte	.LVL802
 13430 1e31 F2020000 		.4byte	.LVL804
 13431 1e35 0100     		.2byte	0x1
 13432 1e37 54       		.byte	0x54
 13433 1e38 F2020000 		.4byte	.LVL804
ARM GAS  /tmp/ccj4yzJk.s 			page 237


 13434 1e3c 00030000 		.4byte	.LVL805
 13435 1e40 0100     		.2byte	0x1
 13436 1e42 50       		.byte	0x50
 13437 1e43 80030000 		.4byte	.LVL815
 13438 1e47 8E030000 		.4byte	.LVL816
 13439 1e4b 0100     		.2byte	0x1
 13440 1e4d 50       		.byte	0x50
 13441 1e4e 8E030000 		.4byte	.LVL816
 13442 1e52 C0030000 		.4byte	.LVL820
 13443 1e56 0100     		.2byte	0x1
 13444 1e58 59       		.byte	0x59
 13445 1e59 C0030000 		.4byte	.LVL820
 13446 1e5d C2030000 		.4byte	.LVL821
 13447 1e61 0100     		.2byte	0x1
 13448 1e63 54       		.byte	0x54
 13449 1e64 00000000 		.4byte	0
 13450 1e68 00000000 		.4byte	0
 13451              	.LLST159:
 13452 1e6c 36000000 		.4byte	.LVL752
 13453 1e70 7E000000 		.4byte	.LVL757
 13454 1e74 0400     		.2byte	0x4
 13455 1e76 91       		.byte	0x91
 13456 1e77 A87F     		.sleb128 -88
 13457 1e79 9F       		.byte	0x9f
 13458 1e7a 8E020000 		.4byte	.LVL797
 13459 1e7e CC020000 		.4byte	.LVL802
 13460 1e82 0400     		.2byte	0x4
 13461 1e84 91       		.byte	0x91
 13462 1e85 A87F     		.sleb128 -88
 13463 1e87 9F       		.byte	0x9f
 13464 1e88 00000000 		.4byte	0
 13465 1e8c 00000000 		.4byte	0
 13466              	.LLST160:
 13467 1e90 36000000 		.4byte	.LVL752
 13468 1e94 7E000000 		.4byte	.LVL757
 13469 1e98 0A00     		.2byte	0xa
 13470 1e9a 9E       		.byte	0x9e
 13471 1e9b 08       		.uleb128 0x8
 13472 1e9c 00000000 		.4byte	0
 13473 1ea0 0000F0BF 		.4byte	0xbff00000
 13474 1ea4 8E020000 		.4byte	.LVL797
 13475 1ea8 CC020000 		.4byte	.LVL802
 13476 1eac 0A00     		.2byte	0xa
 13477 1eae 9E       		.byte	0x9e
 13478 1eaf 08       		.uleb128 0x8
 13479 1eb0 00000000 		.4byte	0
 13480 1eb4 0000F0BF 		.4byte	0xbff00000
 13481 1eb8 00000000 		.4byte	0
 13482 1ebc 00000000 		.4byte	0
 13483              	.LLST161:
 13484 1ec0 36000000 		.4byte	.LVL752
 13485 1ec4 7E000000 		.4byte	.LVL757
 13486 1ec8 0200     		.2byte	0x2
 13487 1eca 91       		.byte	0x91
 13488 1ecb 14       		.sleb128 20
 13489 1ecc 8E020000 		.4byte	.LVL797
 13490 1ed0 CC020000 		.4byte	.LVL802
ARM GAS  /tmp/ccj4yzJk.s 			page 238


 13491 1ed4 0200     		.2byte	0x2
 13492 1ed6 91       		.byte	0x91
 13493 1ed7 14       		.sleb128 20
 13494 1ed8 00000000 		.4byte	0
 13495 1edc 00000000 		.4byte	0
 13496              	.LLST162:
 13497 1ee0 7E000000 		.4byte	.LVL757
 13498 1ee4 C4000000 		.4byte	.LVL761
 13499 1ee8 0200     		.2byte	0x2
 13500 1eea 31       		.byte	0x31
 13501 1eeb 9F       		.byte	0x9f
 13502 1eec C4000000 		.4byte	.LVL761
 13503 1ef0 0C010000 		.4byte	.LVL766
 13504 1ef4 0100     		.2byte	0x1
 13505 1ef6 58       		.byte	0x58
 13506 1ef7 2C010000 		.4byte	.LVL769
 13507 1efb 5A010000 		.4byte	.LVL772
 13508 1eff 0100     		.2byte	0x1
 13509 1f01 58       		.byte	0x58
 13510 1f02 74010000 		.4byte	.LVL773
 13511 1f06 88010000 		.4byte	.LVL774
 13512 1f0a 0100     		.2byte	0x1
 13513 1f0c 58       		.byte	0x58
 13514 1f0d DC030000 		.4byte	.LVL827
 13515 1f11 E2030000 		.4byte	.LFE12
 13516 1f15 0100     		.2byte	0x1
 13517 1f17 58       		.byte	0x58
 13518 1f18 00000000 		.4byte	0
 13519 1f1c 00000000 		.4byte	0
 13520              	.LLST163:
 13521 1f20 A8010000 		.4byte	.LVL778
 13522 1f24 D0010000 		.4byte	.LVL782
 13523 1f28 0600     		.2byte	0x6
 13524 1f2a 56       		.byte	0x56
 13525 1f2b 93       		.byte	0x93
 13526 1f2c 04       		.uleb128 0x4
 13527 1f2d 57       		.byte	0x57
 13528 1f2e 93       		.byte	0x93
 13529 1f2f 04       		.uleb128 0x4
 13530 1f30 D6030000 		.4byte	.LVL825
 13531 1f34 DC030000 		.4byte	.LVL827
 13532 1f38 0600     		.2byte	0x6
 13533 1f3a 56       		.byte	0x56
 13534 1f3b 93       		.byte	0x93
 13535 1f3c 04       		.uleb128 0x4
 13536 1f3d 57       		.byte	0x57
 13537 1f3e 93       		.byte	0x93
 13538 1f3f 04       		.uleb128 0x4
 13539 1f40 00000000 		.4byte	0
 13540 1f44 00000000 		.4byte	0
 13541              	.LLST164:
 13542 1f48 A8010000 		.4byte	.LVL778
 13543 1f4c 32020000 		.4byte	.LVL790
 13544 1f50 0600     		.2byte	0x6
 13545 1f52 58       		.byte	0x58
 13546 1f53 93       		.byte	0x93
 13547 1f54 04       		.uleb128 0x4
ARM GAS  /tmp/ccj4yzJk.s 			page 239


 13548 1f55 59       		.byte	0x59
 13549 1f56 93       		.byte	0x93
 13550 1f57 04       		.uleb128 0x4
 13551 1f58 C2030000 		.4byte	.LVL821
 13552 1f5c DC030000 		.4byte	.LVL827
 13553 1f60 0600     		.2byte	0x6
 13554 1f62 58       		.byte	0x58
 13555 1f63 93       		.byte	0x93
 13556 1f64 04       		.uleb128 0x4
 13557 1f65 59       		.byte	0x59
 13558 1f66 93       		.byte	0x93
 13559 1f67 04       		.uleb128 0x4
 13560 1f68 00000000 		.4byte	0
 13561 1f6c 00000000 		.4byte	0
 13562              	.LLST165:
 13563 1f70 A8010000 		.4byte	.LVL778
 13564 1f74 CA010000 		.4byte	.LVL781
 13565 1f78 0600     		.2byte	0x6
 13566 1f7a 54       		.byte	0x54
 13567 1f7b 93       		.byte	0x93
 13568 1f7c 04       		.uleb128 0x4
 13569 1f7d 55       		.byte	0x55
 13570 1f7e 93       		.byte	0x93
 13571 1f7f 04       		.uleb128 0x4
 13572 1f80 D6030000 		.4byte	.LVL825
 13573 1f84 D8030000 		.4byte	.LVL826
 13574 1f88 0600     		.2byte	0x6
 13575 1f8a 54       		.byte	0x54
 13576 1f8b 93       		.byte	0x93
 13577 1f8c 04       		.uleb128 0x4
 13578 1f8d 55       		.byte	0x55
 13579 1f8e 93       		.byte	0x93
 13580 1f8f 04       		.uleb128 0x4
 13581 1f90 00000000 		.4byte	0
 13582 1f94 00000000 		.4byte	0
 13583              	.LLST166:
 13584 1f98 A8010000 		.4byte	.LVL778
 13585 1f9c 32020000 		.4byte	.LVL790
 13586 1fa0 0300     		.2byte	0x3
 13587 1fa2 91       		.byte	0x91
 13588 1fa3 807F     		.sleb128 -128
 13589 1fa5 C2030000 		.4byte	.LVL821
 13590 1fa9 DC030000 		.4byte	.LVL827
 13591 1fad 0300     		.2byte	0x3
 13592 1faf 91       		.byte	0x91
 13593 1fb0 807F     		.sleb128 -128
 13594 1fb2 00000000 		.4byte	0
 13595 1fb6 00000000 		.4byte	0
 13596              	.LLST167:
 13597 1fba D0010000 		.4byte	.LVL782
 13598 1fbe 32020000 		.4byte	.LVL790
 13599 1fc2 0300     		.2byte	0x3
 13600 1fc4 91       		.byte	0x91
 13601 1fc5 887F     		.sleb128 -120
 13602 1fc7 C2030000 		.4byte	.LVL821
 13603 1fcb D6030000 		.4byte	.LVL825
 13604 1fcf 0300     		.2byte	0x3
ARM GAS  /tmp/ccj4yzJk.s 			page 240


 13605 1fd1 91       		.byte	0x91
 13606 1fd2 887F     		.sleb128 -120
 13607 1fd4 00000000 		.4byte	0
 13608 1fd8 00000000 		.4byte	0
 13609              	.LLST168:
 13610 1fdc D0010000 		.4byte	.LVL782
 13611 1fe0 32020000 		.4byte	.LVL790
 13612 1fe4 0300     		.2byte	0x3
 13613 1fe6 91       		.byte	0x91
 13614 1fe7 907F     		.sleb128 -112
 13615 1fe9 C2030000 		.4byte	.LVL821
 13616 1fed D6030000 		.4byte	.LVL825
 13617 1ff1 0300     		.2byte	0x3
 13618 1ff3 91       		.byte	0x91
 13619 1ff4 907F     		.sleb128 -112
 13620 1ff6 00000000 		.4byte	0
 13621 1ffa 00000000 		.4byte	0
 13622              	.LLST169:
 13623 1ffe D0010000 		.4byte	.LVL782
 13624 2002 FC010000 		.4byte	.LVL785
 13625 2006 0600     		.2byte	0x6
 13626 2008 56       		.byte	0x56
 13627 2009 93       		.byte	0x93
 13628 200a 04       		.uleb128 0x4
 13629 200b 57       		.byte	0x57
 13630 200c 93       		.byte	0x93
 13631 200d 04       		.uleb128 0x4
 13632 200e D0030000 		.4byte	.LVL823
 13633 2012 D4030000 		.4byte	.LVL824
 13634 2016 0600     		.2byte	0x6
 13635 2018 56       		.byte	0x56
 13636 2019 93       		.byte	0x93
 13637 201a 04       		.uleb128 0x4
 13638 201b 57       		.byte	0x57
 13639 201c 93       		.byte	0x93
 13640 201d 04       		.uleb128 0x4
 13641 201e 00000000 		.4byte	0
 13642 2022 00000000 		.4byte	0
 13643              	.LLST170:
 13644 2026 D0010000 		.4byte	.LVL782
 13645 202a 32020000 		.4byte	.LVL790
 13646 202e 0300     		.2byte	0x3
 13647 2030 91       		.byte	0x91
 13648 2031 807F     		.sleb128 -128
 13649 2033 C2030000 		.4byte	.LVL821
 13650 2037 D6030000 		.4byte	.LVL825
 13651 203b 0300     		.2byte	0x3
 13652 203d 91       		.byte	0x91
 13653 203e 807F     		.sleb128 -128
 13654 2040 00000000 		.4byte	0
 13655 2044 00000000 		.4byte	0
 13656              	.LLST171:
 13657 2048 00020000 		.4byte	.LVL786
 13658 204c 32020000 		.4byte	.LVL790
 13659 2050 0600     		.2byte	0x6
 13660 2052 5A       		.byte	0x5a
 13661 2053 93       		.byte	0x93
ARM GAS  /tmp/ccj4yzJk.s 			page 241


 13662 2054 04       		.uleb128 0x4
 13663 2055 5B       		.byte	0x5b
 13664 2056 93       		.byte	0x93
 13665 2057 04       		.uleb128 0x4
 13666 2058 C2030000 		.4byte	.LVL821
 13667 205c D0030000 		.4byte	.LVL823
 13668 2060 0600     		.2byte	0x6
 13669 2062 5A       		.byte	0x5a
 13670 2063 93       		.byte	0x93
 13671 2064 04       		.uleb128 0x4
 13672 2065 5B       		.byte	0x5b
 13673 2066 93       		.byte	0x93
 13674 2067 04       		.uleb128 0x4
 13675 2068 00000000 		.4byte	0
 13676 206c 00000000 		.4byte	0
 13677              	.LLST172:
 13678 2070 00020000 		.4byte	.LVL786
 13679 2074 32020000 		.4byte	.LVL790
 13680 2078 0300     		.2byte	0x3
 13681 207a 91       		.byte	0x91
 13682 207b 987F     		.sleb128 -104
 13683 207d C2030000 		.4byte	.LVL821
 13684 2081 D0030000 		.4byte	.LVL823
 13685 2085 0300     		.2byte	0x3
 13686 2087 91       		.byte	0x91
 13687 2088 987F     		.sleb128 -104
 13688 208a 00000000 		.4byte	0
 13689 208e 00000000 		.4byte	0
 13690              	.LLST173:
 13691 2092 00020000 		.4byte	.LVL786
 13692 2096 2A020000 		.4byte	.LVL789
 13693 209a 0600     		.2byte	0x6
 13694 209c 54       		.byte	0x54
 13695 209d 93       		.byte	0x93
 13696 209e 04       		.uleb128 0x4
 13697 209f 55       		.byte	0x55
 13698 20a0 93       		.byte	0x93
 13699 20a1 04       		.uleb128 0x4
 13700 20a2 C2030000 		.4byte	.LVL821
 13701 20a6 C6030000 		.4byte	.LVL822
 13702 20aa 0600     		.2byte	0x6
 13703 20ac 54       		.byte	0x54
 13704 20ad 93       		.byte	0x93
 13705 20ae 04       		.uleb128 0x4
 13706 20af 55       		.byte	0x55
 13707 20b0 93       		.byte	0x93
 13708 20b1 04       		.uleb128 0x4
 13709 20b2 00000000 		.4byte	0
 13710 20b6 00000000 		.4byte	0
 13711              	.LLST174:
 13712 20ba 00020000 		.4byte	.LVL786
 13713 20be 32020000 		.4byte	.LVL790
 13714 20c2 0300     		.2byte	0x3
 13715 20c4 91       		.byte	0x91
 13716 20c5 807F     		.sleb128 -128
 13717 20c7 C2030000 		.4byte	.LVL821
 13718 20cb D0030000 		.4byte	.LVL823
ARM GAS  /tmp/ccj4yzJk.s 			page 242


 13719 20cf 0300     		.2byte	0x3
 13720 20d1 91       		.byte	0x91
 13721 20d2 807F     		.sleb128 -128
 13722 20d4 00000000 		.4byte	0
 13723 20d8 00000000 		.4byte	0
 13724              	.LLST175:
 13725 20dc 42030000 		.4byte	.LVL809
 13726 20e0 80030000 		.4byte	.LVL815
 13727 20e4 0300     		.2byte	0x3
 13728 20e6 91       		.byte	0x91
 13729 20e7 40       		.sleb128 -64
 13730 20e8 9F       		.byte	0x9f
 13731 20e9 00000000 		.4byte	0
 13732 20ed 00000000 		.4byte	0
 13733              	.LLST176:
 13734 20f1 42030000 		.4byte	.LVL809
 13735 20f5 80030000 		.4byte	.LVL815
 13736 20f9 0A00     		.2byte	0xa
 13737 20fb 9E       		.byte	0x9e
 13738 20fc 08       		.uleb128 0x8
 13739 20fd 00000000 		.4byte	0
 13740 2101 0000F03F 		.4byte	0x3ff00000
 13741 2105 00000000 		.4byte	0
 13742 2109 00000000 		.4byte	0
 13743              	.LLST177:
 13744 210d 42030000 		.4byte	.LVL809
 13745 2111 80030000 		.4byte	.LVL815
 13746 2115 0200     		.2byte	0x2
 13747 2117 91       		.byte	0x91
 13748 2118 14       		.sleb128 20
 13749 2119 00000000 		.4byte	0
 13750 211d 00000000 		.4byte	0
 13751              	.LLST178:
 13752 2121 80030000 		.4byte	.LVL815
 13753 2125 C2030000 		.4byte	.LVL821
 13754 2129 0400     		.2byte	0x4
 13755 212b 91       		.byte	0x91
 13756 212c A87F     		.sleb128 -88
 13757 212e 9F       		.byte	0x9f
 13758 212f 00000000 		.4byte	0
 13759 2133 00000000 		.4byte	0
 13760              	.LLST179:
 13761 2137 80030000 		.4byte	.LVL815
 13762 213b C2030000 		.4byte	.LVL821
 13763 213f 0A00     		.2byte	0xa
 13764 2141 9E       		.byte	0x9e
 13765 2142 08       		.uleb128 0x8
 13766 2143 00000000 		.4byte	0
 13767 2147 0000F0BF 		.4byte	0xbff00000
 13768 214b 00000000 		.4byte	0
 13769 214f 00000000 		.4byte	0
 13770              	.LLST180:
 13771 2153 80030000 		.4byte	.LVL815
 13772 2157 C2030000 		.4byte	.LVL821
 13773 215b 0200     		.2byte	0x2
 13774 215d 91       		.byte	0x91
 13775 215e 14       		.sleb128 20
ARM GAS  /tmp/ccj4yzJk.s 			page 243


 13776 215f 00000000 		.4byte	0
 13777 2163 00000000 		.4byte	0
 13778              	.LLST181:
 13779 2167 00000000 		.4byte	.LFB11
 13780 216b 02000000 		.4byte	.LCFI21
 13781 216f 0200     		.2byte	0x2
 13782 2171 7D       		.byte	0x7d
 13783 2172 00       		.sleb128 0
 13784 2173 02000000 		.4byte	.LCFI21
 13785 2177 04000000 		.4byte	.LCFI22
 13786 217b 0200     		.2byte	0x2
 13787 217d 7D       		.byte	0x7d
 13788 217e 0C       		.sleb128 12
 13789 217f 04000000 		.4byte	.LCFI22
 13790 2183 20000000 		.4byte	.LFE11
 13791 2187 0200     		.2byte	0x2
 13792 2189 7D       		.byte	0x7d
 13793 218a 28       		.sleb128 40
 13794 218b 00000000 		.4byte	0
 13795 218f 00000000 		.4byte	0
 13796              	.LLST182:
 13797 2193 00000000 		.4byte	.LVL828
 13798 2197 1B000000 		.4byte	.LVL829-1
 13799 219b 0600     		.2byte	0x6
 13800 219d 50       		.byte	0x50
 13801 219e 93       		.byte	0x93
 13802 219f 04       		.uleb128 0x4
 13803 21a0 51       		.byte	0x51
 13804 21a1 93       		.byte	0x93
 13805 21a2 04       		.uleb128 0x4
 13806 21a3 1B000000 		.4byte	.LVL829-1
 13807 21a7 20000000 		.4byte	.LFE11
 13808 21ab 0600     		.2byte	0x6
 13809 21ad F3       		.byte	0xf3
 13810 21ae 03       		.uleb128 0x3
 13811 21af F5       		.byte	0xf5
 13812 21b0 00       		.uleb128 0
 13813 21b1 29       		.uleb128 0x29
 13814 21b2 9F       		.byte	0x9f
 13815 21b3 00000000 		.4byte	0
 13816 21b7 00000000 		.4byte	0
 13817              	.LLST183:
 13818 21bb 00000000 		.4byte	.LVL828
 13819 21bf 1B000000 		.4byte	.LVL829-1
 13820 21c3 0100     		.2byte	0x1
 13821 21c5 52       		.byte	0x52
 13822 21c6 1B000000 		.4byte	.LVL829-1
 13823 21ca 20000000 		.4byte	.LFE11
 13824 21ce 0400     		.2byte	0x4
 13825 21d0 F3       		.byte	0xf3
 13826 21d1 01       		.uleb128 0x1
 13827 21d2 52       		.byte	0x52
 13828 21d3 9F       		.byte	0x9f
 13829 21d4 00000000 		.4byte	0
 13830 21d8 00000000 		.4byte	0
 13831              	.LLST184:
 13832 21dc 00000000 		.4byte	.LVL828
ARM GAS  /tmp/ccj4yzJk.s 			page 244


 13833 21e0 1B000000 		.4byte	.LVL829-1
 13834 21e4 0100     		.2byte	0x1
 13835 21e6 53       		.byte	0x53
 13836 21e7 1B000000 		.4byte	.LVL829-1
 13837 21eb 20000000 		.4byte	.LFE11
 13838 21ef 0400     		.2byte	0x4
 13839 21f1 F3       		.byte	0xf3
 13840 21f2 01       		.uleb128 0x1
 13841 21f3 53       		.byte	0x53
 13842 21f4 9F       		.byte	0x9f
 13843 21f5 00000000 		.4byte	0
 13844 21f9 00000000 		.4byte	0
 13845              		.section	.debug_aranges,"",%progbits
 13846 0000 7C000000 		.4byte	0x7c
 13847 0004 0200     		.2byte	0x2
 13848 0006 00000000 		.4byte	.Ldebug_info0
 13849 000a 04       		.byte	0x4
 13850 000b 00       		.byte	0
 13851 000c 0000     		.2byte	0
 13852 000e 0000     		.2byte	0
 13853 0010 00000000 		.4byte	.LFB0
 13854 0014 A8000000 		.4byte	.LFE0-.LFB0
 13855 0018 00000000 		.4byte	.LFB2
 13856 001c 00060000 		.4byte	.LFE2-.LFB2
 13857 0020 00000000 		.4byte	.LFB1
 13858 0024 28000000 		.4byte	.LFE1-.LFB1
 13859 0028 00000000 		.4byte	.LFB4
 13860 002c 38000000 		.4byte	.LFE4-.LFB4
 13861 0030 00000000 		.4byte	.LFB5
 13862 0034 32000000 		.4byte	.LFE5-.LFB5
 13863 0038 00000000 		.4byte	.LFB6
 13864 003c 4C020000 		.4byte	.LFE6-.LFB6
 13865 0040 00000000 		.4byte	.LFB3
 13866 0044 28000000 		.4byte	.LFE3-.LFB3
 13867 0048 00000000 		.4byte	.LFB7
 13868 004c 14080000 		.4byte	.LFE7-.LFB7
 13869 0050 00000000 		.4byte	.LFB9
 13870 0054 A4030000 		.4byte	.LFE9-.LFB9
 13871 0058 00000000 		.4byte	.LFB8
 13872 005c 1C000000 		.4byte	.LFE8-.LFB8
 13873 0060 00000000 		.4byte	.LFB10
 13874 0064 16070000 		.4byte	.LFE10-.LFB10
 13875 0068 00000000 		.4byte	.LFB12
 13876 006c E2030000 		.4byte	.LFE12-.LFB12
 13877 0070 00000000 		.4byte	.LFB11
 13878 0074 20000000 		.4byte	.LFE11-.LFB11
 13879 0078 00000000 		.4byte	0
 13880 007c 00000000 		.4byte	0
 13881              		.section	.debug_ranges,"",%progbits
 13882              	.Ldebug_ranges0:
 13883 0000 A6000000 		.4byte	.LBB44
 13884 0004 AA000000 		.4byte	.LBE44
 13885 0008 AC000000 		.4byte	.LBB49
 13886 000c B6000000 		.4byte	.LBE49
 13887 0010 B8000000 		.4byte	.LBB50
 13888 0014 2E010000 		.4byte	.LBE50
 13889 0018 36010000 		.4byte	.LBB51
ARM GAS  /tmp/ccj4yzJk.s 			page 245


 13890 001c 4E010000 		.4byte	.LBE51
 13891 0020 00000000 		.4byte	0
 13892 0024 00000000 		.4byte	0
 13893 0028 A6000000 		.4byte	.LBB45
 13894 002c AA000000 		.4byte	.LBE45
 13895 0030 AC000000 		.4byte	.LBB46
 13896 0034 B6000000 		.4byte	.LBE46
 13897 0038 B8000000 		.4byte	.LBB47
 13898 003c 2E010000 		.4byte	.LBE47
 13899 0040 36010000 		.4byte	.LBB48
 13900 0044 4E010000 		.4byte	.LBE48
 13901 0048 00000000 		.4byte	0
 13902 004c 00000000 		.4byte	0
 13903 0050 3A010000 		.4byte	.LBB52
 13904 0054 4A010000 		.4byte	.LBE52
 13905 0058 AA010000 		.4byte	.LBB65
 13906 005c C4010000 		.4byte	.LBE65
 13907 0060 00000000 		.4byte	0
 13908 0064 00000000 		.4byte	0
 13909 0068 52010000 		.4byte	.LBB55
 13910 006c 60010000 		.4byte	.LBE55
 13911 0070 96010000 		.4byte	.LBB64
 13912 0074 AA010000 		.4byte	.LBE64
 13913 0078 C4010000 		.4byte	.LBB66
 13914 007c CA010000 		.4byte	.LBE66
 13915 0080 00000000 		.4byte	0
 13916 0084 00000000 		.4byte	0
 13917 0088 68010000 		.4byte	.LBB59
 13918 008c 76010000 		.4byte	.LBE59
 13919 0090 82010000 		.4byte	.LBB63
 13920 0094 96010000 		.4byte	.LBE63
 13921 0098 CA010000 		.4byte	.LBB67
 13922 009c D0010000 		.4byte	.LBE67
 13923 00a0 00000000 		.4byte	0
 13924 00a4 00000000 		.4byte	0
 13925 00a8 E8000000 		.4byte	.LBB72
 13926 00ac EC000000 		.4byte	.LBE72
 13927 00b0 EE000000 		.4byte	.LBB77
 13928 00b4 F8000000 		.4byte	.LBE77
 13929 00b8 FA000000 		.4byte	.LBB78
 13930 00bc 70010000 		.4byte	.LBE78
 13931 00c0 78010000 		.4byte	.LBB79
 13932 00c4 90010000 		.4byte	.LBE79
 13933 00c8 00000000 		.4byte	0
 13934 00cc 00000000 		.4byte	0
 13935 00d0 E8000000 		.4byte	.LBB73
 13936 00d4 EC000000 		.4byte	.LBE73
 13937 00d8 EE000000 		.4byte	.LBB74
 13938 00dc F8000000 		.4byte	.LBE74
 13939 00e0 FA000000 		.4byte	.LBB75
 13940 00e4 70010000 		.4byte	.LBE75
 13941 00e8 78010000 		.4byte	.LBB76
 13942 00ec 90010000 		.4byte	.LBE76
 13943 00f0 00000000 		.4byte	0
 13944 00f4 00000000 		.4byte	0
 13945 00f8 36000000 		.4byte	.LBB80
 13946 00fc 72000000 		.4byte	.LBE80
ARM GAS  /tmp/ccj4yzJk.s 			page 246


 13947 0100 58020000 		.4byte	.LBB93
 13948 0104 96020000 		.4byte	.LBE93
 13949 0108 00000000 		.4byte	0
 13950 010c 00000000 		.4byte	0
 13951 0110 7E010000 		.4byte	.LBB84
 13952 0114 A2010000 		.4byte	.LBE84
 13953 0118 96030000 		.4byte	.LBB100
 13954 011c A4030000 		.4byte	.LBE100
 13955 0120 00000000 		.4byte	0
 13956 0124 00000000 		.4byte	0
 13957 0128 AA010000 		.4byte	.LBB87
 13958 012c CE010000 		.4byte	.LBE87
 13959 0130 90030000 		.4byte	.LBB99
 13960 0134 96030000 		.4byte	.LBE99
 13961 0138 00000000 		.4byte	0
 13962 013c 00000000 		.4byte	0
 13963 0140 D6010000 		.4byte	.LBB90
 13964 0144 FA010000 		.4byte	.LBE90
 13965 0148 84030000 		.4byte	.LBB98
 13966 014c 88030000 		.4byte	.LBE98
 13967 0150 00000000 		.4byte	0
 13968 0154 00000000 		.4byte	0
 13969 0158 EE000000 		.4byte	.LBB101
 13970 015c F2000000 		.4byte	.LBE101
 13971 0160 F4000000 		.4byte	.LBB106
 13972 0164 FE000000 		.4byte	.LBE106
 13973 0168 00010000 		.4byte	.LBB107
 13974 016c 76010000 		.4byte	.LBE107
 13975 0170 7E010000 		.4byte	.LBB108
 13976 0174 96010000 		.4byte	.LBE108
 13977 0178 00000000 		.4byte	0
 13978 017c 00000000 		.4byte	0
 13979 0180 EE000000 		.4byte	.LBB102
 13980 0184 F2000000 		.4byte	.LBE102
 13981 0188 F4000000 		.4byte	.LBB103
 13982 018c FE000000 		.4byte	.LBE103
 13983 0190 00010000 		.4byte	.LBB104
 13984 0194 76010000 		.4byte	.LBE104
 13985 0198 7E010000 		.4byte	.LBB105
 13986 019c 96010000 		.4byte	.LBE105
 13987 01a0 00000000 		.4byte	0
 13988 01a4 00000000 		.4byte	0
 13989 01a8 36000000 		.4byte	.LBB109
 13990 01ac 7E000000 		.4byte	.LBE109
 13991 01b0 8E020000 		.4byte	.LBB126
 13992 01b4 CC020000 		.4byte	.LBE126
 13993 01b8 00000000 		.4byte	0
 13994 01bc 00000000 		.4byte	0
 13995 01c0 A8010000 		.4byte	.LBB113
 13996 01c4 CC010000 		.4byte	.LBE113
 13997 01c8 D6030000 		.4byte	.LBB133
 13998 01cc E2030000 		.4byte	.LBE133
 13999 01d0 00000000 		.4byte	0
 14000 01d4 00000000 		.4byte	0
 14001 01d8 D4010000 		.4byte	.LBB116
 14002 01dc D8010000 		.4byte	.LBE116
 14003 01e0 DC010000 		.4byte	.LBB120
ARM GAS  /tmp/ccj4yzJk.s 			page 247


 14004 01e4 FC010000 		.4byte	.LBE120
 14005 01e8 D0030000 		.4byte	.LBB132
 14006 01ec D6030000 		.4byte	.LBE132
 14007 01f0 00000000 		.4byte	0
 14008 01f4 00000000 		.4byte	0
 14009 01f8 02020000 		.4byte	.LBB121
 14010 01fc 04020000 		.4byte	.LBE121
 14011 0200 08020000 		.4byte	.LBB125
 14012 0204 2A020000 		.4byte	.LBE125
 14013 0208 C4030000 		.4byte	.LBB131
 14014 020c C8030000 		.4byte	.LBE131
 14015 0210 00000000 		.4byte	0
 14016 0214 00000000 		.4byte	0
 14017 0218 00000000 		.4byte	.LFB0
 14018 021c A8000000 		.4byte	.LFE0
 14019 0220 00000000 		.4byte	.LFB2
 14020 0224 00060000 		.4byte	.LFE2
 14021 0228 00000000 		.4byte	.LFB1
 14022 022c 28000000 		.4byte	.LFE1
 14023 0230 00000000 		.4byte	.LFB4
 14024 0234 38000000 		.4byte	.LFE4
 14025 0238 00000000 		.4byte	.LFB5
 14026 023c 32000000 		.4byte	.LFE5
 14027 0240 00000000 		.4byte	.LFB6
 14028 0244 4C020000 		.4byte	.LFE6
 14029 0248 00000000 		.4byte	.LFB3
 14030 024c 28000000 		.4byte	.LFE3
 14031 0250 00000000 		.4byte	.LFB7
 14032 0254 14080000 		.4byte	.LFE7
 14033 0258 00000000 		.4byte	.LFB9
 14034 025c A4030000 		.4byte	.LFE9
 14035 0260 00000000 		.4byte	.LFB8
 14036 0264 1C000000 		.4byte	.LFE8
 14037 0268 00000000 		.4byte	.LFB10
 14038 026c 16070000 		.4byte	.LFE10
 14039 0270 00000000 		.4byte	.LFB12
 14040 0274 E2030000 		.4byte	.LFE12
 14041 0278 00000000 		.4byte	.LFB11
 14042 027c 20000000 		.4byte	.LFE11
 14043 0280 00000000 		.4byte	0
 14044 0284 00000000 		.4byte	0
 14045              		.section	.debug_line,"",%progbits
 14046              	.Ldebug_line0:
 14047 0000 83050000 		.section	.debug_str,"MS",%progbits,1
 14047      0200E900 
 14047      00000201 
 14047      FB0E0D00 
 14047      01010101 
 14048              	.LASF56:
 14049 0000 6C6E5F72 		.ascii	"ln_rad_to_deg\000"
 14049      61645F74 
 14049      6F5F6465 
 14049      6700
 14050              	.LASF59:
 14051 000e 7365745F 		.ascii	"set_next_rst\000"
 14051      6E657874 
 14051      5F727374 
ARM GAS  /tmp/ccj4yzJk.s 			page 248


 14051      00
 14052              	.LASF29:
 14053 001b 2E2F6C69 		.ascii	"./libnova/src/rise_set.c\000"
 14053      626E6F76 
 14053      612F7372 
 14053      632F7269 
 14053      73655F73 
 14054              	.LASF51:
 14055 0034 6C6E5F67 		.ascii	"ln_get_motion_body_next_rst_horizon_future\000"
 14055      65745F6D 
 14055      6F74696F 
 14055      6E5F626F 
 14055      64795F6E 
 14056              	.LASF53:
 14057 005f 6C6E5F67 		.ascii	"ln_get_apparent_sidereal_time\000"
 14057      65745F61 
 14057      70706172 
 14057      656E745F 
 14057      73696465 
 14058              	.LASF7:
 14059 007d 6C6F6E67 		.ascii	"long long unsigned int\000"
 14059      206C6F6E 
 14059      6720756E 
 14059      7369676E 
 14059      65642069 
 14060              	.LASF22:
 14061 0094 64696666 		.ascii	"diff\000"
 14061      00
 14062              	.LASF21:
 14063 0099 6F626A65 		.ascii	"object\000"
 14063      637400
 14064              	.LASF20:
 14065 00a0 686F7269 		.ascii	"horizon\000"
 14065      7A6F6E00 
 14066              	.LASF33:
 14067 00a8 6C6E5F67 		.ascii	"ln_get_object_next_rst_horizon\000"
 14067      65745F6F 
 14067      626A6563 
 14067      745F6E65 
 14067      78745F72 
 14068              	.LASF6:
 14069 00c7 6C6F6E67 		.ascii	"long long int\000"
 14069      206C6F6E 
 14069      6720696E 
 14069      7400
 14070              	.LASF1:
 14071 00d5 7369676E 		.ascii	"signed char\000"
 14071      65642063 
 14071      68617200 
 14072              	.LASF28:
 14073 00e1 474E5520 		.ascii	"GNU C 4.7.4 20130913 (release) [ARM/embedded-4_7-br"
 14073      4320342E 
 14073      372E3420 
 14073      32303133 
 14073      30393133 
 14074 0114 616E6368 		.ascii	"anch revision 202601]\000"
 14074      20726576 
ARM GAS  /tmp/ccj4yzJk.s 			page 249


 14074      6973696F 
 14074      6E203230 
 14074      32363031 
 14075              	.LASF8:
 14076 012a 6C6F6E67 		.ascii	"long int\000"
 14076      20696E74 
 14076      00
 14077              	.LASF38:
 14078 0133 6765745F 		.ascii	"get_equ_body_coords\000"
 14078      6571755F 
 14078      626F6479 
 14078      5F636F6F 
 14078      72647300 
 14079              	.LASF0:
 14080 0147 646F7562 		.ascii	"double\000"
 14080      6C6500
 14081              	.LASF27:
 14082 014e 616C7473 		.ascii	"alts\000"
 14082      00
 14083              	.LASF30:
 14084 0153 2F426967 		.ascii	"/BigDriver/home/nacho/WORKHOME/programacion/chibiOS"
 14084      44726976 
 14084      65722F68 
 14084      6F6D652F 
 14084      6E616368 
 14085 0186 2F636869 		.ascii	"/chibios/nacho/lx200\000"
 14085      62696F73 
 14085      2F6E6163 
 14085      686F2F6C 
 14085      78323030 
 14086              	.LASF45:
 14087 019b 6C6E5F67 		.ascii	"ln_get_body_next_rst_horizon_future\000"
 14087      65745F62 
 14087      6F64795F 
 14087      6E657874 
 14087      5F727374 
 14088              	.LASF5:
 14089 01bf 756E7369 		.ascii	"unsigned int\000"
 14089      676E6564 
 14089      20696E74 
 14089      00
 14090              	.LASF10:
 14091 01cc 6C6F6E67 		.ascii	"long unsigned int\000"
 14091      20756E73 
 14091      69676E65 
 14091      6420696E 
 14091      7400
 14092              	.LASF39:
 14093 01de 736F6C31 		.ascii	"sol1\000"
 14093      00
 14094              	.LASF40:
 14095 01e3 736F6C32 		.ascii	"sol2\000"
 14095      00
 14096              	.LASF41:
 14097 01e8 736F6C33 		.ascii	"sol3\000"
 14097      00
 14098              	.LASF60:
ARM GAS  /tmp/ccj4yzJk.s 			page 250


 14099 01ed 6C6E5F69 		.ascii	"ln_interpolate3\000"
 14099      6E746572 
 14099      706F6C61 
 14099      74653300 
 14100              	.LASF34:
 14101 01fd 7273745F 		.ascii	"rst_1\000"
 14101      3100
 14102              	.LASF35:
 14103 0203 7273745F 		.ascii	"rst_2\000"
 14103      3200
 14104              	.LASF4:
 14105 0209 73686F72 		.ascii	"short unsigned int\000"
 14105      7420756E 
 14105      7369676E 
 14105      65642069 
 14105      6E7400
 14106              	.LASF57:
 14107 021c 6C6E5F72 		.ascii	"ln_range_degrees\000"
 14107      616E6765 
 14107      5F646567 
 14107      72656573 
 14107      00
 14108              	.LASF43:
 14109 022d 706F7372 		.ascii	"posr\000"
 14109      00
 14110              	.LASF44:
 14111 0232 706F7373 		.ascii	"poss\000"
 14111      00
 14112              	.LASF42:
 14113 0237 706F7374 		.ascii	"post\000"
 14113      00
 14114              	.LASF61:
 14115 023c 6765745F 		.ascii	"get_motion_body_coords_t\000"
 14115      6D6F7469 
 14115      6F6E5F62 
 14115      6F64795F 
 14115      636F6F72 
 14116              	.LASF52:
 14117 0255 6C6E5F67 		.ascii	"ln_get_motion_body_next_rst_horizon\000"
 14117      65745F6D 
 14117      6F74696F 
 14117      6E5F626F 
 14117      64795F6E 
 14118              	.LASF9:
 14119 0279 73697A65 		.ascii	"sizetype\000"
 14119      74797065 
 14119      00
 14120              	.LASF31:
 14121 0282 6C6E5F67 		.ascii	"ln_get_object_rst_horizon\000"
 14121      65745F6F 
 14121      626A6563 
 14121      745F7273 
 14121      745F686F 
 14122              	.LASF13:
 14123 029c 6C6F6E67 		.ascii	"long double\000"
 14123      20646F75 
 14123      626C6500 
ARM GAS  /tmp/ccj4yzJk.s 			page 251


 14124              	.LASF18:
 14125 02a8 7472616E 		.ascii	"transit\000"
 14125      73697400 
 14126              	.LASF47:
 14127 02b0 6C6E5F67 		.ascii	"ln_get_body_next_rst_horizon\000"
 14127      65745F62 
 14127      6F64795F 
 14127      6E657874 
 14127      5F727374 
 14128              	.LASF17:
 14129 02cd 72697365 		.ascii	"rise\000"
 14129      00
 14130              	.LASF12:
 14131 02d2 666C6F61 		.ascii	"float\000"
 14131      7400
 14132              	.LASF25:
 14133 02d8 4A445F55 		.ascii	"JD_UT\000"
 14133      5400
 14134              	.LASF2:
 14135 02de 756E7369 		.ascii	"unsigned char\000"
 14135      676E6564 
 14135      20636861 
 14135      7200
 14136              	.LASF58:
 14137 02ec 6C6E5F67 		.ascii	"ln_get_dynamical_time_diff\000"
 14137      65745F64 
 14137      796E616D 
 14137      6963616C 
 14137      5F74696D 
 14138              	.LASF48:
 14139 0307 6C6E5F67 		.ascii	"ln_get_motion_body_rst_horizon\000"
 14139      65745F6D 
 14139      6F74696F 
 14139      6E5F626F 
 14139      64795F72 
 14140              	.LASF3:
 14141 0326 73686F72 		.ascii	"short int\000"
 14141      7420696E 
 14141      7400
 14142              	.LASF32:
 14143 0330 6C6E5F67 		.ascii	"ln_get_object_rst\000"
 14143      65745F6F 
 14143      626A6563 
 14143      745F7273 
 14143      7400
 14144              	.LASF19:
 14145 0342 6F627365 		.ascii	"observer\000"
 14145      72766572 
 14145      00
 14146              	.LASF36:
 14147 034b 6C6E5F67 		.ascii	"ln_get_object_next_rst\000"
 14147      65745F6F 
 14147      626A6563 
 14147      745F6E65 
 14147      78745F72 
 14148              	.LASF55:
 14149 0362 61636F73 		.ascii	"acos\000"
ARM GAS  /tmp/ccj4yzJk.s 			page 252


 14149      00
 14150              	.LASF26:
 14151 0367 616C7472 		.ascii	"altr\000"
 14151      00
 14152              	.LASF11:
 14153 036c 63686172 		.ascii	"char\000"
 14153      00
 14154              	.LASF15:
 14155 0371 6C6E5F6C 		.ascii	"ln_lnlat_posn\000"
 14155      6E6C6174 
 14155      5F706F73 
 14155      6E00
 14156              	.LASF46:
 14157 037f 6461795F 		.ascii	"day_limit\000"
 14157      6C696D69 
 14157      7400
 14158              	.LASF23:
 14159 0389 63686563 		.ascii	"check_coords\000"
 14159      6B5F636F 
 14159      6F726473 
 14159      00
 14160              	.LASF16:
 14161 0396 6C6E5F72 		.ascii	"ln_rst_time\000"
 14161      73745F74 
 14161      696D6500 
 14162              	.LASF54:
 14163 03a2 6C6E5F64 		.ascii	"ln_deg_to_rad\000"
 14163      65675F74 
 14163      6F5F7261 
 14163      6400
 14164              	.LASF49:
 14165 03b0 6765745F 		.ascii	"get_motion_body_coords\000"
 14165      6D6F7469 
 14165      6F6E5F62 
 14165      6F64795F 
 14165      636F6F72 
 14166              	.LASF37:
 14167 03c7 6C6E5F67 		.ascii	"ln_get_body_rst_horizon\000"
 14167      65745F62 
 14167      6F64795F 
 14167      7273745F 
 14167      686F7269 
 14168              	.LASF24:
 14169 03df 66696E64 		.ascii	"find_next\000"
 14169      5F6E6578 
 14169      7400
 14170              	.LASF14:
 14171 03e9 6C6E5F65 		.ascii	"ln_equ_posn\000"
 14171      71755F70 
 14171      6F736E00 
 14172              	.LASF50:
 14173 03f5 6F726269 		.ascii	"orbit\000"
 14173      7400
 14174              		.ident	"GCC: (GNU Tools for ARM Embedded Processors) 4.7.4 20130913 (release) [ARM/embedded-4_7-br
ARM GAS  /tmp/ccj4yzJk.s 			page 253


DEFINED SYMBOLS
                            *ABS*:0000000000000000 rise_set.c
     /tmp/ccj4yzJk.s:23     .text.check_coords:0000000000000000 $t
     /tmp/ccj4yzJk.s:29     .text.check_coords:0000000000000000 check_coords
     /tmp/ccj4yzJk.s:145    .text.ln_get_object_rst_horizon:0000000000000000 $t
     /tmp/ccj4yzJk.s:151    .text.ln_get_object_rst_horizon:0000000000000000 ln_get_object_rst_horizon
     /tmp/ccj4yzJk.s:753    .text.ln_get_object_rst_horizon:0000000000000428 $d
     /tmp/ccj4yzJk.s:759    .text.ln_get_object_rst_horizon:0000000000000430 $t
     /tmp/ccj4yzJk.s:991    .text.ln_get_object_rst:0000000000000000 $t
     /tmp/ccj4yzJk.s:997    .text.ln_get_object_rst:0000000000000000 ln_get_object_rst
     /tmp/ccj4yzJk.s:1029   .text.ln_get_object_rst:0000000000000020 $d
     /tmp/ccj4yzJk.s:1035   .text.set_next_rst:0000000000000000 $t
     /tmp/ccj4yzJk.s:1041   .text.set_next_rst:0000000000000000 set_next_rst
     /tmp/ccj4yzJk.s:1094   .text.find_next:0000000000000000 $t
     /tmp/ccj4yzJk.s:1100   .text.find_next:0000000000000000 find_next
     /tmp/ccj4yzJk.s:1149   .text.ln_get_object_next_rst_horizon:0000000000000000 $t
     /tmp/ccj4yzJk.s:1155   .text.ln_get_object_next_rst_horizon:0000000000000000 ln_get_object_next_rst_horizon
     /tmp/ccj4yzJk.s:1526   .text.ln_get_object_next_rst:0000000000000000 $t
     /tmp/ccj4yzJk.s:1532   .text.ln_get_object_next_rst:0000000000000000 ln_get_object_next_rst
     /tmp/ccj4yzJk.s:1564   .text.ln_get_object_next_rst:0000000000000020 $d
     /tmp/ccj4yzJk.s:1570   .text.ln_get_body_rst_horizon:0000000000000000 $t
     /tmp/ccj4yzJk.s:1576   .text.ln_get_body_rst_horizon:0000000000000000 ln_get_body_rst_horizon
     /tmp/ccj4yzJk.s:2283   .text.ln_get_body_rst_horizon:0000000000000500 $d
     /tmp/ccj4yzJk.s:2288   .text.ln_get_body_rst_horizon:0000000000000510 $t
     /tmp/ccj4yzJk.s:2680   .text.ln_get_body_next_rst_horizon_future:0000000000000000 $t
     /tmp/ccj4yzJk.s:2686   .text.ln_get_body_next_rst_horizon_future:0000000000000000 ln_get_body_next_rst_horizon_future
     /tmp/ccj4yzJk.s:3223   .text.ln_get_body_next_rst_horizon:0000000000000000 $t
     /tmp/ccj4yzJk.s:3229   .text.ln_get_body_next_rst_horizon:0000000000000000 ln_get_body_next_rst_horizon
     /tmp/ccj4yzJk.s:3262   .text.ln_get_motion_body_rst_horizon:0000000000000000 $t
     /tmp/ccj4yzJk.s:3268   .text.ln_get_motion_body_rst_horizon:0000000000000000 ln_get_motion_body_rst_horizon
     /tmp/ccj4yzJk.s:3978   .text.ln_get_motion_body_rst_horizon:0000000000000500 $d
     /tmp/ccj4yzJk.s:3983   .text.ln_get_motion_body_rst_horizon:0000000000000510 $t
     /tmp/ccj4yzJk.s:4238   .text.ln_get_motion_body_next_rst_horizon_future:0000000000000000 $t
     /tmp/ccj4yzJk.s:4244   .text.ln_get_motion_body_next_rst_horizon_future:0000000000000000 ln_get_motion_body_next_rst_horizon_future
     /tmp/ccj4yzJk.s:4822   .text.ln_get_motion_body_next_rst_horizon:0000000000000000 $t
     /tmp/ccj4yzJk.s:4828   .text.ln_get_motion_body_next_rst_horizon:0000000000000000 ln_get_motion_body_next_rst_horizon
                     .debug_frame:0000000000000010 $d
     /tmp/ccj4yzJk.s:1034   .text.ln_get_object_rst:0000000000000028 $t
     /tmp/ccj4yzJk.s:1569   .text.ln_get_object_next_rst:0000000000000028 $t

UNDEFINED SYMBOLS
__aeabi_dcmpgt
__aeabi_dadd
__aeabi_dsub
__aeabi_dcmplt
__aeabi_d2iz
__aeabi_i2d
__aeabi_dmul
__aeabi_ddiv
ln_get_apparent_sidereal_time
ln_deg_to_rad
sin
cos
acos
ln_rad_to_deg
ln_range_degrees
ln_get_dynamical_time_diff
ARM GAS  /tmp/ccj4yzJk.s 			page 254


ln_interpolate3
