ARM GAS  /tmp/ccJ6l8QU.s 			page 1


   1              		.syntax unified
   2              		.cpu cortex-m4
   3              		.fpu softvfp
   4              		.eabi_attribute 20, 1
   5              		.eabi_attribute 21, 1
   6              		.eabi_attribute 23, 3
   7              		.eabi_attribute 24, 1
   8              		.eabi_attribute 25, 1
   9              		.eabi_attribute 26, 1
  10              		.eabi_attribute 30, 2
  11              		.eabi_attribute 34, 1
  12              		.eabi_attribute 18, 4
  13              		.thumb
  14              		.file	"sidereal_time.c"
  15              		.text
  16              	.Ltext0:
  17              		.cfi_sections	.debug_frame
  18              		.global	__aeabi_dsub
  19              		.global	__aeabi_ddiv
  20              		.global	__aeabi_dmul
  21              		.global	__aeabi_dadd
  22              		.section	.text.ln_get_mean_sidereal_time,"ax",%progbits
  23              		.align	2
  24              		.p2align 4,,15
  25              		.global	ln_get_mean_sidereal_time
  26              		.thumb
  27              		.thumb_func
  28              		.type	ln_get_mean_sidereal_time, %function
  29              	ln_get_mean_sidereal_time:
  30              	.LFB0:
  31              		.file 1 "./libnova/src/sidereal_time.c"
  32              		.loc 1 34 0
  33              		.cfi_startproc
  34              		@ args = 0, pretend = 0, frame = 0
  35              		@ frame_needed = 0, uses_anonymous_args = 0
  36              	.LVL0:
  37 0000 F8B5     		push	{r3, r4, r5, r6, r7, lr}
  38              	.LCFI0:
  39              		.cfi_def_cfa_offset 24
  40              		.cfi_offset 3, -24
  41              		.cfi_offset 4, -20
  42              		.cfi_offset 5, -16
  43              		.cfi_offset 6, -12
  44              		.cfi_offset 7, -8
  45              		.cfi_offset 14, -4
  46              		.loc 1 38 0
  47 0002 27A3     		adr	r3, .L2
  48 0004 D3E90023 		ldrd	r2, [r3]
  49 0008 FFF7FEFF 		bl	__aeabi_dsub
  50              	.LVL1:
  51 000c 26A3     		adr	r3, .L2+8
  52 000e D3E90023 		ldrd	r2, [r3]
  53 0012 0646     		mov	r6, r0
  54 0014 0F46     		mov	r7, r1
  55 0016 FFF7FEFF 		bl	__aeabi_ddiv
  56              	.LVL2:
  57              		.loc 1 41 0
ARM GAS  /tmp/ccJ6l8QU.s 			page 2


  58 001a 25A3     		adr	r3, .L2+16
  59 001c D3E90023 		ldrd	r2, [r3]
  60              		.loc 1 38 0
  61 0020 0446     		mov	r4, r0
  62 0022 0D46     		mov	r5, r1
  63              	.LVL3:
  64              		.loc 1 41 0
  65 0024 3046     		mov	r0, r6
  66 0026 3946     		mov	r1, r7
  67 0028 FFF7FEFF 		bl	__aeabi_dmul
  68              	.LVL4:
  69 002c 22A3     		adr	r3, .L2+24
  70 002e D3E90023 		ldrd	r2, [r3]
  71 0032 FFF7FEFF 		bl	__aeabi_dadd
  72              	.LVL5:
  73 0036 22A3     		adr	r3, .L2+32
  74 0038 D3E90023 		ldrd	r2, [r3]
  75 003c 0646     		mov	r6, r0
  76 003e 0F46     		mov	r7, r1
  77 0040 2046     		mov	r0, r4
  78 0042 2946     		mov	r1, r5
  79 0044 FFF7FEFF 		bl	__aeabi_dmul
  80              	.LVL6:
  81 0048 2246     		mov	r2, r4
  82 004a 2B46     		mov	r3, r5
  83 004c FFF7FEFF 		bl	__aeabi_dmul
  84              	.LVL7:
  85 0050 0246     		mov	r2, r0
  86 0052 0B46     		mov	r3, r1
  87 0054 3046     		mov	r0, r6
  88 0056 3946     		mov	r1, r7
  89 0058 FFF7FEFF 		bl	__aeabi_dadd
  90              	.LVL8:
  91 005c 2246     		mov	r2, r4
  92 005e 0646     		mov	r6, r0
  93 0060 0F46     		mov	r7, r1
  94 0062 2B46     		mov	r3, r5
  95 0064 2046     		mov	r0, r4
  96 0066 2946     		mov	r1, r5
  97 0068 FFF7FEFF 		bl	__aeabi_dmul
  98              	.LVL9:
  99 006c 2246     		mov	r2, r4
 100 006e 2B46     		mov	r3, r5
 101 0070 FFF7FEFF 		bl	__aeabi_dmul
 102              	.LVL10:
 103 0074 14A3     		adr	r3, .L2+40
 104 0076 D3E90023 		ldrd	r2, [r3]
 105 007a FFF7FEFF 		bl	__aeabi_ddiv
 106              	.LVL11:
 107 007e 0246     		mov	r2, r0
 108 0080 0B46     		mov	r3, r1
 109 0082 3046     		mov	r0, r6
 110 0084 3946     		mov	r1, r7
 111 0086 FFF7FEFF 		bl	__aeabi_dsub
 112              	.LVL12:
 113              		.loc 1 44 0
 114 008a FFF7FEFF 		bl	ln_range_degrees
ARM GAS  /tmp/ccJ6l8QU.s 			page 3


 115              	.LVL13:
 116              		.loc 1 47 0
 117 008e 10A3     		adr	r3, .L2+48
 118 0090 D3E90023 		ldrd	r2, [r3]
 119 0094 FFF7FEFF 		bl	__aeabi_dmul
 120              	.LVL14:
 121              		.loc 1 50 0
 122 0098 F8BD     		pop	{r3, r4, r5, r6, r7, pc}
 123              	.L3:
 124 009a 00BFAFF3 		.align	3
 124      0080
 125              	.L2:
 126 00a0 00000080 		.word	2147483648
 127 00a4 2CB44241 		.word	1094890540
 128 00a8 00000000 		.word	0
 129 00ac A0D5E140 		.word	1088542112
 130 00b0 AA392C36 		.word	908868010
 131 00b4 C58F7640 		.word	1081511877
 132 00b8 64315EB1 		.word	2975740260
 133 00bc 5E877140 		.word	1081182046
 134 00c0 7F4B4C8C 		.word	2353810303
 135 00c4 6F6C393F 		.word	1060727919
 136 00c8 00000080 		.word	2147483648
 137 00cc 57758241 		.word	1099068759
 138 00d0 11111111 		.word	286331153
 139 00d4 1111B13F 		.word	1068568849
 140              		.cfi_endproc
 141              	.LFE0:
 142              		.size	ln_get_mean_sidereal_time, .-ln_get_mean_sidereal_time
 143 00d8 AFF30080 		.section	.text.ln_get_apparent_sidereal_time,"ax",%progbits
 143      AFF30080 
 144              		.align	2
 145              		.p2align 4,,15
 146              		.global	ln_get_apparent_sidereal_time
 147              		.thumb
 148              		.thumb_func
 149              		.type	ln_get_apparent_sidereal_time, %function
 150              	ln_get_apparent_sidereal_time:
 151              	.LFB1:
 152              		.loc 1 62 0
 153              		.cfi_startproc
 154              		@ args = 0, pretend = 0, frame = 24
 155              		@ frame_needed = 0, uses_anonymous_args = 0
 156              	.LVL15:
 157 0000 F0B5     		push	{r4, r5, r6, r7, lr}
 158              	.LCFI1:
 159              		.cfi_def_cfa_offset 20
 160              		.cfi_offset 4, -20
 161              		.cfi_offset 5, -16
 162              		.cfi_offset 6, -12
 163              		.cfi_offset 7, -8
 164              		.cfi_offset 14, -4
 165 0002 87B0     		sub	sp, sp, #28
 166              	.LCFI2:
 167              		.cfi_def_cfa_offset 48
 168              		.loc 1 62 0
 169 0004 0646     		mov	r6, r0
ARM GAS  /tmp/ccJ6l8QU.s 			page 4


 170 0006 0F46     		mov	r7, r1
 171              		.loc 1 67 0
 172 0008 FFF7FEFF 		bl	ln_get_mean_sidereal_time
 173              	.LVL16:
 174              		.loc 1 71 0
 175 000c 6A46     		mov	r2, sp
 176              		.loc 1 67 0
 177 000e 0446     		mov	r4, r0
 178 0010 0D46     		mov	r5, r1
 179              	.LVL17:
 180              		.loc 1 71 0
 181 0012 3046     		mov	r0, r6
 182 0014 3946     		mov	r1, r7
 183 0016 FFF7FEFF 		bl	ln_get_nutation
 184              	.LVL18:
 185              		.loc 1 73 0
 186 001a 0023     		movs	r3, #0
 187 001c 0022     		movs	r2, #0
 188 001e C4F22E03 		movt	r3, 16430
 189 0022 DDE90001 		ldrd	r0, [sp]
 190 0026 FFF7FEFF 		bl	__aeabi_ddiv
 191              	.LVL19:
 192 002a 0646     		mov	r6, r0
 193 002c 0F46     		mov	r7, r1
 194 002e DDE90201 		ldrd	r0, [sp, #8]
 195 0032 FFF7FEFF 		bl	ln_deg_to_rad
 196              	.LVL20:
 197 0036 FFF7FEFF 		bl	cos
 198              	.LVL21:
 199 003a 0246     		mov	r2, r0
 200 003c 0B46     		mov	r3, r1
 201              	.LVL22:
 202 003e 3046     		mov	r0, r6
 203 0040 3946     		mov	r1, r7
 204 0042 FFF7FEFF 		bl	__aeabi_dmul
 205              	.LVL23:
 206 0046 0246     		mov	r2, r0
 207 0048 0B46     		mov	r3, r1
 208              		.loc 1 75 0
 209 004a 2046     		mov	r0, r4
 210 004c 2946     		mov	r1, r5
 211 004e FFF7FEFF 		bl	__aeabi_dadd
 212              	.LVL24:
 213              		.loc 1 78 0
 214 0052 07B0     		add	sp, sp, #28
 215 0054 F0BD     		pop	{r4, r5, r6, r7, pc}
 216              		.cfi_endproc
 217              	.LFE1:
 218              		.size	ln_get_apparent_sidereal_time, .-ln_get_apparent_sidereal_time
 219 0056 00BFAFF3 		.text
 219      0080AFF3 
 219      0080
 220              	.Letext0:
 221              		.file 2 "./libnova/src/libnova/ln_types.h"
 222              		.file 3 "./libnova/src/libnova/utility.h"
 223              		.file 4 "./libnova/src/libnova/nutation.h"
 224              		.file 5 "/usr/bin/../lib/gcc/arm-none-eabi/4.7.4/../../../../arm-none-eabi/include/math.h"
ARM GAS  /tmp/ccJ6l8QU.s 			page 5

