ARM GAS  /tmp/cc2ffDAW.s 			page 1


   1              		.syntax unified
   2              		.cpu cortex-m4
   3              		.fpu softvfp
   4              		.eabi_attribute 20, 1
   5              		.eabi_attribute 21, 1
   6              		.eabi_attribute 23, 3
   7              		.eabi_attribute 24, 1
   8              		.eabi_attribute 25, 1
   9              		.eabi_attribute 26, 1
  10              		.eabi_attribute 30, 2
  11              		.eabi_attribute 34, 1
  12              		.eabi_attribute 18, 4
  13              		.thumb
  14              		.file	"solar.c"
  15              		.text
  16              	.Ltext0:
  17              		.cfi_sections	.debug_frame
  18              		.global	__aeabi_dadd
  19              		.section	.text.ln_get_solar_geom_coords,"ax",%progbits
  20              		.align	2
  21              		.p2align 4,,15
  22              		.global	ln_get_solar_geom_coords
  23              		.thumb
  24              		.thumb_func
  25              		.type	ln_get_solar_geom_coords, %function
  26              	ln_get_solar_geom_coords:
  27              	.LFB0:
  28              		.file 1 "./libnova/src/solar.c"
  29              		.loc 1 40 0
  30              		.cfi_startproc
  31              		@ args = 0, pretend = 0, frame = 0
  32              		@ frame_needed = 0, uses_anonymous_args = 0
  33              	.LVL0:
  34 0000 10B5     		push	{r4, lr}
  35              	.LCFI0:
  36              		.cfi_def_cfa_offset 8
  37              		.cfi_offset 4, -8
  38              		.cfi_offset 14, -4
  39              		.loc 1 40 0
  40 0002 1446     		mov	r4, r2
  41              		.loc 1 42 0
  42 0004 FFF7FEFF 		bl	ln_get_earth_helio_coords
  43              	.LVL1:
  44              		.loc 1 44 0
  45 0008 4FF40043 		mov	r3, #32768
  46 000c D4E90001 		ldrd	r0, [r4]
  47 0010 C4F26603 		movt	r3, 16486
  48 0014 0022     		movs	r2, #0
  49 0016 FFF7FEFF 		bl	__aeabi_dadd
  50              	.LVL2:
  51 001a C4E90001 		strd	r0, [r4]
  52              		.loc 1 45 0
  53 001e FFF7FEFF 		bl	ln_range_degrees
  54              	.LVL3:
  55              		.loc 1 46 0
  56 0022 E368     		ldr	r3, [r4, #12]
  57              		.loc 1 45 0
ARM GAS  /tmp/cc2ffDAW.s 			page 2


  58 0024 C4E90001 		strd	r0, [r4]
  59              		.loc 1 46 0
  60 0028 03F10040 		add	r0, r3, #-2147483648
  61 002c E060     		str	r0, [r4, #12]
  62 002e 10BD     		pop	{r4, pc}
  63              		.cfi_endproc
  64              	.LFE0:
  65              		.size	ln_get_solar_geom_coords, .-ln_get_solar_geom_coords
  66              		.global	__aeabi_ddiv
  67              		.global	__aeabi_dsub
  68              		.section	.text.ln_get_solar_equ_coords,"ax",%progbits
  69              		.align	2
  70              		.p2align 4,,15
  71              		.global	ln_get_solar_equ_coords
  72              		.thumb
  73              		.thumb_func
  74              		.type	ln_get_solar_equ_coords, %function
  75              	ln_get_solar_equ_coords:
  76              	.LFB1:
  77              		.loc 1 57 0
  78              		.cfi_startproc
  79              		@ args = 0, pretend = 0, frame = 64
  80              		@ frame_needed = 0, uses_anonymous_args = 0
  81              	.LVL4:
  82 0000 2DE9F041 		push	{r4, r5, r6, r7, r8, lr}
  83              	.LCFI1:
  84              		.cfi_def_cfa_offset 24
  85              		.cfi_offset 4, -24
  86              		.cfi_offset 5, -20
  87              		.cfi_offset 6, -16
  88              		.cfi_offset 7, -12
  89              		.cfi_offset 8, -8
  90              		.cfi_offset 14, -4
  91 0004 92B0     		sub	sp, sp, #72
  92              	.LCFI2:
  93              		.cfi_def_cfa_offset 96
  94              		.loc 1 57 0
  95 0006 0446     		mov	r4, r0
  96 0008 0D46     		mov	r5, r1
  97 000a 9046     		mov	r8, r2
  98              		.loc 1 64 0
  99 000c 06AA     		add	r2, sp, #24
 100              	.LVL5:
 101 000e FFF7FEFF 		bl	ln_get_solar_geom_coords
 102              	.LVL6:
 103              		.loc 1 67 0
 104 0012 2046     		mov	r0, r4
 105 0014 2946     		mov	r1, r5
 106 0016 0CAA     		add	r2, sp, #48
 107 0018 FFF7FEFF 		bl	ln_get_nutation
 108              	.LVL7:
 109              		.loc 1 68 0
 110 001c DDE90601 		ldrd	r0, [sp, #24]
 111 0020 DDE90C23 		ldrd	r2, [sp, #48]
 112 0024 FFF7FEFF 		bl	__aeabi_dadd
 113              	.LVL8:
 114              		.loc 1 71 0
ARM GAS  /tmp/cc2ffDAW.s 			page 3


 115 0028 DDE90A23 		ldrd	r2, [sp, #40]
 116              	.LVL9:
 117              		.loc 1 68 0
 118 002c 0646     		mov	r6, r0
 119 002e 0F46     		mov	r7, r1
 120              		.loc 1 71 0
 121 0030 0FA1     		adr	r1, .L3
 122 0032 D1E90001 		ldrd	r0, [r1]
 123 0036 FFF7FEFF 		bl	__aeabi_ddiv
 124              	.LVL10:
 125 003a 0246     		mov	r2, r0
 126 003c 0B46     		mov	r3, r1
 127              		.loc 1 72 0
 128 003e 3046     		mov	r0, r6
 129 0040 3946     		mov	r1, r7
 130 0042 FFF7FEFF 		bl	__aeabi_dsub
 131              	.LVL11:
 132              		.loc 1 77 0
 133 0046 2246     		mov	r2, r4
 134 0048 2B46     		mov	r3, r5
 135              		.loc 1 75 0
 136 004a DDE90845 		ldrd	r4, [sp, #32]
 137              		.loc 1 72 0
 138 004e 0646     		mov	r6, r0
 139 0050 0F46     		mov	r7, r1
 140              		.loc 1 76 0
 141 0052 12A8     		add	r0, sp, #72
 142 0054 60E91067 		strd	r6, [r0, #-64]!
 143              		.loc 1 77 0
 144 0058 CDF80080 		str	r8, [sp, #0]
 145              		.loc 1 72 0
 146 005c CDE90667 		strd	r6, [sp, #24]
 147              		.loc 1 75 0
 148 0060 CDE90445 		strd	r4, [sp, #16]
 149              		.loc 1 77 0
 150 0064 FFF7FEFF 		bl	ln_get_equ_from_ecl
 151              	.LVL12:
 152              		.loc 1 78 0
 153 0068 12B0     		add	sp, sp, #72
 154 006a BDE8F081 		pop	{r4, r5, r6, r7, r8, pc}
 155              	.L4:
 156 006e 00BF     		.align	3
 157              	.L3:
 158 0070 4EB7540C 		.word	206878542
 159 0074 F993F03E 		.word	1055953913
 160              		.cfi_endproc
 161              	.LFE1:
 162              		.size	ln_get_solar_equ_coords, .-ln_get_solar_equ_coords
 163 0078 AFF30080 		.section	.text.ln_get_solar_ecl_coords,"ax",%progbits
 163      AFF30080 
 164              		.align	2
 165              		.p2align 4,,15
 166              		.global	ln_get_solar_ecl_coords
 167              		.thumb
 168              		.thumb_func
 169              		.type	ln_get_solar_ecl_coords, %function
 170              	ln_get_solar_ecl_coords:
ARM GAS  /tmp/cc2ffDAW.s 			page 4


 171              	.LFB2:
 172              		.loc 1 88 0
 173              		.cfi_startproc
 174              		@ args = 0, pretend = 0, frame = 48
 175              		@ frame_needed = 0, uses_anonymous_args = 0
 176              	.LVL13:
 177 0000 70B5     		push	{r4, r5, r6, lr}
 178              	.LCFI3:
 179              		.cfi_def_cfa_offset 16
 180              		.cfi_offset 4, -16
 181              		.cfi_offset 5, -12
 182              		.cfi_offset 6, -8
 183              		.cfi_offset 14, -4
 184 0002 8CB0     		sub	sp, sp, #48
 185              	.LCFI4:
 186              		.cfi_def_cfa_offset 64
 187              		.loc 1 88 0
 188 0004 1646     		mov	r6, r2
 189 0006 0446     		mov	r4, r0
 190 0008 0D46     		mov	r5, r1
 191              		.loc 1 94 0
 192 000a 6A46     		mov	r2, sp
 193              	.LVL14:
 194 000c FFF7FEFF 		bl	ln_get_solar_geom_coords
 195              	.LVL15:
 196              		.loc 1 97 0
 197 0010 2046     		mov	r0, r4
 198 0012 2946     		mov	r1, r5
 199 0014 06AA     		add	r2, sp, #24
 200 0016 FFF7FEFF 		bl	ln_get_nutation
 201              	.LVL16:
 202              		.loc 1 98 0
 203 001a DDE90623 		ldrd	r2, [sp, #24]
 204 001e DDE90001 		ldrd	r0, [sp]
 205 0022 FFF7FEFF 		bl	__aeabi_dadd
 206              	.LVL17:
 207              		.loc 1 101 0
 208 0026 DDE90423 		ldrd	r2, [sp, #16]
 209              	.LVL18:
 210              		.loc 1 98 0
 211 002a 0446     		mov	r4, r0
 212 002c 0D46     		mov	r5, r1
 213              		.loc 1 101 0
 214 002e 0AA1     		adr	r1, .L6
 215 0030 D1E90001 		ldrd	r0, [r1]
 216 0034 FFF7FEFF 		bl	__aeabi_ddiv
 217              	.LVL19:
 218 0038 0246     		mov	r2, r0
 219 003a 0B46     		mov	r3, r1
 220              		.loc 1 102 0
 221 003c 2046     		mov	r0, r4
 222 003e 2946     		mov	r1, r5
 223 0040 FFF7FEFF 		bl	__aeabi_dsub
 224              	.LVL20:
 225              		.loc 1 104 0
 226 0044 C6E90001 		strd	r0, [r6]
 227              		.loc 1 105 0
ARM GAS  /tmp/cc2ffDAW.s 			page 5


 228 0048 DDE90201 		ldrd	r0, [sp, #8]
 229 004c C6E90201 		strd	r0, [r6, #8]
 230              		.loc 1 106 0
 231 0050 0CB0     		add	sp, sp, #48
 232 0052 70BD     		pop	{r4, r5, r6, pc}
 233              	.L7:
 234 0054 AFF30080 		.align	3
 235              	.L6:
 236 0058 4EB7540C 		.word	206878542
 237 005c F993F03E 		.word	1055953913
 238              		.cfi_endproc
 239              	.LFE2:
 240              		.size	ln_get_solar_ecl_coords, .-ln_get_solar_ecl_coords
 241              		.section	.text.ln_get_solar_geo_coords,"ax",%progbits
 242              		.align	2
 243              		.p2align 4,,15
 244              		.global	ln_get_solar_geo_coords
 245              		.thumb
 246              		.thumb_func
 247              		.type	ln_get_solar_geo_coords, %function
 248              	ln_get_solar_geo_coords:
 249              	.LFB3:
 250              		.loc 1 117 0
 251              		.cfi_startproc
 252              		@ args = 0, pretend = 0, frame = 24
 253              		@ frame_needed = 0, uses_anonymous_args = 0
 254              	.LVL21:
 255 0000 10B5     		push	{r4, lr}
 256              	.LCFI5:
 257              		.cfi_def_cfa_offset 8
 258              		.cfi_offset 4, -8
 259              		.cfi_offset 14, -4
 260 0002 86B0     		sub	sp, sp, #24
 261              	.LCFI6:
 262              		.cfi_def_cfa_offset 32
 263              		.loc 1 117 0
 264 0004 1446     		mov	r4, r2
 265              		.loc 1 120 0
 266 0006 6A46     		mov	r2, sp
 267              	.LVL22:
 268 0008 FFF7FEFF 		bl	ln_get_earth_helio_coords
 269              	.LVL23:
 270              		.loc 1 123 0
 271 000c 6846     		mov	r0, sp
 272 000e 2146     		mov	r1, r4
 273 0010 FFF7FEFF 		bl	ln_get_rect_from_helio
 274              	.LVL24:
 275              		.loc 1 124 0
 276 0014 6168     		ldr	r1, [r4, #4]
 277              		.loc 1 125 0
 278 0016 E268     		ldr	r2, [r4, #12]
 279              		.loc 1 126 0
 280 0018 6369     		ldr	r3, [r4, #20]
 281              		.loc 1 124 0
 282 001a 01F10040 		add	r0, r1, #-2147483648
 283              		.loc 1 125 0
 284 001e 02F10041 		add	r1, r2, #-2147483648
ARM GAS  /tmp/cc2ffDAW.s 			page 6


 285              		.loc 1 126 0
 286 0022 03F10042 		add	r2, r3, #-2147483648
 287              		.loc 1 124 0
 288 0026 6060     		str	r0, [r4, #4]
 289              		.loc 1 125 0
 290 0028 E160     		str	r1, [r4, #12]
 291              		.loc 1 126 0
 292 002a 6261     		str	r2, [r4, #20]
 293              		.loc 1 127 0
 294 002c 06B0     		add	sp, sp, #24
 295 002e 10BD     		pop	{r4, pc}
 296              		.cfi_endproc
 297              	.LFE3:
 298              		.size	ln_get_solar_geo_coords, .-ln_get_solar_geo_coords
 299              		.section	.text.ln_get_solar_rst_horizon,"ax",%progbits
 300              		.align	2
 301              		.p2align 4,,15
 302              		.global	ln_get_solar_rst_horizon
 303              		.thumb
 304              		.thumb_func
 305              		.type	ln_get_solar_rst_horizon, %function
 306              	ln_get_solar_rst_horizon:
 307              	.LFB4:
 308              		.loc 1 130 0
 309              		.cfi_startproc
 310              		@ args = 12, pretend = 0, frame = 0
 311              		@ frame_needed = 0, uses_anonymous_args = 0
 312              		@ link register save eliminated.
 313              	.LVL25:
 314              		.loc 1 131 0
 315 0000 40F20003 		movw	r3, #:lower16:ln_get_solar_equ_coords
 316 0004 C0F20003 		movt	r3, #:upper16:ln_get_solar_equ_coords
 317              		.loc 1 132 0
 318              		.loc 1 131 0
 319 0008 FFF7FEBF 		b	ln_get_body_rst_horizon
 320              	.LVL26:
 321              		.cfi_endproc
 322              	.LFE4:
 323              		.size	ln_get_solar_rst_horizon, .-ln_get_solar_rst_horizon
 324 000c AFF30080 		.section	.text.ln_get_solar_rst,"ax",%progbits
 325              		.align	2
 326              		.p2align 4,,15
 327              		.global	ln_get_solar_rst
 328              		.thumb
 329              		.thumb_func
 330              		.type	ln_get_solar_rst, %function
 331              	ln_get_solar_rst:
 332              	.LFB5:
 333              		.loc 1 140 0
 334              		.cfi_startproc
 335              		@ args = 0, pretend = 0, frame = 0
 336              		@ frame_needed = 0, uses_anonymous_args = 0
 337              	.LVL27:
 338 0000 30B5     		push	{r4, r5, lr}
 339              	.LCFI7:
 340              		.cfi_def_cfa_offset 12
 341              		.cfi_offset 4, -12
ARM GAS  /tmp/cc2ffDAW.s 			page 7


 342              		.cfi_offset 5, -8
 343              		.cfi_offset 14, -4
 344              		.loc 1 141 0
 345 0002 05A5     		adr	r5, .L11
 346 0004 D5E90045 		ldrd	r4, [r5]
 347              		.loc 1 140 0
 348 0008 85B0     		sub	sp, sp, #20
 349              	.LCFI8:
 350              		.cfi_def_cfa_offset 32
 351              		.loc 1 141 0
 352 000a CDE90045 		strd	r4, [sp]
 353 000e 0293     		str	r3, [sp, #8]
 354 0010 FFF7FEFF 		bl	ln_get_solar_rst_horizon
 355              	.LVL28:
 356              		.loc 1 142 0
 357 0014 05B0     		add	sp, sp, #20
 358 0016 30BD     		pop	{r4, r5, pc}
 359              	.L12:
 360              		.align	3
 361              	.L11:
 362 0018 B537F8C2 		.word	3271047093
 363 001c 64AAEABF 		.word	-1075139996
 364              		.cfi_endproc
 365              	.LFE5:
 366              		.size	ln_get_solar_rst, .-ln_get_solar_rst
 367              		.section	.text.ln_get_solar_sdiam,"ax",%progbits
 368              		.align	2
 369              		.p2align 4,,15
 370              		.global	ln_get_solar_sdiam
 371              		.thumb
 372              		.thumb_func
 373              		.type	ln_get_solar_sdiam, %function
 374              	ln_get_solar_sdiam:
 375              	.LFB6:
 376              		.loc 1 152 0
 377              		.cfi_startproc
 378              		@ args = 0, pretend = 0, frame = 0
 379              		@ frame_needed = 0, uses_anonymous_args = 0
 380              	.LVL29:
 381 0000 08B5     		push	{r3, lr}
 382              	.LCFI9:
 383              		.cfi_def_cfa_offset 8
 384              		.cfi_offset 3, -8
 385              		.cfi_offset 14, -4
 386              		.loc 1 156 0
 387 0002 FFF7FEFF 		bl	ln_get_earth_solar_dist
 388              	.LVL30:
 389 0006 0246     		mov	r2, r0
 390 0008 0B46     		mov	r3, r1
 391              	.LVL31:
 392              		.loc 1 157 0
 393 000a 03A1     		adr	r1, .L14
 394 000c D1E90001 		ldrd	r0, [r1]
 395 0010 FFF7FEFF 		bl	__aeabi_ddiv
 396              	.LVL32:
 397              		.loc 1 158 0
 398 0014 08BD     		pop	{r3, pc}
ARM GAS  /tmp/cc2ffDAW.s 			page 8


 399              	.L15:
 400 0016 00BF     		.align	3
 401              	.L14:
 402 0018 D7A3703D 		.word	1030792151
 403 001c 0AFD8D40 		.word	1083047178
 404              		.cfi_endproc
 405              	.LFE6:
 406              		.size	ln_get_solar_sdiam, .-ln_get_solar_sdiam
 407              		.text
 408              	.Letext0:
 409              		.file 2 "./libnova/src/libnova/ln_types.h"
 410              		.file 3 "./libnova/src/libnova/earth.h"
 411              		.file 4 "./libnova/src/libnova/nutation.h"
 412              		.file 5 "./libnova/src/libnova/transform.h"
 413              		.file 6 "./libnova/src/libnova/utility.h"
 414              		.file 7 "./libnova/src/libnova/rise_set.h"