ARM GAS  /tmp/ccAjgNpm.s 			page 1


   1              		.syntax unified
   2              		.cpu cortex-m4
   3              		.fpu softvfp
   4              		.eabi_attribute 20, 1
   5              		.eabi_attribute 21, 1
   6              		.eabi_attribute 23, 3
   7              		.eabi_attribute 24, 1
   8              		.eabi_attribute 25, 1
   9              		.eabi_attribute 26, 1
  10              		.eabi_attribute 30, 2
  11              		.eabi_attribute 34, 1
  12              		.eabi_attribute 18, 4
  13              		.thumb
  14              		.file	"testqueues.c"
  15              		.text
  16              	.Ltext0:
  17              		.cfi_sections	.debug_frame
  18              		.section	.text.notify,"ax",%progbits
  19              		.align	2
  20              		.p2align 4,,15
  21              		.thumb
  22              		.thumb_func
  23              		.type	notify, %function
  24              	notify:
  25              	.LFB7:
  26              		.file 1 "../../test/testqueues.c"
  27              		.loc 1 61 0
  28              		.cfi_startproc
  29              		@ args = 0, pretend = 0, frame = 0
  30              		@ frame_needed = 0, uses_anonymous_args = 0
  31              		@ link register save eliminated.
  32              	.LVL0:
  33 0000 7047     		bx	lr
  34              		.cfi_endproc
  35              	.LFE7:
  36              		.size	notify, .-notify
  37 0002 00BFAFF3 		.section	.text.thread2,"ax",%progbits
  37      0080AFF3 
  37      0080AFF3 
  37      0080
  38              		.align	2
  39              		.p2align 4,,15
  40              		.thumb
  41              		.thumb_func
  42              		.type	thread2, %function
  43              	thread2:
  44              	.LFB12:
  45              		.loc 1 174 0
  46              		.cfi_startproc
  47              		@ args = 0, pretend = 0, frame = 0
  48              		@ frame_needed = 0, uses_anonymous_args = 0
  49              	.LVL1:
  50              		.loc 1 177 0
  51 0000 40F20000 		movw	r0, #:lower16:.LANCHOR0
  52              	.LVL2:
  53              		.loc 1 174 0
  54 0004 08B5     		push	{r3, lr}
ARM GAS  /tmp/ccAjgNpm.s 			page 2


  55              	.LCFI0:
  56              		.cfi_def_cfa_offset 8
  57              		.cfi_offset 3, -8
  58              		.cfi_offset 14, -4
  59              		.loc 1 177 0
  60 0006 0021     		movs	r1, #0
  61 0008 C822     		movs	r2, #200
  62 000a C0F20000 		movt	r0, #:upper16:.LANCHOR0
  63 000e FFF7FEFF 		bl	chOQPutTimeout
  64              	.LVL3:
  65              		.loc 1 179 0
  66 0012 0020     		movs	r0, #0
  67 0014 08BD     		pop	{r3, pc}
  68              		.cfi_endproc
  69              	.LFE12:
  70              		.size	thread2, .-thread2
  71 0016 00BFAFF3 		.section	.text.queues2_setup,"ax",%progbits
  71      0080AFF3 
  71      0080
  72              		.align	2
  73              		.p2align 4,,15
  74              		.thumb
  75              		.thumb_func
  76              		.type	queues2_setup, %function
  77              	queues2_setup:
  78              	.LFB11:
  79              		.loc 1 169 0
  80              		.cfi_startproc
  81              		@ args = 0, pretend = 0, frame = 0
  82              		@ frame_needed = 0, uses_anonymous_args = 0
  83 0000 00B5     		push	{lr}
  84              	.LCFI1:
  85              		.cfi_def_cfa_offset 4
  86              		.cfi_offset 14, -4
  87              		.loc 1 171 0
  88 0002 40F20003 		movw	r3, #:lower16:wa
  89              		.loc 1 169 0
  90 0006 83B0     		sub	sp, sp, #12
  91              	.LCFI2:
  92              		.cfi_def_cfa_offset 16
  93              		.loc 1 171 0
  94 0008 C0F20003 		movt	r3, #:upper16:wa
  95 000c 0020     		movs	r0, #0
  96 000e 1968     		ldr	r1, [r3, #0]
  97 0010 0090     		str	r0, [sp, #0]
  98 0012 40F20003 		movw	r3, #:lower16:notify
  99 0016 40F20000 		movw	r0, #:lower16:.LANCHOR0
 100 001a C0F20000 		movt	r0, #:upper16:.LANCHOR0
 101 001e 0422     		movs	r2, #4
 102 0020 C0F20003 		movt	r3, #:upper16:notify
 103 0024 FFF7FEFF 		bl	chOQInit
 104              	.LVL4:
 105              		.loc 1 172 0
 106 0028 03B0     		add	sp, sp, #12
 107 002a 00BD     		pop	{pc}
 108              		.cfi_endproc
 109              	.LFE11:
ARM GAS  /tmp/ccAjgNpm.s 			page 3


 110              		.size	queues2_setup, .-queues2_setup
 111 002c AFF30080 		.section	.text.thread1,"ax",%progbits
 112              		.align	2
 113              		.p2align 4,,15
 114              		.thumb
 115              		.thumb_func
 116              		.type	thread1, %function
 117              	thread1:
 118              	.LFB9:
 119              		.loc 1 87 0
 120              		.cfi_startproc
 121              		@ args = 0, pretend = 0, frame = 0
 122              		@ frame_needed = 0, uses_anonymous_args = 0
 123              	.LVL5:
 124              		.loc 1 90 0
 125 0000 40F20000 		movw	r0, #:lower16:.LANCHOR1
 126              	.LVL6:
 127              		.loc 1 87 0
 128 0004 08B5     		push	{r3, lr}
 129              	.LCFI3:
 130              		.cfi_def_cfa_offset 8
 131              		.cfi_offset 3, -8
 132              		.cfi_offset 14, -4
 133              		.loc 1 90 0
 134 0006 C821     		movs	r1, #200
 135 0008 C0F20000 		movt	r0, #:upper16:.LANCHOR1
 136 000c FFF7FEFF 		bl	chIQGetTimeout
 137              	.LVL7:
 138              		.loc 1 92 0
 139 0010 0020     		movs	r0, #0
 140 0012 08BD     		pop	{r3, pc}
 141              		.cfi_endproc
 142              	.LFE9:
 143              		.size	thread1, .-thread1
 144 0014 AFF30080 		.section	.text.queues1_setup,"ax",%progbits
 144      AFF30080 
 144      AFF30080 
 145              		.align	2
 146              		.p2align 4,,15
 147              		.thumb
 148              		.thumb_func
 149              		.type	queues1_setup, %function
 150              	queues1_setup:
 151              	.LFB8:
 152              		.loc 1 82 0
 153              		.cfi_startproc
 154              		@ args = 0, pretend = 0, frame = 0
 155              		@ frame_needed = 0, uses_anonymous_args = 0
 156 0000 00B5     		push	{lr}
 157              	.LCFI4:
 158              		.cfi_def_cfa_offset 4
 159              		.cfi_offset 14, -4
 160              		.loc 1 84 0
 161 0002 40F20003 		movw	r3, #:lower16:wa
 162              		.loc 1 82 0
 163 0006 83B0     		sub	sp, sp, #12
 164              	.LCFI5:
ARM GAS  /tmp/ccAjgNpm.s 			page 4


 165              		.cfi_def_cfa_offset 16
 166              		.loc 1 84 0
 167 0008 C0F20003 		movt	r3, #:upper16:wa
 168 000c 0020     		movs	r0, #0
 169 000e 1968     		ldr	r1, [r3, #0]
 170 0010 0090     		str	r0, [sp, #0]
 171 0012 40F20003 		movw	r3, #:lower16:notify
 172 0016 40F20000 		movw	r0, #:lower16:.LANCHOR1
 173 001a C0F20000 		movt	r0, #:upper16:.LANCHOR1
 174 001e 0422     		movs	r2, #4
 175 0020 C0F20003 		movt	r3, #:upper16:notify
 176 0024 FFF7FEFF 		bl	chIQInit
 177              	.LVL8:
 178              		.loc 1 85 0
 179 0028 03B0     		add	sp, sp, #12
 180 002a 00BD     		pop	{pc}
 181              		.cfi_endproc
 182              	.LFE8:
 183              		.size	queues1_setup, .-queues1_setup
 184 002c AFF30080 		.section	.text.queues2_execute,"ax",%progbits
 185              		.align	2
 186              		.p2align 4,,15
 187              		.thumb
 188              		.thumb_func
 189              		.type	queues2_execute, %function
 190              	queues2_execute:
 191              	.LFB13:
 192              		.loc 1 181 0
 193              		.cfi_startproc
 194              		@ args = 0, pretend = 0, frame = 0
 195              		@ frame_needed = 0, uses_anonymous_args = 0
 196 0000 2DE9F041 		push	{r4, r5, r6, r7, r8, lr}
 197              	.LCFI6:
 198              		.cfi_def_cfa_offset 24
 199              		.cfi_offset 4, -24
 200              		.cfi_offset 5, -20
 201              		.cfi_offset 6, -16
 202              		.cfi_offset 7, -12
 203              		.cfi_offset 8, -8
 204              		.cfi_offset 14, -4
 205              	.LBB96:
 206              		.loc 1 186 0
 207 0004 2023     		movs	r3, #32
 208              	.LVL9:
 209              	.LBE96:
 210              		.loc 1 181 0
 211 0006 82B0     		sub	sp, sp, #8
 212              	.LCFI7:
 213              		.cfi_def_cfa_offset 32
 214              	.LBB97:
 215              		.loc 1 186 0
 216              	@ 186 "../../test/testqueues.c" 1
 217 0008 83F31188 		msr     BASEPRI, r3
 218              	@ 0 "" 2
 219              	.LVL10:
 220              		.thumb
 221              	.LBE97:
ARM GAS  /tmp/ccAjgNpm.s 			page 5


 222 000c AA4D     		ldr	r5, .L27
 223 000e 6A69     		ldr	r2, [r5, #20]
 224 0010 AB69     		ldr	r3, [r5, #24]
 225              	.LVL11:
 226 0012 9A42     		cmp	r2, r3
 227 0014 00F09780 		beq	.L25
 228 0018 0021     		movs	r1, #0
 229              	.L7:
 230              		.loc 1 186 0 is_stmt 0 discriminator 4
 231 001a 0120     		movs	r0, #1
 232 001c FFF7FEFF 		bl	_test_assert
 233              	.LVL12:
 234 0020 0646     		mov	r6, r0
 235 0022 0028     		cmp	r0, #0
 236 0024 68D1     		bne	.L22
 237              	.LBB98:
 238              	.LBB99:
 239              	.LBB100:
 240              		.loc 1 186 0
 241 0026 0346     		mov	r3, r0
 242              	.LVL13:
 243              	@ 186 "../../test/testqueues.c" 1
 244 0028 83F31188 		msr     BASEPRI, r3
 245              	@ 0 "" 2
 246              	.LVL14:
 247              		.thumb
 248              	.LBE100:
 249              		.loc 1 190 0 is_stmt 1
 250 002c A24C     		ldr	r4, .L27
 251 002e 4121     		movs	r1, #65
 252 0030 2046     		mov	r0, r4
 253 0032 4FF0FF32 		mov	r2, #-1
 254 0036 FFF7FEFF 		bl	chOQPutTimeout
 255              	.LVL15:
 256 003a 4221     		movs	r1, #66
 257 003c 2046     		mov	r0, r4
 258 003e 4FF0FF32 		mov	r2, #-1
 259 0042 FFF7FEFF 		bl	chOQPutTimeout
 260              	.LVL16:
 261 0046 4321     		movs	r1, #67
 262 0048 2046     		mov	r0, r4
 263 004a 4FF0FF32 		mov	r2, #-1
 264 004e FFF7FEFF 		bl	chOQPutTimeout
 265              	.LVL17:
 266 0052 2046     		mov	r0, r4
 267 0054 4421     		movs	r1, #68
 268 0056 4FF0FF32 		mov	r2, #-1
 269 005a FFF7FEFF 		bl	chOQPutTimeout
 270              	.LVL18:
 271              	.LBB101:
 272              		.loc 1 191 0
 273 005e 2023     		movs	r3, #32
 274              	.LVL19:
 275              	@ 191 "../../test/testqueues.c" 1
 276 0060 83F31188 		msr     BASEPRI, r3
 277              	@ 0 "" 2
 278              	.LVL20:
ARM GAS  /tmp/ccAjgNpm.s 			page 6


 279              		.thumb
 280              	.LBE101:
 281 0064 AD68     		ldr	r5, [r5, #8]
 282 0066 0220     		movs	r0, #2
 283 0068 D5F10101 		rsbs	r1, r5, #1
 284 006c 38BF     		it	cc
 285 006e 0021     		movcc	r1, #0
 286 0070 FFF7FEFF 		bl	_test_assert
 287              	.LVL21:
 288 0074 0546     		mov	r5, r0
 289 0076 0028     		cmp	r0, #0
 290 0078 44D1     		bne	.L23
 291              	.LBB102:
 292 007a 0346     		mov	r3, r0
 293              	.LVL22:
 294              	@ 191 "../../test/testqueues.c" 1
 295 007c 83F31188 		msr     BASEPRI, r3
 296              	@ 0 "" 2
 297              	.LVL23:
 298              		.thumb
 299              	.LBE102:
 300              	.LBB103:
 301              	.LBB104:
 302              		.loc 1 197 0
 303 0080 2023     		movs	r3, #32
 304              	.LVL24:
 305              	@ 197 "../../test/testqueues.c" 1
 306 0082 83F31188 		msr     BASEPRI, r3
 307              	@ 0 "" 2
 308              	.LVL25:
 309              		.thumb
 310              	.LBE104:
 311              		.loc 1 198 0
 312 0086 2046     		mov	r0, r4
 313 0088 FFF7FEFF 		bl	chOQGetI
 314              	.LVL26:
 315              	.LBB105:
 316              		.loc 1 199 0
 317 008c 2B46     		mov	r3, r5
 318              	.LVL27:
 319              	@ 199 "../../test/testqueues.c" 1
 320 008e 83F31188 		msr     BASEPRI, r3
 321              	@ 0 "" 2
 322              	.LVL28:
 323              		.thumb
 324              	.LBE105:
 325              		.loc 1 200 0
 326 0092 C0B2     		uxtb	r0, r0
 327              	.LVL29:
 328 0094 FFF7FEFF 		bl	test_emit_token
 329              	.LVL30:
 330              	.LBB106:
 331              		.loc 1 197 0
 332 0098 2023     		movs	r3, #32
 333              	@ 197 "../../test/testqueues.c" 1
 334 009a 83F31188 		msr     BASEPRI, r3
 335              	@ 0 "" 2
ARM GAS  /tmp/ccAjgNpm.s 			page 7


 336              	.LVL31:
 337              		.thumb
 338              	.LBE106:
 339              		.loc 1 198 0
 340 009e 2046     		mov	r0, r4
 341 00a0 FFF7FEFF 		bl	chOQGetI
 342              	.LVL32:
 343              	.LBB107:
 344              		.loc 1 199 0
 345 00a4 2B46     		mov	r3, r5
 346              	@ 199 "../../test/testqueues.c" 1
 347 00a6 83F31188 		msr     BASEPRI, r3
 348              	@ 0 "" 2
 349              	.LVL33:
 350              		.thumb
 351              	.LBE107:
 352              		.loc 1 200 0
 353 00aa C0B2     		uxtb	r0, r0
 354              	.LVL34:
 355 00ac FFF7FEFF 		bl	test_emit_token
 356              	.LVL35:
 357              	.LBB108:
 358              		.loc 1 197 0
 359 00b0 2023     		movs	r3, #32
 360              	@ 197 "../../test/testqueues.c" 1
 361 00b2 83F31188 		msr     BASEPRI, r3
 362              	@ 0 "" 2
 363              	.LVL36:
 364              		.thumb
 365              	.LBE108:
 366              		.loc 1 198 0
 367 00b6 2046     		mov	r0, r4
 368 00b8 FFF7FEFF 		bl	chOQGetI
 369              	.LVL37:
 370              	.LBB109:
 371              		.loc 1 199 0
 372 00bc 2B46     		mov	r3, r5
 373              	@ 199 "../../test/testqueues.c" 1
 374 00be 83F31188 		msr     BASEPRI, r3
 375              	@ 0 "" 2
 376              	.LVL38:
 377              		.thumb
 378              	.LBE109:
 379              		.loc 1 200 0
 380 00c2 C0B2     		uxtb	r0, r0
 381              	.LVL39:
 382 00c4 FFF7FEFF 		bl	test_emit_token
 383              	.LVL40:
 384              	.LBB110:
 385              		.loc 1 197 0
 386 00c8 2023     		movs	r3, #32
 387              	@ 197 "../../test/testqueues.c" 1
 388 00ca 83F31188 		msr     BASEPRI, r3
 389              	@ 0 "" 2
 390              	.LVL41:
 391              		.thumb
 392              	.LBE110:
ARM GAS  /tmp/ccAjgNpm.s 			page 8


 393              		.loc 1 198 0
 394 00ce 2046     		mov	r0, r4
 395 00d0 FFF7FEFF 		bl	chOQGetI
 396              	.LVL42:
 397              	.LBB111:
 398              		.loc 1 199 0
 399 00d4 2B46     		mov	r3, r5
 400              	@ 199 "../../test/testqueues.c" 1
 401 00d6 83F31188 		msr     BASEPRI, r3
 402              	@ 0 "" 2
 403              	.LVL43:
 404              		.thumb
 405              	.LBE111:
 406              		.loc 1 200 0
 407 00da C0B2     		uxtb	r0, r0
 408              	.LVL44:
 409 00dc FFF7FEFF 		bl	test_emit_token
 410              	.LVL45:
 411              	.LBE103:
 412              	.LBB112:
 413              		.loc 1 202 0
 414 00e0 2023     		movs	r3, #32
 415              	.LVL46:
 416              	@ 202 "../../test/testqueues.c" 1
 417 00e2 83F31188 		msr     BASEPRI, r3
 418              	@ 0 "" 2
 419              	.LVL47:
 420              		.thumb
 421              	.LBE112:
 422 00e6 6069     		ldr	r0, [r4, #20]
 423 00e8 A269     		ldr	r2, [r4, #24]
 424 00ea 9042     		cmp	r0, r2
 425 00ec 30D0     		beq	.L26
 426 00ee 2946     		mov	r1, r5
 427              	.L11:
 428 00f0 0320     		movs	r0, #3
 429 00f2 FFF7FEFF 		bl	_test_assert
 430              	.LVL48:
 431 00f6 48B1     		cbz	r0, .L12
 432              	.LVL49:
 433              	.L22:
 434              	.LBB113:
 435 00f8 0023     		movs	r3, #0
 436              	.LVL50:
 437              	@ 202 "../../test/testqueues.c" 1
 438 00fa 83F31188 		msr     BASEPRI, r3
 439              	@ 0 "" 2
 440              	.LVL51:
 441              		.thumb
 442              	.L6:
 443              	.LBE113:
 444              	.LBE99:
 445              	.LBE98:
 446              		.loc 1 229 0
 447 00fe 02B0     		add	sp, sp, #8
 448 0100 BDE8F081 		pop	{r4, r5, r6, r7, r8, pc}
 449              	.LVL52:
ARM GAS  /tmp/ccAjgNpm.s 			page 9


 450              	.L23:
 451              	.LBB135:
 452              	.LBB132:
 453              	.LBB114:
 454              		.loc 1 218 0
 455 0104 3346     		mov	r3, r6
 456              	@ 218 "../../test/testqueues.c" 1
 457 0106 83F31188 		msr     BASEPRI, r3
 458              	@ 0 "" 2
 459              	.LVL53:
 460              		.thumb
 461 010a F8E7     		b	.L6
 462              	.LVL54:
 463              	.L12:
 464              	.LBE114:
 465              	.LBB115:
 466              		.loc 1 202 0
 467 010c 0346     		mov	r3, r0
 468              	.LVL55:
 469              	@ 202 "../../test/testqueues.c" 1
 470 010e 83F31188 		msr     BASEPRI, r3
 471              	@ 0 "" 2
 472              	.LVL56:
 473              		.thumb
 474              	.LBE115:
 475              		.loc 1 203 0
 476 0112 0420     		movs	r0, #4
 477 0114 6949     		ldr	r1, .L27+4
 478 0116 FFF7FEFF 		bl	_test_assert_sequence
 479              	.LVL57:
 480 011a 0446     		mov	r4, r0
 481 011c 0028     		cmp	r0, #0
 482 011e EED1     		bne	.L6
 483              	.LBB116:
 484              		.loc 1 204 0
 485 0120 2023     		movs	r3, #32
 486              	.LVL58:
 487              	@ 204 "../../test/testqueues.c" 1
 488 0122 83F31188 		msr     BASEPRI, r3
 489              	@ 0 "" 2
 490              	.LVL59:
 491              		.thumb
 492              	.LBE116:
 493 0126 644D     		ldr	r5, .L27
 494 0128 2846     		mov	r0, r5
 495 012a FFF7FEFF 		bl	chOQGetI
 496              	.LVL60:
 497 012e 0330     		adds	r0, r0, #3
 498 0130 14BF     		ite	ne
 499 0132 0021     		movne	r1, #0
 500 0134 0121     		moveq	r1, #1
 501 0136 0520     		movs	r0, #5
 502 0138 FFF7FEFF 		bl	_test_assert
 503              	.LVL61:
 504 013c 68B1     		cbz	r0, .L14
 505              	.LBB117:
 506 013e 2346     		mov	r3, r4
ARM GAS  /tmp/ccAjgNpm.s 			page 10


 507              	@ 204 "../../test/testqueues.c" 1
 508 0140 83F31188 		msr     BASEPRI, r3
 509              	@ 0 "" 2
 510              	.LVL62:
 511              		.thumb
 512 0144 DBE7     		b	.L6
 513              	.LVL63:
 514              	.L25:
 515              	.LBE117:
 516              	.LBE132:
 517              	.LBE135:
 518              		.loc 1 186 0 discriminator 1
 519 0146 A968     		ldr	r1, [r5, #8]
 520 0148 0031     		adds	r1, r1, #0
 521 014a 18BF     		it	ne
 522 014c 0121     		movne	r1, #1
 523 014e 64E7     		b	.L7
 524              	.LVL64:
 525              	.L26:
 526              	.LBB136:
 527              	.LBB133:
 528              		.loc 1 202 0
 529 0150 A368     		ldr	r3, [r4, #8]
 530              	.LVL65:
 531 0152 191C     		adds	r1, r3, #0
 532 0154 18BF     		it	ne
 533 0156 0121     		movne	r1, #1
 534 0158 CAE7     		b	.L11
 535              	.L14:
 536              	.LBB118:
 537              		.loc 1 204 0
 538 015a 0346     		mov	r3, r0
 539              	.LVL66:
 540              	@ 204 "../../test/testqueues.c" 1
 541 015c 83F31188 		msr     BASEPRI, r3
 542              	@ 0 "" 2
 543              	.LVL67:
 544              		.thumb
 545              	.LBE118:
 546              		.loc 1 207 0
 547 0160 574E     		ldr	r6, .L27+8
 548 0162 7468     		ldr	r4, [r6, #4]
 549 0164 0822     		movs	r2, #8
 550 0166 2146     		mov	r1, r4
 551 0168 2846     		mov	r0, r5
 552 016a FFF7FEFF 		bl	chOQWriteTimeout
 553              	.LVL68:
 554              		.loc 1 208 0
 555 016e 071F     		subs	r7, r0, #4
 556 0170 7942     		rsbs	r1, r7, #0
 557 0172 7941     		adcs	r1, r1, r7
 558 0174 0620     		movs	r0, #6
 559              	.LVL69:
 560 0176 FFF7FEFF 		bl	_test_assert
 561              	.LVL70:
 562 017a 0746     		mov	r7, r0
 563              	.LVL71:
ARM GAS  /tmp/ccAjgNpm.s 			page 11


 564 017c 0028     		cmp	r0, #0
 565 017e BED1     		bne	.L6
 566              	.LBB119:
 567              		.loc 1 209 0
 568 0180 2023     		movs	r3, #32
 569              	.LVL72:
 570              	@ 209 "../../test/testqueues.c" 1
 571 0182 83F31188 		msr     BASEPRI, r3
 572              	@ 0 "" 2
 573              	.LVL73:
 574              		.thumb
 575              	.LBE119:
 576 0186 AA68     		ldr	r2, [r5, #8]
 577 0188 0720     		movs	r0, #7
 578 018a D2F10101 		rsbs	r1, r2, #1
 579 018e 38BF     		it	cc
 580 0190 0021     		movcc	r1, #0
 581 0192 FFF7FEFF 		bl	_test_assert
 582              	.LVL74:
 583 0196 8046     		mov	r8, r0
 584 0198 18B1     		cbz	r0, .L16
 585              	.LBB120:
 586 019a 3B46     		mov	r3, r7
 587              	@ 209 "../../test/testqueues.c" 1
 588 019c 83F31188 		msr     BASEPRI, r3
 589              	@ 0 "" 2
 590              	.LVL75:
 591              		.thumb
 592 01a0 ADE7     		b	.L6
 593              	.LVL76:
 594              	.L16:
 595              	.LBE120:
 596              	.LBB121:
 597 01a2 0346     		mov	r3, r0
 598              	.LVL77:
 599              	@ 209 "../../test/testqueues.c" 1
 600 01a4 83F31188 		msr     BASEPRI, r3
 601              	@ 0 "" 2
 602              	.LVL78:
 603              		.thumb
 604              	.LBE121:
 605              		.loc 1 210 0
 606 01a8 3068     		ldr	r0, [r6, #0]
 607 01aa 464E     		ldr	r6, .L27+12
 608 01ac 464B     		ldr	r3, .L27+16
 609              	.LVL79:
 610 01ae B169     		ldr	r1, [r6, #24]
 611 01b0 464E     		ldr	r6, .L27+20
 612 01b2 8A68     		ldr	r2, [r1, #8]
 613 01b4 CDF80080 		str	r8, [sp, #0]
 614 01b8 4FF49871 		mov	r1, #304
 615 01bc 0132     		adds	r2, r2, #1
 616 01be FFF7FEFF 		bl	chThdCreateStatic
 617              	.LVL80:
 618              	.LBB122:
 619              		.loc 1 211 0
 620 01c2 2023     		movs	r3, #32
ARM GAS  /tmp/ccAjgNpm.s 			page 12


 621              	.LVL81:
 622              	.LBE122:
 623              		.loc 1 210 0
 624 01c4 3060     		str	r0, [r6, #0]
 625              	.LBB123:
 626              		.loc 1 211 0
 627              	@ 211 "../../test/testqueues.c" 1
 628 01c6 83F31188 		msr     BASEPRI, r3
 629              	@ 0 "" 2
 630              	.LVL82:
 631              		.thumb
 632              	.LBE123:
 633 01ca 2869     		ldr	r0, [r5, #16]
 634 01cc E968     		ldr	r1, [r5, #12]
 635 01ce AB68     		ldr	r3, [r5, #8]
 636              	.LVL83:
 637 01d0 421A     		subs	r2, r0, r1
 638 01d2 D61A     		subs	r6, r2, r3
 639 01d4 0820     		movs	r0, #8
 640 01d6 B6F1040C 		subs	ip, r6, #4
 641 01da DCF10001 		rsbs	r1, ip, #0
 642 01de 51EB0C01 		adcs	r1, r1, ip
 643 01e2 FFF7FEFF 		bl	_test_assert
 644              	.LVL84:
 645 01e6 0646     		mov	r6, r0
 646 01e8 18B1     		cbz	r0, .L17
 647              	.LBB124:
 648 01ea 4346     		mov	r3, r8
 649              	@ 211 "../../test/testqueues.c" 1
 650 01ec 83F31188 		msr     BASEPRI, r3
 651              	@ 0 "" 2
 652              	.LVL85:
 653              		.thumb
 654 01f0 85E7     		b	.L6
 655              	.LVL86:
 656              	.L17:
 657              	.LBE124:
 658              	.LBB125:
 659 01f2 0346     		mov	r3, r0
 660              	.LVL87:
 661              	@ 211 "../../test/testqueues.c" 1
 662 01f4 83F31188 		msr     BASEPRI, r3
 663              	@ 0 "" 2
 664              	.LVL88:
 665              		.thumb
 666              	.LBE125:
 667              		.loc 1 212 0
 668 01f8 FFF7FEFF 		bl	test_wait_threads
 669              	.LVL89:
 670              	.LBB126:
 671              		.loc 1 215 0
 672 01fc 2023     		movs	r3, #32
 673              	.LVL90:
 674              	@ 215 "../../test/testqueues.c" 1
 675 01fe 83F31188 		msr     BASEPRI, r3
 676              	@ 0 "" 2
 677              	.LVL91:
ARM GAS  /tmp/ccAjgNpm.s 			page 13


 678              		.thumb
 679              	.LBE126:
 680              		.loc 1 216 0
 681 0202 2846     		mov	r0, r5
 682 0204 FFF7FEFF 		bl	chOQResetI
 683              	.LVL92:
 684              	.LBB127:
 685              		.loc 1 217 0
 686 0208 3346     		mov	r3, r6
 687              	.LVL93:
 688              	@ 217 "../../test/testqueues.c" 1
 689 020a 83F31188 		msr     BASEPRI, r3
 690              	@ 0 "" 2
 691              	.LVL94:
 692              		.thumb
 693              	.LBE127:
 694              	.LBB128:
 695              		.loc 1 218 0
 696 020e 2023     		movs	r3, #32
 697              	.LVL95:
 698              	@ 218 "../../test/testqueues.c" 1
 699 0210 83F31188 		msr     BASEPRI, r3
 700              	@ 0 "" 2
 701              	.LVL96:
 702              		.thumb
 703              	.LBE128:
 704 0214 2869     		ldr	r0, [r5, #16]
 705 0216 EA68     		ldr	r2, [r5, #12]
 706 0218 AB68     		ldr	r3, [r5, #8]
 707              	.LVL97:
 708 021a 811A     		subs	r1, r0, r2
 709 021c 0920     		movs	r0, #9
 710 021e B1EB030E 		subs	lr, r1, r3
 711 0222 DEF10002 		rsbs	r2, lr, #0
 712 0226 52EB0E01 		adcs	r1, r2, lr
 713 022a FFF7FEFF 		bl	_test_assert
 714              	.LVL98:
 715 022e 0346     		mov	r3, r0
 716 0230 0028     		cmp	r0, #0
 717 0232 7FF467AF 		bne	.L23
 718              	.LBB129:
 719              	@ 218 "../../test/testqueues.c" 1
 720 0236 83F31188 		msr     BASEPRI, r3
 721              	@ 0 "" 2
 722              	.LVL99:
 723              		.thumb
 724              	.LBE129:
 725              		.loc 1 221 0
 726 023a 0222     		movs	r2, #2
 727 023c 2146     		mov	r1, r4
 728 023e 2846     		mov	r0, r5
 729 0240 FFF7FEFF 		bl	chOQWriteTimeout
 730              	.LVL100:
 731              		.loc 1 222 0
 732 0244 0238     		subs	r0, r0, #2
 733              	.LVL101:
 734 0246 4342     		rsbs	r3, r0, #0
ARM GAS  /tmp/ccAjgNpm.s 			page 14


 735 0248 53EB0001 		adcs	r1, r3, r0
 736 024c 0A20     		movs	r0, #10
 737              	.LVL102:
 738 024e FFF7FEFF 		bl	_test_assert
 739              	.LVL103:
 740 0252 0346     		mov	r3, r0
 741 0254 0028     		cmp	r0, #0
 742 0256 7FF452AF 		bne	.L6
 743              		.loc 1 223 0
 744 025a 2146     		mov	r1, r4
 745 025c 0222     		movs	r2, #2
 746 025e 2846     		mov	r0, r5
 747 0260 FFF7FEFF 		bl	chOQWriteTimeout
 748              	.LVL104:
 749              		.loc 1 224 0
 750 0264 821E     		subs	r2, r0, #2
 751 0266 5142     		rsbs	r1, r2, #0
 752 0268 5141     		adcs	r1, r1, r2
 753 026a 0B20     		movs	r0, #11
 754              	.LVL105:
 755 026c FFF7FEFF 		bl	_test_assert
 756              	.LVL106:
 757 0270 0028     		cmp	r0, #0
 758 0272 7FF444AF 		bne	.L6
 759              	.LBB130:
 760              		.loc 1 225 0
 761 0276 2023     		movs	r3, #32
 762              	.LVL107:
 763              	@ 225 "../../test/testqueues.c" 1
 764 0278 83F31188 		msr     BASEPRI, r3
 765              	@ 0 "" 2
 766              	.LVL108:
 767              		.thumb
 768              	.LBE130:
 769 027c AB68     		ldr	r3, [r5, #8]
 770              	.LVL109:
 771 027e 0C20     		movs	r0, #12
 772 0280 D3F10101 		rsbs	r1, r3, #1
 773 0284 38BF     		it	cc
 774 0286 0021     		movcc	r1, #0
 775 0288 FFF7FEFF 		bl	_test_assert
 776              	.LVL110:
 777              	.LBB131:
 778 028c 0023     		movs	r3, #0
 779              	@ 225 "../../test/testqueues.c" 1
 780 028e 83F31188 		msr     BASEPRI, r3
 781              	@ 0 "" 2
 782              	.LVL111:
 783              		.thumb
 784              	.LBE131:
 785 0292 0028     		cmp	r0, #0
 786 0294 7FF433AF 		bne	.L6
 787              		.loc 1 228 0
 788 0298 1946     		mov	r1, r3
 789              	.LVL112:
 790 029a 0A22     		movs	r2, #10
 791 029c 0648     		ldr	r0, .L27
ARM GAS  /tmp/ccAjgNpm.s 			page 15


 792 029e FFF7FEFF 		bl	chOQPutTimeout
 793              	.LVL113:
 794 02a2 B0F1FF30 		subs	r0, r0, #-1
 795 02a6 4242     		rsbs	r2, r0, #0
 796 02a8 52EB0001 		adcs	r1, r2, r0
 797 02ac 0D20     		movs	r0, #13
 798              	.LBE133:
 799              	.LBE136:
 800              		.loc 1 229 0
 801 02ae 02B0     		add	sp, sp, #8
 802 02b0 BDE8F041 		pop	{r4, r5, r6, r7, r8, lr}
 803              	.LBB137:
 804              	.LBB134:
 805              		.loc 1 228 0
 806 02b4 FFF7FEBF 		b	_test_assert
 807              	.LVL114:
 808              	.L28:
 809              		.align	2
 810              	.L27:
 811 02b8 00000000 		.word	.LANCHOR0
 812 02bc 00000000 		.word	.LC0
 813 02c0 00000000 		.word	wa
 814 02c4 00000000 		.word	rlist
 815 02c8 00000000 		.word	thread2
 816 02cc 00000000 		.word	threads
 817              	.LBE134:
 818              	.LBE137:
 819              		.cfi_endproc
 820              	.LFE13:
 821              		.size	queues2_execute, .-queues2_execute
 822              		.section	.text.queues1_execute,"ax",%progbits
 823              		.align	2
 824              		.p2align 4,,15
 825              		.thumb
 826              		.thumb_func
 827              		.type	queues1_execute, %function
 828              	queues1_execute:
 829              	.LFB10:
 830              		.loc 1 94 0
 831              		.cfi_startproc
 832              		@ args = 0, pretend = 0, frame = 0
 833              		@ frame_needed = 0, uses_anonymous_args = 0
 834 0000 2DE9F043 		push	{r4, r5, r6, r7, r8, r9, lr}
 835              	.LCFI8:
 836              		.cfi_def_cfa_offset 28
 837              		.cfi_offset 4, -28
 838              		.cfi_offset 5, -24
 839              		.cfi_offset 6, -20
 840              		.cfi_offset 7, -16
 841              		.cfi_offset 8, -12
 842              		.cfi_offset 9, -8
 843              		.cfi_offset 14, -4
 844              	.LBB174:
 845              		.loc 1 99 0
 846 0004 2023     		movs	r3, #32
 847              	.LVL115:
 848              	.LBE174:
ARM GAS  /tmp/ccAjgNpm.s 			page 16


 849              		.loc 1 94 0
 850 0006 83B0     		sub	sp, sp, #12
 851              	.LCFI9:
 852              		.cfi_def_cfa_offset 40
 853              	.LBB175:
 854              		.loc 1 99 0
 855              	@ 99 "../../test/testqueues.c" 1
 856 0008 83F31188 		msr     BASEPRI, r3
 857              	@ 0 "" 2
 858              	.LVL116:
 859              		.thumb
 860              	.LBE175:
 861 000c 894C     		ldr	r4, .L47
 862 000e A168     		ldr	r1, [r4, #8]
 863 0010 0120     		movs	r0, #1
 864 0012 D1F10101 		rsbs	r1, r1, #1
 865 0016 38BF     		it	cc
 866 0018 0021     		movcc	r1, #0
 867 001a FFF7FEFF 		bl	_test_assert
 868              	.LVL117:
 869 001e 0546     		mov	r5, r0
 870 0020 28BB     		cbnz	r0, .L44
 871              	.LBB176:
 872              	.LBB177:
 873              	.LBB178:
 874 0022 0346     		mov	r3, r0
 875              	.LVL118:
 876              	@ 99 "../../test/testqueues.c" 1
 877 0024 83F31188 		msr     BASEPRI, r3
 878              	@ 0 "" 2
 879              	.LVL119:
 880              		.thumb
 881              	.LBE178:
 882              	.LBB179:
 883              		.loc 1 102 0
 884 0028 2023     		movs	r3, #32
 885              	.LVL120:
 886              	@ 102 "../../test/testqueues.c" 1
 887 002a 83F31188 		msr     BASEPRI, r3
 888              	@ 0 "" 2
 889              	.LVL121:
 890              		.thumb
 891              	.LBE179:
 892              		.loc 1 104 0
 893 002e 4121     		movs	r1, #65
 894 0030 2046     		mov	r0, r4
 895 0032 FFF7FEFF 		bl	chIQPutI
 896              	.LVL122:
 897 0036 4221     		movs	r1, #66
 898 0038 2046     		mov	r0, r4
 899 003a FFF7FEFF 		bl	chIQPutI
 900              	.LVL123:
 901 003e 4321     		movs	r1, #67
 902 0040 2046     		mov	r0, r4
 903 0042 FFF7FEFF 		bl	chIQPutI
 904              	.LVL124:
 905 0046 2046     		mov	r0, r4
ARM GAS  /tmp/ccAjgNpm.s 			page 17


 906 0048 4421     		movs	r1, #68
 907 004a FFF7FEFF 		bl	chIQPutI
 908              	.LVL125:
 909              	.LBB180:
 910              		.loc 1 105 0
 911 004e 2B46     		mov	r3, r5
 912              	.LVL126:
 913              	@ 105 "../../test/testqueues.c" 1
 914 0050 83F31188 		msr     BASEPRI, r3
 915              	@ 0 "" 2
 916              	.LVL127:
 917              		.thumb
 918              	.LBE180:
 919              	.LBB181:
 920              		.loc 1 106 0
 921 0054 2023     		movs	r3, #32
 922              	.LVL128:
 923              	@ 106 "../../test/testqueues.c" 1
 924 0056 83F31188 		msr     BASEPRI, r3
 925              	@ 0 "" 2
 926              	.LVL129:
 927              		.thumb
 928              	.LBE181:
 929 005a 6269     		ldr	r2, [r4, #20]
 930 005c A369     		ldr	r3, [r4, #24]
 931              	.LVL130:
 932 005e 9A42     		cmp	r2, r3
 933 0060 56D0     		beq	.L46
 934 0062 2946     		mov	r1, r5
 935              	.L32:
 936 0064 0220     		movs	r0, #2
 937 0066 FFF7FEFF 		bl	_test_assert
 938              	.LVL131:
 939 006a 0546     		mov	r5, r0
 940 006c 28B1     		cbz	r0, .L33
 941              	.LVL132:
 942              	.L44:
 943              	.LBB182:
 944 006e 0023     		movs	r3, #0
 945              	.LVL133:
 946              	@ 106 "../../test/testqueues.c" 1
 947 0070 83F31188 		msr     BASEPRI, r3
 948              	@ 0 "" 2
 949              	.LVL134:
 950              		.thumb
 951              	.L29:
 952              	.LBE182:
 953              	.LBE177:
 954              	.LBE176:
 955              		.loc 1 151 0
 956 0074 03B0     		add	sp, sp, #12
 957 0076 BDE8F083 		pop	{r4, r5, r6, r7, r8, r9, pc}
 958              	.LVL135:
 959              	.L33:
 960              	.LBB208:
 961              	.LBB206:
 962              	.LBB183:
ARM GAS  /tmp/ccAjgNpm.s 			page 18


 963              		.loc 1 106 0
 964 007a 0346     		mov	r3, r0
 965              	.LVL136:
 966              	@ 106 "../../test/testqueues.c" 1
 967 007c 83F31188 		msr     BASEPRI, r3
 968              	@ 0 "" 2
 969              	.LVL137:
 970              		.thumb
 971              	.LBE183:
 972              	.LBB184:
 973              		.loc 1 107 0
 974 0080 2023     		movs	r3, #32
 975              	.LVL138:
 976              	@ 107 "../../test/testqueues.c" 1
 977 0082 83F31188 		msr     BASEPRI, r3
 978              	@ 0 "" 2
 979              	.LVL139:
 980              		.thumb
 981              	.LBE184:
 982 0086 6B4E     		ldr	r6, .L47
 983 0088 0146     		mov	r1, r0
 984 008a 3046     		mov	r0, r6
 985 008c FFF7FEFF 		bl	chIQPutI
 986              	.LVL140:
 987 0090 0430     		adds	r0, r0, #4
 988 0092 14BF     		ite	ne
 989 0094 0021     		movne	r1, #0
 990 0096 0121     		moveq	r1, #1
 991 0098 0320     		movs	r0, #3
 992 009a FFF7FEFF 		bl	_test_assert
 993              	.LVL141:
 994 009e 0746     		mov	r7, r0
 995 00a0 90BB     		cbnz	r0, .L45
 996              	.LBB185:
 997 00a2 0346     		mov	r3, r0
 998              	.LVL142:
 999              	@ 107 "../../test/testqueues.c" 1
 1000 00a4 83F31188 		msr     BASEPRI, r3
 1001              	@ 0 "" 2
 1002              	.LVL143:
 1003              		.thumb
 1004              	.LBE185:
 1005              		.loc 1 111 0
 1006 00a8 4FF0FF31 		mov	r1, #-1
 1007 00ac 3046     		mov	r0, r6
 1008 00ae FFF7FEFF 		bl	chIQGetTimeout
 1009              	.LVL144:
 1010 00b2 C0B2     		uxtb	r0, r0
 1011 00b4 FFF7FEFF 		bl	test_emit_token
 1012              	.LVL145:
 1013 00b8 4FF0FF31 		mov	r1, #-1
 1014 00bc 3046     		mov	r0, r6
 1015 00be FFF7FEFF 		bl	chIQGetTimeout
 1016              	.LVL146:
 1017 00c2 C0B2     		uxtb	r0, r0
 1018 00c4 FFF7FEFF 		bl	test_emit_token
 1019              	.LVL147:
ARM GAS  /tmp/ccAjgNpm.s 			page 19


 1020 00c8 4FF0FF31 		mov	r1, #-1
 1021 00cc 3046     		mov	r0, r6
 1022 00ce FFF7FEFF 		bl	chIQGetTimeout
 1023              	.LVL148:
 1024 00d2 C0B2     		uxtb	r0, r0
 1025 00d4 FFF7FEFF 		bl	test_emit_token
 1026              	.LVL149:
 1027 00d8 4FF0FF31 		mov	r1, #-1
 1028 00dc 3046     		mov	r0, r6
 1029 00de FFF7FEFF 		bl	chIQGetTimeout
 1030              	.LVL150:
 1031 00e2 C0B2     		uxtb	r0, r0
 1032 00e4 FFF7FEFF 		bl	test_emit_token
 1033              	.LVL151:
 1034              	.LBB186:
 1035              		.loc 1 112 0
 1036 00e8 2023     		movs	r3, #32
 1037              	.LVL152:
 1038              	@ 112 "../../test/testqueues.c" 1
 1039 00ea 83F31188 		msr     BASEPRI, r3
 1040              	@ 0 "" 2
 1041              	.LVL153:
 1042              		.thumb
 1043              	.LBE186:
 1044 00ee B168     		ldr	r1, [r6, #8]
 1045 00f0 0420     		movs	r0, #4
 1046 00f2 D1F10101 		rsbs	r1, r1, #1
 1047 00f6 38BF     		it	cc
 1048 00f8 0021     		movcc	r1, #0
 1049 00fa FFF7FEFF 		bl	_test_assert
 1050              	.LVL154:
 1051 00fe 60B1     		cbz	r0, .L35
 1052              	.LBB187:
 1053 0100 3B46     		mov	r3, r7
 1054              	@ 112 "../../test/testqueues.c" 1
 1055 0102 83F31188 		msr     BASEPRI, r3
 1056              	@ 0 "" 2
 1057              	.LVL155:
 1058              		.thumb
 1059 0106 B5E7     		b	.L29
 1060              	.LVL156:
 1061              	.L45:
 1062              	.LBE187:
 1063              	.LBB188:
 1064              		.loc 1 146 0
 1065 0108 2B46     		mov	r3, r5
 1066              	@ 146 "../../test/testqueues.c" 1
 1067 010a 83F31188 		msr     BASEPRI, r3
 1068              	@ 0 "" 2
 1069              	.LVL157:
 1070              		.thumb
 1071 010e B1E7     		b	.L29
 1072              	.LVL158:
 1073              	.L46:
 1074              	.LBE188:
 1075              		.loc 1 106 0
 1076 0110 A068     		ldr	r0, [r4, #8]
ARM GAS  /tmp/ccAjgNpm.s 			page 20


 1077 0112 011C     		adds	r1, r0, #0
 1078 0114 18BF     		it	ne
 1079 0116 0121     		movne	r1, #1
 1080 0118 A4E7     		b	.L32
 1081              	.L35:
 1082              	.LBB189:
 1083              		.loc 1 112 0
 1084 011a 0346     		mov	r3, r0
 1085              	.LVL159:
 1086              	@ 112 "../../test/testqueues.c" 1
 1087 011c 83F31188 		msr     BASEPRI, r3
 1088              	@ 0 "" 2
 1089              	.LVL160:
 1090              		.thumb
 1091              	.LBE189:
 1092              		.loc 1 113 0
 1093 0120 0520     		movs	r0, #5
 1094 0122 4549     		ldr	r1, .L47+4
 1095 0124 FFF7FEFF 		bl	_test_assert_sequence
 1096              	.LVL161:
 1097 0128 0546     		mov	r5, r0
 1098 012a 0028     		cmp	r0, #0
 1099 012c A2D1     		bne	.L29
 1100              	.LBB190:
 1101              		.loc 1 116 0
 1102 012e 2023     		movs	r3, #32
 1103              	.LVL162:
 1104              	@ 116 "../../test/testqueues.c" 1
 1105 0130 83F31188 		msr     BASEPRI, r3
 1106              	@ 0 "" 2
 1107              	.LVL163:
 1108              		.thumb
 1109              	.LBE190:
 1110              		.loc 1 118 0
 1111 0134 4121     		movs	r1, #65
 1112 0136 3046     		mov	r0, r6
 1113 0138 FFF7FEFF 		bl	chIQPutI
 1114              	.LVL164:
 1115 013c 4221     		movs	r1, #66
 1116 013e 3046     		mov	r0, r6
 1117 0140 FFF7FEFF 		bl	chIQPutI
 1118              	.LVL165:
 1119 0144 4321     		movs	r1, #67
 1120 0146 3046     		mov	r0, r6
 1121 0148 FFF7FEFF 		bl	chIQPutI
 1122              	.LVL166:
 1123 014c 3046     		mov	r0, r6
 1124 014e 4421     		movs	r1, #68
 1125 0150 FFF7FEFF 		bl	chIQPutI
 1126              	.LVL167:
 1127              	.LBB191:
 1128              		.loc 1 119 0
 1129 0154 2B46     		mov	r3, r5
 1130              	.LVL168:
 1131              	@ 119 "../../test/testqueues.c" 1
 1132 0156 83F31188 		msr     BASEPRI, r3
 1133              	@ 0 "" 2
ARM GAS  /tmp/ccAjgNpm.s 			page 21


 1134              	.LVL169:
 1135              		.thumb
 1136              	.LBE191:
 1137              		.loc 1 122 0
 1138 015a 384F     		ldr	r7, .L47+8
 1139 015c 7D68     		ldr	r5, [r7, #4]
 1140 015e 0822     		movs	r2, #8
 1141 0160 2946     		mov	r1, r5
 1142 0162 3046     		mov	r0, r6
 1143 0164 FFF7FEFF 		bl	chIQReadTimeout
 1144              	.LVL170:
 1145              		.loc 1 123 0
 1146 0168 021F     		subs	r2, r0, #4
 1147 016a 5342     		rsbs	r3, r2, #0
 1148 016c 53EB0201 		adcs	r1, r3, r2
 1149 0170 0620     		movs	r0, #6
 1150              	.LVL171:
 1151 0172 FFF7FEFF 		bl	_test_assert
 1152              	.LVL172:
 1153 0176 8046     		mov	r8, r0
 1154 0178 0028     		cmp	r0, #0
 1155 017a 7FF47BAF 		bne	.L29
 1156              	.LBB192:
 1157              		.loc 1 124 0
 1158 017e 2023     		movs	r3, #32
 1159              	.LVL173:
 1160              	@ 124 "../../test/testqueues.c" 1
 1161 0180 83F31188 		msr     BASEPRI, r3
 1162              	@ 0 "" 2
 1163              	.LVL174:
 1164              		.thumb
 1165              	.LBE192:
 1166 0184 B168     		ldr	r1, [r6, #8]
 1167 0186 0720     		movs	r0, #7
 1168 0188 D1F10101 		rsbs	r1, r1, #1
 1169 018c 38BF     		it	cc
 1170 018e 0021     		movcc	r1, #0
 1171 0190 FFF7FEFF 		bl	_test_assert
 1172              	.LVL175:
 1173 0194 8146     		mov	r9, r0
 1174 0196 0028     		cmp	r0, #0
 1175 0198 47D1     		bne	.L43
 1176              	.LBB193:
 1177 019a 0346     		mov	r3, r0
 1178              	.LVL176:
 1179              	@ 124 "../../test/testqueues.c" 1
 1180 019c 83F31188 		msr     BASEPRI, r3
 1181              	@ 0 "" 2
 1182              	.LVL177:
 1183              		.thumb
 1184              	.LBE193:
 1185              	.LBB194:
 1186              		.loc 1 127 0
 1187 01a0 2023     		movs	r3, #32
 1188              	.LVL178:
 1189              	@ 127 "../../test/testqueues.c" 1
 1190 01a2 83F31188 		msr     BASEPRI, r3
ARM GAS  /tmp/ccAjgNpm.s 			page 22


 1191              	@ 0 "" 2
 1192              	.LVL179:
 1193              		.thumb
 1194              	.LBE194:
 1195              		.loc 1 129 0
 1196 01a6 4121     		movs	r1, #65
 1197 01a8 3046     		mov	r0, r6
 1198 01aa FFF7FEFF 		bl	chIQPutI
 1199              	.LVL180:
 1200 01ae 4221     		movs	r1, #66
 1201 01b0 3046     		mov	r0, r6
 1202 01b2 FFF7FEFF 		bl	chIQPutI
 1203              	.LVL181:
 1204 01b6 4321     		movs	r1, #67
 1205 01b8 3046     		mov	r0, r6
 1206 01ba FFF7FEFF 		bl	chIQPutI
 1207              	.LVL182:
 1208 01be 3046     		mov	r0, r6
 1209 01c0 4421     		movs	r1, #68
 1210 01c2 FFF7FEFF 		bl	chIQPutI
 1211              	.LVL183:
 1212              	.LBB195:
 1213              		.loc 1 130 0
 1214 01c6 4B46     		mov	r3, r9
 1215              	.LVL184:
 1216              	@ 130 "../../test/testqueues.c" 1
 1217 01c8 83F31188 		msr     BASEPRI, r3
 1218              	@ 0 "" 2
 1219              	.LVL185:
 1220              		.thumb
 1221              	.LBE195:
 1222              		.loc 1 133 0
 1223 01cc 0222     		movs	r2, #2
 1224 01ce 2946     		mov	r1, r5
 1225 01d0 3046     		mov	r0, r6
 1226 01d2 FFF7FEFF 		bl	chIQReadTimeout
 1227              	.LVL186:
 1228              		.loc 1 134 0
 1229 01d6 0238     		subs	r0, r0, #2
 1230              	.LVL187:
 1231 01d8 4242     		rsbs	r2, r0, #0
 1232 01da 52EB0001 		adcs	r1, r2, r0
 1233 01de 0820     		movs	r0, #8
 1234              	.LVL188:
 1235 01e0 FFF7FEFF 		bl	_test_assert
 1236              	.LVL189:
 1237 01e4 0028     		cmp	r0, #0
 1238 01e6 7FF445AF 		bne	.L29
 1239              		.loc 1 135 0
 1240 01ea 0222     		movs	r2, #2
 1241 01ec 0346     		mov	r3, r0
 1242 01ee 2946     		mov	r1, r5
 1243 01f0 3046     		mov	r0, r6
 1244 01f2 FFF7FEFF 		bl	chIQReadTimeout
 1245              	.LVL190:
 1246              		.loc 1 136 0
 1247 01f6 B0F1020C 		subs	ip, r0, #2
ARM GAS  /tmp/ccAjgNpm.s 			page 23


 1248 01fa DCF10003 		rsbs	r3, ip, #0
 1249 01fe 53EB0C01 		adcs	r1, r3, ip
 1250 0202 0920     		movs	r0, #9
 1251              	.LVL191:
 1252 0204 FFF7FEFF 		bl	_test_assert
 1253              	.LVL192:
 1254 0208 8046     		mov	r8, r0
 1255 020a 0028     		cmp	r0, #0
 1256 020c 7FF432AF 		bne	.L29
 1257              	.LBB196:
 1258              		.loc 1 137 0
 1259 0210 2023     		movs	r3, #32
 1260              	.LVL193:
 1261              	@ 137 "../../test/testqueues.c" 1
 1262 0212 83F31188 		msr     BASEPRI, r3
 1263              	@ 0 "" 2
 1264              	.LVL194:
 1265              		.thumb
 1266              	.LBE196:
 1267 0216 B568     		ldr	r5, [r6, #8]
 1268 0218 0A20     		movs	r0, #10
 1269 021a D5F10101 		rsbs	r1, r5, #1
 1270 021e 38BF     		it	cc
 1271 0220 0021     		movcc	r1, #0
 1272 0222 FFF7FEFF 		bl	_test_assert
 1273              	.LVL195:
 1274 0226 0546     		mov	r5, r0
 1275 0228 50B1     		cbz	r0, .L39
 1276              	.L43:
 1277              	.LBB197:
 1278 022a 4346     		mov	r3, r8
 1279              	@ 137 "../../test/testqueues.c" 1
 1280 022c 83F31188 		msr     BASEPRI, r3
 1281              	@ 0 "" 2
 1282              	.LVL196:
 1283              		.thumb
 1284 0230 20E7     		b	.L29
 1285              	.L48:
 1286 0232 00BF     		.align	2
 1287              	.L47:
 1288 0234 00000000 		.word	.LANCHOR1
 1289 0238 00000000 		.word	.LC0
 1290 023c 00000000 		.word	wa
 1291              	.LVL197:
 1292              	.L39:
 1293              	.LBE197:
 1294              	.LBB198:
 1295 0240 0346     		mov	r3, r0
 1296              	.LVL198:
 1297              	@ 137 "../../test/testqueues.c" 1
 1298 0242 83F31188 		msr     BASEPRI, r3
 1299              	@ 0 "" 2
 1300              	.LVL199:
 1301              		.thumb
 1302              	.LBE198:
 1303              	.LBB199:
 1304              		.loc 1 140 0
ARM GAS  /tmp/ccAjgNpm.s 			page 24


 1305 0246 2023     		movs	r3, #32
 1306              	.LVL200:
 1307              	@ 140 "../../test/testqueues.c" 1
 1308 0248 83F31188 		msr     BASEPRI, r3
 1309              	@ 0 "" 2
 1310              	.LVL201:
 1311              		.thumb
 1312              	.LBE199:
 1313              		.loc 1 141 0
 1314 024c 0146     		mov	r1, r0
 1315 024e 3046     		mov	r0, r6
 1316 0250 FFF7FEFF 		bl	chIQPutI
 1317              	.LVL202:
 1318              		.loc 1 142 0
 1319 0254 3046     		mov	r0, r6
 1320 0256 FFF7FEFF 		bl	chIQResetI
 1321              	.LVL203:
 1322              	.LBB200:
 1323              		.loc 1 143 0
 1324 025a 2B46     		mov	r3, r5
 1325              	.LVL204:
 1326              	@ 143 "../../test/testqueues.c" 1
 1327 025c 83F31188 		msr     BASEPRI, r3
 1328              	@ 0 "" 2
 1329              	.LVL205:
 1330              		.thumb
 1331              	.LBE200:
 1332              	.LBB201:
 1333              		.loc 1 144 0
 1334 0260 2023     		movs	r3, #32
 1335              	.LVL206:
 1336              	@ 144 "../../test/testqueues.c" 1
 1337 0262 83F31188 		msr     BASEPRI, r3
 1338              	@ 0 "" 2
 1339              	.LVL207:
 1340              		.thumb
 1341              	.LBE201:
 1342 0266 B168     		ldr	r1, [r6, #8]
 1343 0268 0B20     		movs	r0, #11
 1344 026a D1F10101 		rsbs	r1, r1, #1
 1345 026e 38BF     		it	cc
 1346 0270 0021     		movcc	r1, #0
 1347 0272 FFF7FEFF 		bl	_test_assert
 1348              	.LVL208:
 1349              	.LBB202:
 1350 0276 0023     		movs	r3, #0
 1351              	@ 144 "../../test/testqueues.c" 1
 1352 0278 83F31188 		msr     BASEPRI, r3
 1353              	@ 0 "" 2
 1354              	.LVL209:
 1355              		.thumb
 1356              	.LBE202:
 1357 027c 0028     		cmp	r0, #0
 1358 027e 7FF4F9AE 		bne	.L29
 1359              		.loc 1 145 0
 1360 0282 184A     		ldr	r2, .L49
 1361 0284 3868     		ldr	r0, [r7, #0]
ARM GAS  /tmp/ccAjgNpm.s 			page 25


 1362 0286 9569     		ldr	r5, [r2, #24]
 1363 0288 AA68     		ldr	r2, [r5, #8]
 1364 028a 0093     		str	r3, [sp, #0]
 1365              	.LVL210:
 1366 028c 1D46     		mov	r5, r3
 1367              	.LVL211:
 1368 028e 4FF49871 		mov	r1, #304
 1369 0292 0132     		adds	r2, r2, #1
 1370 0294 144B     		ldr	r3, .L49+4
 1371              	.LVL212:
 1372 0296 FFF7FEFF 		bl	chThdCreateStatic
 1373              	.LVL213:
 1374 029a 1449     		ldr	r1, .L49+8
 1375              	.LBB203:
 1376              		.loc 1 146 0
 1377 029c 2023     		movs	r3, #32
 1378              	.LVL214:
 1379              	.LBE203:
 1380              		.loc 1 145 0
 1381 029e 0860     		str	r0, [r1, #0]
 1382              	.LBB204:
 1383              		.loc 1 146 0
 1384              	@ 146 "../../test/testqueues.c" 1
 1385 02a0 83F31188 		msr     BASEPRI, r3
 1386              	@ 0 "" 2
 1387              	.LVL215:
 1388              		.thumb
 1389              	.LBE204:
 1390 02a4 A368     		ldr	r3, [r4, #8]
 1391              	.LVL216:
 1392 02a6 0C20     		movs	r0, #12
 1393 02a8 B3EB050E 		subs	lr, r3, r5
 1394 02ac DEF10002 		rsbs	r2, lr, #0
 1395 02b0 52EB0E01 		adcs	r1, r2, lr
 1396 02b4 FFF7FEFF 		bl	_test_assert
 1397              	.LVL217:
 1398 02b8 0346     		mov	r3, r0
 1399 02ba 0028     		cmp	r0, #0
 1400 02bc 7FF424AF 		bne	.L45
 1401              	.LBB205:
 1402              	@ 146 "../../test/testqueues.c" 1
 1403 02c0 83F31188 		msr     BASEPRI, r3
 1404              	@ 0 "" 2
 1405              	.LVL218:
 1406              		.thumb
 1407              	.LBE205:
 1408              		.loc 1 147 0
 1409 02c4 FFF7FEFF 		bl	test_wait_threads
 1410              	.LVL219:
 1411              		.loc 1 150 0
 1412 02c8 0A21     		movs	r1, #10
 1413 02ca 0948     		ldr	r0, .L49+12
 1414 02cc FFF7FEFF 		bl	chIQGetTimeout
 1415              	.LVL220:
 1416 02d0 B0F1FF30 		subs	r0, r0, #-1
 1417 02d4 4142     		rsbs	r1, r0, #0
 1418 02d6 4141     		adcs	r1, r1, r0
ARM GAS  /tmp/ccAjgNpm.s 			page 26


 1419 02d8 0D20     		movs	r0, #13
 1420              	.LBE206:
 1421              	.LBE208:
 1422              		.loc 1 151 0
 1423 02da 03B0     		add	sp, sp, #12
 1424 02dc BDE8F043 		pop	{r4, r5, r6, r7, r8, r9, lr}
 1425              	.LBB209:
 1426              	.LBB207:
 1427              		.loc 1 150 0
 1428 02e0 FFF7FEBF 		b	_test_assert
 1429              	.LVL221:
 1430              	.L50:
 1431              		.align	2
 1432              	.L49:
 1433 02e4 00000000 		.word	rlist
 1434 02e8 00000000 		.word	thread1
 1435 02ec 00000000 		.word	threads
 1436 02f0 00000000 		.word	.LANCHOR1
 1437              	.LBE207:
 1438              	.LBE209:
 1439              		.cfi_endproc
 1440              	.LFE10:
 1441              		.size	queues1_execute, .-queues1_execute
 1442              		.global	patternqueues
 1443              		.global	testqueues2
 1444              		.global	testqueues1
 1445 02f4 AFF30080 		.section	.rodata.testqueues1,"a",%progbits
 1445      AFF30080 
 1445      AFF30080 
 1446              		.align	2
 1447              		.type	testqueues1, %object
 1448              		.size	testqueues1, 16
 1449              	testqueues1:
 1450 0000 20000000 		.word	.LC2
 1451 0004 00000000 		.word	queues1_setup
 1452 0008 00000000 		.word	0
 1453 000c 00000000 		.word	queues1_execute
 1454              		.section	.rodata.testqueues2,"a",%progbits
 1455              		.align	2
 1456              		.type	testqueues2, %object
 1457              		.size	testqueues2, 16
 1458              	testqueues2:
 1459 0000 08000000 		.word	.LC1
 1460 0004 00000000 		.word	queues2_setup
 1461 0008 00000000 		.word	0
 1462 000c 00000000 		.word	queues2_execute
 1463              		.section	.rodata.str1.4,"aMS",%progbits,1
 1464              		.align	2
 1465              	.LC0:
 1466 0000 41424344 		.ascii	"ABCD\000"
 1466      00
 1467 0005 000000   		.space	3
 1468              	.LC1:
 1469 0008 51756575 		.ascii	"Queues, output queues\000"
 1469      65732C20 
 1469      6F757470 
 1469      75742071 
ARM GAS  /tmp/ccAjgNpm.s 			page 27


 1469      75657565 
 1470 001e 0000     		.space	2
 1471              	.LC2:
 1472 0020 51756575 		.ascii	"Queues, input queues\000"
 1472      65732C20 
 1472      696E7075 
 1472      74207175 
 1472      65756573 
 1473 0035 000000   		.section	.rodata.patternqueues,"a",%progbits
 1474              		.align	2
 1475              		.type	patternqueues, %object
 1476              		.size	patternqueues, 12
 1477              	patternqueues:
 1478 0000 00000000 		.word	testqueues1
 1479 0004 00000000 		.word	testqueues2
 1480 0008 00000000 		.word	0
 1481              		.section	.data.oq,"aw",%progbits
 1482              		.align	2
 1483              		.set	.LANCHOR0,. + 0
 1484              		.type	oq, %object
 1485              		.size	oq, 36
 1486              	oq:
 1487 0000 00000000 		.word	oq
 1488 0004 00000000 		.word	oq
 1489 0008 04000000 		.word	4
 1490 000c 30010000 		.word	test+304
 1491 0010 34010000 		.word	test+308
 1492 0014 30010000 		.word	test+304
 1493 0018 30010000 		.word	test+304
 1494 001c 00000000 		.word	notify
 1495 0020 00000000 		.word	0
 1496              		.section	.data.iq,"aw",%progbits
 1497              		.align	2
 1498              		.set	.LANCHOR1,. + 0
 1499              		.type	iq, %object
 1500              		.size	iq, 36
 1501              	iq:
 1502 0000 00000000 		.word	iq
 1503 0004 00000000 		.word	iq
 1504 0008 00000000 		.word	0
 1505 000c 00000000 		.word	test
 1506 0010 04000000 		.word	test+4
 1507 0014 00000000 		.word	test
 1508 0018 00000000 		.word	test
 1509 001c 00000000 		.word	notify
 1510 0020 00000000 		.word	0
 1511              		.text
 1512              	.Letext0:
 1513              		.file 2 "/usr/bin/../lib/gcc/arm-none-eabi/4.7.4/include/stddef.h"
 1514              		.file 3 "/usr/bin/../lib/gcc/arm-none-eabi/4.7.4/../../../../arm-none-eabi/include/stdint.h"
 1515              		.file 4 "../../os/ports/GCC/ARMCMx/chtypes.h"
 1516              		.file 5 "../../os/kernel/include/chlists.h"
 1517              		.file 6 "../../os/kernel/include/chthreads.h"
 1518              		.file 7 "../../os/ports/GCC/ARMCMx/chcore_v7m.h"
 1519              		.file 8 "../../os/kernel/include/chschd.h"
 1520              		.file 9 "../../os/kernel/include/chmtx.h"
 1521              		.file 10 "../../os/kernel/include/chqueues.h"
ARM GAS  /tmp/ccAjgNpm.s 			page 28


 1522              		.file 11 "../../test/test.h"