ARM GAS  /tmp/ccNJIE6Y.s 			page 1


   1              		.syntax unified
   2              		.cpu cortex-m4
   3              		.fpu softvfp
   4              		.eabi_attribute 20, 1
   5              		.eabi_attribute 21, 1
   6              		.eabi_attribute 23, 3
   7              		.eabi_attribute 24, 1
   8              		.eabi_attribute 25, 1
   9              		.eabi_attribute 26, 1
  10              		.eabi_attribute 30, 2
  11              		.eabi_attribute 34, 1
  12              		.eabi_attribute 18, 4
  13              		.thumb
  14              		.file	"transform.c"
  15              		.text
  16              	.Ltext0:
  17              		.cfi_sections	.debug_frame
  18              		.global	__aeabi_dmul
  19              		.global	__aeabi_dsub
  20              		.global	__aeabi_dadd
  21              		.section	.text.ln_get_rect_from_helio,"ax",%progbits
  22              		.align	2
  23              		.p2align 4,,15
  24              		.global	ln_get_rect_from_helio
  25              		.thumb
  26              		.thumb_func
  27              		.type	ln_get_rect_from_helio, %function
  28              	ln_get_rect_from_helio:
  29              	.LFB0:
  30              		.file 1 "./libnova/src/transform.c"
  31              		.loc 1 38 0
  32              		.cfi_startproc
  33              		@ args = 0, pretend = 0, frame = 16
  34              		@ frame_needed = 0, uses_anonymous_args = 0
  35              	.LVL0:
  36 0000 2DE9704F 		push	{r4, r5, r6, r8, r9, sl, fp, lr}
  37              	.LCFI0:
  38              		.cfi_def_cfa_offset 32
  39              		.cfi_offset 4, -32
  40              		.cfi_offset 5, -28
  41              		.cfi_offset 6, -24
  42              		.cfi_offset 8, -20
  43              		.cfi_offset 9, -16
  44              		.cfi_offset 10, -12
  45              		.cfi_offset 11, -8
  46              		.cfi_offset 14, -4
  47 0004 0446     		mov	r4, r0
  48 0006 84B0     		sub	sp, sp, #16
  49              	.LCFI1:
  50              		.cfi_def_cfa_offset 48
  51              		.loc 1 38 0
  52 0008 0E46     		mov	r6, r1
  53              		.loc 1 47 0
  54 000a D0E90201 		ldrd	r0, [r0, #8]
  55              	.LVL1:
  56 000e FFF7FEFF 		bl	ln_deg_to_rad
  57              	.LVL2:
ARM GAS  /tmp/ccNJIE6Y.s 			page 2


  58 0012 FFF7FEFF 		bl	cos
  59              	.LVL3:
  60 0016 8046     		mov	r8, r0
  61 0018 8946     		mov	r9, r1
  62              	.LVL4:
  63              		.loc 1 48 0
  64 001a D4E90001 		ldrd	r0, [r4]
  65 001e FFF7FEFF 		bl	ln_deg_to_rad
  66              	.LVL5:
  67 0022 FFF7FEFF 		bl	cos
  68              	.LVL6:
  69 0026 0246     		mov	r2, r0
  70 0028 0B46     		mov	r3, r1
  71              	.LVL7:
  72              		.loc 1 49 0
  73 002a D4E90201 		ldrd	r0, [r4, #8]
  74 002e 0192     		str	r2, [sp, #4]
  75 0030 0093     		str	r3, [sp, #0]
  76 0032 FFF7FEFF 		bl	ln_deg_to_rad
  77              	.LVL8:
  78 0036 FFF7FEFF 		bl	sin
  79              	.LVL9:
  80 003a CDE90201 		strd	r0, [sp, #8]
  81              	.LVL10:
  82              		.loc 1 50 0
  83 003e D4E90001 		ldrd	r0, [r4]
  84              	.LVL11:
  85 0042 FFF7FEFF 		bl	ln_deg_to_rad
  86              	.LVL12:
  87 0046 FFF7FEFF 		bl	sin
  88              	.LVL13:
  89              		.loc 1 53 0
  90 004a D4E90445 		ldrd	r4, [r4, #16]
  91              	.LVL14:
  92 004e 019A     		ldr	r2, [sp, #4]
  93 0050 009B     		ldr	r3, [sp, #0]
  94              		.loc 1 50 0
  95 0052 8246     		mov	sl, r0
  96 0054 8B46     		mov	fp, r1
  97              	.LVL15:
  98              		.loc 1 53 0
  99 0056 2046     		mov	r0, r4
 100 0058 2946     		mov	r1, r5
 101 005a FFF7FEFF 		bl	__aeabi_dmul
 102              	.LVL16:
 103 005e 4246     		mov	r2, r8
 104 0060 4B46     		mov	r3, r9
 105 0062 FFF7FEFF 		bl	__aeabi_dmul
 106              	.LVL17:
 107              		.loc 1 54 0
 108 0066 4246     		mov	r2, r8
 109 0068 4B46     		mov	r3, r9
 110              		.loc 1 53 0
 111 006a C6E90001 		strd	r0, [r6]
 112              		.loc 1 54 0
 113 006e 5046     		mov	r0, sl
 114 0070 5946     		mov	r1, fp
ARM GAS  /tmp/ccNJIE6Y.s 			page 3


 115 0072 FFF7FEFF 		bl	__aeabi_dmul
 116              	.LVL18:
 117 0076 20A3     		adr	r3, .L2
 118 0078 D3E90023 		ldrd	r2, [r3]
 119 007c 8246     		mov	sl, r0
 120              	.LVL19:
 121 007e 8B46     		mov	fp, r1
 122 0080 FFF7FEFF 		bl	__aeabi_dmul
 123              	.LVL20:
 124 0084 1EA3     		adr	r3, .L2+8
 125 0086 D3E90023 		ldrd	r2, [r3]
 126 008a 8046     		mov	r8, r0
 127              	.LVL21:
 128 008c 8946     		mov	r9, r1
 129 008e DDE90201 		ldrd	r0, [sp, #8]
 130 0092 FFF7FEFF 		bl	__aeabi_dmul
 131              	.LVL22:
 132 0096 0246     		mov	r2, r0
 133 0098 0B46     		mov	r3, r1
 134 009a 4046     		mov	r0, r8
 135 009c 4946     		mov	r1, r9
 136 009e FFF7FEFF 		bl	__aeabi_dsub
 137              	.LVL23:
 138 00a2 0246     		mov	r2, r0
 139 00a4 0B46     		mov	r3, r1
 140 00a6 2046     		mov	r0, r4
 141 00a8 2946     		mov	r1, r5
 142 00aa FFF7FEFF 		bl	__aeabi_dmul
 143              	.LVL24:
 144              		.loc 1 55 0
 145 00ae 14A3     		adr	r3, .L2+8
 146 00b0 D3E90023 		ldrd	r2, [r3]
 147              		.loc 1 54 0
 148 00b4 C6E90201 		strd	r0, [r6, #8]
 149              		.loc 1 55 0
 150 00b8 5046     		mov	r0, sl
 151 00ba 5946     		mov	r1, fp
 152 00bc FFF7FEFF 		bl	__aeabi_dmul
 153              	.LVL25:
 154 00c0 0DA3     		adr	r3, .L2
 155 00c2 D3E90023 		ldrd	r2, [r3]
 156 00c6 8046     		mov	r8, r0
 157 00c8 8946     		mov	r9, r1
 158 00ca DDE90201 		ldrd	r0, [sp, #8]
 159 00ce FFF7FEFF 		bl	__aeabi_dmul
 160              	.LVL26:
 161 00d2 0246     		mov	r2, r0
 162 00d4 0B46     		mov	r3, r1
 163 00d6 4046     		mov	r0, r8
 164 00d8 4946     		mov	r1, r9
 165 00da FFF7FEFF 		bl	__aeabi_dadd
 166              	.LVL27:
 167 00de 0246     		mov	r2, r0
 168 00e0 0B46     		mov	r3, r1
 169 00e2 2046     		mov	r0, r4
 170 00e4 2946     		mov	r1, r5
 171 00e6 FFF7FEFF 		bl	__aeabi_dmul
ARM GAS  /tmp/ccNJIE6Y.s 			page 4


 172              	.LVL28:
 173 00ea C6E90401 		strd	r0, [r6, #16]
 174              		.loc 1 56 0
 175 00ee 04B0     		add	sp, sp, #16
 176 00f0 BDE8708F 		pop	{r4, r5, r6, r8, r9, sl, fp, pc}
 177              	.L3:
 178 00f4 AFF30080 		.align	3
 179              	.L2:
 180 00f8 D59C5E57 		.word	1465818325
 181 00fc 035CED3F 		.word	1072520195
 182 0100 BF6A0751 		.word	1359440575
 183 0104 2E75D93F 		.word	1071215918
 184              		.cfi_endproc
 185              	.LFE0:
 186              		.size	ln_get_rect_from_helio, .-ln_get_rect_from_helio
 187              		.global	__aeabi_dcmplt
 188              		.global	__aeabi_dcmpgt
 189              		.global	__aeabi_ddiv
 190              		.global	__aeabi_dcmpeq
 191 0108 AFF30080 		.section	.text.ln_get_hrz_from_equ_sidereal_time,"ax",%progbits
 191      AFF30080 
 192              		.align	2
 193              		.p2align 4,,15
 194              		.global	ln_get_hrz_from_equ_sidereal_time
 195              		.thumb
 196              		.thumb_func
 197              		.type	ln_get_hrz_from_equ_sidereal_time, %function
 198              	ln_get_hrz_from_equ_sidereal_time:
 199              	.LFB2:
 200              		.loc 1 86 0
 201              		.cfi_startproc
 202              		@ args = 4, pretend = 0, frame = 40
 203              		@ frame_needed = 0, uses_anonymous_args = 0
 204              	.LVL29:
 205 0000 2DE9F04F 		push	{r4, r5, r6, r7, r8, r9, sl, fp, lr}
 206              	.LCFI2:
 207              		.cfi_def_cfa_offset 36
 208              		.cfi_offset 4, -36
 209              		.cfi_offset 5, -32
 210              		.cfi_offset 6, -28
 211              		.cfi_offset 7, -24
 212              		.cfi_offset 8, -20
 213              		.cfi_offset 9, -16
 214              		.cfi_offset 10, -12
 215              		.cfi_offset 11, -8
 216              		.cfi_offset 14, -4
 217 0004 8A46     		mov	sl, r1
 218 0006 8BB0     		sub	sp, sp, #44
 219              	.LCFI3:
 220              		.cfi_def_cfa_offset 80
 221              		.loc 1 86 0
 222 0008 8346     		mov	fp, r0
 223              		.loc 1 93 0
 224 000a D0E90001 		ldrd	r0, [r0]
 225              	.LVL30:
 226              		.loc 1 86 0
 227 000e 9046     		mov	r8, r2
ARM GAS  /tmp/ccNJIE6Y.s 			page 5


 228 0010 9946     		mov	r9, r3
 229              	.LVL31:
 230              		.loc 1 93 0
 231 0012 FFF7FEFF 		bl	ln_deg_to_rad
 232              	.LVL32:
 233 0016 0446     		mov	r4, r0
 234 0018 0D46     		mov	r5, r1
 235              	.LVL33:
 236              		.loc 1 94 0
 237 001a DAE90001 		ldrd	r0, [sl]
 238 001e FFF7FEFF 		bl	ln_deg_to_rad
 239              	.LVL34:
 240              		.loc 1 90 0
 241 0022 8BA3     		adr	r3, .L31
 242 0024 D3E90023 		ldrd	r2, [r3]
 243              		.loc 1 94 0
 244 0028 0646     		mov	r6, r0
 245 002a 0F46     		mov	r7, r1
 246              		.loc 1 90 0
 247 002c 4046     		mov	r0, r8
 248 002e 4946     		mov	r1, r9
 249 0030 FFF7FEFF 		bl	__aeabi_dmul
 250              	.LVL35:
 251 0034 0246     		mov	r2, r0
 252 0036 0B46     		mov	r3, r1
 253              		.loc 1 94 0
 254 0038 3046     		mov	r0, r6
 255 003a 3946     		mov	r1, r7
 256 003c FFF7FEFF 		bl	__aeabi_dadd
 257              	.LVL36:
 258 0040 2246     		mov	r2, r4
 259 0042 2B46     		mov	r3, r5
 260 0044 FFF7FEFF 		bl	__aeabi_dsub
 261              	.LVL37:
 262 0048 CDE90001 		strd	r0, [sp]
 263              	.LVL38:
 264              		.loc 1 98 0
 265 004c DAE90201 		ldrd	r0, [sl, #8]
 266              	.LVL39:
 267 0050 FFF7FEFF 		bl	ln_deg_to_rad
 268              	.LVL40:
 269 0054 0646     		mov	r6, r0
 270 0056 0F46     		mov	r7, r1
 271              	.LVL41:
 272              		.loc 1 99 0
 273 0058 DBE90201 		ldrd	r0, [fp, #8]
 274 005c FFF7FEFF 		bl	ln_deg_to_rad
 275              	.LVL42:
 276 0060 0446     		mov	r4, r0
 277              	.LVL43:
 278 0062 0D46     		mov	r5, r1
 279              	.LVL44:
 280              		.loc 1 102 0
 281 0064 3046     		mov	r0, r6
 282 0066 3946     		mov	r1, r7
 283 0068 FFF7FEFF 		bl	sin
 284              	.LVL45:
ARM GAS  /tmp/ccNJIE6Y.s 			page 6


 285 006c CDE90201 		strd	r0, [sp, #8]
 286 0070 2046     		mov	r0, r4
 287 0072 2946     		mov	r1, r5
 288 0074 FFF7FEFF 		bl	sin
 289              	.LVL46:
 290 0078 CDE90401 		strd	r0, [sp, #16]
 291 007c 3046     		mov	r0, r6
 292 007e 3946     		mov	r1, r7
 293 0080 FFF7FEFF 		bl	cos
 294              	.LVL47:
 295 0084 CDE90601 		strd	r0, [sp, #24]
 296 0088 2046     		mov	r0, r4
 297 008a 2946     		mov	r1, r5
 298 008c FFF7FEFF 		bl	cos
 299              	.LVL48:
 300 0090 0646     		mov	r6, r0
 301              	.LVL49:
 302 0092 0F46     		mov	r7, r1
 303 0094 DDE90001 		ldrd	r0, [sp]
 304 0098 FFF7FEFF 		bl	cos
 305              	.LVL50:
 306 009c DDE90423 		ldrd	r2, [sp, #16]
 307 00a0 CDE90801 		strd	r0, [sp, #32]
 308 00a4 DDE90201 		ldrd	r0, [sp, #8]
 309 00a8 FFF7FEFF 		bl	__aeabi_dmul
 310              	.LVL51:
 311 00ac 3246     		mov	r2, r6
 312 00ae 0446     		mov	r4, r0
 313              	.LVL52:
 314 00b0 0D46     		mov	r5, r1
 315 00b2 3B46     		mov	r3, r7
 316 00b4 DDE90601 		ldrd	r0, [sp, #24]
 317 00b8 FFF7FEFF 		bl	__aeabi_dmul
 318              	.LVL53:
 319 00bc DDE90823 		ldrd	r2, [sp, #32]
 320 00c0 FFF7FEFF 		bl	__aeabi_dmul
 321              	.LVL54:
 322 00c4 0246     		mov	r2, r0
 323 00c6 0B46     		mov	r3, r1
 324 00c8 2046     		mov	r0, r4
 325 00ca 2946     		mov	r1, r5
 326 00cc FFF7FEFF 		bl	__aeabi_dadd
 327              	.LVL55:
 328 00d0 0446     		mov	r4, r0
 329 00d2 0D46     		mov	r5, r1
 330              	.LVL56:
 331              		.loc 1 103 0
 332 00d4 FFF7FEFF 		bl	asin
 333              	.LVL57:
 334              		.loc 1 106 0
 335 00d8 FFF7FEFF 		bl	ln_rad_to_deg
 336              	.LVL58:
 337 00dc 149B     		ldr	r3, [sp, #80]
 338 00de C3E90201 		strd	r0, [r3, #8]
 339              		.loc 1 109 0
 340 00e2 2046     		mov	r0, r4
 341 00e4 2946     		mov	r1, r5
ARM GAS  /tmp/ccNJIE6Y.s 			page 7


 342 00e6 FFF7FEFF 		bl	acos
 343              	.LVL59:
 344              		.loc 1 112 0
 345 00ea FFF7FEFF 		bl	sin
 346              	.LVL60:
 347 00ee 8146     		mov	r9, r0
 348 00f0 8846     		mov	r8, r1
 349              	.LVL61:
 350              		.loc 1 115 0
 351 00f2 4846     		mov	r0, r9
 352 00f4 21F00041 		bic	r1, r1, #-2147483648
 353              	.LVL62:
 354 00f8 57A3     		adr	r3, .L31+8
 355 00fa D3E90023 		ldrd	r2, [r3]
 356 00fe FFF7FEFF 		bl	__aeabi_dcmplt
 357              	.LVL63:
 358 0102 0028     		cmp	r0, #0
 359 0104 26D0     		beq	.L26
 360              		.loc 1 116 0
 361 0106 DBE90245 		ldrd	r4, [fp, #8]
 362              	.LVL64:
 363 010a 0026     		movs	r6, #0
 364 010c 0027     		movs	r7, #0
 365 010e 2046     		mov	r0, r4
 366 0110 2946     		mov	r1, r5
 367 0112 3246     		mov	r2, r6
 368 0114 3B46     		mov	r3, r7
 369 0116 FFF7FEFF 		bl	__aeabi_dcmpgt
 370              	.LVL65:
 371 011a 0028     		cmp	r0, #0
 372 011c 77D0     		beq	.L27
 373              		.loc 1 117 0
 374 011e 1498     		ldr	r0, [sp, #80]
 375 0120 4FF40043 		mov	r3, #32768
 376 0124 0022     		movs	r2, #0
 377 0126 C4F26603 		movt	r3, 16486
 378 012a C0E90023 		strd	r2, [r0]
 379              		.loc 1 120 0
 380 012e DAE90201 		ldrd	r0, [sl, #8]
 381 0132 3246     		mov	r2, r6
 382 0134 3B46     		mov	r3, r7
 383 0136 FFF7FEFF 		bl	__aeabi_dcmpgt
 384              	.LVL66:
 385 013a 0028     		cmp	r0, #0
 386 013c 6AD0     		beq	.L12
 387              	.L15:
 388              		.loc 1 122 0
 389 013e 4FF40043 		mov	r3, #32768
 390 0142 1498     		ldr	r0, [sp, #80]
 391 0144 0022     		movs	r2, #0
 392 0146 C4F25603 		movt	r3, 16470
 393 014a C0E90223 		strd	r2, [r0, #8]
 394              	.LVL67:
 395              	.L4:
 396              		.loc 1 144 0
 397 014e 0BB0     		add	sp, sp, #44
 398 0150 BDE8F08F 		pop	{r4, r5, r6, r7, r8, r9, sl, fp, pc}
ARM GAS  /tmp/ccNJIE6Y.s 			page 8


 399              	.LVL68:
 400              	.L26:
 401              		.loc 1 129 0
 402 0154 DDE90001 		ldrd	r0, [sp]
 403 0158 FFF7FEFF 		bl	sin
 404              	.LVL69:
 405 015c 0246     		mov	r2, r0
 406 015e 0B46     		mov	r3, r1
 407 0160 3046     		mov	r0, r6
 408 0162 3946     		mov	r1, r7
 409 0164 FFF7FEFF 		bl	__aeabi_dmul
 410              	.LVL70:
 411 0168 4A46     		mov	r2, r9
 412 016a 4346     		mov	r3, r8
 413 016c FFF7FEFF 		bl	__aeabi_ddiv
 414              	.LVL71:
 415              		.loc 1 130 0
 416 0170 3246     		mov	r2, r6
 417              		.loc 1 129 0
 418 0172 CDE90001 		strd	r0, [sp]
 419              	.LVL72:
 420              		.loc 1 130 0
 421 0176 3B46     		mov	r3, r7
 422 0178 DDE90201 		ldrd	r0, [sp, #8]
 423              	.LVL73:
 424 017c FFF7FEFF 		bl	__aeabi_dmul
 425              	.LVL74:
 426 0180 0246     		mov	r2, r0
 427 0182 0B46     		mov	r3, r1
 428 0184 DDE90801 		ldrd	r0, [sp, #32]
 429 0188 FFF7FEFF 		bl	__aeabi_dmul
 430              	.LVL75:
 431 018c DDE90623 		ldrd	r2, [sp, #24]
 432 0190 0446     		mov	r4, r0
 433              	.LVL76:
 434 0192 0D46     		mov	r5, r1
 435 0194 DDE90401 		ldrd	r0, [sp, #16]
 436 0198 FFF7FEFF 		bl	__aeabi_dmul
 437              	.LVL77:
 438 019c 0246     		mov	r2, r0
 439 019e 0B46     		mov	r3, r1
 440 01a0 2046     		mov	r0, r4
 441 01a2 2946     		mov	r1, r5
 442 01a4 FFF7FEFF 		bl	__aeabi_dsub
 443              	.LVL78:
 444 01a8 4A46     		mov	r2, r9
 445 01aa 4346     		mov	r3, r8
 446 01ac FFF7FEFF 		bl	__aeabi_ddiv
 447              	.LVL79:
 448              		.loc 1 133 0
 449 01b0 0024     		movs	r4, #0
 450 01b2 0025     		movs	r5, #0
 451 01b4 2246     		mov	r2, r4
 452 01b6 2B46     		mov	r3, r5
 453              		.loc 1 130 0
 454 01b8 8046     		mov	r8, r0
 455              	.LVL80:
ARM GAS  /tmp/ccNJIE6Y.s 			page 9


 456 01ba 8946     		mov	r9, r1
 457              	.LVL81:
 458              		.loc 1 133 0
 459 01bc FFF7FEFF 		bl	__aeabi_dcmpeq
 460              	.LVL82:
 461 01c0 B8B1     		cbz	r0, .L16
 462              		.loc 1 133 0 is_stmt 0 discriminator 1
 463 01c2 DDE90001 		ldrd	r0, [sp]
 464 01c6 2246     		mov	r2, r4
 465 01c8 2B46     		mov	r3, r5
 466 01ca FFF7FEFF 		bl	__aeabi_dcmpeq
 467              	.LVL83:
 468 01ce 80B1     		cbz	r0, .L16
 469              		.loc 1 134 0 is_stmt 1
 470 01d0 DBE90201 		ldrd	r0, [fp, #8]
 471 01d4 2246     		mov	r2, r4
 472 01d6 2B46     		mov	r3, r5
 473 01d8 FFF7FEFF 		bl	__aeabi_dcmpgt
 474              	.LVL84:
 475 01dc 0028     		cmp	r0, #0
 476 01de 32D0     		beq	.L28
 477              		.loc 1 135 0
 478 01e0 4FF40043 		mov	r3, #32768
 479 01e4 1499     		ldr	r1, [sp, #80]
 480 01e6 0022     		movs	r2, #0
 481 01e8 C4F26603 		movt	r3, 16486
 482 01ec C1E90023 		strd	r2, [r1]
 483 01f0 ADE7     		b	.L4
 484              	.L16:
 485              		.loc 1 140 0
 486 01f2 4B46     		mov	r3, r9
 487 01f4 4246     		mov	r2, r8
 488 01f6 DDE90001 		ldrd	r0, [sp]
 489 01fa FFF7FEFF 		bl	atan2
 490              	.LVL85:
 491              		.loc 1 143 0
 492 01fe FFF7FEFF 		bl	ln_rad_to_deg
 493              	.LVL86:
 494 0202 FFF7FEFF 		bl	ln_range_degrees
 495              	.LVL87:
 496 0206 149B     		ldr	r3, [sp, #80]
 497 0208 C3E90001 		strd	r0, [r3]
 498 020c 9FE7     		b	.L4
 499              	.LVL88:
 500              	.L27:
 501              		.loc 1 119 0
 502 020e 149A     		ldr	r2, [sp, #80]
 503 0210 C2E90067 		strd	r6, [r2]
 504              	.L12:
 505              		.loc 1 121 0
 506 0214 2046     		mov	r0, r4
 507 0216 2946     		mov	r1, r5
 508 0218 0022     		movs	r2, #0
 509 021a 0023     		movs	r3, #0
 510 021c FFF7FEFF 		bl	__aeabi_dcmplt
 511              	.LVL89:
 512 0220 40B9     		cbnz	r0, .L30
ARM GAS  /tmp/ccNJIE6Y.s 			page 10


 513              	.L11:
 514              		.loc 1 124 0
 515 0222 4FF40043 		mov	r3, #32768
 516 0226 1499     		ldr	r1, [sp, #80]
 517 0228 0022     		movs	r2, #0
 518 022a CCF25603 		movt	r3, 49238
 519 022e C1E90223 		strd	r2, [r1, #8]
 520 0232 8CE7     		b	.L4
 521              	.L30:
 522              		.loc 1 121 0 discriminator 1
 523 0234 DAE90201 		ldrd	r0, [sl, #8]
 524 0238 0022     		movs	r2, #0
 525 023a 0023     		movs	r3, #0
 526 023c FFF7FEFF 		bl	__aeabi_dcmplt
 527              	.LVL90:
 528 0240 0028     		cmp	r0, #0
 529 0242 EED0     		beq	.L11
 530 0244 7BE7     		b	.L15
 531              	.LVL91:
 532              	.L28:
 533              		.loc 1 137 0
 534 0246 1498     		ldr	r0, [sp, #80]
 535 0248 C0E90045 		strd	r4, [r0]
 536 024c 7FE7     		b	.L4
 537              	.L32:
 538 024e 00BF     		.align	3
 539              	.L31:
 540 0250 65732D38 		.word	942502757
 541 0254 52C1D03F 		.word	1070645586
 542 0258 F168E388 		.word	2296604913
 543 025c B5F8E43E 		.word	1055193269
 544              		.cfi_endproc
 545              	.LFE2:
 546              		.size	ln_get_hrz_from_equ_sidereal_time, .-ln_get_hrz_from_equ_sidereal_time
 547              		.section	.text.ln_get_hrz_from_equ,"ax",%progbits
 548              		.align	2
 549              		.p2align 4,,15
 550              		.global	ln_get_hrz_from_equ
 551              		.thumb
 552              		.thumb_func
 553              		.type	ln_get_hrz_from_equ, %function
 554              	ln_get_hrz_from_equ:
 555              	.LFB1:
 556              		.loc 1 76 0
 557              		.cfi_startproc
 558              		@ args = 4, pretend = 0, frame = 0
 559              		@ frame_needed = 0, uses_anonymous_args = 0
 560              	.LVL92:
 561 0000 70B5     		push	{r4, r5, r6, lr}
 562              	.LCFI4:
 563              		.cfi_def_cfa_offset 16
 564              		.cfi_offset 4, -16
 565              		.cfi_offset 5, -12
 566              		.cfi_offset 6, -8
 567              		.cfi_offset 14, -4
 568              		.loc 1 76 0
 569 0002 0646     		mov	r6, r0
ARM GAS  /tmp/ccNJIE6Y.s 			page 11


 570 0004 0D46     		mov	r5, r1
 571              		.loc 1 80 0
 572 0006 1046     		mov	r0, r2
 573              	.LVL93:
 574 0008 1946     		mov	r1, r3
 575              	.LVL94:
 576              		.loc 1 76 0
 577 000a 049C     		ldr	r4, [sp, #16]
 578              		.loc 1 80 0
 579 000c FFF7FEFF 		bl	ln_get_mean_sidereal_time
 580              	.LVL95:
 581 0010 0246     		mov	r2, r0
 582 0012 0B46     		mov	r3, r1
 583              	.LVL96:
 584              		.loc 1 81 0
 585 0014 3046     		mov	r0, r6
 586 0016 2946     		mov	r1, r5
 587 0018 0494     		str	r4, [sp, #16]
 588              		.loc 1 82 0
 589 001a BDE87040 		pop	{r4, r5, r6, lr}
 590              		.loc 1 81 0
 591 001e FFF7FEBF 		b	ln_get_hrz_from_equ_sidereal_time
 592              	.LVL97:
 593              		.cfi_endproc
 594              	.LFE1:
 595              		.size	ln_get_hrz_from_equ, .-ln_get_hrz_from_equ
 596 0022 00BFAFF3 		.section	.text.ln_get_equ_from_hrz,"ax",%progbits
 596      0080AFF3 
 596      0080AFF3 
 596      0080
 597              		.align	2
 598              		.p2align 4,,15
 599              		.global	ln_get_equ_from_hrz
 600              		.thumb
 601              		.thumb_func
 602              		.type	ln_get_equ_from_hrz, %function
 603              	ln_get_equ_from_hrz:
 604              	.LFB3:
 605              		.loc 1 156 0
 606              		.cfi_startproc
 607              		@ args = 4, pretend = 0, frame = 40
 608              		@ frame_needed = 0, uses_anonymous_args = 0
 609              	.LVL98:
 610 0000 2DE9F04F 		push	{r4, r5, r6, r7, r8, r9, sl, fp, lr}
 611              	.LCFI5:
 612              		.cfi_def_cfa_offset 36
 613              		.cfi_offset 4, -36
 614              		.cfi_offset 5, -32
 615              		.cfi_offset 6, -28
 616              		.cfi_offset 7, -24
 617              		.cfi_offset 8, -20
 618              		.cfi_offset 9, -16
 619              		.cfi_offset 10, -12
 620              		.cfi_offset 11, -8
 621              		.cfi_offset 14, -4
 622 0004 0E46     		mov	r6, r1
 623 0006 8BB0     		sub	sp, sp, #44
ARM GAS  /tmp/ccNJIE6Y.s 			page 12


 624              	.LCFI6:
 625              		.cfi_def_cfa_offset 80
 626              		.loc 1 156 0
 627 0008 0446     		mov	r4, r0
 628              		.loc 1 162 0
 629 000a D0E90001 		ldrd	r0, [r0]
 630              	.LVL99:
 631              		.loc 1 156 0
 632 000e CDE90823 		strd	r2, [sp, #32]
 633              		.loc 1 162 0
 634 0012 FFF7FEFF 		bl	ln_deg_to_rad
 635              	.LVL100:
 636 0016 8046     		mov	r8, r0
 637 0018 8946     		mov	r9, r1
 638              	.LVL101:
 639              		.loc 1 163 0
 640 001a D4E90201 		ldrd	r0, [r4, #8]
 641 001e FFF7FEFF 		bl	ln_deg_to_rad
 642              	.LVL102:
 643 0022 0446     		mov	r4, r0
 644              	.LVL103:
 645 0024 0D46     		mov	r5, r1
 646              	.LVL104:
 647              		.loc 1 166 0
 648 0026 D6E90001 		ldrd	r0, [r6]
 649 002a FFF7FEFF 		bl	ln_deg_to_rad
 650              	.LVL105:
 651 002e CDE90401 		strd	r0, [sp, #16]
 652              	.LVL106:
 653              		.loc 1 167 0
 654 0032 D6E90201 		ldrd	r0, [r6, #8]
 655              	.LVL107:
 656 0036 FFF7FEFF 		bl	ln_deg_to_rad
 657              	.LVL108:
 658 003a 0646     		mov	r6, r0
 659              	.LVL109:
 660 003c 0F46     		mov	r7, r1
 661              	.LVL110:
 662              		.loc 1 170 0
 663 003e 4046     		mov	r0, r8
 664 0040 4946     		mov	r1, r9
 665 0042 FFF7FEFF 		bl	sin
 666              	.LVL111:
 667 0046 CDE90601 		strd	r0, [sp, #24]
 668 004a 4046     		mov	r0, r8
 669 004c 4946     		mov	r1, r9
 670 004e FFF7FEFF 		bl	cos
 671              	.LVL112:
 672 0052 CDE90001 		strd	r0, [sp]
 673 0056 3046     		mov	r0, r6
 674 0058 3946     		mov	r1, r7
 675 005a FFF7FEFF 		bl	sin
 676              	.LVL113:
 677 005e CDE90201 		strd	r0, [sp, #8]
 678 0062 2046     		mov	r0, r4
 679 0064 2946     		mov	r1, r5
 680 0066 FFF7FEFF 		bl	tan
ARM GAS  /tmp/ccNJIE6Y.s 			page 13


 681              	.LVL114:
 682 006a 8046     		mov	r8, r0
 683              	.LVL115:
 684 006c 8946     		mov	r9, r1
 685 006e 3046     		mov	r0, r6
 686 0070 3946     		mov	r1, r7
 687 0072 FFF7FEFF 		bl	cos
 688              	.LVL116:
 689 0076 DDE90223 		ldrd	r2, [sp, #8]
 690 007a 8246     		mov	sl, r0
 691 007c 8B46     		mov	fp, r1
 692 007e DDE90001 		ldrd	r0, [sp]
 693 0082 FFF7FEFF 		bl	__aeabi_dmul
 694              	.LVL117:
 695 0086 5246     		mov	r2, sl
 696 0088 0646     		mov	r6, r0
 697              	.LVL118:
 698 008a 0F46     		mov	r7, r1
 699 008c 4046     		mov	r0, r8
 700 008e 4946     		mov	r1, r9
 701 0090 5B46     		mov	r3, fp
 702 0092 FFF7FEFF 		bl	__aeabi_dmul
 703              	.LVL119:
 704 0096 0246     		mov	r2, r0
 705 0098 0B46     		mov	r3, r1
 706 009a 3046     		mov	r0, r6
 707 009c 3946     		mov	r1, r7
 708 009e FFF7FEFF 		bl	__aeabi_dadd
 709              	.LVL120:
 710 00a2 0246     		mov	r2, r0
 711 00a4 0B46     		mov	r3, r1
 712 00a6 DDE90601 		ldrd	r0, [sp, #24]
 713 00aa FFF7FEFF 		bl	atan2
 714              	.LVL121:
 715 00ae 0646     		mov	r6, r0
 716 00b0 0F46     		mov	r7, r1
 717              	.LVL122:
 718              		.loc 1 171 0
 719 00b2 2046     		mov	r0, r4
 720 00b4 2946     		mov	r1, r5
 721 00b6 FFF7FEFF 		bl	sin
 722              	.LVL123:
 723 00ba 8046     		mov	r8, r0
 724 00bc 8946     		mov	r9, r1
 725 00be 2046     		mov	r0, r4
 726 00c0 2946     		mov	r1, r5
 727 00c2 FFF7FEFF 		bl	cos
 728              	.LVL124:
 729 00c6 4246     		mov	r2, r8
 730 00c8 0446     		mov	r4, r0
 731              	.LVL125:
 732 00ca 0D46     		mov	r5, r1
 733 00cc 4B46     		mov	r3, r9
 734 00ce DDE90201 		ldrd	r0, [sp, #8]
 735 00d2 FFF7FEFF 		bl	__aeabi_dmul
 736              	.LVL126:
 737 00d6 2246     		mov	r2, r4
ARM GAS  /tmp/ccNJIE6Y.s 			page 14


 738 00d8 2B46     		mov	r3, r5
 739 00da 8046     		mov	r8, r0
 740 00dc 8946     		mov	r9, r1
 741 00de 5046     		mov	r0, sl
 742 00e0 5946     		mov	r1, fp
 743 00e2 FFF7FEFF 		bl	__aeabi_dmul
 744              	.LVL127:
 745 00e6 0246     		mov	r2, r0
 746 00e8 0B46     		mov	r3, r1
 747 00ea DDE90001 		ldrd	r0, [sp]
 748 00ee FFF7FEFF 		bl	__aeabi_dmul
 749              	.LVL128:
 750 00f2 0246     		mov	r2, r0
 751 00f4 0B46     		mov	r3, r1
 752 00f6 4046     		mov	r0, r8
 753 00f8 4946     		mov	r1, r9
 754 00fa FFF7FEFF 		bl	__aeabi_dsub
 755              	.LVL129:
 756              		.loc 1 172 0
 757 00fe FFF7FEFF 		bl	asin
 758              	.LVL130:
 759 0102 0446     		mov	r4, r0
 760 0104 0D46     		mov	r5, r1
 761              	.LVL131:
 762              		.loc 1 175 0
 763 0106 DDE90801 		ldrd	r0, [sp, #32]
 764 010a FFF7FEFF 		bl	ln_get_apparent_sidereal_time
 765              	.LVL132:
 766              		.loc 1 176 0
 767 010e 10A3     		adr	r3, .L35
 768 0110 D3E90023 		ldrd	r2, [r3]
 769 0114 FFF7FEFF 		bl	__aeabi_dmul
 770              	.LVL133:
 771              		.loc 1 178 0
 772 0118 3246     		mov	r2, r6
 773 011a 3B46     		mov	r3, r7
 774 011c FFF7FEFF 		bl	__aeabi_dsub
 775              	.LVL134:
 776 0120 DDE90423 		ldrd	r2, [sp, #16]
 777 0124 FFF7FEFF 		bl	__aeabi_dadd
 778              	.LVL135:
 779 0128 FFF7FEFF 		bl	ln_rad_to_deg
 780              	.LVL136:
 781 012c FFF7FEFF 		bl	ln_range_degrees
 782              	.LVL137:
 783 0130 149B     		ldr	r3, [sp, #80]
 784 0132 C3E90001 		strd	r0, [r3]
 785              		.loc 1 179 0
 786 0136 2046     		mov	r0, r4
 787 0138 2946     		mov	r1, r5
 788 013a FFF7FEFF 		bl	ln_rad_to_deg
 789              	.LVL138:
 790 013e 149A     		ldr	r2, [sp, #80]
 791 0140 C2E90201 		strd	r0, [r2, #8]
 792              		.loc 1 180 0
 793 0144 0BB0     		add	sp, sp, #44
 794 0146 BDE8F08F 		pop	{r4, r5, r6, r7, r8, r9, sl, fp, pc}
ARM GAS  /tmp/ccNJIE6Y.s 			page 15


 795              	.L36:
 796 014a 00BFAFF3 		.align	3
 796      0080
 797              	.L35:
 798 0150 65732D38 		.word	942502757
 799 0154 52C1D03F 		.word	1070645586
 800              		.cfi_endproc
 801              	.LFE3:
 802              		.size	ln_get_equ_from_hrz, .-ln_get_equ_from_hrz
 803 0158 AFF30080 		.section	.text.ln_get_equ_from_ecl,"ax",%progbits
 803      AFF30080 
 804              		.align	2
 805              		.p2align 4,,15
 806              		.global	ln_get_equ_from_ecl
 807              		.thumb
 808              		.thumb_func
 809              		.type	ln_get_equ_from_ecl, %function
 810              	ln_get_equ_from_ecl:
 811              	.LFB4:
 812              		.loc 1 193 0
 813              		.cfi_startproc
 814              		@ args = 4, pretend = 0, frame = 56
 815              		@ frame_needed = 0, uses_anonymous_args = 0
 816              	.LVL139:
 817 0000 2DE9F04F 		push	{r4, r5, r6, r7, r8, r9, sl, fp, lr}
 818              	.LCFI7:
 819              		.cfi_def_cfa_offset 36
 820              		.cfi_offset 4, -36
 821              		.cfi_offset 5, -32
 822              		.cfi_offset 6, -28
 823              		.cfi_offset 7, -24
 824              		.cfi_offset 8, -20
 825              		.cfi_offset 9, -16
 826              		.cfi_offset 10, -12
 827              		.cfi_offset 11, -8
 828              		.cfi_offset 14, -4
 829 0004 8FB0     		sub	sp, sp, #60
 830              	.LCFI8:
 831              		.cfi_def_cfa_offset 96
 832              		.loc 1 198 0
 833 0006 1946     		mov	r1, r3
 834              		.loc 1 193 0
 835 0008 0646     		mov	r6, r0
 836              		.loc 1 198 0
 837 000a 1046     		mov	r0, r2
 838              	.LVL140:
 839 000c 08AA     		add	r2, sp, #32
 840              	.LVL141:
 841 000e FFF7FEFF 		bl	ln_get_nutation
 842              	.LVL142:
 843              		.loc 1 199 0
 844 0012 DDE90C01 		ldrd	r0, [sp, #48]
 845 0016 FFF7FEFF 		bl	ln_deg_to_rad
 846              	.LVL143:
 847 001a CDE90C01 		strd	r0, [sp, #48]
 848              		.loc 1 204 0
 849 001e D6E90001 		ldrd	r0, [r6]
ARM GAS  /tmp/ccNJIE6Y.s 			page 16


 850 0022 FFF7FEFF 		bl	ln_deg_to_rad
 851              	.LVL144:
 852 0026 0446     		mov	r4, r0
 853 0028 0D46     		mov	r5, r1
 854              	.LVL145:
 855              		.loc 1 205 0
 856 002a D6E90201 		ldrd	r0, [r6, #8]
 857 002e FFF7FEFF 		bl	ln_deg_to_rad
 858              	.LVL146:
 859 0032 0646     		mov	r6, r0
 860              	.LVL147:
 861 0034 0F46     		mov	r7, r1
 862              	.LVL148:
 863              		.loc 1 208 0
 864 0036 2046     		mov	r0, r4
 865 0038 2946     		mov	r1, r5
 866 003a FFF7FEFF 		bl	sin
 867              	.LVL149:
 868 003e DDE90CAB 		ldrd	sl, [sp, #48]
 869 0042 CDE90401 		strd	r0, [sp, #16]
 870 0046 5046     		mov	r0, sl
 871 0048 5946     		mov	r1, fp
 872 004a FFF7FEFF 		bl	cos
 873              	.LVL150:
 874 004e 8046     		mov	r8, r0
 875 0050 8946     		mov	r9, r1
 876 0052 3046     		mov	r0, r6
 877 0054 3946     		mov	r1, r7
 878 0056 FFF7FEFF 		bl	tan
 879              	.LVL151:
 880 005a CDE90201 		strd	r0, [sp, #8]
 881 005e 5046     		mov	r0, sl
 882 0060 5946     		mov	r1, fp
 883 0062 FFF7FEFF 		bl	sin
 884              	.LVL152:
 885 0066 8246     		mov	sl, r0
 886 0068 8B46     		mov	fp, r1
 887 006a 2046     		mov	r0, r4
 888 006c 2946     		mov	r1, r5
 889 006e FFF7FEFF 		bl	cos
 890              	.LVL153:
 891 0072 4246     		mov	r2, r8
 892 0074 4B46     		mov	r3, r9
 893 0076 CDE90601 		strd	r0, [sp, #24]
 894 007a DDE90401 		ldrd	r0, [sp, #16]
 895 007e FFF7FEFF 		bl	__aeabi_dmul
 896              	.LVL154:
 897 0082 5246     		mov	r2, sl
 898 0084 0446     		mov	r4, r0
 899              	.LVL155:
 900 0086 0D46     		mov	r5, r1
 901 0088 5B46     		mov	r3, fp
 902 008a DDE90201 		ldrd	r0, [sp, #8]
 903 008e FFF7FEFF 		bl	__aeabi_dmul
 904              	.LVL156:
 905 0092 0246     		mov	r2, r0
 906 0094 0B46     		mov	r3, r1
ARM GAS  /tmp/ccNJIE6Y.s 			page 17


 907 0096 2046     		mov	r0, r4
 908 0098 2946     		mov	r1, r5
 909 009a FFF7FEFF 		bl	__aeabi_dsub
 910              	.LVL157:
 911 009e DDE90623 		ldrd	r2, [sp, #24]
 912 00a2 FFF7FEFF 		bl	atan2
 913              	.LVL158:
 914 00a6 0446     		mov	r4, r0
 915 00a8 0D46     		mov	r5, r1
 916              	.LVL159:
 917              		.loc 1 209 0
 918 00aa 3046     		mov	r0, r6
 919 00ac 3946     		mov	r1, r7
 920 00ae FFF7FEFF 		bl	sin
 921              	.LVL160:
 922 00b2 DDE90C23 		ldrd	r2, [sp, #48]
 923 00b6 8046     		mov	r8, r0
 924 00b8 8946     		mov	r9, r1
 925 00ba 1046     		mov	r0, r2
 926 00bc 1946     		mov	r1, r3
 927 00be 0192     		str	r2, [sp, #4]
 928 00c0 0093     		str	r3, [sp, #0]
 929 00c2 FFF7FEFF 		bl	cos
 930              	.LVL161:
 931 00c6 8246     		mov	sl, r0
 932 00c8 8B46     		mov	fp, r1
 933 00ca 3046     		mov	r0, r6
 934 00cc 3946     		mov	r1, r7
 935 00ce FFF7FEFF 		bl	cos
 936              	.LVL162:
 937 00d2 019A     		ldr	r2, [sp, #4]
 938 00d4 009B     		ldr	r3, [sp, #0]
 939 00d6 0646     		mov	r6, r0
 940              	.LVL163:
 941 00d8 0F46     		mov	r7, r1
 942 00da 1046     		mov	r0, r2
 943 00dc 1946     		mov	r1, r3
 944 00de FFF7FEFF 		bl	sin
 945              	.LVL164:
 946 00e2 5246     		mov	r2, sl
 947 00e4 CDE90201 		strd	r0, [sp, #8]
 948 00e8 5B46     		mov	r3, fp
 949 00ea 4046     		mov	r0, r8
 950 00ec 4946     		mov	r1, r9
 951 00ee FFF7FEFF 		bl	__aeabi_dmul
 952              	.LVL165:
 953 00f2 DDE90223 		ldrd	r2, [sp, #8]
 954 00f6 8046     		mov	r8, r0
 955 00f8 8946     		mov	r9, r1
 956 00fa 3046     		mov	r0, r6
 957 00fc 3946     		mov	r1, r7
 958 00fe FFF7FEFF 		bl	__aeabi_dmul
 959              	.LVL166:
 960 0102 0246     		mov	r2, r0
 961 0104 0B46     		mov	r3, r1
 962 0106 DDE90401 		ldrd	r0, [sp, #16]
 963 010a FFF7FEFF 		bl	__aeabi_dmul
ARM GAS  /tmp/ccNJIE6Y.s 			page 18


 964              	.LVL167:
 965 010e 0B46     		mov	r3, r1
 966 0110 0246     		mov	r2, r0
 967 0112 4946     		mov	r1, r9
 968 0114 4046     		mov	r0, r8
 969 0116 FFF7FEFF 		bl	__aeabi_dadd
 970              	.LVL168:
 971              		.loc 1 210 0
 972 011a FFF7FEFF 		bl	asin
 973              	.LVL169:
 974 011e 0646     		mov	r6, r0
 975 0120 0F46     		mov	r7, r1
 976              	.LVL170:
 977              		.loc 1 213 0
 978 0122 2046     		mov	r0, r4
 979 0124 2946     		mov	r1, r5
 980 0126 FFF7FEFF 		bl	ln_rad_to_deg
 981              	.LVL171:
 982 012a FFF7FEFF 		bl	ln_range_degrees
 983              	.LVL172:
 984 012e 189A     		ldr	r2, [sp, #96]
 985 0130 C2E90001 		strd	r0, [r2]
 986              		.loc 1 214 0
 987 0134 3046     		mov	r0, r6
 988 0136 3946     		mov	r1, r7
 989 0138 FFF7FEFF 		bl	ln_rad_to_deg
 990              	.LVL173:
 991 013c 189B     		ldr	r3, [sp, #96]
 992 013e C3E90201 		strd	r0, [r3, #8]
 993              		.loc 1 215 0
 994 0142 0FB0     		add	sp, sp, #60
 995 0144 BDE8F08F 		pop	{r4, r5, r6, r7, r8, r9, sl, fp, pc}
 996              		.cfi_endproc
 997              	.LFE4:
 998              		.size	ln_get_equ_from_ecl, .-ln_get_equ_from_ecl
 999 0148 AFF30080 		.section	.text.ln_get_ecl_from_equ,"ax",%progbits
 999      AFF30080 
 1000              		.align	2
 1001              		.p2align 4,,15
 1002              		.global	ln_get_ecl_from_equ
 1003              		.thumb
 1004              		.thumb_func
 1005              		.type	ln_get_ecl_from_equ, %function
 1006              	ln_get_ecl_from_equ:
 1007              	.LFB5:
 1008              		.loc 1 228 0
 1009              		.cfi_startproc
 1010              		@ args = 4, pretend = 0, frame = 56
 1011              		@ frame_needed = 0, uses_anonymous_args = 0
 1012              	.LVL174:
 1013 0000 2DE9F04F 		push	{r4, r5, r6, r7, r8, r9, sl, fp, lr}
 1014              	.LCFI9:
 1015              		.cfi_def_cfa_offset 36
 1016              		.cfi_offset 4, -36
 1017              		.cfi_offset 5, -32
 1018              		.cfi_offset 6, -28
 1019              		.cfi_offset 7, -24
ARM GAS  /tmp/ccNJIE6Y.s 			page 19


 1020              		.cfi_offset 8, -20
 1021              		.cfi_offset 9, -16
 1022              		.cfi_offset 10, -12
 1023              		.cfi_offset 11, -8
 1024              		.cfi_offset 14, -4
 1025 0004 0646     		mov	r6, r0
 1026 0006 8FB0     		sub	sp, sp, #60
 1027              	.LCFI10:
 1028              		.cfi_def_cfa_offset 96
 1029              		.loc 1 233 0
 1030 0008 D0E90001 		ldrd	r0, [r0]
 1031              	.LVL175:
 1032              		.loc 1 228 0
 1033 000c 1D46     		mov	r5, r3
 1034 000e 1446     		mov	r4, r2
 1035              		.loc 1 233 0
 1036 0010 FFF7FEFF 		bl	ln_deg_to_rad
 1037              	.LVL176:
 1038 0014 8046     		mov	r8, r0
 1039 0016 8946     		mov	r9, r1
 1040              	.LVL177:
 1041              		.loc 1 234 0
 1042 0018 D6E90201 		ldrd	r0, [r6, #8]
 1043 001c FFF7FEFF 		bl	ln_deg_to_rad
 1044              	.LVL178:
 1045              		.loc 1 235 0
 1046 0020 08AA     		add	r2, sp, #32
 1047              		.loc 1 234 0
 1048 0022 0646     		mov	r6, r0
 1049              	.LVL179:
 1050 0024 0F46     		mov	r7, r1
 1051              	.LVL180:
 1052              		.loc 1 235 0
 1053 0026 2046     		mov	r0, r4
 1054 0028 2946     		mov	r1, r5
 1055 002a FFF7FEFF 		bl	ln_get_nutation
 1056              	.LVL181:
 1057              		.loc 1 236 0
 1058 002e DDE90C01 		ldrd	r0, [sp, #48]
 1059 0032 FFF7FEFF 		bl	ln_deg_to_rad
 1060              	.LVL182:
 1061 0036 0446     		mov	r4, r0
 1062 0038 0D46     		mov	r5, r1
 1063              		.loc 1 239 0
 1064 003a 4046     		mov	r0, r8
 1065 003c 4946     		mov	r1, r9
 1066              		.loc 1 236 0
 1067 003e CDE90C45 		strd	r4, [sp, #48]
 1068              		.loc 1 239 0
 1069 0042 FFF7FEFF 		bl	sin
 1070              	.LVL183:
 1071 0046 CDE90401 		strd	r0, [sp, #16]
 1072 004a 2046     		mov	r0, r4
 1073 004c 2946     		mov	r1, r5
 1074 004e FFF7FEFF 		bl	cos
 1075              	.LVL184:
 1076 0052 8246     		mov	sl, r0
ARM GAS  /tmp/ccNJIE6Y.s 			page 20


 1077 0054 8B46     		mov	fp, r1
 1078 0056 3046     		mov	r0, r6
 1079 0058 3946     		mov	r1, r7
 1080 005a FFF7FEFF 		bl	tan
 1081              	.LVL185:
 1082 005e CDE90201 		strd	r0, [sp, #8]
 1083 0062 2046     		mov	r0, r4
 1084 0064 2946     		mov	r1, r5
 1085 0066 FFF7FEFF 		bl	sin
 1086              	.LVL186:
 1087 006a CDE90601 		strd	r0, [sp, #24]
 1088 006e 4046     		mov	r0, r8
 1089 0070 4946     		mov	r1, r9
 1090 0072 FFF7FEFF 		bl	cos
 1091              	.LVL187:
 1092 0076 5246     		mov	r2, sl
 1093 0078 8046     		mov	r8, r0
 1094              	.LVL188:
 1095 007a 8946     		mov	r9, r1
 1096 007c 5B46     		mov	r3, fp
 1097 007e DDE90401 		ldrd	r0, [sp, #16]
 1098 0082 FFF7FEFF 		bl	__aeabi_dmul
 1099              	.LVL189:
 1100 0086 DDE90623 		ldrd	r2, [sp, #24]
 1101 008a 0446     		mov	r4, r0
 1102 008c 0D46     		mov	r5, r1
 1103 008e DDE90201 		ldrd	r0, [sp, #8]
 1104 0092 FFF7FEFF 		bl	__aeabi_dmul
 1105              	.LVL190:
 1106 0096 0246     		mov	r2, r0
 1107 0098 0B46     		mov	r3, r1
 1108 009a 2046     		mov	r0, r4
 1109 009c 2946     		mov	r1, r5
 1110 009e FFF7FEFF 		bl	__aeabi_dadd
 1111              	.LVL191:
 1112 00a2 4246     		mov	r2, r8
 1113 00a4 4B46     		mov	r3, r9
 1114 00a6 FFF7FEFF 		bl	atan2
 1115              	.LVL192:
 1116 00aa 0446     		mov	r4, r0
 1117 00ac 0D46     		mov	r5, r1
 1118              	.LVL193:
 1119              		.loc 1 240 0
 1120 00ae 3046     		mov	r0, r6
 1121 00b0 3946     		mov	r1, r7
 1122 00b2 FFF7FEFF 		bl	sin
 1123              	.LVL194:
 1124 00b6 DDE90C23 		ldrd	r2, [sp, #48]
 1125 00ba 8046     		mov	r8, r0
 1126 00bc 8946     		mov	r9, r1
 1127 00be 1046     		mov	r0, r2
 1128 00c0 1946     		mov	r1, r3
 1129 00c2 0192     		str	r2, [sp, #4]
 1130 00c4 0093     		str	r3, [sp, #0]
 1131 00c6 FFF7FEFF 		bl	cos
 1132              	.LVL195:
 1133 00ca 8246     		mov	sl, r0
ARM GAS  /tmp/ccNJIE6Y.s 			page 21


 1134 00cc 8B46     		mov	fp, r1
 1135 00ce 3046     		mov	r0, r6
 1136 00d0 3946     		mov	r1, r7
 1137 00d2 FFF7FEFF 		bl	cos
 1138              	.LVL196:
 1139 00d6 019A     		ldr	r2, [sp, #4]
 1140 00d8 009B     		ldr	r3, [sp, #0]
 1141 00da 0646     		mov	r6, r0
 1142              	.LVL197:
 1143 00dc 0F46     		mov	r7, r1
 1144 00de 1046     		mov	r0, r2
 1145 00e0 1946     		mov	r1, r3
 1146 00e2 FFF7FEFF 		bl	sin
 1147              	.LVL198:
 1148 00e6 5246     		mov	r2, sl
 1149 00e8 CDE90201 		strd	r0, [sp, #8]
 1150 00ec 5B46     		mov	r3, fp
 1151 00ee 4046     		mov	r0, r8
 1152 00f0 4946     		mov	r1, r9
 1153 00f2 FFF7FEFF 		bl	__aeabi_dmul
 1154              	.LVL199:
 1155 00f6 DDE90223 		ldrd	r2, [sp, #8]
 1156 00fa 8046     		mov	r8, r0
 1157 00fc 8946     		mov	r9, r1
 1158 00fe 3046     		mov	r0, r6
 1159 0100 3946     		mov	r1, r7
 1160 0102 FFF7FEFF 		bl	__aeabi_dmul
 1161              	.LVL200:
 1162 0106 0246     		mov	r2, r0
 1163 0108 0B46     		mov	r3, r1
 1164 010a DDE90401 		ldrd	r0, [sp, #16]
 1165 010e FFF7FEFF 		bl	__aeabi_dmul
 1166              	.LVL201:
 1167 0112 0B46     		mov	r3, r1
 1168 0114 0246     		mov	r2, r0
 1169 0116 4946     		mov	r1, r9
 1170 0118 4046     		mov	r0, r8
 1171 011a FFF7FEFF 		bl	__aeabi_dsub
 1172              	.LVL202:
 1173              		.loc 1 241 0
 1174 011e FFF7FEFF 		bl	asin
 1175              	.LVL203:
 1176              		.loc 1 244 0
 1177 0122 FFF7FEFF 		bl	ln_rad_to_deg
 1178              	.LVL204:
 1179 0126 189A     		ldr	r2, [sp, #96]
 1180 0128 C2E90201 		strd	r0, [r2, #8]
 1181              		.loc 1 245 0
 1182 012c 2046     		mov	r0, r4
 1183 012e 2946     		mov	r1, r5
 1184 0130 FFF7FEFF 		bl	ln_rad_to_deg
 1185              	.LVL205:
 1186 0134 FFF7FEFF 		bl	ln_range_degrees
 1187              	.LVL206:
 1188 0138 189B     		ldr	r3, [sp, #96]
 1189 013a C3E90001 		strd	r0, [r3]
 1190              		.loc 1 246 0
ARM GAS  /tmp/ccNJIE6Y.s 			page 22


 1191 013e 0FB0     		add	sp, sp, #60
 1192 0140 BDE8F08F 		pop	{r4, r5, r6, r7, r8, r9, sl, fp, pc}
 1193              		.cfi_endproc
 1194              	.LFE5:
 1195              		.size	ln_get_ecl_from_equ, .-ln_get_ecl_from_equ
 1196 0144 AFF30080 		.section	.text.ln_get_ecl_from_rect,"ax",%progbits
 1196      AFF30080 
 1196      AFF30080 
 1197              		.align	2
 1198              		.p2align 4,,15
 1199              		.global	ln_get_ecl_from_rect
 1200              		.thumb
 1201              		.thumb_func
 1202              		.type	ln_get_ecl_from_rect, %function
 1203              	ln_get_ecl_from_rect:
 1204              	.LFB6:
 1205              		.loc 1 257 0
 1206              		.cfi_startproc
 1207              		@ args = 0, pretend = 0, frame = 0
 1208              		@ frame_needed = 0, uses_anonymous_args = 0
 1209              	.LVL207:
 1210 0000 2DE9F843 		push	{r3, r4, r5, r6, r7, r8, r9, lr}
 1211              	.LCFI11:
 1212              		.cfi_def_cfa_offset 32
 1213              		.cfi_offset 3, -32
 1214              		.cfi_offset 4, -28
 1215              		.cfi_offset 5, -24
 1216              		.cfi_offset 6, -20
 1217              		.cfi_offset 7, -16
 1218              		.cfi_offset 8, -12
 1219              		.cfi_offset 9, -8
 1220              		.cfi_offset 14, -4
 1221              		.loc 1 260 0
 1222 0004 D0E90023 		ldrd	r2, [r0]
 1223              		.loc 1 257 0
 1224 0008 8046     		mov	r8, r0
 1225 000a 8946     		mov	r9, r1
 1226              		.loc 1 260 0
 1227 000c 1046     		mov	r0, r2
 1228              	.LVL208:
 1229 000e 1946     		mov	r1, r3
 1230              	.LVL209:
 1231 0010 FFF7FEFF 		bl	__aeabi_dmul
 1232              	.LVL210:
 1233 0014 D8E90267 		ldrd	r6, [r8, #8]
 1234 0018 0446     		mov	r4, r0
 1235 001a 0D46     		mov	r5, r1
 1236 001c 3246     		mov	r2, r6
 1237 001e 3B46     		mov	r3, r7
 1238 0020 3046     		mov	r0, r6
 1239 0022 3946     		mov	r1, r7
 1240 0024 FFF7FEFF 		bl	__aeabi_dmul
 1241              	.LVL211:
 1242 0028 0246     		mov	r2, r0
 1243 002a 0B46     		mov	r3, r1
 1244 002c 2046     		mov	r0, r4
 1245 002e 2946     		mov	r1, r5
ARM GAS  /tmp/ccNJIE6Y.s 			page 23


 1246 0030 FFF7FEFF 		bl	__aeabi_dadd
 1247              	.LVL212:
 1248 0034 FFF7FEFF 		bl	sqrt
 1249              	.LVL213:
 1250              		.loc 1 261 0
 1251 0038 D8E90223 		ldrd	r2, [r8, #8]
 1252              		.loc 1 260 0
 1253 003c 0446     		mov	r4, r0
 1254 003e 0D46     		mov	r5, r1
 1255              	.LVL214:
 1256              		.loc 1 261 0
 1257 0040 D8E90001 		ldrd	r0, [r8]
 1258 0044 FFF7FEFF 		bl	atan2
 1259              	.LVL215:
 1260 0048 FFF7FEFF 		bl	ln_rad_to_deg
 1261              	.LVL216:
 1262 004c FFF7FEFF 		bl	ln_range_degrees
 1263              	.LVL217:
 1264              		.loc 1 262 0
 1265 0050 D8E90423 		ldrd	r2, [r8, #16]
 1266              		.loc 1 261 0
 1267 0054 C9E90001 		strd	r0, [r9]
 1268              		.loc 1 262 0
 1269 0058 2046     		mov	r0, r4
 1270 005a 2946     		mov	r1, r5
 1271 005c FFF7FEFF 		bl	atan2
 1272              	.LVL218:
 1273 0060 FFF7FEFF 		bl	ln_rad_to_deg
 1274              	.LVL219:
 1275 0064 C9E90201 		strd	r0, [r9, #8]
 1276 0068 BDE8F883 		pop	{r3, r4, r5, r6, r7, r8, r9, pc}
 1277              		.cfi_endproc
 1278              	.LFE6:
 1279              		.size	ln_get_ecl_from_rect, .-ln_get_ecl_from_rect
 1280 006c AFF30080 		.section	.text.ln_get_equ_from_gal,"ax",%progbits
 1281              		.align	2
 1282              		.p2align 4,,15
 1283              		.global	ln_get_equ_from_gal
 1284              		.thumb
 1285              		.thumb_func
 1286              		.type	ln_get_equ_from_gal, %function
 1287              	ln_get_equ_from_gal:
 1288              	.LFB7:
 1289              		.loc 1 273 0
 1290              		.cfi_startproc
 1291              		@ args = 0, pretend = 0, frame = 32
 1292              		@ frame_needed = 0, uses_anonymous_args = 0
 1293              	.LVL220:
 1294 0000 2DE9F04F 		push	{r4, r5, r6, r7, r8, r9, sl, fp, lr}
 1295              	.LCFI12:
 1296              		.cfi_def_cfa_offset 36
 1297              		.cfi_offset 4, -36
 1298              		.cfi_offset 5, -32
 1299              		.cfi_offset 6, -28
 1300              		.cfi_offset 7, -24
 1301              		.cfi_offset 8, -20
 1302              		.cfi_offset 9, -16
ARM GAS  /tmp/ccNJIE6Y.s 			page 24


 1303              		.cfi_offset 10, -12
 1304              		.cfi_offset 11, -8
 1305              		.cfi_offset 14, -4
 1306 0004 89B0     		sub	sp, sp, #36
 1307              	.LCFI13:
 1308              		.cfi_def_cfa_offset 72
 1309              		.loc 1 273 0
 1310 0006 0446     		mov	r4, r0
 1311 0008 0591     		str	r1, [sp, #20]
 1312              		.loc 1 280 0
 1313 000a 43A1     		adr	r1, .L41
 1314 000c D1E90001 		ldrd	r0, [r1]
 1315              	.LVL221:
 1316 0010 FFF7FEFF 		bl	ln_deg_to_rad
 1317              	.LVL222:
 1318 0014 0646     		mov	r6, r0
 1319 0016 0F46     		mov	r7, r1
 1320              	.LVL223:
 1321              		.loc 1 281 0
 1322 0018 FFF7FEFF 		bl	sin
 1323              	.LVL224:
 1324 001c 8246     		mov	sl, r0
 1325 001e 8B46     		mov	fp, r1
 1326              	.LVL225:
 1327              		.loc 1 282 0
 1328 0020 3046     		mov	r0, r6
 1329 0022 3946     		mov	r1, r7
 1330 0024 FFF7FEFF 		bl	cos
 1331              	.LVL226:
 1332              		.loc 1 284 0
 1333 0028 3DA3     		adr	r3, .L41+8
 1334 002a D3E90023 		ldrd	r2, [r3]
 1335              		.loc 1 282 0
 1336 002e CDE90001 		strd	r0, [sp]
 1337              	.LVL227:
 1338              		.loc 1 284 0
 1339 0032 D4E90001 		ldrd	r0, [r4]
 1340              	.LVL228:
 1341 0036 FFF7FEFF 		bl	__aeabi_dsub
 1342              	.LVL229:
 1343 003a FFF7FEFF 		bl	ln_deg_to_rad
 1344              	.LVL230:
 1345 003e 8046     		mov	r8, r0
 1346 0040 8946     		mov	r9, r1
 1347              	.LVL231:
 1348              		.loc 1 285 0
 1349 0042 FFF7FEFF 		bl	cos
 1350              	.LVL232:
 1351 0046 CDE90201 		strd	r0, [sp, #8]
 1352              	.LVL233:
 1353              		.loc 1 287 0
 1354 004a D4E90201 		ldrd	r0, [r4, #8]
 1355              	.LVL234:
 1356 004e FFF7FEFF 		bl	ln_deg_to_rad
 1357              	.LVL235:
 1358 0052 0446     		mov	r4, r0
 1359              	.LVL236:
ARM GAS  /tmp/ccNJIE6Y.s 			page 25


 1360 0054 0D46     		mov	r5, r1
 1361              	.LVL237:
 1362              		.loc 1 289 0
 1363 0056 FFF7FEFF 		bl	sin
 1364              	.LVL238:
 1365 005a 0646     		mov	r6, r0
 1366              	.LVL239:
 1367 005c 0F46     		mov	r7, r1
 1368              	.LVL240:
 1369              		.loc 1 290 0
 1370 005e 2046     		mov	r0, r4
 1371 0060 2946     		mov	r1, r5
 1372 0062 FFF7FEFF 		bl	cos
 1373              	.LVL241:
 1374 0066 0446     		mov	r4, r0
 1375              	.LVL242:
 1376 0068 0D46     		mov	r5, r1
 1377              	.LVL243:
 1378              		.loc 1 292 0
 1379 006a 4046     		mov	r0, r8
 1380 006c 4946     		mov	r1, r9
 1381 006e FFF7FEFF 		bl	sin
 1382              	.LVL244:
 1383 0072 5246     		mov	r2, sl
 1384 0074 CDE90601 		strd	r0, [sp, #24]
 1385 0078 5B46     		mov	r3, fp
 1386 007a DDE90201 		ldrd	r0, [sp, #8]
 1387 007e FFF7FEFF 		bl	__aeabi_dmul
 1388              	.LVL245:
 1389 0082 2246     		mov	r2, r4
 1390 0084 8046     		mov	r8, r0
 1391              	.LVL246:
 1392 0086 8946     		mov	r9, r1
 1393 0088 3046     		mov	r0, r6
 1394 008a 3946     		mov	r1, r7
 1395 008c 2B46     		mov	r3, r5
 1396 008e FFF7FEFF 		bl	__aeabi_ddiv
 1397              	.LVL247:
 1398 0092 DDE90023 		ldrd	r2, [sp]
 1399 0096 FFF7FEFF 		bl	__aeabi_dmul
 1400              	.LVL248:
 1401 009a 0246     		mov	r2, r0
 1402 009c 0B46     		mov	r3, r1
 1403 009e 4046     		mov	r0, r8
 1404 00a0 4946     		mov	r1, r9
 1405 00a2 FFF7FEFF 		bl	__aeabi_dsub
 1406              	.LVL249:
 1407 00a6 0246     		mov	r2, r0
 1408 00a8 0B46     		mov	r3, r1
 1409 00aa DDE90601 		ldrd	r0, [sp, #24]
 1410 00ae FFF7FEFF 		bl	atan2
 1411              	.LVL250:
 1412              		.loc 1 293 0
 1413 00b2 FFF7FEFF 		bl	ln_rad_to_deg
 1414              	.LVL251:
 1415 00b6 4FF40043 		mov	r3, #32768
 1416 00ba 0022     		movs	r2, #0
ARM GAS  /tmp/ccNJIE6Y.s 			page 26


 1417 00bc C4F22803 		movt	r3, 16424
 1418 00c0 FFF7FEFF 		bl	__aeabi_dadd
 1419              	.LVL252:
 1420 00c4 FFF7FEFF 		bl	ln_range_degrees
 1421              	.LVL253:
 1422 00c8 DDF814E0 		ldr	lr, [sp, #20]
 1423              		.loc 1 294 0
 1424 00cc 5246     		mov	r2, sl
 1425              		.loc 1 293 0
 1426 00ce CEE90001 		strd	r0, [lr]
 1427              		.loc 1 294 0
 1428 00d2 5B46     		mov	r3, fp
 1429 00d4 3046     		mov	r0, r6
 1430 00d6 3946     		mov	r1, r7
 1431 00d8 FFF7FEFF 		bl	__aeabi_dmul
 1432              	.LVL254:
 1433 00dc DDE90023 		ldrd	r2, [sp]
 1434 00e0 0646     		mov	r6, r0
 1435              	.LVL255:
 1436 00e2 0F46     		mov	r7, r1
 1437 00e4 2046     		mov	r0, r4
 1438 00e6 2946     		mov	r1, r5
 1439 00e8 FFF7FEFF 		bl	__aeabi_dmul
 1440              	.LVL256:
 1441 00ec DDE90223 		ldrd	r2, [sp, #8]
 1442 00f0 FFF7FEFF 		bl	__aeabi_dmul
 1443              	.LVL257:
 1444 00f4 0B46     		mov	r3, r1
 1445 00f6 0246     		mov	r2, r0
 1446 00f8 3946     		mov	r1, r7
 1447 00fa 3046     		mov	r0, r6
 1448 00fc FFF7FEFF 		bl	__aeabi_dadd
 1449              	.LVL258:
 1450 0100 FFF7FEFF 		bl	asin
 1451              	.LVL259:
 1452 0104 FFF7FEFF 		bl	ln_rad_to_deg
 1453              	.LVL260:
 1454 0108 059B     		ldr	r3, [sp, #20]
 1455 010a C3E90201 		strd	r0, [r3, #8]
 1456              		.loc 1 295 0
 1457 010e 09B0     		add	sp, sp, #36
 1458 0110 BDE8F08F 		pop	{r4, r5, r6, r7, r8, r9, sl, fp, pc}
 1459              	.L42:
 1460 0114 AFF30080 		.align	3
 1461              	.L41:
 1462 0118 66666666 		.word	1717986918
 1463 011c 66663B40 		.word	1077634662
 1464 0120 00000000 		.word	0
 1465 0124 00C05E40 		.word	1079951360
 1466              		.cfi_endproc
 1467              	.LFE7:
 1468              		.size	ln_get_equ_from_gal, .-ln_get_equ_from_gal
 1469 0128 AFF30080 		.section	.text.ln_get_equ2000_from_gal,"ax",%progbits
 1469      AFF30080 
 1470              		.align	2
 1471              		.p2align 4,,15
 1472              		.global	ln_get_equ2000_from_gal
ARM GAS  /tmp/ccNJIE6Y.s 			page 27


 1473              		.thumb
 1474              		.thumb_func
 1475              		.type	ln_get_equ2000_from_gal, %function
 1476              	ln_get_equ2000_from_gal:
 1477              	.LFB8:
 1478              		.loc 1 304 0
 1479              		.cfi_startproc
 1480              		@ args = 0, pretend = 0, frame = 0
 1481              		@ frame_needed = 0, uses_anonymous_args = 0
 1482              	.LVL261:
 1483 0000 10B5     		push	{r4, lr}
 1484              	.LCFI14:
 1485              		.cfi_def_cfa_offset 8
 1486              		.cfi_offset 4, -8
 1487              		.cfi_offset 14, -4
 1488 0002 84B0     		sub	sp, sp, #16
 1489              	.LCFI15:
 1490              		.cfi_def_cfa_offset 24
 1491              		.loc 1 304 0
 1492 0004 0C46     		mov	r4, r1
 1493              		.loc 1 305 0
 1494 0006 FFF7FEFF 		bl	ln_get_equ_from_gal
 1495              	.LVL262:
 1496              		.loc 1 306 0
 1497 000a 07A3     		adr	r3, .L44
 1498 000c D3E90023 		ldrd	r2, [r3]
 1499 0010 0294     		str	r4, [sp, #8]
 1500 0012 CDE90023 		strd	r2, [sp]
 1501 0016 2046     		mov	r0, r4
 1502 0018 05A3     		adr	r3, .L44+8
 1503 001a D3E90023 		ldrd	r2, [r3]
 1504 001e FFF7FEFF 		bl	ln_get_equ_prec2
 1505              	.LVL263:
 1506              		.loc 1 307 0
 1507 0022 04B0     		add	sp, sp, #16
 1508 0024 10BD     		pop	{r4, pc}
 1509              	.L45:
 1510 0026 00BF     		.align	3
 1511              	.L44:
 1512 0028 00000080 		.word	2147483648
 1513 002c 2CB44241 		.word	1094890540
 1514 0030 7D3F3536 		.word	909459325
 1515 0034 81904241 		.word	1094881409
 1516              		.cfi_endproc
 1517              	.LFE8:
 1518              		.size	ln_get_equ2000_from_gal, .-ln_get_equ2000_from_gal
 1519 0038 AFF30080 		.section	.text.ln_get_gal_from_equ,"ax",%progbits
 1519      AFF30080 
 1520              		.align	2
 1521              		.p2align 4,,15
 1522              		.global	ln_get_gal_from_equ
 1523              		.thumb
 1524              		.thumb_func
 1525              		.type	ln_get_gal_from_equ, %function
 1526              	ln_get_gal_from_equ:
 1527              	.LFB9:
 1528              		.loc 1 317 0
ARM GAS  /tmp/ccNJIE6Y.s 			page 28


 1529              		.cfi_startproc
 1530              		@ args = 0, pretend = 0, frame = 32
 1531              		@ frame_needed = 0, uses_anonymous_args = 0
 1532              	.LVL264:
 1533 0000 2DE9F04F 		push	{r4, r5, r6, r7, r8, r9, sl, fp, lr}
 1534              	.LCFI16:
 1535              		.cfi_def_cfa_offset 36
 1536              		.cfi_offset 4, -36
 1537              		.cfi_offset 5, -32
 1538              		.cfi_offset 6, -28
 1539              		.cfi_offset 7, -24
 1540              		.cfi_offset 8, -20
 1541              		.cfi_offset 9, -16
 1542              		.cfi_offset 10, -12
 1543              		.cfi_offset 11, -8
 1544              		.cfi_offset 14, -4
 1545 0004 89B0     		sub	sp, sp, #36
 1546              	.LCFI17:
 1547              		.cfi_def_cfa_offset 72
 1548              		.loc 1 317 0
 1549 0006 0446     		mov	r4, r0
 1550 0008 0591     		str	r1, [sp, #20]
 1551              		.loc 1 325 0
 1552 000a 43A1     		adr	r1, .L47
 1553 000c D1E90001 		ldrd	r0, [r1]
 1554              	.LVL265:
 1555 0010 FFF7FEFF 		bl	ln_deg_to_rad
 1556              	.LVL266:
 1557 0014 0646     		mov	r6, r0
 1558 0016 0F46     		mov	r7, r1
 1559              	.LVL267:
 1560              		.loc 1 326 0
 1561 0018 FFF7FEFF 		bl	sin
 1562              	.LVL268:
 1563 001c 8246     		mov	sl, r0
 1564 001e 8B46     		mov	fp, r1
 1565              	.LVL269:
 1566              		.loc 1 327 0
 1567 0020 3046     		mov	r0, r6
 1568 0022 3946     		mov	r1, r7
 1569 0024 FFF7FEFF 		bl	cos
 1570              	.LVL270:
 1571              		.loc 1 329 0
 1572 0028 D4E90023 		ldrd	r2, [r4]
 1573              		.loc 1 327 0
 1574 002c CDE90001 		strd	r0, [sp]
 1575              	.LVL271:
 1576              		.loc 1 329 0
 1577 0030 3BA1     		adr	r1, .L47+8
 1578 0032 D1E90001 		ldrd	r0, [r1]
 1579              	.LVL272:
 1580 0036 FFF7FEFF 		bl	__aeabi_dsub
 1581              	.LVL273:
 1582 003a FFF7FEFF 		bl	ln_deg_to_rad
 1583              	.LVL274:
 1584 003e 8046     		mov	r8, r0
 1585 0040 8946     		mov	r9, r1
ARM GAS  /tmp/ccNJIE6Y.s 			page 29


 1586              	.LVL275:
 1587              		.loc 1 330 0
 1588 0042 FFF7FEFF 		bl	cos
 1589              	.LVL276:
 1590 0046 CDE90201 		strd	r0, [sp, #8]
 1591              	.LVL277:
 1592              		.loc 1 332 0
 1593 004a D4E90201 		ldrd	r0, [r4, #8]
 1594              	.LVL278:
 1595 004e FFF7FEFF 		bl	ln_deg_to_rad
 1596              	.LVL279:
 1597 0052 0446     		mov	r4, r0
 1598              	.LVL280:
 1599 0054 0D46     		mov	r5, r1
 1600              	.LVL281:
 1601              		.loc 1 334 0
 1602 0056 FFF7FEFF 		bl	sin
 1603              	.LVL282:
 1604 005a 0646     		mov	r6, r0
 1605              	.LVL283:
 1606 005c 0F46     		mov	r7, r1
 1607              	.LVL284:
 1608              		.loc 1 335 0
 1609 005e 2046     		mov	r0, r4
 1610 0060 2946     		mov	r1, r5
 1611 0062 FFF7FEFF 		bl	cos
 1612              	.LVL285:
 1613 0066 0446     		mov	r4, r0
 1614              	.LVL286:
 1615 0068 0D46     		mov	r5, r1
 1616              	.LVL287:
 1617              		.loc 1 337 0
 1618 006a 4046     		mov	r0, r8
 1619 006c 4946     		mov	r1, r9
 1620 006e FFF7FEFF 		bl	sin
 1621              	.LVL288:
 1622 0072 5246     		mov	r2, sl
 1623 0074 CDE90601 		strd	r0, [sp, #24]
 1624 0078 5B46     		mov	r3, fp
 1625 007a DDE90201 		ldrd	r0, [sp, #8]
 1626 007e FFF7FEFF 		bl	__aeabi_dmul
 1627              	.LVL289:
 1628 0082 2246     		mov	r2, r4
 1629 0084 8046     		mov	r8, r0
 1630              	.LVL290:
 1631 0086 8946     		mov	r9, r1
 1632 0088 3046     		mov	r0, r6
 1633 008a 3946     		mov	r1, r7
 1634 008c 2B46     		mov	r3, r5
 1635 008e FFF7FEFF 		bl	__aeabi_ddiv
 1636              	.LVL291:
 1637 0092 DDE90023 		ldrd	r2, [sp]
 1638 0096 FFF7FEFF 		bl	__aeabi_dmul
 1639              	.LVL292:
 1640 009a 0246     		mov	r2, r0
 1641 009c 0B46     		mov	r3, r1
 1642 009e 4046     		mov	r0, r8
ARM GAS  /tmp/ccNJIE6Y.s 			page 30


 1643 00a0 4946     		mov	r1, r9
 1644 00a2 FFF7FEFF 		bl	__aeabi_dsub
 1645              	.LVL293:
 1646 00a6 0246     		mov	r2, r0
 1647 00a8 0B46     		mov	r3, r1
 1648 00aa DDE90601 		ldrd	r0, [sp, #24]
 1649 00ae FFF7FEFF 		bl	atan2
 1650              	.LVL294:
 1651              		.loc 1 338 0
 1652 00b2 FFF7FEFF 		bl	ln_rad_to_deg
 1653              	.LVL295:
 1654 00b6 0246     		mov	r2, r0
 1655 00b8 0B46     		mov	r3, r1
 1656 00ba 1BA1     		adr	r1, .L47+16
 1657 00bc D1E90001 		ldrd	r0, [r1]
 1658 00c0 FFF7FEFF 		bl	__aeabi_dsub
 1659              	.LVL296:
 1660 00c4 FFF7FEFF 		bl	ln_range_degrees
 1661              	.LVL297:
 1662 00c8 DDF814E0 		ldr	lr, [sp, #20]
 1663              		.loc 1 339 0
 1664 00cc 5246     		mov	r2, sl
 1665              		.loc 1 338 0
 1666 00ce CEE90001 		strd	r0, [lr]
 1667              		.loc 1 339 0
 1668 00d2 5B46     		mov	r3, fp
 1669 00d4 3046     		mov	r0, r6
 1670 00d6 3946     		mov	r1, r7
 1671 00d8 FFF7FEFF 		bl	__aeabi_dmul
 1672              	.LVL298:
 1673 00dc DDE90023 		ldrd	r2, [sp]
 1674 00e0 0646     		mov	r6, r0
 1675              	.LVL299:
 1676 00e2 0F46     		mov	r7, r1
 1677 00e4 2046     		mov	r0, r4
 1678 00e6 2946     		mov	r1, r5
 1679 00e8 FFF7FEFF 		bl	__aeabi_dmul
 1680              	.LVL300:
 1681 00ec DDE90223 		ldrd	r2, [sp, #8]
 1682 00f0 FFF7FEFF 		bl	__aeabi_dmul
 1683              	.LVL301:
 1684 00f4 0B46     		mov	r3, r1
 1685 00f6 0246     		mov	r2, r0
 1686 00f8 3946     		mov	r1, r7
 1687 00fa 3046     		mov	r0, r6
 1688 00fc FFF7FEFF 		bl	__aeabi_dadd
 1689              	.LVL302:
 1690 0100 FFF7FEFF 		bl	asin
 1691              	.LVL303:
 1692 0104 FFF7FEFF 		bl	ln_rad_to_deg
 1693              	.LVL304:
 1694 0108 059B     		ldr	r3, [sp, #20]
 1695 010a C3E90201 		strd	r0, [r3, #8]
 1696              		.loc 1 340 0
 1697 010e 09B0     		add	sp, sp, #36
 1698 0110 BDE8F08F 		pop	{r4, r5, r6, r7, r8, r9, sl, fp, pc}
 1699              	.L48:
ARM GAS  /tmp/ccNJIE6Y.s 			page 31


 1700 0114 AFF30080 		.align	3
 1701              	.L47:
 1702 0118 66666666 		.word	1717986918
 1703 011c 66663B40 		.word	1077634662
 1704 0120 00000000 		.word	0
 1705 0124 00086840 		.word	1080559616
 1706 0128 00000000 		.word	0
 1707 012c 00F07240 		.word	1081274368
 1708              		.cfi_endproc
 1709              	.LFE9:
 1710              		.size	ln_get_gal_from_equ, .-ln_get_gal_from_equ
 1711              		.section	.text.ln_get_gal_from_equ2000,"ax",%progbits
 1712              		.align	2
 1713              		.p2align 4,,15
 1714              		.global	ln_get_gal_from_equ2000
 1715              		.thumb
 1716              		.thumb_func
 1717              		.type	ln_get_gal_from_equ2000, %function
 1718              	ln_get_gal_from_equ2000:
 1719              	.LFB10:
 1720              		.loc 1 349 0
 1721              		.cfi_startproc
 1722              		@ args = 0, pretend = 0, frame = 16
 1723              		@ frame_needed = 0, uses_anonymous_args = 0
 1724              	.LVL305:
 1725 0000 30B5     		push	{r4, r5, lr}
 1726              	.LCFI18:
 1727              		.cfi_def_cfa_offset 12
 1728              		.cfi_offset 4, -12
 1729              		.cfi_offset 5, -8
 1730              		.cfi_offset 14, -4
 1731              		.loc 1 351 0
 1732 0002 0BA3     		adr	r3, .L50
 1733 0004 D3E90023 		ldrd	r2, [r3]
 1734              		.loc 1 349 0
 1735 0008 89B0     		sub	sp, sp, #36
 1736              	.LCFI19:
 1737              		.cfi_def_cfa_offset 48
 1738              		.loc 1 351 0
 1739 000a 04AC     		add	r4, sp, #16
 1740              		.loc 1 349 0
 1741 000c 0D46     		mov	r5, r1
 1742              		.loc 1 351 0
 1743 000e CDE90023 		strd	r2, [sp]
 1744 0012 0294     		str	r4, [sp, #8]
 1745 0014 08A3     		adr	r3, .L50+8
 1746 0016 D3E90023 		ldrd	r2, [r3]
 1747 001a FFF7FEFF 		bl	ln_get_equ_prec2
 1748              	.LVL306:
 1749              		.loc 1 352 0
 1750 001e 2046     		mov	r0, r4
 1751 0020 2946     		mov	r1, r5
 1752 0022 FFF7FEFF 		bl	ln_get_gal_from_equ
 1753              	.LVL307:
 1754              		.loc 1 353 0
 1755 0026 09B0     		add	sp, sp, #36
 1756 0028 30BD     		pop	{r4, r5, pc}
ARM GAS  /tmp/ccNJIE6Y.s 			page 32


 1757              	.L51:
 1758 002a 00BFAFF3 		.align	3
 1758      0080
 1759              	.L50:
 1760 0030 7D3F3536 		.word	909459325
 1761 0034 81904241 		.word	1094881409
 1762 0038 00000080 		.word	2147483648
 1763 003c 2CB44241 		.word	1094890540
 1764              		.cfi_endproc
 1765              	.LFE10:
 1766              		.size	ln_get_gal_from_equ2000, .-ln_get_gal_from_equ2000
 1767              		.text
 1768              	.Letext0:
 1769              		.file 2 "./libnova/src/libnova/ln_types.h"
 1770              		.file 3 "/usr/bin/../lib/gcc/arm-none-eabi/4.7.4/../../../../arm-none-eabi/include/math.h"
 1771              		.file 4 "./libnova/src/libnova/utility.h"
 1772              		.file 5 "./libnova/src/libnova/sidereal_time.h"
 1773              		.file 6 "./libnova/src/libnova/nutation.h"
 1774              		.file 7 "./libnova/src/libnova/precession.h"