ARM GAS  /tmp/ccNJIE6Y.s 			page 1


   1              		.syntax unified
   2              		.cpu cortex-m4
   3              		.fpu softvfp
   4              		.eabi_attribute 20, 1
   5              		.eabi_attribute 21, 1
   6              		.eabi_attribute 23, 3
   7              		.eabi_attribute 24, 1
   8              		.eabi_attribute 25, 1
   9              		.eabi_attribute 26, 1
  10              		.eabi_attribute 30, 2
  11              		.eabi_attribute 34, 1
  12              		.eabi_attribute 18, 4
  13              		.thumb
  14              		.file	"transform.c"
  15              		.text
  16              	.Ltext0:
  17              		.cfi_sections	.debug_frame
  18              		.global	__aeabi_dmul
  19              		.global	__aeabi_dsub
  20              		.global	__aeabi_dadd
  21              		.section	.text.ln_get_rect_from_helio,"ax",%progbits
  22              		.align	2
  23              		.p2align 4,,15
  24              		.global	ln_get_rect_from_helio
  25              		.thumb
  26              		.thumb_func
  27              		.type	ln_get_rect_from_helio, %function
  28              	ln_get_rect_from_helio:
  29              	.LFB0:
  30              		.file 1 "./libnova/src/transform.c"
  31              		.loc 1 38 0
  32              		.cfi_startproc
  33              		@ args = 0, pretend = 0, frame = 16
  34              		@ frame_needed = 0, uses_anonymous_args = 0
  35              	.LVL0:
  36 0000 2DE9704F 		push	{r4, r5, r6, r8, r9, sl, fp, lr}
  37              	.LCFI0:
  38              		.cfi_def_cfa_offset 32
  39              		.cfi_offset 4, -32
  40              		.cfi_offset 5, -28
  41              		.cfi_offset 6, -24
  42              		.cfi_offset 8, -20
  43              		.cfi_offset 9, -16
  44              		.cfi_offset 10, -12
  45              		.cfi_offset 11, -8
  46              		.cfi_offset 14, -4
  47 0004 0446     		mov	r4, r0
  48 0006 84B0     		sub	sp, sp, #16
  49              	.LCFI1:
  50              		.cfi_def_cfa_offset 48
  51              		.loc 1 38 0
  52 0008 0E46     		mov	r6, r1
  53              		.loc 1 47 0
  54 000a D0E90201 		ldrd	r0, [r0, #8]
  55              	.LVL1:
  56 000e FFF7FEFF 		bl	ln_deg_to_rad
  57              	.LVL2:
ARM GAS  /tmp/ccNJIE6Y.s 			page 2


  58 0012 FFF7FEFF 		bl	cos
  59              	.LVL3:
  60 0016 8046     		mov	r8, r0
  61 0018 8946     		mov	r9, r1
  62              	.LVL4:
  63              		.loc 1 48 0
  64 001a D4E90001 		ldrd	r0, [r4]
  65 001e FFF7FEFF 		bl	ln_deg_to_rad
  66              	.LVL5:
  67 0022 FFF7FEFF 		bl	cos
  68              	.LVL6:
  69 0026 0246     		mov	r2, r0
  70 0028 0B46     		mov	r3, r1
  71              	.LVL7:
  72              		.loc 1 49 0
  73 002a D4E90201 		ldrd	r0, [r4, #8]
  74 002e 0192     		str	r2, [sp, #4]
  75 0030 0093     		str	r3, [sp, #0]
  76 0032 FFF7FEFF 		bl	ln_deg_to_rad
  77              	.LVL8:
  78 0036 FFF7FEFF 		bl	sin
  79              	.LVL9:
  80 003a CDE90201 		strd	r0, [sp, #8]
  81              	.LVL10:
  82              		.loc 1 50 0
  83 003e D4E90001 		ldrd	r0, [r4]
  84              	.LVL11:
  85 0042 FFF7FEFF 		bl	ln_deg_to_rad
  86              	.LVL12:
  87 0046 FFF7FEFF 		bl	sin
  88              	.LVL13:
  89              		.loc 1 53 0
  90 004a D4E90445 		ldrd	r4, [r4, #16]
  91              	.LVL14:
  92 004e 019A     		ldr	r2, [sp, #4]
  93 0050 009B     		ldr	r3, [sp, #0]
  94              		.loc 1 50 0
  95 0052 8246     		mov	sl, r0
  96 0054 8B46     		mov	fp, r1
  97              	.LVL15:
  98              		.loc 1 53 0
  99 0056 2046     		mov	r0, r4
 100 0058 2946     		mov	r1, r5
 101 005a FFF7FEFF 		bl	__aeabi_dmul
 102              	.LVL16:
 103 005e 4246     		mov	r2, r8
 104 0060 4B46     		mov	r3, r9
 105 0062 FFF7FEFF 		bl	__aeabi_dmul
 106              	.LVL17:
 107              		.loc 1 54 0
 108 0066 4246     		mov	r2, r8
 109 0068 4B46     		mov	r3, r9
 110              		.loc 1 53 0
 111 006a C6E90001 		strd	r0, [r6]
 112              		.loc 1 54 0
 113 006e 5046     		mov	r0, sl
 114 0070 5946     		mov	r1, fp
ARM GAS  /tmp/ccNJIE6Y.s 			page 3


 115 0072 FFF7FEFF 		bl	__aeabi_dmul
 116              	.LVL18:
 117 0076 20A3     		adr	r3, .L2
 118 0078 D3E90023 		ldrd	r2, [r3]
 119 007c 8246     		mov	sl, r0
 120              	.LVL19:
 121 007e 8B46     		mov	fp, r1
 122 0080 FFF7FEFF 		bl	__aeabi_dmul
 123              	.LVL20:
 124 0084 1EA3     		adr	r3, .L2+8
 125 0086 D3E90023 		ldrd	r2, [r3]
 126 008a 8046     		mov	r8, r0
 127              	.LVL21:
 128 008c 8946     		mov	r9, r1
 129 008e DDE90201 		ldrd	r0, [sp, #8]
 130 0092 FFF7FEFF 		bl	__aeabi_dmul
 131              	.LVL22:
 132 0096 0246     		mov	r2, r0
 133 0098 0B46     		mov	r3, r1
 134 009a 4046     		mov	r0, r8
 135 009c 4946     		mov	r1, r9
 136 009e FFF7FEFF 		bl	__aeabi_dsub
 137              	.LVL23:
 138 00a2 0246     		mov	r2, r0
 139 00a4 0B46     		mov	r3, r1
 140 00a6 2046     		mov	r0, r4
 141 00a8 2946     		mov	r1, r5
 142 00aa FFF7FEFF 		bl	__aeabi_dmul
 143              	.LVL24:
 144              		.loc 1 55 0
 145 00ae 14A3     		adr	r3, .L2+8
 146 00b0 D3E90023 		ldrd	r2, [r3]
 147              		.loc 1 54 0
 148 00b4 C6E90201 		strd	r0, [r6, #8]
 149              		.loc 1 55 0
 150 00b8 5046     		mov	r0, sl
 151 00ba 5946     		mov	r1, fp
 152 00bc FFF7FEFF 		bl	__aeabi_dmul
 153              	.LVL25:
 154 00c0 0DA3     		adr	r3, .L2
 155 00c2 D3E90023 		ldrd	r2, [r3]
 156 00c6 8046     		mov	r8, r0
 157 00c8 8946     		mov	r9, r1
 158 00ca DDE90201 		ldrd	r0, [sp, #8]
 159 00ce FFF7FEFF 		bl	__aeabi_dmul
 160              	.LVL26:
 161 00d2 0246     		mov	r2, r0
 162 00d4 0B46     		mov	r3, r1
 163 00d6 4046     		mov	r0, r8
 164 00d8 4946     		mov	r1, r9
 165 00da FFF7FEFF 		bl	__aeabi_dadd
 166              	.LVL27:
 167 00de 0246     		mov	r2, r0
 168 00e0 0B46     		mov	r3, r1
 169 00e2 2046     		mov	r0, r4
 170 00e4 2946     		mov	r1, r5
 171 00e6 FFF7FEFF 		bl	__aeabi_dmul
ARM GAS  /tmp/ccNJIE6Y.s 			page 4


 172              	.LVL28:
 173 00ea C6E90401 		strd	r0, [r6, #16]
 174              		.loc 1 56 0
 175 00ee 04B0     		add	sp, sp, #16
 176 00f0 BDE8708F 		pop	{r4, r5, r6, r8, r9, sl, fp, pc}
 177              	.L3:
 178 00f4 AFF30080 		.align	3
 179              	.L2:
 180 00f8 D59C5E57 		.word	1465818325
 181 00fc 035CED3F 		.word	1072520195
 182 0100 BF6A0751 		.word	1359440575
 183 0104 2E75D93F 		.word	1071215918
 184              		.cfi_endproc
 185              	.LFE0:
 186              		.size	ln_get_rect_from_helio, .-ln_get_rect_from_helio
 187              		.global	__aeabi_dcmplt
 188              		.global	__aeabi_dcmpgt
 189              		.global	__aeabi_ddiv
 190              		.global	__aeabi_dcmpeq
 191 0108 AFF30080 		.section	.text.ln_get_hrz_from_equ_sidereal_time,"ax",%progbits
 191      AFF30080 
 192              		.align	2
 193              		.p2align 4,,15
 194              		.global	ln_get_hrz_from_equ_sidereal_time
 195              		.thumb
 196              		.thumb_func
 197              		.type	ln_get_hrz_from_equ_sidereal_time, %function
 198              	ln_get_hrz_from_equ_sidereal_time:
 199              	.LFB2:
 200              		.loc 1 86 0
 201              		.cfi_startproc
 202              		@ args = 4, pretend = 0, frame = 40
 203              		@ frame_needed = 0, uses_anonymous_args = 0
 204              	.LVL29:
 205 0000 2DE9F04F 		push	{r4, r5, r6, r7, r8, r9, sl, fp, lr}
 206              	.LCFI2:
 207              		.cfi_def_cfa_offset 36
 208              		.cfi_offset 4, -36
 209              		.cfi_offset 5, -32
 210              		.cfi_offset 6, -28
 211              		.cfi_offset 7, -24
 212              		.cfi_offset 8, -20
 213              		.cfi_offset 9, -16
 214              		.cfi_offset 10, -12
 215              		.cfi_offset 11, -8
 216              		.cfi_offset 14, -4
 217 0004 8A46     		mov	sl, r1
 218 0006 8BB0     		sub	sp, sp, #44
 219              	.LCFI3:
 220              		.cfi_def_cfa_offset 80
 221              		.loc 1 86 0
 222 0008 8346     		mov	fp, r0
 223              		.loc 1 93 0
 224 000a D0E90001 		ldrd	r0, [r0]
 225              	.LVL30:
 226              		.loc 1 86 0
 227 000e 9046     		mov	r8, r2
ARM GAS  /tmp/ccNJIE6Y.s 			page 5


 228 0010 9946     		mov	r9, r3
 229              	.LVL31:
 230              		.loc 1 93 0
 231 0012 FFF7FEFF 		bl	ln_deg_to_rad
 232              	.LVL32:
 233 0016 0446     		mov	r4, r0
 234 0018 0D46     		mov	r5, r1
 235              	.LVL33:
 236              		.loc 1 94 0
 237 001a DAE90001 		ldrd	r0, [sl]
 238 001e FFF7FEFF 		bl	ln_deg_to_rad
 239              	.LVL34:
 240              		.loc 1 90 0
 241 0022 8BA3     		adr	r3, .L31
 242 0024 D3E90023 		ldrd	r2, [r3]
 243              		.loc 1 94 0
 244 0028 0646     		mov	r6, r0
 245 002a 0F46     		mov	r7, r1
 246              		.loc 1 90 0
 247 002c 4046     		mov	r0, r8
 248 002e 4946     		mov	r1, r9
 249 0030 FFF7FEFF 		bl	__aeabi_dmul
 250              	.LVL35:
 251 0034 0246     		mov	r2, r0
 252 0036 0B46     		mov	r3, r1
 253              		.loc 1 94 0
 254 0038 3046     		mov	r0, r6
 255 003a 3946     		mov	r1, r7
 256 003c FFF7FEFF 		bl	__aeabi_dadd
 257              	.LVL36:
 258 0040 2246     		mov	r2, r4
 259 0042 2B46     		mov	r3, r5
 260 0044 FFF7FEFF 		bl	__aeabi_dsub
 261              	.LVL37:
 262 0048 CDE90001 		strd	r0, [sp]
 263              	.LVL38:
 264              		.loc 1 98 0
 265 004c DAE90201 		ldrd	r0, [sl, #8]
 266              	.LVL39:
 267 0050 FFF7FEFF 		bl	ln_deg_to_rad
 268              	.LVL40:
 269 0054 0646     		mov	r6, r0
 270 0056 0F46     		mov	r7, r1
 271              	.LVL41:
 272              		.loc 1 99 0
 273 0058 DBE90201 		ldrd	r0, [fp, #8]
 274 005c FFF7FEFF 		bl	ln_deg_to_rad
 275              	.LVL42:
 276 0060 0446     		mov	r4, r0
 277              	.LVL43:
 278 0062 0D46     		mov	r5, r1
 279              	.LVL44:
 280              		.loc 1 102 0
 281 0064 3046     		mov	r0, r6
 282 0066 3946     		mov	r1, r7
 283 0068 FFF7FEFF 		bl	sin
 284              	.LVL45:
ARM GAS  /tmp/ccNJIE6Y.s 			page 6


 285 006c CDE90201 		strd	r0, [sp, #8]
 286 0070 2046     		mov	r0, r4
 287 0072 2946     		mov	r1, r5
 288 0074 FFF7FEFF 		bl	sin
 289              	.LVL46:
 290 0078 CDE90401 		strd	r0, [sp, #16]
 291 007c 3046     		mov	r0, r6
 292 007e 3946     		mov	r1, r7
 293 0080 FFF7FEFF 		bl	cos
 294              	.LVL47:
 295 0084 CDE90601 		strd	r0, [sp, #24]
 296 0088 2046     		mov	r0, r4
 297 008a 2946     		mov	r1, r5
 298 008c FFF7FEFF 		bl	cos
 299              	.LVL48:
 300 0090 0646     		mov	r6, r0
 301              	.LVL49:
 302 0092 0F46     		mov	r7, r1
 303 0094 DDE90001 		ldrd	r0, [sp]
 304 0098 FFF7FEFF 		bl	cos
 305              	.LVL50:
 306 009c DDE90423 		ldrd	r2, [sp, #16]
 307 00a0 CDE90801 		strd	r0, [sp, #32]
 308 00a4 DDE90201 		ldrd	r0, [sp, #8]
 309 00a8 FFF7FEFF 		bl	__aeabi_dmul
 310              	.LVL51:
 311 00ac 3246     		mov	r2, r6
 312 00ae 0446     		mov	r4, r0
 313              	.LVL52:
 314 00b0 0D46     		mov	r5, r1
 315 00b2 3B46     		mov	r3, r7
 316 00b4 DDE90601 		ldrd	r0, [sp, #24]
 317 00b8 FFF7FEFF 		bl	__aeabi_dmul
 318              	.LVL53:
 319 00bc DDE90823 		ldrd	r2, [sp, #32]
 320 00c0 FFF7FEFF 		bl	__aeabi_dmul
 321              	.LVL54:
 322 00c4 0246     		mov	r2, r0
 323 00c6 0B46     		mov	r3, r1
 324 00c8 2046     		mov	r0, r4
 325 00ca 2946     		mov	r1, r5
 326 00cc FFF7FEFF 		bl	__aeabi_dadd
 327              	.LVL55:
 328 00d0 0446     		mov	r4, r0
 329 00d2 0D46     		mov	r5, r1
 330              	.LVL56:
 331              		.loc 1 103 0
 332 00d4 FFF7FEFF 		bl	asin
 333              	.LVL57:
 334              		.loc 1 106 0
 335 00d8 FFF7FEFF 		bl	ln_rad_to_deg
 336              	.LVL58:
 337 00dc 149B     		ldr	r3, [sp, #80]
 338 00de C3E90201 		strd	r0, [r3, #8]
 339              		.loc 1 109 0
 340 00e2 2046     		mov	r0, r4
 341 00e4 2946     		mov	r1, r5
ARM GAS  /tmp/ccNJIE6Y.s 			page 7


 342 00e6 FFF7FEFF 		bl	acos
 343              	.LVL59:
 344              		.loc 1 112 0
 345 00ea FFF7FEFF 		bl	sin
 346              	.LVL60:
 347 00ee 8146     		mov	r9, r0
 348 00f0 8846     		mov	r8, r1
 349              	.LVL61:
 350              		.loc 1 115 0
 351 00f2 4846     		mov	r0, r9
 352 00f4 21F00041 		bic	r1, r1, #-2147483648
 353              	.LVL62:
 354 00f8 57A3     		adr	r3, .L31+8
 355 00fa D3E90023 		ldrd	r2, [r3]
 356 00fe FFF7FEFF 		bl	__aeabi_dcmplt
 357              	.LVL63:
 358 0102 0028     		cmp	r0, #0
 359 0104 26D0     		beq	.L26
 360              		.loc 1 116 0
 361 0106 DBE90245 		ldrd	r4, [fp, #8]
 362              	.LVL64:
 363 010a 0026     		movs	r6, #0
 364 010c 0027     		movs	r7, #0
 365 010e 2046     		mov	r0, r4
 366 0110 2946     		mov	r1, r5
 367 0112 3246     		mov	r2, r6
 368 0114 3B46     		mov	r3, r7
 369 0116 FFF7FEFF 		bl	__aeabi_dcmpgt
 370              	.LVL65:
 371 011a 0028     		cmp	r0, #0
 372 011c 77D0     		beq	.L27
 373              		.loc 1 117 0
 374 011e 1498     		ldr	r0, [sp, #80]
 375 0120 4FF40043 		mov	r3, #32768
 376 0124 0022     		movs	r2, #0
 377 0126 C4F26603 		movt	r3, 16486
 378 012a C0E90023 		strd	r2, [r0]
 379              		.loc 1 120 0
 380 012e DAE90201 		ldrd	r0, [sl, #8]
 381 0132 3246     		mov	r2, r6
 382 0134 3B46     		mov	r3, r7
 383 0136 FFF7FEFF 		bl	__aeabi_dcmpgt
 384              	.LVL66:
 385 013a 0028     		cmp	r0, #0
 386 013c 6AD0     		beq	.L12
 387              	.L15:
 388              		.loc 1 122 0
 389 013e 4FF40043 		mov	r3, #32768
 390 0142 1498     		ldr	r0, [sp, #80]
 391 0144 0022     		movs	r2, #0
 392 0146 C4F25603 		movt	r3, 16470
 393 014a C0E90223 		strd	r2, [r0, #8]
 394              	.LVL67:
 395              	.L4:
 396              		.loc 1 144 0
 397 014e 0BB0     		add	sp, sp, #44
 398 0150 BDE8F08F 		pop	{r4, r5, r6, r7, r8, r9, sl, fp, pc}
ARM GAS  /tmp/ccNJIE6Y.s 			page 8


 399              	.LVL68:
 400              	.L26:
 401              		.loc 1 129 0
 402 0154 DDE90001 		ldrd	r0, [sp]
 403 0158 FFF7FEFF 		bl	sin
 404              	.LVL69:
 405 015c 0246     		mov	r2, r0
 406 015e 0B46     		mov	r3, r1
 407 0160 3046     		mov	r0, r6
 408 0162 3946     		mov	r1, r7
 409 0164 FFF7FEFF 		bl	__aeabi_dmul
 410              	.LVL70:
 411 0168 4A46     		mov	r2, r9
 412 016a 4346     		mov	r3, r8
 413 016c FFF7FEFF 		bl	__aeabi_ddiv
 414              	.LVL71:
 415              		.loc 1 130 0
 416 0170 3246     		mov	r2, r6
 417              		.loc 1 129 0
 418 0172 CDE90001 		strd	r0, [sp]
 419              	.LVL72:
 420              		.loc 1 130 0
 421 0176 3B46     		mov	r3, r7
 422 0178 DDE90201 		ldrd	r0, [sp, #8]
 423              	.LVL73:
 424 017c FFF7FEFF 		bl	__aeabi_dmul
 425              	.LVL74:
 426 0180 0246     		mov	r2, r0
 427 0182 0B46     		mov	r3, r1
 428 0184 DDE90801 		ldrd	r0, [sp, #32]
 429 0188 FFF7FEFF 		bl	__aeabi_dmul
 430              	.LVL75:
 431 018c DDE90623 		ldrd	r2, [sp, #24]
 432 0190 0446     		mov	r4, r0
 433              	.LVL76:
 434 0192 0D46     		mov	r5, r1
 435 0194 DDE90401 		ldrd	r0, [sp, #16]
 436 0198 FFF7FEFF 		bl	__aeabi_dmul
 437              	.LVL77:
 438 019c 0246     		mov	r2, r0
 439 019e 0B46     		mov	r3, r1
 440 01a0 2046     		mov	r0, r4
 441 01a2 2946     		mov	r1, r5
 442 01a4 FFF7FEFF 		bl	__aeabi_dsub
 443              	.LVL78:
 444 01a8 4A46     		mov	r2, r9
 445 01aa 4346     		mov	r3, r8
 446 01ac FFF7FEFF 		bl	__aeabi_ddiv
 447              	.LVL79:
 448              		.loc 1 133 0
 449 01b0 0024     		movs	r4, #0
 450 01b2 0025     		movs	r5, #0
 451 01b4 2246     		mov	r2, r4
 452 01b6 2B46     		mov	r3, r5
 453              		.loc 1 130 0
 454 01b8 8046     		mov	r8, r0
 455              	.LVL80:
ARM GAS  /tmp/ccNJIE6Y.s 			page 9


 456 01ba 8946     		mov	r9, r1
 457              	.LVL81:
 458              		.loc 1 133 0
 459 01bc FFF7FEFF 		bl	__aeabi_dcmpeq
 460              	.LVL82:
 461 01c0 B8B1     		cbz	r0, .L16
 462              		.loc 1 133 0 is_stmt 0 discriminator 1
 463 01c2 DDE90001 		ldrd	r0, [sp]
 464 01c6 2246     		mov	r2, r4
 465 01c8 2B46     		mov	r3, r5
 466 01ca FFF7FEFF 		bl	__aeabi_dcmpeq
 467              	.LVL83:
 468 01ce 80B1     		cbz	r0, .L16
 469              		.loc 1 134 0 is_stmt 1
 470 01d0 DBE90201 		ldrd	r0, [fp, #8]
 471 01d4 2246     		mov	r2, r4
 472 01d6 2B46     		mov	r3, r5
 473 01d8 FFF7FEFF 		bl	__aeabi_dcmpgt
 474              	.LVL84:
 475 01dc 0028     		cmp	r0, #0
 476 01de 32D0     		beq	.L28
 477              		.loc 1 135 0
 478 01e0 4FF40043 		mov	r3, #32768
 479 01e4 1499     		ldr	r1, [sp, #80]
 480 01e6 0022     		movs	r2, #0
 481 01e8 C4F26603 		movt	r3, 16486
 482 01ec C1E90023 		strd	r2, [r1]
 483 01f0 ADE7     		b	.L4
 484              	.L16:
 485              		.loc 1 140 0
 486 01f2 4B46     		mov	r3, r9
 487 01f4 4246     		mov	r2, r8
 488 01f6 DDE90001 		ldrd	r0, [sp]
 489 01fa FFF7FEFF 		bl	atan2
 490              	.LVL85:
 491              		.loc 1 143 0
 492 01fe FFF7FEFF 		bl	ln_rad_to_deg
 493              	.LVL86:
 494 0202 FFF7FEFF 		bl	ln_range_degrees
 495              	.LVL87:
 496 0206 149B     		ldr	r3, [sp, #80]
 497 0208 C3E90001 		strd	r0, [r3]
 498 020c 9FE7     		b	.L4
 499              	.LVL88:
 500              	.L27:
 501              		.loc 1 119 0
 502 020e 149A     		ldr	r2, [sp, #80]
 503 0210 C2E90067 		strd	r6, [r2]
 504              	.L12:
 505              		.loc 1 121 0
 506 0214 2046     		mov	r0, r4
 507 0216 2946     		mov	r1, r5
 508 0218 0022     		movs	r2, #0
 509 021a 0023     		movs	r3, #0
 510 021c FFF7FEFF 		bl	__aeabi_dcmplt
 511              	.LVL89:
 512 0220 40B9     		cbnz	r0, .L30
ARM GAS  /tmp/ccNJIE6Y.s 			page 10


 513              	.L11:
 514              		.loc 1 124 0
 515 0222 4FF40043 		mov	r3, #32768
 516 0226 1499     		ldr	r1, [sp, #80]
 517 0228 0022     		movs	r2, #0
 518 022a CCF25603 		movt	r3, 49238
 519 022e C1E90223 		strd	r2, [r1, #8]
 520 0232 8CE7     		b	.L4
 521              	.L30:
 522              		.loc 1 121 0 discriminator 1
 523 0234 DAE90201 		ldrd	r0, [sl, #8]
 524 0238 0022     		movs	r2, #0
 525 023a 0023     		movs	r3, #0
 526 023c FFF7FEFF 		bl	__aeabi_dcmplt
 527              	.LVL90:
 528 0240 0028     		cmp	r0, #0
 529 0242 EED0     		beq	.L11
 530 0244 7BE7     		b	.L15
 531              	.LVL91:
 532              	.L28:
 533              		.loc 1 137 0
 534 0246 1498     		ldr	r0, [sp, #80]
 535 0248 C0E90045 		strd	r4, [r0]
 536 024c 7FE7     		b	.L4
 537              	.L32:
 538 024e 00BF     		.align	3
 539              	.L31:
 540 0250 65732D38 		.word	942502757
 541 0254 52C1D03F 		.word	1070645586
 542 0258 F168E388 		.word	2296604913
 543 025c B5F8E43E 		.word	1055193269
 544              		.cfi_endproc
 545              	.LFE2:
 546              		.size	ln_get_hrz_from_equ_sidereal_time, .-ln_get_hrz_from_equ_sidereal_time
 547              		.section	.text.ln_get_hrz_from_equ,"ax",%progbits
 548              		.align	2
 549              		.p2align 4,,15
 550              		.global	ln_get_hrz_from_equ
 551              		.thumb
 552              		.thumb_func
 553              		.type	ln_get_hrz_from_equ, %function
 554              	ln_get_hrz_from_equ:
 555              	.LFB1:
 556              		.loc 1 76 0
 557              		.cfi_startproc
 558              		@ args = 4, pretend = 0, frame = 0
 559              		@ frame_needed = 0, uses_anonymous_args = 0
 560              	.LVL92:
 561 0000 70B5     		push	{r4, r5, r6, lr}
 562              	.LCFI4:
 563              		.cfi_def_cfa_offset 16
 564              		.cfi_offset 4, -16
 565              		.cfi_offset 5, -12
 566              		.cfi_offset 6, -8
 567              		.cfi_offset 14, -4
 568              		.loc 1 76 0
 569 0002 0646     		mov	r6, r0
ARM GAS  /tmp/ccNJIE6Y.s 			page 11


 570 0004 0D46     		mov	r5, r1
 571              		.loc 1 80 0
 572 0006 1046     		mov	r0, r2
 573              	.LVL93:
 574 0008 1946     		mov	r1, r3
 575              	.LVL94:
 576              		.loc 1 76 0
 577 000a 049C     		ldr	r4, [sp, #16]
 578              		.loc 1 80 0
 579 000c FFF7FEFF 		bl	ln_get_mean_sidereal_time
 580              	.LVL95:
 581 0010 0246     		mov	r2, r0
 582 0012 0B46     		mov	r3, r1
 583              	.LVL96:
 584              		.loc 1 81 0
 585 0014 3046     		mov	r0, r6
 586 0016 2946     		mov	r1, r5
 587 0018 0494     		str	r4, [sp, #16]
 588              		.loc 1 82 0
 589 001a BDE87040 		pop	{r4, r5, r6, lr}
 590              		.loc 1 81 0
 591 001e FFF7FEBF 		b	ln_get_hrz_from_equ_sidereal_time
 592              	.LVL97:
 593              		.cfi_endproc
 594              	.LFE1:
 595              		.size	ln_get_hrz_from_equ, .-ln_get_hrz_from_equ
 596 0022 00BFAFF3 		.section	.text.ln_get_equ_from_hrz,"ax",%progbits
 596      0080AFF3 
 596      0080AFF3 
 596      0080
 597              		.align	2
 598              		.p2align 4,,15
 599              		.global	ln_get_equ_from_hrz
 600              		.thumb
 601              		.thumb_func
 602              		.type	ln_get_equ_from_hrz, %function
 603              	ln_get_equ_from_hrz:
 604              	.LFB3:
 605              		.loc 1 156 0
 606              		.cfi_startproc
 607              		@ args = 4, pretend = 0, frame = 40
 608              		@ frame_needed = 0, uses_anonymous_args = 0
 609              	.LVL98:
 610 0000 2DE9F04F 		push	{r4, r5, r6, r7, r8, r9, sl, fp, lr}
 611              	.LCFI5:
 612              		.cfi_def_cfa_offset 36
 613              		.cfi_offset 4, -36
 614              		.cfi_offset 5, -32
 615              		.cfi_offset 6, -28
 616              		.cfi_offset 7, -24
 617              		.cfi_offset 8, -20
 618              		.cfi_offset 9, -16
 619              		.cfi_offset 10, -12
 620              		.cfi_offset 11, -8
 621              		.cfi_offset 14, -4
 622 0004 0E46     		mov	r6, r1
 623 0006 8BB0     		sub	sp, sp, #44
ARM GAS  /tmp/ccNJIE6Y.s 			page 12


 624              	.LCFI6:
 625              		.cfi_def_cfa_offset 80
 626              		.loc 1 156 0
 627 0008 0446     		mov	r4, r0
 628              		.loc 1 162 0
 629 000a D0E90001 		ldrd	r0, [r0]
 630              	.LVL99:
 631              		.loc 1 156 0
 632 000e CDE90823 		strd	r2, [sp, #32]
 633              		.loc 1 162 0
 634 0012 FFF7FEFF 		bl	ln_deg_to_rad
 635              	.LVL100:
 636 0016 8046     		mov	r8, r0
 637 0018 8946     		mov	r9, r1
 638              	.LVL101:
 639              		.loc 1 163 0
 640 001a D4E90201 		ldrd	r0, [r4, #8]
 641 001e FFF7FEFF 		bl	ln_deg_to_rad
 642              	.LVL102:
 643 0022 0446     		mov	r4, r0
 644              	.LVL103:
 645 0024 0D46     		mov	r5, r1
 646              	.LVL104:
 647              		.loc 1 166 0
 648 0026 D6E90001 		ldrd	r0, [r6]
 649 002a FFF7FEFF 		bl	ln_deg_to_rad
 650              	.LVL105:
 651 002e CDE90401 		strd	r0, [sp, #16]
 652              	.LVL106:
 653              		.loc 1 167 0
 654 0032 D6E90201 		ldrd	r0, [r6, #8]
 655              	.LVL107:
 656 0036 FFF7FEFF 		bl	ln_deg_to_rad
 657              	.LVL108:
 658 003a 0646     		mov	r6, r0
 659              	.LVL109:
 660 003c 0F46     		mov	r7, r1
 661              	.LVL110:
 662              		.loc 1 170 0
 663 003e 4046     		mov	r0, r8
 664 0040 4946     		mov	r1, r9
 665 0042 FFF7FEFF 		bl	sin
 666              	.LVL111:
 667 0046 CDE90601 		strd	r0, [sp, #24]
 668 004a 4046     		mov	r0, r8
 669 004c 4946     		mov	r1, r9
 670 004e FFF7FEFF 		bl	cos
 671              	.LVL112:
 672 0052 CDE90001 		strd	r0, [sp]
 673 0056 3046     		mov	r0, r6
 674 0058 3946     		mov	r1, r7
 675 005a FFF7FEFF 		bl	sin
 676              	.LVL113:
 677 005e CDE90201 		strd	r0, [sp, #8]
 678 0062 2046     		mov	r0, r4
 679 0064 2946     		mov	r1, r5
 680 0066 FFF7FEFF 		bl	tan
ARM GAS  /tmp/ccNJIE6Y.s 			page 13


 681              	.LVL114:
 682 006a 8046     		mov	r8, r0
 683              	.LVL115:
 684 006c 8946     		mov	r9, r1
 685 006e 3046     		mov	r0, r6
 686 0070 3946     		mov	r1, r7
 687 0072 FFF7FEFF 		bl	cos
 688              	.LVL116:
 689 0076 DDE90223 		ldrd	r2, [sp, #8]
 690 007a 8246     		mov	sl, r0
 691 007c 8B46     		mov	fp, r1
 692 007e DDE90001 		ldrd	r0, [sp]
 693 0082 FFF7FEFF 		bl	__aeabi_dmul
 694              	.LVL117:
 695 0086 5246     		mov	r2, sl
 696 0088 0646     		mov	r6, r0
 697              	.LVL118:
 698 008a 0F46     		mov	r7, r1
 699 008c 4046     		mov	r0, r8
 700 008e 4946     		mov	r1, r9
 701 0090 5B46     		mov	r3, fp
 702 0092 FFF7FEFF 		bl	__aeabi_dmul
 703              	.LVL119:
 704 0096 0246     		mov	r2, r0
 705 0098 0B46     		mov	r3, r1
 706 009a 3046     		mov	r0, r6
 707 009c 3946     		mov	r1, r7
 708 009e FFF7FEFF 		bl	__aeabi_dadd
 709              	.LVL120:
 710 00a2 0246     		mov	r2, r0
 711 00a4 0B46     		mov	r3, r1
 712 00a6 DDE90601 		ldrd	r0, [sp, #24]
 713 00aa FFF7FEFF 		bl	atan2
 714              	.LVL121:
 715 00ae 0646     		mov	r6, r0
 716 00b0 0F46     		mov	r7, r1
 717              	.LVL122:
 718              		.loc 1 171 0
 719 00b2 2046     		mov	r0, r4
 720 00b4 2946     		mov	r1, r5
 721 00b6 FFF7FEFF 		bl	sin
 722              	.LVL123:
 723 00ba 8046     		mov	r8, r0
 724 00bc 8946     		mov	r9, r1
 725 00be 2046     		mov	r0, r4
 726 00c0 2946     		mov	r1, r5
 727 00c2 FFF7FEFF 		bl	cos
 728              	.LVL124:
 729 00c6 4246     		mov	r2, r8
 730 00c8 0446     		mov	r4, r0
 731              	.LVL125:
 732 00ca 0D46     		mov	r5, r1
 733 00cc 4B46     		mov	r3, r9
 734 00ce DDE90201 		ldrd	r0, [sp, #8]
 735 00d2 FFF7FEFF 		bl	__aeabi_dmul
 736              	.LVL126:
 737 00d6 2246     		mov	r2, r4
ARM GAS  /tmp/ccNJIE6Y.s 			page 14


 738 00d8 2B46     		mov	r3, r5
 739 00da 8046     		mov	r8, r0
 740 00dc 8946     		mov	r9, r1
 741 00de 5046     		mov	r0, sl
 742 00e0 5946     		mov	r1, fp
 743 00e2 FFF7FEFF 		bl	__aeabi_dmul
 744              	.LVL127:
 745 00e6 0246     		mov	r2, r0
 746 00e8 0B46     		mov	r3, r1
 747 00ea DDE90001 		ldrd	r0, [sp]
 748 00ee FFF7FEFF 		bl	__aeabi_dmul
 749              	.LVL128:
 750 00f2 0246     		mov	r2, r0
 751 00f4 0B46     		mov	r3, r1
 752 00f6 4046     		mov	r0, r8
 753 00f8 4946     		mov	r1, r9
 754 00fa FFF7FEFF 		bl	__aeabi_dsub
 755              	.LVL129:
 756              		.loc 1 172 0
 757 00fe FFF7FEFF 		bl	asin
 758              	.LVL130:
 759 0102 0446     		mov	r4, r0
 760 0104 0D46     		mov	r5, r1
 761              	.LVL131:
 762              		.loc 1 175 0
 763 0106 DDE90801 		ldrd	r0, [sp, #32]
 764 010a FFF7FEFF 		bl	ln_get_apparent_sidereal_time
 765              	.LVL132:
 766              		.loc 1 176 0
 767 010e 10A3     		adr	r3, .L35
 768 0110 D3E90023 		ldrd	r2, [r3]
 769 0114 FFF7FEFF 		bl	__aeabi_dmul
 770              	.LVL133:
 771              		.loc 1 178 0
 772 0118 3246     		mov	r2, r6
 773 011a 3B46     		mov	r3, r7
 774 011c FFF7FEFF 		bl	__aeabi_dsub
 775              	.LVL134:
 776 0120 DDE90423 		ldrd	r2, [sp, #16]
 777 0124 FFF7FEFF 		bl	__aeabi_dadd
 778              	.LVL135:
 779 0128 FFF7FEFF 		bl	ln_rad_to_deg
 780              	.LVL136:
 781 012c FFF7FEFF 		bl	ln_range_degrees
 782              	.LVL137:
 783 0130 149B     		ldr	r3, [sp, #80]
 784 0132 C3E90001 		strd	r0, [r3]
 785              		.loc 1 179 0
 786 0136 2046     		mov	r0, r4
 787 0138 2946     		mov	r1, r5
 788 013a FFF7FEFF 		bl	ln_rad_to_deg
 789              	.LVL138:
 790 013e 149A     		ldr	r2, [sp, #80]
 791 0140 C2E90201 		strd	r0, [r2, #8]
 792              		.loc 1 180 0
 793 0144 0BB0     		add	sp, sp, #44
 794 0146 BDE8F08F 		pop	{r4, r5, r6, r7, r8, r9, sl, fp, pc}
ARM GAS  /tmp/ccNJIE6Y.s 			page 15


 795              	.L36:
 796 014a 00BFAFF3 		.align	3
 796      0080
 797              	.L35:
 798 0150 65732D38 		.word	942502757
 799 0154 52C1D03F 		.word	1070645586
 800              		.cfi_endproc
 801              	.LFE3:
 802              		.size	ln_get_equ_from_hrz, .-ln_get_equ_from_hrz
 803 0158 AFF30080 		.section	.text.ln_get_equ_from_ecl,"ax",%progbits
 803      AFF30080 
 804              		.align	2
 805              		.p2align 4,,15
 806              		.global	ln_get_equ_from_ecl
 807              		.thumb
 808              		.thumb_func
 809              		.type	ln_get_equ_from_ecl, %function
 810              	ln_get_equ_from_ecl:
 811              	.LFB4:
 812              		.loc 1 193 0
 813              		.cfi_startproc
 814              		@ args = 4, pretend = 0, frame = 56
 815              		@ frame_needed = 0, uses_anonymous_args = 0
 816              	.LVL139:
 817 0000 2DE9F04F 		push	{r4, r5, r6, r7, r8, r9, sl, fp, lr}
 818              	.LCFI7:
 819              		.cfi_def_cfa_offset 36
 820              		.cfi_offset 4, -36
 821              		.cfi_offset 5, -32
 822              		.cfi_offset 6, -28
 823              		.cfi_offset 7, -24
 824              		.cfi_offset 8, -20
 825              		.cfi_offset 9, -16
 826              		.cfi_offset 10, -12
 827              		.cfi_offset 11, -8
 828              		.cfi_offset 14, -4
 829 0004 8FB0     		sub	sp, sp, #60
 830              	.LCFI8:
 831              		.cfi_def_cfa_offset 96
 832              		.loc 1 198 0
 833 0006 1946     		mov	r1, r3
 834              		.loc 1 193 0
 835 0008 0646     		mov	r6, r0
 836              		.loc 1 198 0
 837 000a 1046     		mov	r0, r2
 838              	.LVL140:
 839 000c 08AA     		add	r2, sp, #32
 840              	.LVL141:
 841 000e FFF7FEFF 		bl	ln_get_nutation
 842              	.LVL142:
 843              		.loc 1 199 0
 844 0012 DDE90C01 		ldrd	r0, [sp, #48]
 845 0016 FFF7FEFF 		bl	ln_deg_to_rad
 846              	.LVL143:
 847 001a CDE90C01 		strd	r0, [sp, #48]
 848              		.loc 1 204 0
 849 001e D6E90001 		ldrd	r0, [r6]
ARM GAS  /tmp/ccNJIE6Y.s 			page 16


 850 0022 FFF7FEFF 		bl	ln_deg_to_rad
 851              	.LVL144:
 852 0026 0446     		mov	r4, r0
 853 0028 0D46     		mov	r5, r1
 854              	.LVL145:
 855              		.loc 1 205 0
 856 002a D6E90201 		ldrd	r0, [r6, #8]
 857 002e FFF7FEFF 		bl	ln_deg_to_rad
 858              	.LVL146:
 859 0032 0646     		mov	r6, r0
 860              	.LVL147:
 861 0034 0F46     		mov	r7, r1
 862              	.LVL148:
 863              		.loc 1 208 0
 864 0036 2046     		mov	r0, r4
 865 0038 2946     		mov	r1, r5
 866 003a FFF7FEFF 		bl	sin
 867              	.LVL149:
 868 003e DDE90CAB 		ldrd	sl, [sp, #48]
 869 0042 CDE90401 		strd	r0, [sp, #16]
 870 0046 5046     		mov	r0, sl
 871 0048 5946     		mov	r1, fp
 872 004a FFF7FEFF 		bl	cos
 873              	.LVL150:
 874 004e 8046     		mov	r8, r0
 875 0050 8946     		mov	r9, r1
 876 0052 3046     		mov	r0, r6
 877 0054 3946     		mov	r1, r7
 878 0056 FFF7FEFF 		bl	tan
 879              	.LVL151:
 880 005a CDE90201 		strd	r0, [sp, #8]
 881 005e 5046     		mov	r0, sl
 882 0060 5946     		mov	r1, fp
 883 0062 FFF7FEFF 		bl	sin
 884              	.LVL152:
 885 0066 8246     		mov	sl, r0
 886 0068 8B46     		mov	fp, r1
 887 006a 2046     		mov	r0, r4
 888 006c 2946     		mov	r1, r5
 889 006e FFF7FEFF 		bl	cos
 890              	.LVL153:
 891 0072 4246     		mov	r2, r8
 892 0074 4B46     		mov	r3, r9
 893 0076 CDE90601 		strd	r0, [sp, #24]
 894 007a DDE90401 		ldrd	r0, [sp, #16]
 895 007e FFF7FEFF 		bl	__aeabi_dmul
 896              	.LVL154:
 897 0082 5246     		mov	r2, sl
 898 0084 0446     		mov	r4, r0
 899              	.LVL155:
 900 0086 0D46     		mov	r5, r1
 901 0088 5B46     		mov	r3, fp
 902 008a DDE90201 		ldrd	r0, [sp, #8]
 903 008e FFF7FEFF 		bl	__aeabi_dmul
 904              	.LVL156:
 905 0092 0246     		mov	r2, r0
 906 0094 0B46     		mov	r3, r1
ARM GAS  /tmp/ccNJIE6Y.s 			page 17


 907 0096 2046     		mov	r0, r4
 908 0098 2946     		mov	r1, r5
 909 009a FFF7FEFF 		bl	__aeabi_dsub
 910              	.LVL157:
 911 009e DDE90623 		ldrd	r2, [sp, #24]
 912 00a2 FFF7FEFF 		bl	atan2
 913              	.LVL158:
 914 00a6 0446     		mov	r4, r0
 915 00a8 0D46     		mov	r5, r1
 916              	.LVL159:
 917              		.loc 1 209 0
 918 00aa 3046     		mov	r0, r6
 919 00ac 3946     		mov	r1, r7
 920 00ae FFF7FEFF 		bl	sin
 921              	.LVL160:
 922 00b2 DDE90C23 		ldrd	r2, [sp, #48]
 923 00b6 8046     		mov	r8, r0
 924 00b8 8946     		mov	r9, r1
 925 00ba 1046     		mov	r0, r2
 926 00bc 1946     		mov	r1, r3
 927 00be 0192     		str	r2, [sp, #4]
 928 00c0 0093     		str	r3, [sp, #0]
 929 00c2 FFF7FEFF 		bl	cos
 930              	.LVL161:
 931 00c6 8246     		mov	sl, r0
 932 00c8 8B46     		mov	fp, r1
 933 00ca 3046     		mov	r0, r6
 934 00cc 3946     		mov	r1, r7
 935 00ce FFF7FEFF 		bl	cos
 936              	.LVL162:
 937 00d2 019A     		ldr	r2, [sp, #4]
 938 00d4 009B     		ldr	r3, [sp, #0]
 939 00d6 0646     		mov	r6, r0
 940              	.LVL163:
 941 00d8 0F46     		mov	r7, r1
 942 00da 1046     		mov	r0, r2
 943 00dc 1946     		mov	r1, r3
 944 00de FFF7FEFF 		bl	sin
 945              	.LVL164:
 946 00e2 5246     		mov	r2, sl
 947 00e4 CDE90201 		strd	r0, [sp, #8]
 948 00e8 5B46     		mov	r3, fp
 949 00ea 4046     		mov	r0, r8
 950 00ec 4946     		mov	r1, r9
 951 00ee FFF7FEFF 		bl	__aeabi_dmul
 952              	.LVL165:
 953 00f2 DDE90223 		ldrd	r2, [sp, #8]
 954 00f6 8046     		mov	r8, r0
 955 00f8 8946     		mov	r9, r1
 956 00fa 3046     		mov	r0, r6
 957 00fc 3946     		mov	r1, r7
 958 00fe FFF7FEFF 		bl	__aeabi_dmul
 959              	.LVL166:
 960 0102 0246     		mov	r2, r0
 961 0104 0B46     		mov	r3, r1
 962 0106 DDE90401 		ldrd	r0, [sp, #16]
 963 010a FFF7FEFF 		bl	__aeabi_dmul
ARM GAS  /tmp/ccNJIE6Y.s 			page 18


 964              	.LVL167:
 965 010e 0B46     		mov	r3, r1
 966 0110 0246     		mov	r2, r0
 967 0112 4946     		mov	r1, r9
 968 0114 4046     		mov	r0, r8
 969 0116 FFF7FEFF 		bl	__aeabi_dadd
 970              	.LVL168:
 971              		.loc 1 210 0
 972 011a FFF7FEFF 		bl	asin
 973              	.LVL169:
 974 011e 0646     		mov	r6, r0
 975 0120 0F46     		mov	r7, r1
 976              	.LVL170:
 977              		.loc 1 213 0
 978 0122 2046     		mov	r0, r4
 979 0124 2946     		mov	r1, r5
 980 0126 FFF7FEFF 		bl	ln_rad_to_deg
 981              	.LVL171:
 982 012a FFF7FEFF 		bl	ln_range_degrees
 983              	.LVL172:
 984 012e 189A     		ldr	r2, [sp, #96]
 985 0130 C2E90001 		strd	r0, [r2]
 986              		.loc 1 214 0
 987 0134 3046     		mov	r0, r6
 988 0136 3946     		mov	r1, r7
 989 0138 FFF7FEFF 		bl	ln_rad_to_deg
 990              	.LVL173:
 991 013c 189B     		ldr	r3, [sp, #96]
 992 013e C3E90201 		strd	r0, [r3, #8]
 993              		.loc 1 215 0
 994 0142 0FB0     		add	sp, sp, #60
 995 0144 BDE8F08F 		pop	{r4, r5, r6, r7, r8, r9, sl, fp, pc}
 996              		.cfi_endproc
 997              	.LFE4:
 998              		.size	ln_get_equ_from_ecl, .-ln_get_equ_from_ecl
 999 0148 AFF30080 		.section	.text.ln_get_ecl_from_equ,"ax",%progbits
 999      AFF30080 
 1000              		.align	2
 1001              		.p2align 4,,15
 1002              		.global	ln_get_ecl_from_equ
 1003              		.thumb
 1004              		.thumb_func
 1005              		.type	ln_get_ecl_from_equ, %function
 1006              	ln_get_ecl_from_equ:
 1007              	.LFB5:
 1008              		.loc 1 228 0
 1009              		.cfi_startproc
 1010              		@ args = 4, pretend = 0, frame = 56
 1011              		@ frame_needed = 0, uses_anonymous_args = 0
 1012              	.LVL174:
 1013 0000 2DE9F04F 		push	{r4, r5, r6, r7, r8, r9, sl, fp, lr}
 1014              	.LCFI9:
 1015              		.cfi_def_cfa_offset 36
 1016              		.cfi_offset 4, -36
 1017              		.cfi_offset 5, -32
 1018              		.cfi_offset 6, -28
 1019              		.cfi_offset 7, -24
ARM GAS  /tmp/ccNJIE6Y.s 			page 19


 1020              		.cfi_offset 8, -20
 1021              		.cfi_offset 9, -16
 1022              		.cfi_offset 10, -12
 1023              		.cfi_offset 11, -8
 1024              		.cfi_offset 14, -4
 1025 0004 0646     		mov	r6, r0
 1026 0006 8FB0     		sub	sp, sp, #60
 1027              	.LCFI10:
 1028              		.cfi_def_cfa_offset 96
 1029              		.loc 1 233 0
 1030 0008 D0E90001 		ldrd	r0, [r0]
 1031              	.LVL175:
 1032              		.loc 1 228 0
 1033 000c 1D46     		mov	r5, r3
 1034 000e 1446     		mov	r4, r2
 1035              		.loc 1 233 0
 1036 0010 FFF7FEFF 		bl	ln_deg_to_rad
 1037              	.LVL176:
 1038 0014 8046     		mov	r8, r0
 1039 0016 8946     		mov	r9, r1
 1040              	.LVL177:
 1041              		.loc 1 234 0
 1042 0018 D6E90201 		ldrd	r0, [r6, #8]
 1043 001c FFF7FEFF 		bl	ln_deg_to_rad
 1044              	.LVL178:
 1045              		.loc 1 235 0
 1046 0020 08AA     		add	r2, sp, #32
 1047              		.loc 1 234 0
 1048 0022 0646     		mov	r6, r0
 1049              	.LVL179:
 1050 0024 0F46     		mov	r7, r1
 1051              	.LVL180:
 1052              		.loc 1 235 0
 1053 0026 2046     		mov	r0, r4
 1054 0028 2946     		mov	r1, r5
 1055 002a FFF7FEFF 		bl	ln_get_nutation
 1056              	.LVL181:
 1057              		.loc 1 236 0
 1058 002e DDE90C01 		ldrd	r0, [sp, #48]
 1059 0032 FFF7FEFF 		bl	ln_deg_to_rad
 1060              	.LVL182:
 1061 0036 0446     		mov	r4, r0
 1062 0038 0D46     		mov	r5, r1
 1063              		.loc 1 239 0
 1064 003a 4046     		mov	r0, r8
 1065 003c 4946     		mov	r1, r9
 1066              		.loc 1 236 0
 1067 003e CDE90C45 		strd	r4, [sp, #48]
 1068              		.loc 1 239 0
 1069 0042 FFF7FEFF 		bl	sin
 1070              	.LVL183:
 1071 0046 CDE90401 		strd	r0, [sp, #16]
 1072 004a 2046     		mov	r0, r4
 1073 004c 2946     		mov	r1, r5
 1074 004e FFF7FEFF 		bl	cos
 1075              	.LVL184:
 1076 0052 8246     		mov	sl, r0
ARM GAS  /tmp/ccNJIE6Y.s 			page 20


 1077 0054 8B46     		mov	fp, r1
 1078 0056 3046     		mov	r0, r6
 1079 0058 3946     		mov	r1, r7
 1080 005a FFF7FEFF 		bl	tan
 1081              	.LVL185:
 1082 005e CDE90201 		strd	r0, [sp, #8]
 1083 0062 2046     		mov	r0, r4
 1084 0064 2946     		mov	r1, r5
 1085 0066 FFF7FEFF 		bl	sin
 1086              	.LVL186:
 1087 006a CDE90601 		strd	r0, [sp, #24]
 1088 006e 4046     		mov	r0, r8
 1089 0070 4946     		mov	r1, r9
 1090 0072 FFF7FEFF 		bl	cos
 1091              	.LVL187:
 1092 0076 5246     		mov	r2, sl
 1093 0078 8046     		mov	r8, r0
 1094              	.LVL188:
 1095 007a 8946     		mov	r9, r1
 1096 007c 5B46     		mov	r3, fp
 1097 007e DDE90401 		ldrd	r0, [sp, #16]
 1098 0082 FFF7FEFF 		bl	__aeabi_dmul
 1099              	.LVL189:
 1100 0086 DDE90623 		ldrd	r2, [sp, #24]
 1101 008a 0446     		mov	r4, r0
 1102 008c 0D46     		mov	r5, r1
 1103 008e DDE90201 		ldrd	r0, [sp, #8]
 1104 0092 FFF7FEFF 		bl	__aeabi_dmul
 1105              	.LVL190:
 1106 0096 0246     		mov	r2, r0
 1107 0098 0B46     		mov	r3, r1
 1108 009a 2046     		mov	r0, r4
 1109 009c 2946     		mov	r1, r5
 1110 009e FFF7FEFF 		bl	__aeabi_dadd
 1111              	.LVL191:
 1112 00a2 4246     		mov	r2, r8
 1113 00a4 4B46     		mov	r3, r9
 1114 00a6 FFF7FEFF 		bl	atan2
 1115              	.LVL192:
 1116 00aa 0446     		mov	r4, r0
 1117 00ac 0D46     		mov	r5, r1
 1118              	.LVL193:
 1119              		.loc 1 240 0
 1120 00ae 3046     		mov	r0, r6
 1121 00b0 3946     		mov	r1, r7
 1122 00b2 FFF7FEFF 		bl	sin
 1123              	.LVL194:
 1124 00b6 DDE90C23 		ldrd	r2, [sp, #48]
 1125 00ba 8046     		mov	r8, r0
 1126 00bc 8946     		mov	r9, r1
 1127 00be 1046     		mov	r0, r2
 1128 00c0 1946     		mov	r1, r3
 1129 00c2 0192     		str	r2, [sp, #4]
 1130 00c4 0093     		str	r3, [sp, #0]
 1131 00c6 FFF7FEFF 		bl	cos
 1132              	.LVL195:
 1133 00ca 8246     		mov	sl, r0
ARM GAS  /tmp/ccNJIE6Y.s 			page 21


 1134 00cc 8B46     		mov	fp, r1
 1135 00ce 3046     		mov	r0, r6
 1136 00d0 3946     		mov	r1, r7
 1137 00d2 FFF7FEFF 		bl	cos
 1138              	.LVL196:
 1139 00d6 019A     		ldr	r2, [sp, #4]
 1140 00d8 009B     		ldr	r3, [sp, #0]
 1141 00da 0646     		mov	r6, r0
 1142              	.LVL197:
 1143 00dc 0F46     		mov	r7, r1
 1144 00de 1046     		mov	r0, r2
 1145 00e0 1946     		mov	r1, r3
 1146 00e2 FFF7FEFF 		bl	sin
 1147              	.LVL198:
 1148 00e6 5246     		mov	r2, sl
 1149 00e8 CDE90201 		strd	r0, [sp, #8]
 1150 00ec 5B46     		mov	r3, fp
 1151 00ee 4046     		mov	r0, r8
 1152 00f0 4946     		mov	r1, r9
 1153 00f2 FFF7FEFF 		bl	__aeabi_dmul
 1154              	.LVL199:
 1155 00f6 DDE90223 		ldrd	r2, [sp, #8]
 1156 00fa 8046     		mov	r8, r0
 1157 00fc 8946     		mov	r9, r1
 1158 00fe 3046     		mov	r0, r6
 1159 0100 3946     		mov	r1, r7
 1160 0102 FFF7FEFF 		bl	__aeabi_dmul
 1161              	.LVL200:
 1162 0106 0246     		mov	r2, r0
 1163 0108 0B46     		mov	r3, r1
 1164 010a DDE90401 		ldrd	r0, [sp, #16]
 1165 010e FFF7FEFF 		bl	__aeabi_dmul
 1166              	.LVL201:
 1167 0112 0B46     		mov	r3, r1
 1168 0114 0246     		mov	r2, r0
 1169 0116 4946     		mov	r1, r9
 1170 0118 4046     		mov	r0, r8
 1171 011a FFF7FEFF 		bl	__aeabi_dsub
 1172              	.LVL202:
 1173              		.loc 1 241 0
 1174 011e FFF7FEFF 		bl	asin
 1175              	.LVL203:
 1176              		.loc 1 244 0
 1177 0122 FFF7FEFF 		bl	ln_rad_to_deg
 1178              	.LVL204:
 1179 0126 189A     		ldr	r2, [sp, #96]
 1180 0128 C2E90201 		strd	r0, [r2, #8]
 1181              		.loc 1 245 0
 1182 012c 2046     		mov	r0, r4
 1183 012e 2946     		mov	r1, r5
 1184 0130 FFF7FEFF 		bl	ln_rad_to_deg
 1185              	.LVL205:
 1186 0134 FFF7FEFF 		bl	ln_range_degrees
 1187              	.LVL206:
 1188 0138 189B     		ldr	r3, [sp, #96]
 1189 013a C3E90001 		strd	r0, [r3]
 1190              		.loc 1 246 0
ARM GAS  /tmp/ccNJIE6Y.s 			page 22


 1191 013e 0FB0     		add	sp, sp, #60
 1192 0140 BDE8F08F 		pop	{r4, r5, r6, r7, r8, r9, sl, fp, pc}
 1193              		.cfi_endproc
 1194              	.LFE5:
 1195              		.size	ln_get_ecl_from_equ, .-ln_get_ecl_from_equ
 1196 0144 AFF30080 		.section	.text.ln_get_ecl_from_rect,"ax",%progbits
 1196      AFF30080 
 1196      AFF30080 
 1197              		.align	2
 1198              		.p2align 4,,15
 1199              		.global	ln_get_ecl_from_rect
 1200              		.thumb
 1201              		.thumb_func
 1202              		.type	ln_get_ecl_from_rect, %function
 1203              	ln_get_ecl_from_rect:
 1204              	.LFB6:
 1205              		.loc 1 257 0
 1206              		.cfi_startproc
 1207              		@ args = 0, pretend = 0, frame = 0
 1208              		@ frame_needed = 0, uses_anonymous_args = 0
 1209              	.LVL207:
 1210 0000 2DE9F843 		push	{r3, r4, r5, r6, r7, r8, r9, lr}
 1211              	.LCFI11:
 1212              		.cfi_def_cfa_offset 32
 1213              		.cfi_offset 3, -32
 1214              		.cfi_offset 4, -28
 1215              		.cfi_offset 5, -24
 1216              		.cfi_offset 6, -20
 1217              		.cfi_offset 7, -16
 1218              		.cfi_offset 8, -12
 1219              		.cfi_offset 9, -8
 1220              		.cfi_offset 14, -4
 1221              		.loc 1 260 0
 1222 0004 D0E90023 		ldrd	r2, [r0]
 1223              		.loc 1 257 0
 1224 0008 8046     		mov	r8, r0
 1225 000a 8946     		mov	r9, r1
 1226              		.loc 1 260 0
 1227 000c 1046     		mov	r0, r2
 1228              	.LVL208:
 1229 000e 1946     		mov	r1, r3
 1230              	.LVL209:
 1231 0010 FFF7FEFF 		bl	__aeabi_dmul
 1232              	.LVL210:
 1233 0014 D8E90267 		ldrd	r6, [r8, #8]
 1234 0018 0446     		mov	r4, r0
 1235 001a 0D46     		mov	r5, r1
 1236 001c 3246     		mov	r2, r6
 1237 001e 3B46     		mov	r3, r7
 1238 0020 3046     		mov	r0, r6
 1239 0022 3946     		mov	r1, r7
 1240 0024 FFF7FEFF 		bl	__aeabi_dmul
 1241              	.LVL211:
 1242 0028 0246     		mov	r2, r0
 1243 002a 0B46     		mov	r3, r1
 1244 002c 2046     		mov	r0, r4
 1245 002e 2946     		mov	r1, r5
ARM GAS  /tmp/ccNJIE6Y.s 			page 23


 1246 0030 FFF7FEFF 		bl	__aeabi_dadd
 1247              	.LVL212:
 1248 0034 FFF7FEFF 		bl	sqrt
 1249              	.LVL213:
 1250              		.loc 1 261 0
 1251 0038 D8E90223 		ldrd	r2, [r8, #8]
 1252              		.loc 1 260 0
 1253 003c 0446     		mov	r4, r0
 1254 003e 0D46     		mov	r5, r1
 1255              	.LVL214:
 1256              		.loc 1 261 0
 1257 0040 D8E90001 		ldrd	r0, [r8]
 1258 0044 FFF7FEFF 		bl	atan2
 1259              	.LVL215:
 1260 0048 FFF7FEFF 		bl	ln_rad_to_deg
 1261              	.LVL216:
 1262 004c FFF7FEFF 		bl	ln_range_degrees
 1263              	.LVL217:
 1264              		.loc 1 262 0
 1265 0050 D8E90423 		ldrd	r2, [r8, #16]
 1266              		.loc 1 261 0
 1267 0054 C9E90001 		strd	r0, [r9]
 1268              		.loc 1 262 0
 1269 0058 2046     		mov	r0, r4
 1270 005a 2946     		mov	r1, r5
 1271 005c FFF7FEFF 		bl	atan2
 1272              	.LVL218:
 1273 0060 FFF7FEFF 		bl	ln_rad_to_deg
 1274              	.LVL219:
 1275 0064 C9E90201 		strd	r0, [r9, #8]
 1276 0068 BDE8F883 		pop	{r3, r4, r5, r6, r7, r8, r9, pc}
 1277              		.cfi_endproc
 1278              	.LFE6:
 1279              		.size	ln_get_ecl_from_rect, .-ln_get_ecl_from_rect
 1280 006c AFF30080 		.section	.text.ln_get_equ_from_gal,"ax",%progbits
 1281              		.align	2
 1282              		.p2align 4,,15
 1283              		.global	ln_get_equ_from_gal
 1284              		.thumb
 1285              		.thumb_func
 1286              		.type	ln_get_equ_from_gal, %function
 1287              	ln_get_equ_from_gal:
 1288              	.LFB7:
 1289              		.loc 1 273 0
 1290              		.cfi_startproc
 1291              		@ args = 0, pretend = 0, frame = 32
 1292              		@ frame_needed = 0, uses_anonymous_args = 0
 1293              	.LVL220:
 1294 0000 2DE9F04F 		push	{r4, r5, r6, r7, r8, r9, sl, fp, lr}
 1295              	.LCFI12:
 1296              		.cfi_def_cfa_offset 36
 1297              		.cfi_offset 4, -36
 1298              		.cfi_offset 5, -32
 1299              		.cfi_offset 6, -28
 1300              		.cfi_offset 7, -24
 1301              		.cfi_offset 8, -20
 1302              		.cfi_offset 9, -16
ARM GAS  /tmp/ccNJIE6Y.s 			page 24


 1303              		.cfi_offset 10, -12
 1304              		.cfi_offset 11, -8
 1305              		.cfi_offset 14, -4
 1306 0004 89B0     		sub	sp, sp, #36
 1307              	.LCFI13:
 1308              		.cfi_def_cfa_offset 72
 1309              		.loc 1 273 0
 1310 0006 0446     		mov	r4, r0
 1311 0008 0591     		str	r1, [sp, #20]
 1312              		.loc 1 280 0
 1313 000a 43A1     		adr	r1, .L41
 1314 000c D1E90001 		ldrd	r0, [r1]
 1315              	.LVL221:
 1316 0010 FFF7FEFF 		bl	ln_deg_to_rad
 1317              	.LVL222:
 1318 0014 0646     		mov	r6, r0
 1319 0016 0F46     		mov	r7, r1
 1320              	.LVL223:
 1321              		.loc 1 281 0
 1322 0018 FFF7FEFF 		bl	sin
 1323              	.LVL224:
 1324 001c 8246     		mov	sl, r0
 1325 001e 8B46     		mov	fp, r1
 1326              	.LVL225:
 1327              		.loc 1 282 0
 1328 0020 3046     		mov	r0, r6
 1329 0022 3946     		mov	r1, r7
 1330 0024 FFF7FEFF 		bl	cos
 1331              	.LVL226:
 1332              		.loc 1 284 0
 1333 0028 3DA3     		adr	r3, .L41+8
 1334 002a D3E90023 		ldrd	r2, [r3]
 1335              		.loc 1 282 0
 1336 002e CDE90001 		strd	r0, [sp]
 1337              	.LVL227:
 1338              		.loc 1 284 0
 1339 0032 D4E90001 		ldrd	r0, [r4]
 1340              	.LVL228:
 1341 0036 FFF7FEFF 		bl	__aeabi_dsub
 1342              	.LVL229:
 1343 003a FFF7FEFF 		bl	ln_deg_to_rad
 1344              	.LVL230:
 1345 003e 8046     		mov	r8, r0
 1346 0040 8946     		mov	r9, r1
 1347              	.LVL231:
 1348              		.loc 1 285 0
 1349 0042 FFF7FEFF 		bl	cos
 1350              	.LVL232:
 1351 0046 CDE90201 		strd	r0, [sp, #8]
 1352              	.LVL233:
 1353              		.loc 1 287 0
 1354 004a D4E90201 		ldrd	r0, [r4, #8]
 1355              	.LVL234:
 1356 004e FFF7FEFF 		bl	ln_deg_to_rad
 1357              	.LVL235:
 1358 0052 0446     		mov	r4, r0
 1359              	.LVL236:
ARM GAS  /tmp/ccNJIE6Y.s 			page 25


 1360 0054 0D46     		mov	r5, r1
 1361              	.LVL237:
 1362              		.loc 1 289 0
 1363 0056 FFF7FEFF 		bl	sin
 1364              	.LVL238:
 1365 005a 0646     		mov	r6, r0
 1366              	.LVL239:
 1367 005c 0F46     		mov	r7, r1
 1368              	.LVL240:
 1369              		.loc 1 290 0
 1370 005e 2046     		mov	r0, r4
 1371 0060 2946     		mov	r1, r5
 1372 0062 FFF7FEFF 		bl	cos
 1373              	.LVL241:
 1374 0066 0446     		mov	r4, r0
 1375              	.LVL242:
 1376 0068 0D46     		mov	r5, r1
 1377              	.LVL243:
 1378              		.loc 1 292 0
 1379 006a 4046     		mov	r0, r8
 1380 006c 4946     		mov	r1, r9
 1381 006e FFF7FEFF 		bl	sin
 1382              	.LVL244:
 1383 0072 5246     		mov	r2, sl
 1384 0074 CDE90601 		strd	r0, [sp, #24]
 1385 0078 5B46     		mov	r3, fp
 1386 007a DDE90201 		ldrd	r0, [sp, #8]
 1387 007e FFF7FEFF 		bl	__aeabi_dmul
 1388              	.LVL245:
 1389 0082 2246     		mov	r2, r4
 1390 0084 8046     		mov	r8, r0
 1391              	.LVL246:
 1392 0086 8946     		mov	r9, r1
 1393 0088 3046     		mov	r0, r6
 1394 008a 3946     		mov	r1, r7
 1395 008c 2B46     		mov	r3, r5
 1396 008e FFF7FEFF 		bl	__aeabi_ddiv
 1397              	.LVL247:
 1398 0092 DDE90023 		ldrd	r2, [sp]
 1399 0096 FFF7FEFF 		bl	__aeabi_dmul
 1400              	.LVL248:
 1401 009a 0246     		mov	r2, r0
 1402 009c 0B46     		mov	r3, r1
 1403 009e 4046     		mov	r0, r8
 1404 00a0 4946     		mov	r1, r9
 1405 00a2 FFF7FEFF 		bl	__aeabi_dsub
 1406              	.LVL249:
 1407 00a6 0246     		mov	r2, r0
 1408 00a8 0B46     		mov	r3, r1
 1409 00aa DDE90601 		ldrd	r0, [sp, #24]
 1410 00ae FFF7FEFF 		bl	atan2
 1411              	.LVL250:
 1412              		.loc 1 293 0
 1413 00b2 FFF7FEFF 		bl	ln_rad_to_deg
 1414              	.LVL251:
 1415 00b6 4FF40043 		mov	r3, #32768
 1416 00ba 0022     		movs	r2, #0
ARM GAS  /tmp/ccNJIE6Y.s 			page 26


 1417 00bc C4F22803 		movt	r3, 16424
 1418 00c0 FFF7FEFF 		bl	__aeabi_dadd
 1419              	.LVL252:
 1420 00c4 FFF7FEFF 		bl	ln_range_degrees
 1421              	.LVL253:
 1422 00c8 DDF814E0 		ldr	lr, [sp, #20]
 1423              		.loc 1 294 0
 1424 00cc 5246     		mov	r2, sl
 1425              		.loc 1 293 0
 1426 00ce CEE90001 		strd	r0, [lr]
 1427              		.loc 1 294 0
 1428 00d2 5B46     		mov	r3, fp
 1429 00d4 3046     		mov	r0, r6
 1430 00d6 3946     		mov	r1, r7
 1431 00d8 FFF7FEFF 		bl	__aeabi_dmul
 1432              	.LVL254:
 1433 00dc DDE90023 		ldrd	r2, [sp]
 1434 00e0 0646     		mov	r6, r0
 1435              	.LVL255:
 1436 00e2 0F46     		mov	r7, r1
 1437 00e4 2046     		mov	r0, r4
 1438 00e6 2946     		mov	r1, r5
 1439 00e8 FFF7FEFF 		bl	__aeabi_dmul
 1440              	.LVL256:
 1441 00ec DDE90223 		ldrd	r2, [sp, #8]
 1442 00f0 FFF7FEFF 		bl	__aeabi_dmul
 1443              	.LVL257:
 1444 00f4 0B46     		mov	r3, r1
 1445 00f6 0246     		mov	r2, r0
 1446 00f8 3946     		mov	r1, r7
 1447 00fa 3046     		mov	r0, r6
 1448 00fc FFF7FEFF 		bl	__aeabi_dadd
 1449              	.LVL258:
 1450 0100 FFF7FEFF 		bl	asin
 1451              	.LVL259:
 1452 0104 FFF7FEFF 		bl	ln_rad_to_deg
 1453              	.LVL260:
 1454 0108 059B     		ldr	r3, [sp, #20]
 1455 010a C3E90201 		strd	r0, [r3, #8]
 1456              		.loc 1 295 0
 1457 010e 09B0     		add	sp, sp, #36
 1458 0110 BDE8F08F 		pop	{r4, r5, r6, r7, r8, r9, sl, fp, pc}
 1459              	.L42:
 1460 0114 AFF30080 		.align	3
 1461              	.L41:
 1462 0118 66666666 		.word	1717986918
 1463 011c 66663B40 		.word	1077634662
 1464 0120 00000000 		.word	0
 1465 0124 00C05E40 		.word	1079951360
 1466              		.cfi_endproc
 1467              	.LFE7:
 1468              		.size	ln_get_equ_from_gal, .-ln_get_equ_from_gal
 1469 0128 AFF30080 		.section	.text.ln_get_equ2000_from_gal,"ax",%progbits
 1469      AFF30080 
 1470              		.align	2
 1471              		.p2align 4,,15
 1472              		.global	ln_get_equ2000_from_gal
ARM GAS  /tmp/ccNJIE6Y.s 			page 27


 1473              		.thumb
 1474              		.thumb_func
 1475              		.type	ln_get_equ2000_from_gal, %function
 1476              	ln_get_equ2000_from_gal:
 1477              	.LFB8:
 1478              		.loc 1 304 0
 1479              		.cfi_startproc
 1480              		@ args = 0, pretend = 0, frame = 0
 1481              		@ frame_needed = 0, uses_anonymous_args = 0
 1482              	.LVL261:
 1483 0000 10B5     		push	{r4, lr}
 1484              	.LCFI14:
 1485              		.cfi_def_cfa_offset 8
 1486              		.cfi_offset 4, -8
 1487              		.cfi_offset 14, -4
 1488 0002 84B0     		sub	sp, sp, #16
 1489              	.LCFI15:
 1490              		.cfi_def_cfa_offset 24
 1491              		.loc 1 304 0
 1492 0004 0C46     		mov	r4, r1
 1493              		.loc 1 305 0
 1494 0006 FFF7FEFF 		bl	ln_get_equ_from_gal
 1495              	.LVL262:
 1496              		.loc 1 306 0
 1497 000a 07A3     		adr	r3, .L44
 1498 000c D3E90023 		ldrd	r2, [r3]
 1499 0010 0294     		str	r4, [sp, #8]
 1500 0012 CDE90023 		strd	r2, [sp]
 1501 0016 2046     		mov	r0, r4
 1502 0018 05A3     		adr	r3, .L44+8
 1503 001a D3E90023 		ldrd	r2, [r3]
 1504 001e FFF7FEFF 		bl	ln_get_equ_prec2
 1505              	.LVL263:
 1506              		.loc 1 307 0
 1507 0022 04B0     		add	sp, sp, #16
 1508 0024 10BD     		pop	{r4, pc}
 1509              	.L45:
 1510 0026 00BF     		.align	3
 1511              	.L44:
 1512 0028 00000080 		.word	2147483648
 1513 002c 2CB44241 		.word	1094890540
 1514 0030 7D3F3536 		.word	909459325
 1515 0034 81904241 		.word	1094881409
 1516              		.cfi_endproc
 1517              	.LFE8:
 1518              		.size	ln_get_equ2000_from_gal, .-ln_get_equ2000_from_gal
 1519 0038 AFF30080 		.section	.text.ln_get_gal_from_equ,"ax",%progbits
 1519      AFF30080 
 1520              		.align	2
 1521              		.p2align 4,,15
 1522              		.global	ln_get_gal_from_equ
 1523              		.thumb
 1524              		.thumb_func
 1525              		.type	ln_get_gal_from_equ, %function
 1526              	ln_get_gal_from_equ:
 1527              	.LFB9:
 1528              		.loc 1 317 0
ARM GAS  /tmp/ccNJIE6Y.s 			page 28


 1529              		.cfi_startproc
 1530              		@ args = 0, pretend = 0, frame = 32
 1531              		@ frame_needed = 0, uses_anonymous_args = 0
 1532              	.LVL264:
 1533 0000 2DE9F04F 		push	{r4, r5, r6, r7, r8, r9, sl, fp, lr}
 1534              	.LCFI16:
 1535              		.cfi_def_cfa_offset 36
 1536              		.cfi_offset 4, -36
 1537              		.cfi_offset 5, -32
 1538              		.cfi_offset 6, -28
 1539              		.cfi_offset 7, -24
 1540              		.cfi_offset 8, -20
 1541              		.cfi_offset 9, -16
 1542              		.cfi_offset 10, -12
 1543              		.cfi_offset 11, -8
 1544              		.cfi_offset 14, -4
 1545 0004 89B0     		sub	sp, sp, #36
 1546              	.LCFI17:
 1547              		.cfi_def_cfa_offset 72
 1548              		.loc 1 317 0
 1549 0006 0446     		mov	r4, r0
 1550 0008 0591     		str	r1, [sp, #20]
 1551              		.loc 1 325 0
 1552 000a 43A1     		adr	r1, .L47
 1553 000c D1E90001 		ldrd	r0, [r1]
 1554              	.LVL265:
 1555 0010 FFF7FEFF 		bl	ln_deg_to_rad
 1556              	.LVL266:
 1557 0014 0646     		mov	r6, r0
 1558 0016 0F46     		mov	r7, r1
 1559              	.LVL267:
 1560              		.loc 1 326 0
 1561 0018 FFF7FEFF 		bl	sin
 1562              	.LVL268:
 1563 001c 8246     		mov	sl, r0
 1564 001e 8B46     		mov	fp, r1
 1565              	.LVL269:
 1566              		.loc 1 327 0
 1567 0020 3046     		mov	r0, r6
 1568 0022 3946     		mov	r1, r7
 1569 0024 FFF7FEFF 		bl	cos
 1570              	.LVL270:
 1571              		.loc 1 329 0
 1572 0028 D4E90023 		ldrd	r2, [r4]
 1573              		.loc 1 327 0
 1574 002c CDE90001 		strd	r0, [sp]
 1575              	.LVL271:
 1576              		.loc 1 329 0
 1577 0030 3BA1     		adr	r1, .L47+8
 1578 0032 D1E90001 		ldrd	r0, [r1]
 1579              	.LVL272:
 1580 0036 FFF7FEFF 		bl	__aeabi_dsub
 1581              	.LVL273:
 1582 003a FFF7FEFF 		bl	ln_deg_to_rad
 1583              	.LVL274:
 1584 003e 8046     		mov	r8, r0
 1585 0040 8946     		mov	r9, r1
ARM GAS  /tmp/ccNJIE6Y.s 			page 29


 1586              	.LVL275:
 1587              		.loc 1 330 0
 1588 0042 FFF7FEFF 		bl	cos
 1589              	.LVL276:
 1590 0046 CDE90201 		strd	r0, [sp, #8]
 1591              	.LVL277:
 1592              		.loc 1 332 0
 1593 004a D4E90201 		ldrd	r0, [r4, #8]
 1594              	.LVL278:
 1595 004e FFF7FEFF 		bl	ln_deg_to_rad
 1596              	.LVL279:
 1597 0052 0446     		mov	r4, r0
 1598              	.LVL280:
 1599 0054 0D46     		mov	r5, r1
 1600              	.LVL281:
 1601              		.loc 1 334 0
 1602 0056 FFF7FEFF 		bl	sin
 1603              	.LVL282:
 1604 005a 0646     		mov	r6, r0
 1605              	.LVL283:
 1606 005c 0F46     		mov	r7, r1
 1607              	.LVL284:
 1608              		.loc 1 335 0
 1609 005e 2046     		mov	r0, r4
 1610 0060 2946     		mov	r1, r5
 1611 0062 FFF7FEFF 		bl	cos
 1612              	.LVL285:
 1613 0066 0446     		mov	r4, r0
 1614              	.LVL286:
 1615 0068 0D46     		mov	r5, r1
 1616              	.LVL287:
 1617              		.loc 1 337 0
 1618 006a 4046     		mov	r0, r8
 1619 006c 4946     		mov	r1, r9
 1620 006e FFF7FEFF 		bl	sin
 1621              	.LVL288:
 1622 0072 5246     		mov	r2, sl
 1623 0074 CDE90601 		strd	r0, [sp, #24]
 1624 0078 5B46     		mov	r3, fp
 1625 007a DDE90201 		ldrd	r0, [sp, #8]
 1626 007e FFF7FEFF 		bl	__aeabi_dmul
 1627              	.LVL289:
 1628 0082 2246     		mov	r2, r4
 1629 0084 8046     		mov	r8, r0
 1630              	.LVL290:
 1631 0086 8946     		mov	r9, r1
 1632 0088 3046     		mov	r0, r6
 1633 008a 3946     		mov	r1, r7
 1634 008c 2B46     		mov	r3, r5
 1635 008e FFF7FEFF 		bl	__aeabi_ddiv
 1636              	.LVL291:
 1637 0092 DDE90023 		ldrd	r2, [sp]
 1638 0096 FFF7FEFF 		bl	__aeabi_dmul
 1639              	.LVL292:
 1640 009a 0246     		mov	r2, r0
 1641 009c 0B46     		mov	r3, r1
 1642 009e 4046     		mov	r0, r8
ARM GAS  /tmp/ccNJIE6Y.s 			page 30


 1643 00a0 4946     		mov	r1, r9
 1644 00a2 FFF7FEFF 		bl	__aeabi_dsub
 1645              	.LVL293:
 1646 00a6 0246     		mov	r2, r0
 1647 00a8 0B46     		mov	r3, r1
 1648 00aa DDE90601 		ldrd	r0, [sp, #24]
 1649 00ae FFF7FEFF 		bl	atan2
 1650              	.LVL294:
 1651              		.loc 1 338 0
 1652 00b2 FFF7FEFF 		bl	ln_rad_to_deg
 1653              	.LVL295:
 1654 00b6 0246     		mov	r2, r0
 1655 00b8 0B46     		mov	r3, r1
 1656 00ba 1BA1     		adr	r1, .L47+16
 1657 00bc D1E90001 		ldrd	r0, [r1]
 1658 00c0 FFF7FEFF 		bl	__aeabi_dsub
 1659              	.LVL296:
 1660 00c4 FFF7FEFF 		bl	ln_range_degrees
 1661              	.LVL297:
 1662 00c8 DDF814E0 		ldr	lr, [sp, #20]
 1663              		.loc 1 339 0
 1664 00cc 5246     		mov	r2, sl
 1665              		.loc 1 338 0
 1666 00ce CEE90001 		strd	r0, [lr]
 1667              		.loc 1 339 0
 1668 00d2 5B46     		mov	r3, fp
 1669 00d4 3046     		mov	r0, r6
 1670 00d6 3946     		mov	r1, r7
 1671 00d8 FFF7FEFF 		bl	__aeabi_dmul
 1672              	.LVL298:
 1673 00dc DDE90023 		ldrd	r2, [sp]
 1674 00e0 0646     		mov	r6, r0
 1675              	.LVL299:
 1676 00e2 0F46     		mov	r7, r1
 1677 00e4 2046     		mov	r0, r4
 1678 00e6 2946     		mov	r1, r5
 1679 00e8 FFF7FEFF 		bl	__aeabi_dmul
 1680              	.LVL300:
 1681 00ec DDE90223 		ldrd	r2, [sp, #8]
 1682 00f0 FFF7FEFF 		bl	__aeabi_dmul
 1683              	.LVL301:
 1684 00f4 0B46     		mov	r3, r1
 1685 00f6 0246     		mov	r2, r0
 1686 00f8 3946     		mov	r1, r7
 1687 00fa 3046     		mov	r0, r6
 1688 00fc FFF7FEFF 		bl	__aeabi_dadd
 1689              	.LVL302:
 1690 0100 FFF7FEFF 		bl	asin
 1691              	.LVL303:
 1692 0104 FFF7FEFF 		bl	ln_rad_to_deg
 1693              	.LVL304:
 1694 0108 059B     		ldr	r3, [sp, #20]
 1695 010a C3E90201 		strd	r0, [r3, #8]
 1696              		.loc 1 340 0
 1697 010e 09B0     		add	sp, sp, #36
 1698 0110 BDE8F08F 		pop	{r4, r5, r6, r7, r8, r9, sl, fp, pc}
 1699              	.L48:
ARM GAS  /tmp/ccNJIE6Y.s 			page 31


 1700 0114 AFF30080 		.align	3
 1701              	.L47:
 1702 0118 66666666 		.word	1717986918
 1703 011c 66663B40 		.word	1077634662
 1704 0120 00000000 		.word	0
 1705 0124 00086840 		.word	1080559616
 1706 0128 00000000 		.word	0
 1707 012c 00F07240 		.word	1081274368
 1708              		.cfi_endproc
 1709              	.LFE9:
 1710              		.size	ln_get_gal_from_equ, .-ln_get_gal_from_equ
 1711              		.section	.text.ln_get_gal_from_equ2000,"ax",%progbits
 1712              		.align	2
 1713              		.p2align 4,,15
 1714              		.global	ln_get_gal_from_equ2000
 1715              		.thumb
 1716              		.thumb_func
 1717              		.type	ln_get_gal_from_equ2000, %function
 1718              	ln_get_gal_from_equ2000:
 1719              	.LFB10:
 1720              		.loc 1 349 0
 1721              		.cfi_startproc
 1722              		@ args = 0, pretend = 0, frame = 16
 1723              		@ frame_needed = 0, uses_anonymous_args = 0
 1724              	.LVL305:
 1725 0000 30B5     		push	{r4, r5, lr}
 1726              	.LCFI18:
 1727              		.cfi_def_cfa_offset 12
 1728              		.cfi_offset 4, -12
 1729              		.cfi_offset 5, -8
 1730              		.cfi_offset 14, -4
 1731              		.loc 1 351 0
 1732 0002 0BA3     		adr	r3, .L50
 1733 0004 D3E90023 		ldrd	r2, [r3]
 1734              		.loc 1 349 0
 1735 0008 89B0     		sub	sp, sp, #36
 1736              	.LCFI19:
 1737              		.cfi_def_cfa_offset 48
 1738              		.loc 1 351 0
 1739 000a 04AC     		add	r4, sp, #16
 1740              		.loc 1 349 0
 1741 000c 0D46     		mov	r5, r1
 1742              		.loc 1 351 0
 1743 000e CDE90023 		strd	r2, [sp]
 1744 0012 0294     		str	r4, [sp, #8]
 1745 0014 08A3     		adr	r3, .L50+8
 1746 0016 D3E90023 		ldrd	r2, [r3]
 1747 001a FFF7FEFF 		bl	ln_get_equ_prec2
 1748              	.LVL306:
 1749              		.loc 1 352 0
 1750 001e 2046     		mov	r0, r4
 1751 0020 2946     		mov	r1, r5
 1752 0022 FFF7FEFF 		bl	ln_get_gal_from_equ
 1753              	.LVL307:
 1754              		.loc 1 353 0
 1755 0026 09B0     		add	sp, sp, #36
 1756 0028 30BD     		pop	{r4, r5, pc}
ARM GAS  /tmp/ccNJIE6Y.s 			page 32


 1757              	.L51:
 1758 002a 00BFAFF3 		.align	3
 1758      0080
 1759              	.L50:
 1760 0030 7D3F3536 		.word	909459325
 1761 0034 81904241 		.word	1094881409
 1762 0038 00000080 		.word	2147483648
 1763 003c 2CB44241 		.word	1094890540
 1764              		.cfi_endproc
 1765              	.LFE10:
 1766              		.size	ln_get_gal_from_equ2000, .-ln_get_gal_from_equ2000
 1767              		.text
 1768              	.Letext0:
 1769              		.file 2 "./libnova/src/libnova/ln_types.h"
 1770              		.file 3 "/usr/bin/../lib/gcc/arm-none-eabi/4.7.4/../../../../arm-none-eabi/include/math.h"
 1771              		.file 4 "./libnova/src/libnova/utility.h"
 1772              		.file 5 "./libnova/src/libnova/sidereal_time.h"
 1773              		.file 6 "./libnova/src/libnova/nutation.h"
 1774              		.file 7 "./libnova/src/libnova/precession.h"
 1775              		.section	.debug_info,"",%progbits
 1776              	.Ldebug_info0:
 1777 0000 150F0000 		.4byte	0xf15
 1778 0004 0200     		.2byte	0x2
 1779 0006 00000000 		.4byte	.Ldebug_abbrev0
 1780 000a 04       		.byte	0x4
 1781 000b 01       		.uleb128 0x1
 1782 000c CC000000 		.4byte	.LASF38
 1783 0010 01       		.byte	0x1
 1784 0011 C9030000 		.4byte	.LASF39
 1785 0015 93010000 		.4byte	.LASF40
 1786 0019 00000000 		.4byte	.Ldebug_ranges0+0
 1787 001d 00000000 		.4byte	0
 1788 0021 00000000 		.4byte	0
 1789 0025 00000000 		.4byte	.Ldebug_line0
 1790 0029 02       		.uleb128 0x2
 1791 002a 08       		.byte	0x8
 1792 002b 04       		.byte	0x4
 1793 002c 65010000 		.4byte	.LASF0
 1794 0030 02       		.uleb128 0x2
 1795 0031 01       		.byte	0x1
 1796 0032 06       		.byte	0x6
 1797 0033 A6000000 		.4byte	.LASF1
 1798 0037 02       		.uleb128 0x2
 1799 0038 01       		.byte	0x1
 1800 0039 08       		.byte	0x8
 1801 003a 44030000 		.4byte	.LASF2
 1802 003e 02       		.uleb128 0x2
 1803 003f 02       		.byte	0x2
 1804 0040 05       		.byte	0x5
 1805 0041 66030000 		.4byte	.LASF3
 1806 0045 02       		.uleb128 0x2
 1807 0046 02       		.byte	0x2
 1808 0047 07       		.byte	0x7
 1809 0048 91020000 		.4byte	.LASF4
 1810 004c 03       		.uleb128 0x3
 1811 004d 04       		.byte	0x4
 1812 004e 05       		.byte	0x5
ARM GAS  /tmp/ccNJIE6Y.s 			page 33


 1813 004f 696E7400 		.ascii	"int\000"
 1814 0053 02       		.uleb128 0x2
 1815 0054 04       		.byte	0x4
 1816 0055 07       		.byte	0x7
 1817 0056 48020000 		.4byte	.LASF5
 1818 005a 02       		.uleb128 0x2
 1819 005b 08       		.byte	0x8
 1820 005c 05       		.byte	0x5
 1821 005d 98000000 		.4byte	.LASF6
 1822 0061 02       		.uleb128 0x2
 1823 0062 08       		.byte	0x8
 1824 0063 07       		.byte	0x7
 1825 0064 64000000 		.4byte	.LASF7
 1826 0068 02       		.uleb128 0x2
 1827 0069 04       		.byte	0x4
 1828 006a 05       		.byte	0x5
 1829 006b 15010000 		.4byte	.LASF8
 1830 006f 02       		.uleb128 0x2
 1831 0070 04       		.byte	0x4
 1832 0071 07       		.byte	0x7
 1833 0072 DB020000 		.4byte	.LASF9
 1834 0076 02       		.uleb128 0x2
 1835 0077 04       		.byte	0x4
 1836 0078 07       		.byte	0x7
 1837 0079 6A020000 		.4byte	.LASF10
 1838 007d 02       		.uleb128 0x2
 1839 007e 01       		.byte	0x1
 1840 007f 08       		.byte	0x8
 1841 0080 84030000 		.4byte	.LASF11
 1842 0084 02       		.uleb128 0x2
 1843 0085 04       		.byte	0x4
 1844 0086 04       		.byte	0x4
 1845 0087 34030000 		.4byte	.LASF12
 1846 008b 02       		.uleb128 0x2
 1847 008c 08       		.byte	0x8
 1848 008d 04       		.byte	0x4
 1849 008e E4020000 		.4byte	.LASF13
 1850 0092 04       		.uleb128 0x4
 1851 0093 3D040000 		.4byte	.LASF14
 1852 0097 10       		.byte	0x10
 1853 0098 02       		.byte	0x2
 1854 0099 AA       		.byte	0xaa
 1855 009a BA000000 		.4byte	0xba
 1856 009e 05       		.uleb128 0x5
 1857 009f 726100   		.ascii	"ra\000"
 1858 00a2 02       		.byte	0x2
 1859 00a3 AC       		.byte	0xac
 1860 00a4 29000000 		.4byte	0x29
 1861 00a8 02       		.byte	0x2
 1862 00a9 23       		.byte	0x23
 1863 00aa 00       		.uleb128 0
 1864 00ab 05       		.uleb128 0x5
 1865 00ac 64656300 		.ascii	"dec\000"
 1866 00b0 02       		.byte	0x2
 1867 00b1 AD       		.byte	0xad
 1868 00b2 29000000 		.4byte	0x29
 1869 00b6 02       		.byte	0x2
ARM GAS  /tmp/ccNJIE6Y.s 			page 34


 1870 00b7 23       		.byte	0x23
 1871 00b8 08       		.uleb128 0x8
 1872 00b9 00       		.byte	0
 1873 00ba 04       		.uleb128 0x4
 1874 00bb 97030000 		.4byte	.LASF15
 1875 00bf 10       		.byte	0x10
 1876 00c0 02       		.byte	0x2
 1877 00c1 B8       		.byte	0xb8
 1878 00c2 E2000000 		.4byte	0xe2
 1879 00c6 05       		.uleb128 0x5
 1880 00c7 617A00   		.ascii	"az\000"
 1881 00ca 02       		.byte	0x2
 1882 00cb BA       		.byte	0xba
 1883 00cc 29000000 		.4byte	0x29
 1884 00d0 02       		.byte	0x2
 1885 00d1 23       		.byte	0x23
 1886 00d2 00       		.uleb128 0
 1887 00d3 05       		.uleb128 0x5
 1888 00d4 616C7400 		.ascii	"alt\000"
 1889 00d8 02       		.byte	0x2
 1890 00d9 BC       		.byte	0xbc
 1891 00da 29000000 		.4byte	0x29
 1892 00de 02       		.byte	0x2
 1893 00df 23       		.byte	0x23
 1894 00e0 08       		.uleb128 0x8
 1895 00e1 00       		.byte	0
 1896 00e2 04       		.uleb128 0x4
 1897 00e3 89030000 		.4byte	.LASF16
 1898 00e7 10       		.byte	0x10
 1899 00e8 02       		.byte	0x2
 1900 00e9 C8       		.byte	0xc8
 1901 00ea 0B010000 		.4byte	0x10b
 1902 00ee 05       		.uleb128 0x5
 1903 00ef 6C6E6700 		.ascii	"lng\000"
 1904 00f3 02       		.byte	0x2
 1905 00f4 CA       		.byte	0xca
 1906 00f5 29000000 		.4byte	0x29
 1907 00f9 02       		.byte	0x2
 1908 00fa 23       		.byte	0x23
 1909 00fb 00       		.uleb128 0
 1910 00fc 05       		.uleb128 0x5
 1911 00fd 6C617400 		.ascii	"lat\000"
 1912 0101 02       		.byte	0x2
 1913 0102 CB       		.byte	0xcb
 1914 0103 29000000 		.4byte	0x29
 1915 0107 02       		.byte	0x2
 1916 0108 23       		.byte	0x23
 1917 0109 08       		.uleb128 0x8
 1918 010a 00       		.byte	0
 1919 010b 04       		.uleb128 0x4
 1920 010c 14040000 		.4byte	.LASF17
 1921 0110 18       		.byte	0x18
 1922 0111 02       		.byte	0x2
 1923 0112 D8       		.byte	0xd8
 1924 0113 3C010000 		.4byte	0x13c
 1925 0117 05       		.uleb128 0x5
 1926 0118 4C00     		.ascii	"L\000"
ARM GAS  /tmp/ccNJIE6Y.s 			page 35


 1927 011a 02       		.byte	0x2
 1928 011b DA       		.byte	0xda
 1929 011c 29000000 		.4byte	0x29
 1930 0120 02       		.byte	0x2
 1931 0121 23       		.byte	0x23
 1932 0122 00       		.uleb128 0
 1933 0123 05       		.uleb128 0x5
 1934 0124 4200     		.ascii	"B\000"
 1935 0126 02       		.byte	0x2
 1936 0127 DB       		.byte	0xdb
 1937 0128 29000000 		.4byte	0x29
 1938 012c 02       		.byte	0x2
 1939 012d 23       		.byte	0x23
 1940 012e 08       		.uleb128 0x8
 1941 012f 05       		.uleb128 0x5
 1942 0130 5200     		.ascii	"R\000"
 1943 0132 02       		.byte	0x2
 1944 0133 DC       		.byte	0xdc
 1945 0134 29000000 		.4byte	0x29
 1946 0138 02       		.byte	0x2
 1947 0139 23       		.byte	0x23
 1948 013a 10       		.uleb128 0x10
 1949 013b 00       		.byte	0
 1950 013c 04       		.uleb128 0x4
 1951 013d 7B000000 		.4byte	.LASF18
 1952 0141 18       		.byte	0x18
 1953 0142 02       		.byte	0x2
 1954 0143 ED       		.byte	0xed
 1955 0144 6D010000 		.4byte	0x16d
 1956 0148 05       		.uleb128 0x5
 1957 0149 5800     		.ascii	"X\000"
 1958 014b 02       		.byte	0x2
 1959 014c EF       		.byte	0xef
 1960 014d 29000000 		.4byte	0x29
 1961 0151 02       		.byte	0x2
 1962 0152 23       		.byte	0x23
 1963 0153 00       		.uleb128 0
 1964 0154 05       		.uleb128 0x5
 1965 0155 5900     		.ascii	"Y\000"
 1966 0157 02       		.byte	0x2
 1967 0158 F0       		.byte	0xf0
 1968 0159 29000000 		.4byte	0x29
 1969 015d 02       		.byte	0x2
 1970 015e 23       		.byte	0x23
 1971 015f 08       		.uleb128 0x8
 1972 0160 05       		.uleb128 0x5
 1973 0161 5A00     		.ascii	"Z\000"
 1974 0163 02       		.byte	0x2
 1975 0164 F1       		.byte	0xf1
 1976 0165 29000000 		.4byte	0x29
 1977 0169 02       		.byte	0x2
 1978 016a 23       		.byte	0x23
 1979 016b 10       		.uleb128 0x10
 1980 016c 00       		.byte	0
 1981 016d 04       		.uleb128 0x4
 1982 016e A3030000 		.4byte	.LASF19
 1983 0172 10       		.byte	0x10
ARM GAS  /tmp/ccNJIE6Y.s 			page 36


 1984 0173 02       		.byte	0x2
 1985 0174 FC       		.byte	0xfc
 1986 0175 92010000 		.4byte	0x192
 1987 0179 05       		.uleb128 0x5
 1988 017a 6C00     		.ascii	"l\000"
 1989 017c 02       		.byte	0x2
 1990 017d FE       		.byte	0xfe
 1991 017e 29000000 		.4byte	0x29
 1992 0182 02       		.byte	0x2
 1993 0183 23       		.byte	0x23
 1994 0184 00       		.uleb128 0
 1995 0185 05       		.uleb128 0x5
 1996 0186 6200     		.ascii	"b\000"
 1997 0188 02       		.byte	0x2
 1998 0189 FF       		.byte	0xff
 1999 018a 29000000 		.4byte	0x29
 2000 018e 02       		.byte	0x2
 2001 018f 23       		.byte	0x23
 2002 0190 08       		.uleb128 0x8
 2003 0191 00       		.byte	0
 2004 0192 06       		.uleb128 0x6
 2005 0193 BD030000 		.4byte	.LASF20
 2006 0197 18       		.byte	0x18
 2007 0198 02       		.byte	0x2
 2008 0199 4C01     		.2byte	0x14c
 2009 019b CD010000 		.4byte	0x1cd
 2010 019f 07       		.uleb128 0x7
 2011 01a0 28000000 		.4byte	.LASF21
 2012 01a4 02       		.byte	0x2
 2013 01a5 4E01     		.2byte	0x14e
 2014 01a7 29000000 		.4byte	0x29
 2015 01ab 02       		.byte	0x2
 2016 01ac 23       		.byte	0x23
 2017 01ad 00       		.uleb128 0
 2018 01ae 07       		.uleb128 0x7
 2019 01af 3A030000 		.4byte	.LASF22
 2020 01b3 02       		.byte	0x2
 2021 01b4 4F01     		.2byte	0x14f
 2022 01b6 29000000 		.4byte	0x29
 2023 01ba 02       		.byte	0x2
 2024 01bb 23       		.byte	0x23
 2025 01bc 08       		.uleb128 0x8
 2026 01bd 07       		.uleb128 0x7
 2027 01be 1F000000 		.4byte	.LASF23
 2028 01c2 02       		.byte	0x2
 2029 01c3 5001     		.2byte	0x150
 2030 01c5 29000000 		.4byte	0x29
 2031 01c9 02       		.byte	0x2
 2032 01ca 23       		.byte	0x23
 2033 01cb 10       		.uleb128 0x10
 2034 01cc 00       		.byte	0
 2035 01cd 08       		.uleb128 0x8
 2036 01ce 01       		.byte	0x1
 2037 01cf E3030000 		.4byte	.LASF32
 2038 01d3 01       		.byte	0x1
 2039 01d4 23       		.byte	0x23
 2040 01d5 01       		.byte	0x1
ARM GAS  /tmp/ccNJIE6Y.s 			page 37


 2041 01d6 00000000 		.4byte	.LFB0
 2042 01da 08010000 		.4byte	.LFE0
 2043 01de 00000000 		.4byte	.LLST0
 2044 01e2 01       		.byte	0x1
 2045 01e3 B2020000 		.4byte	0x2b2
 2046 01e7 09       		.uleb128 0x9
 2047 01e8 91000000 		.4byte	.LASF24
 2048 01ec 01       		.byte	0x1
 2049 01ed 24       		.byte	0x24
 2050 01ee B2020000 		.4byte	0x2b2
 2051 01f2 2C000000 		.4byte	.LLST1
 2052 01f6 09       		.uleb128 0x9
 2053 01f7 55020000 		.4byte	.LASF25
 2054 01fb 01       		.byte	0x1
 2055 01fc 25       		.byte	0x25
 2056 01fd B8020000 		.4byte	0x2b8
 2057 0201 58000000 		.4byte	.LLST2
 2058 0205 0A       		.uleb128 0xa
 2059 0206 EF010000 		.4byte	.LASF26
 2060 020a 01       		.byte	0x1
 2061 020b 27       		.byte	0x27
 2062 020c 29000000 		.4byte	0x29
 2063 0210 08       		.byte	0x8
 2064 0211 BF6A0751 		.4byte	0x51076abf
 2065 0215 2E75D93F 		.4byte	0x3fd9752e
 2066 0219 0A       		.uleb128 0xa
 2067 021a 82020000 		.4byte	.LASF27
 2068 021e 01       		.byte	0x1
 2069 021f 27       		.byte	0x27
 2070 0220 29000000 		.4byte	0x29
 2071 0224 08       		.byte	0x8
 2072 0225 D59C5E57 		.4byte	0x575e9cd5
 2073 0229 035CED3F 		.4byte	0x3fed5c03
 2074 022d 0B       		.uleb128 0xb
 2075 022e F5010000 		.4byte	.LASF28
 2076 0232 01       		.byte	0x1
 2077 0233 28       		.byte	0x28
 2078 0234 29000000 		.4byte	0x29
 2079 0238 76000000 		.4byte	.LLST3
 2080 023c 0B       		.uleb128 0xb
 2081 023d 42010000 		.4byte	.LASF29
 2082 0241 01       		.byte	0x1
 2083 0242 28       		.byte	0x28
 2084 0243 29000000 		.4byte	0x29
 2085 0247 8E000000 		.4byte	.LLST4
 2086 024b 0B       		.uleb128 0xb
 2087 024c 6C010000 		.4byte	.LASF30
 2088 0250 01       		.byte	0x1
 2089 0251 28       		.byte	0x28
 2090 0252 29000000 		.4byte	0x29
 2091 0256 B2000000 		.4byte	.LLST5
 2092 025a 0B       		.uleb128 0xb
 2093 025b 0C020000 		.4byte	.LASF31
 2094 025f 01       		.byte	0x1
 2095 0260 28       		.byte	0x28
 2096 0261 29000000 		.4byte	0x29
 2097 0265 CA000000 		.4byte	.LLST6
ARM GAS  /tmp/ccNJIE6Y.s 			page 38


 2098 0269 0C       		.uleb128 0xc
 2099 026a 12000000 		.4byte	.LVL2
 2100 026e B50D0000 		.4byte	0xdb5
 2101 0272 0C       		.uleb128 0xc
 2102 0273 16000000 		.4byte	.LVL3
 2103 0277 CD0D0000 		.4byte	0xdcd
 2104 027b 0C       		.uleb128 0xc
 2105 027c 22000000 		.4byte	.LVL5
 2106 0280 B50D0000 		.4byte	0xdb5
 2107 0284 0C       		.uleb128 0xc
 2108 0285 26000000 		.4byte	.LVL6
 2109 0289 CD0D0000 		.4byte	0xdcd
 2110 028d 0C       		.uleb128 0xc
 2111 028e 36000000 		.4byte	.LVL8
 2112 0292 B50D0000 		.4byte	0xdb5
 2113 0296 0C       		.uleb128 0xc
 2114 0297 3A000000 		.4byte	.LVL9
 2115 029b E50D0000 		.4byte	0xde5
 2116 029f 0C       		.uleb128 0xc
 2117 02a0 46000000 		.4byte	.LVL12
 2118 02a4 B50D0000 		.4byte	0xdb5
 2119 02a8 0C       		.uleb128 0xc
 2120 02a9 4A000000 		.4byte	.LVL13
 2121 02ad E50D0000 		.4byte	0xde5
 2122 02b1 00       		.byte	0
 2123 02b2 0D       		.uleb128 0xd
 2124 02b3 04       		.byte	0x4
 2125 02b4 0B010000 		.4byte	0x10b
 2126 02b8 0D       		.uleb128 0xd
 2127 02b9 04       		.byte	0x4
 2128 02ba 3C010000 		.4byte	0x13c
 2129 02be 08       		.uleb128 0x8
 2130 02bf 01       		.byte	0x1
 2131 02c0 26020000 		.4byte	.LASF33
 2132 02c4 01       		.byte	0x1
 2133 02c5 55       		.byte	0x55
 2134 02c6 01       		.byte	0x1
 2135 02c7 00000000 		.4byte	.LFB2
 2136 02cb 60020000 		.4byte	.LFE2
 2137 02cf E2000000 		.4byte	.LLST7
 2138 02d3 01       		.byte	0x1
 2139 02d4 68040000 		.4byte	0x468
 2140 02d8 09       		.uleb128 0x9
 2141 02d9 91000000 		.4byte	.LASF24
 2142 02dd 01       		.byte	0x1
 2143 02de 55       		.byte	0x55
 2144 02df 68040000 		.4byte	0x468
 2145 02e3 0F010000 		.4byte	.LLST8
 2146 02e7 09       		.uleb128 0x9
 2147 02e8 76030000 		.4byte	.LASF34
 2148 02ec 01       		.byte	0x1
 2149 02ed 55       		.byte	0x55
 2150 02ee 6E040000 		.4byte	0x46e
 2151 02f2 2D010000 		.4byte	.LLST9
 2152 02f6 09       		.uleb128 0x9
 2153 02f7 2B030000 		.4byte	.LASF35
 2154 02fb 01       		.byte	0x1
ARM GAS  /tmp/ccNJIE6Y.s 			page 39


 2155 02fc 55       		.byte	0x55
 2156 02fd 29000000 		.4byte	0x29
 2157 0301 4B010000 		.4byte	.LLST10
 2158 0305 0E       		.uleb128 0xe
 2159 0306 55020000 		.4byte	.LASF25
 2160 030a 01       		.byte	0x1
 2161 030b 55       		.byte	0x55
 2162 030c 74040000 		.4byte	0x474
 2163 0310 02       		.byte	0x2
 2164 0311 91       		.byte	0x91
 2165 0312 00       		.sleb128 0
 2166 0313 0F       		.uleb128 0xf
 2167 0314 4800     		.ascii	"H\000"
 2168 0316 01       		.byte	0x1
 2169 0317 57       		.byte	0x57
 2170 0318 8B000000 		.4byte	0x8b
 2171 031c 7D010000 		.4byte	.LLST11
 2172 0320 0F       		.uleb128 0xf
 2173 0321 726100   		.ascii	"ra\000"
 2174 0324 01       		.byte	0x1
 2175 0325 57       		.byte	0x57
 2176 0326 8B000000 		.4byte	0x8b
 2177 032a A1010000 		.4byte	.LLST12
 2178 032e 0B       		.uleb128 0xb
 2179 032f F0020000 		.4byte	.LASF36
 2180 0333 01       		.byte	0x1
 2181 0334 57       		.byte	0x57
 2182 0335 8B000000 		.4byte	0x8b
 2183 0339 B9010000 		.4byte	.LLST13
 2184 033d 0B       		.uleb128 0xb
 2185 033e 13000000 		.4byte	.LASF37
 2186 0342 01       		.byte	0x1
 2187 0343 57       		.byte	0x57
 2188 0344 8B000000 		.4byte	0x8b
 2189 0348 D1010000 		.4byte	.LLST14
 2190 034c 0F       		.uleb128 0xf
 2191 034d 4100     		.ascii	"A\000"
 2192 034f 01       		.byte	0x1
 2193 0350 57       		.byte	0x57
 2194 0351 8B000000 		.4byte	0x8b
 2195 0355 E9010000 		.4byte	.LLST15
 2196 0359 0F       		.uleb128 0xf
 2197 035a 416300   		.ascii	"Ac\000"
 2198 035d 01       		.byte	0x1
 2199 035e 57       		.byte	0x57
 2200 035f 8B000000 		.4byte	0x8b
 2201 0363 11020000 		.4byte	.LLST16
 2202 0367 0F       		.uleb128 0xf
 2203 0368 417300   		.ascii	"As\000"
 2204 036b 01       		.byte	0x1
 2205 036c 57       		.byte	0x57
 2206 036d 8B000000 		.4byte	0x8b
 2207 0371 39020000 		.4byte	.LLST17
 2208 0375 10       		.uleb128 0x10
 2209 0376 6800     		.ascii	"h\000"
 2210 0378 01       		.byte	0x1
 2211 0379 57       		.byte	0x57
ARM GAS  /tmp/ccNJIE6Y.s 			page 40


 2212 037a 8B000000 		.4byte	0x8b
 2213 037e 10       		.uleb128 0x10
 2214 037f 5A00     		.ascii	"Z\000"
 2215 0381 01       		.byte	0x1
 2216 0382 57       		.byte	0x57
 2217 0383 8B000000 		.4byte	0x8b
 2218 0387 0F       		.uleb128 0xf
 2219 0388 5A7300   		.ascii	"Zs\000"
 2220 038b 01       		.byte	0x1
 2221 038c 57       		.byte	0x57
 2222 038d 8B000000 		.4byte	0x8b
 2223 0391 69020000 		.4byte	.LLST18
 2224 0395 0C       		.uleb128 0xc
 2225 0396 16000000 		.4byte	.LVL32
 2226 039a B50D0000 		.4byte	0xdb5
 2227 039e 0C       		.uleb128 0xc
 2228 039f 22000000 		.4byte	.LVL34
 2229 03a3 B50D0000 		.4byte	0xdb5
 2230 03a7 0C       		.uleb128 0xc
 2231 03a8 54000000 		.4byte	.LVL40
 2232 03ac B50D0000 		.4byte	0xdb5
 2233 03b0 0C       		.uleb128 0xc
 2234 03b1 60000000 		.4byte	.LVL42
 2235 03b5 B50D0000 		.4byte	0xdb5
 2236 03b9 0C       		.uleb128 0xc
 2237 03ba 6C000000 		.4byte	.LVL45
 2238 03be E50D0000 		.4byte	0xde5
 2239 03c2 0C       		.uleb128 0xc
 2240 03c3 78000000 		.4byte	.LVL46
 2241 03c7 E50D0000 		.4byte	0xde5
 2242 03cb 0C       		.uleb128 0xc
 2243 03cc 84000000 		.4byte	.LVL47
 2244 03d0 CD0D0000 		.4byte	0xdcd
 2245 03d4 0C       		.uleb128 0xc
 2246 03d5 90000000 		.4byte	.LVL48
 2247 03d9 CD0D0000 		.4byte	0xdcd
 2248 03dd 11       		.uleb128 0x11
 2249 03de 9C000000 		.4byte	.LVL50
 2250 03e2 CD0D0000 		.4byte	0xdcd
 2251 03e6 F9030000 		.4byte	0x3f9
 2252 03ea 12       		.uleb128 0x12
 2253 03eb 06       		.byte	0x6
 2254 03ec 50       		.byte	0x50
 2255 03ed 93       		.byte	0x93
 2256 03ee 04       		.uleb128 0x4
 2257 03ef 51       		.byte	0x51
 2258 03f0 93       		.byte	0x93
 2259 03f1 04       		.uleb128 0x4
 2260 03f2 05       		.byte	0x5
 2261 03f3 7D       		.byte	0x7d
 2262 03f4 00       		.sleb128 0
 2263 03f5 F6       		.byte	0xf6
 2264 03f6 08       		.byte	0x8
 2265 03f7 29       		.uleb128 0x29
 2266 03f8 00       		.byte	0
 2267 03f9 0C       		.uleb128 0xc
 2268 03fa D8000000 		.4byte	.LVL57
ARM GAS  /tmp/ccNJIE6Y.s 			page 41


 2269 03fe FD0D0000 		.4byte	0xdfd
 2270 0402 0C       		.uleb128 0xc
 2271 0403 DC000000 		.4byte	.LVL58
 2272 0407 150E0000 		.4byte	0xe15
 2273 040b 0C       		.uleb128 0xc
 2274 040c EA000000 		.4byte	.LVL59
 2275 0410 2D0E0000 		.4byte	0xe2d
 2276 0414 0C       		.uleb128 0xc
 2277 0415 EE000000 		.4byte	.LVL60
 2278 0419 E50D0000 		.4byte	0xde5
 2279 041d 11       		.uleb128 0x11
 2280 041e 5C010000 		.4byte	.LVL69
 2281 0422 E50D0000 		.4byte	0xde5
 2282 0426 39040000 		.4byte	0x439
 2283 042a 12       		.uleb128 0x12
 2284 042b 06       		.byte	0x6
 2285 042c 50       		.byte	0x50
 2286 042d 93       		.byte	0x93
 2287 042e 04       		.uleb128 0x4
 2288 042f 51       		.byte	0x51
 2289 0430 93       		.byte	0x93
 2290 0431 04       		.uleb128 0x4
 2291 0432 05       		.byte	0x5
 2292 0433 7D       		.byte	0x7d
 2293 0434 00       		.sleb128 0
 2294 0435 F6       		.byte	0xf6
 2295 0436 08       		.byte	0x8
 2296 0437 29       		.uleb128 0x29
 2297 0438 00       		.byte	0
 2298 0439 11       		.uleb128 0x11
 2299 043a FE010000 		.4byte	.LVL85
 2300 043e 450E0000 		.4byte	0xe45
 2301 0442 55040000 		.4byte	0x455
 2302 0446 12       		.uleb128 0x12
 2303 0447 06       		.byte	0x6
 2304 0448 50       		.byte	0x50
 2305 0449 93       		.byte	0x93
 2306 044a 04       		.uleb128 0x4
 2307 044b 51       		.byte	0x51
 2308 044c 93       		.byte	0x93
 2309 044d 04       		.uleb128 0x4
 2310 044e 05       		.byte	0x5
 2311 044f 7D       		.byte	0x7d
 2312 0450 00       		.sleb128 0
 2313 0451 F6       		.byte	0xf6
 2314 0452 08       		.byte	0x8
 2315 0453 29       		.uleb128 0x29
 2316 0454 00       		.byte	0
 2317 0455 0C       		.uleb128 0xc
 2318 0456 02020000 		.4byte	.LVL86
 2319 045a 150E0000 		.4byte	0xe15
 2320 045e 0C       		.uleb128 0xc
 2321 045f 06020000 		.4byte	.LVL87
 2322 0463 620E0000 		.4byte	0xe62
 2323 0467 00       		.byte	0
 2324 0468 0D       		.uleb128 0xd
 2325 0469 04       		.byte	0x4
ARM GAS  /tmp/ccNJIE6Y.s 			page 42


 2326 046a 92000000 		.4byte	0x92
 2327 046e 0D       		.uleb128 0xd
 2328 046f 04       		.byte	0x4
 2329 0470 E2000000 		.4byte	0xe2
 2330 0474 0D       		.uleb128 0xd
 2331 0475 04       		.byte	0x4
 2332 0476 BA000000 		.4byte	0xba
 2333 047a 13       		.uleb128 0x13
 2334 047b 01       		.byte	0x1
 2335 047c 12020000 		.4byte	.LASF41
 2336 0480 01       		.byte	0x1
 2337 0481 4B       		.byte	0x4b
 2338 0482 01       		.byte	0x1
 2339 0483 00000000 		.4byte	.LFB1
 2340 0487 22000000 		.4byte	.LFE1
 2341 048b C1020000 		.4byte	.LLST19
 2342 048f 01       		.byte	0x1
 2343 0490 05050000 		.4byte	0x505
 2344 0494 09       		.uleb128 0x9
 2345 0495 91000000 		.4byte	.LASF24
 2346 0499 01       		.byte	0x1
 2347 049a 4B       		.byte	0x4b
 2348 049b 68040000 		.4byte	0x468
 2349 049f E1020000 		.4byte	.LLST20
 2350 04a3 09       		.uleb128 0x9
 2351 04a4 76030000 		.4byte	.LASF34
 2352 04a8 01       		.byte	0x1
 2353 04a9 4B       		.byte	0x4b
 2354 04aa 6E040000 		.4byte	0x46e
 2355 04ae FF020000 		.4byte	.LLST21
 2356 04b2 14       		.uleb128 0x14
 2357 04b3 4A4400   		.ascii	"JD\000"
 2358 04b6 01       		.byte	0x1
 2359 04b7 4B       		.byte	0x4b
 2360 04b8 29000000 		.4byte	0x29
 2361 04bc 1D030000 		.4byte	.LLST22
 2362 04c0 0E       		.uleb128 0xe
 2363 04c1 55020000 		.4byte	.LASF25
 2364 04c5 01       		.byte	0x1
 2365 04c6 4B       		.byte	0x4b
 2366 04c7 74040000 		.4byte	0x474
 2367 04cb 02       		.byte	0x2
 2368 04cc 91       		.byte	0x91
 2369 04cd 00       		.sleb128 0
 2370 04ce 0B       		.uleb128 0xb
 2371 04cf 2B030000 		.4byte	.LASF35
 2372 04d3 01       		.byte	0x1
 2373 04d4 4D       		.byte	0x4d
 2374 04d5 29000000 		.4byte	0x29
 2375 04d9 45030000 		.4byte	.LLST23
 2376 04dd 0C       		.uleb128 0xc
 2377 04de 10000000 		.4byte	.LVL95
 2378 04e2 7A0E0000 		.4byte	0xe7a
 2379 04e6 15       		.uleb128 0x15
 2380 04e7 22000000 		.4byte	.LVL97
 2381 04eb 01       		.byte	0x1
 2382 04ec BE020000 		.4byte	0x2be
ARM GAS  /tmp/ccNJIE6Y.s 			page 43


 2383 04f0 12       		.uleb128 0x12
 2384 04f1 01       		.byte	0x1
 2385 04f2 51       		.byte	0x51
 2386 04f3 02       		.byte	0x2
 2387 04f4 75       		.byte	0x75
 2388 04f5 00       		.sleb128 0
 2389 04f6 12       		.uleb128 0x12
 2390 04f7 01       		.byte	0x1
 2391 04f8 50       		.byte	0x50
 2392 04f9 02       		.byte	0x2
 2393 04fa 76       		.byte	0x76
 2394 04fb 00       		.sleb128 0
 2395 04fc 12       		.uleb128 0x12
 2396 04fd 02       		.byte	0x2
 2397 04fe 91       		.byte	0x91
 2398 04ff 00       		.sleb128 0
 2399 0500 02       		.byte	0x2
 2400 0501 74       		.byte	0x74
 2401 0502 00       		.sleb128 0
 2402 0503 00       		.byte	0
 2403 0504 00       		.byte	0
 2404 0505 08       		.uleb128 0x8
 2405 0506 01       		.byte	0x1
 2406 0507 52030000 		.4byte	.LASF42
 2407 050b 01       		.byte	0x1
 2408 050c 9B       		.byte	0x9b
 2409 050d 01       		.byte	0x1
 2410 050e 00000000 		.4byte	.LFB3
 2411 0512 58010000 		.4byte	.LFE3
 2412 0516 5D030000 		.4byte	.LLST24
 2413 051a 01       		.byte	0x1
 2414 051b 7B060000 		.4byte	0x67b
 2415 051f 09       		.uleb128 0x9
 2416 0520 91000000 		.4byte	.LASF24
 2417 0524 01       		.byte	0x1
 2418 0525 9B       		.byte	0x9b
 2419 0526 74040000 		.4byte	0x474
 2420 052a 8A030000 		.4byte	.LLST25
 2421 052e 09       		.uleb128 0x9
 2422 052f 76030000 		.4byte	.LASF34
 2423 0533 01       		.byte	0x1
 2424 0534 9B       		.byte	0x9b
 2425 0535 6E040000 		.4byte	0x46e
 2426 0539 B6030000 		.4byte	.LLST26
 2427 053d 14       		.uleb128 0x14
 2428 053e 4A4400   		.ascii	"JD\000"
 2429 0541 01       		.byte	0x1
 2430 0542 9B       		.byte	0x9b
 2431 0543 29000000 		.4byte	0x29
 2432 0547 E2030000 		.4byte	.LLST27
 2433 054b 0E       		.uleb128 0xe
 2434 054c 55020000 		.4byte	.LASF25
 2435 0550 01       		.byte	0x1
 2436 0551 9B       		.byte	0x9b
 2437 0552 68040000 		.4byte	0x468
 2438 0556 02       		.byte	0x2
 2439 0557 91       		.byte	0x91
ARM GAS  /tmp/ccNJIE6Y.s 			page 44


 2440 0558 00       		.sleb128 0
 2441 0559 16       		.uleb128 0x16
 2442 055a 4800     		.ascii	"H\000"
 2443 055c 01       		.byte	0x1
 2444 055d 9D       		.byte	0x9d
 2445 055e 8B000000 		.4byte	0x8b
 2446 0562 06       		.byte	0x6
 2447 0563 56       		.byte	0x56
 2448 0564 93       		.byte	0x93
 2449 0565 04       		.uleb128 0x4
 2450 0566 57       		.byte	0x57
 2451 0567 93       		.byte	0x93
 2452 0568 04       		.uleb128 0x4
 2453 0569 0B       		.uleb128 0xb
 2454 056a 28000000 		.4byte	.LASF21
 2455 056e 01       		.byte	0x1
 2456 056f 9D       		.byte	0x9d
 2457 0570 8B000000 		.4byte	0x8b
 2458 0574 06040000 		.4byte	.LLST28
 2459 0578 0B       		.uleb128 0xb
 2460 0579 13000000 		.4byte	.LASF37
 2461 057d 01       		.byte	0x1
 2462 057e 9D       		.byte	0x9d
 2463 057f 8B000000 		.4byte	0x8b
 2464 0583 2A040000 		.4byte	.LLST29
 2465 0587 0B       		.uleb128 0xb
 2466 0588 F0020000 		.4byte	.LASF36
 2467 058c 01       		.byte	0x1
 2468 058d 9D       		.byte	0x9d
 2469 058e 8B000000 		.4byte	0x8b
 2470 0592 52040000 		.4byte	.LLST30
 2471 0596 0F       		.uleb128 0xf
 2472 0597 4100     		.ascii	"A\000"
 2473 0599 01       		.byte	0x1
 2474 059a 9D       		.byte	0x9d
 2475 059b 8B000000 		.4byte	0x8b
 2476 059f 6A040000 		.4byte	.LLST31
 2477 05a3 0F       		.uleb128 0xf
 2478 05a4 6800     		.ascii	"h\000"
 2479 05a6 01       		.byte	0x1
 2480 05a7 9D       		.byte	0x9d
 2481 05a8 8B000000 		.4byte	0x8b
 2482 05ac 82040000 		.4byte	.LLST32
 2483 05b0 17       		.uleb128 0x17
 2484 05b1 2B030000 		.4byte	.LASF35
 2485 05b5 01       		.byte	0x1
 2486 05b6 9D       		.byte	0x9d
 2487 05b7 8B000000 		.4byte	0x8b
 2488 05bb 0C       		.uleb128 0xc
 2489 05bc 16000000 		.4byte	.LVL100
 2490 05c0 B50D0000 		.4byte	0xdb5
 2491 05c4 0C       		.uleb128 0xc
 2492 05c5 22000000 		.4byte	.LVL102
 2493 05c9 B50D0000 		.4byte	0xdb5
 2494 05cd 0C       		.uleb128 0xc
 2495 05ce 2E000000 		.4byte	.LVL105
 2496 05d2 B50D0000 		.4byte	0xdb5
ARM GAS  /tmp/ccNJIE6Y.s 			page 45


 2497 05d6 0C       		.uleb128 0xc
 2498 05d7 3A000000 		.4byte	.LVL108
 2499 05db B50D0000 		.4byte	0xdb5
 2500 05df 0C       		.uleb128 0xc
 2501 05e0 46000000 		.4byte	.LVL111
 2502 05e4 E50D0000 		.4byte	0xde5
 2503 05e8 0C       		.uleb128 0xc
 2504 05e9 52000000 		.4byte	.LVL112
 2505 05ed CD0D0000 		.4byte	0xdcd
 2506 05f1 0C       		.uleb128 0xc
 2507 05f2 5E000000 		.4byte	.LVL113
 2508 05f6 E50D0000 		.4byte	0xde5
 2509 05fa 0C       		.uleb128 0xc
 2510 05fb 6A000000 		.4byte	.LVL114
 2511 05ff 920E0000 		.4byte	0xe92
 2512 0603 0C       		.uleb128 0xc
 2513 0604 76000000 		.4byte	.LVL116
 2514 0608 CD0D0000 		.4byte	0xdcd
 2515 060c 11       		.uleb128 0x11
 2516 060d AE000000 		.4byte	.LVL121
 2517 0611 450E0000 		.4byte	0xe45
 2518 0615 28060000 		.4byte	0x628
 2519 0619 12       		.uleb128 0x12
 2520 061a 06       		.byte	0x6
 2521 061b 50       		.byte	0x50
 2522 061c 93       		.byte	0x93
 2523 061d 04       		.uleb128 0x4
 2524 061e 51       		.byte	0x51
 2525 061f 93       		.byte	0x93
 2526 0620 04       		.uleb128 0x4
 2527 0621 05       		.byte	0x5
 2528 0622 91       		.byte	0x91
 2529 0623 48       		.sleb128 -56
 2530 0624 F6       		.byte	0xf6
 2531 0625 08       		.byte	0x8
 2532 0626 29       		.uleb128 0x29
 2533 0627 00       		.byte	0
 2534 0628 0C       		.uleb128 0xc
 2535 0629 BA000000 		.4byte	.LVL123
 2536 062d E50D0000 		.4byte	0xde5
 2537 0631 0C       		.uleb128 0xc
 2538 0632 C6000000 		.4byte	.LVL124
 2539 0636 CD0D0000 		.4byte	0xdcd
 2540 063a 0C       		.uleb128 0xc
 2541 063b 02010000 		.4byte	.LVL130
 2542 063f FD0D0000 		.4byte	0xdfd
 2543 0643 11       		.uleb128 0x11
 2544 0644 0E010000 		.4byte	.LVL132
 2545 0648 AA0E0000 		.4byte	0xeaa
 2546 064c 5F060000 		.4byte	0x65f
 2547 0650 12       		.uleb128 0x12
 2548 0651 06       		.byte	0x6
 2549 0652 50       		.byte	0x50
 2550 0653 93       		.byte	0x93
 2551 0654 04       		.uleb128 0x4
 2552 0655 51       		.byte	0x51
 2553 0656 93       		.byte	0x93
ARM GAS  /tmp/ccNJIE6Y.s 			page 46


 2554 0657 04       		.uleb128 0x4
 2555 0658 05       		.byte	0x5
 2556 0659 91       		.byte	0x91
 2557 065a 50       		.sleb128 -48
 2558 065b F6       		.byte	0xf6
 2559 065c 08       		.byte	0x8
 2560 065d 29       		.uleb128 0x29
 2561 065e 00       		.byte	0
 2562 065f 0C       		.uleb128 0xc
 2563 0660 2C010000 		.4byte	.LVL136
 2564 0664 150E0000 		.4byte	0xe15
 2565 0668 0C       		.uleb128 0xc
 2566 0669 30010000 		.4byte	.LVL137
 2567 066d 620E0000 		.4byte	0xe62
 2568 0671 0C       		.uleb128 0xc
 2569 0672 3E010000 		.4byte	.LVL138
 2570 0676 150E0000 		.4byte	0xe15
 2571 067a 00       		.byte	0
 2572 067b 08       		.uleb128 0x8
 2573 067c 01       		.byte	0x1
 2574 067d 1E010000 		.4byte	.LASF43
 2575 0681 01       		.byte	0x1
 2576 0682 C0       		.byte	0xc0
 2577 0683 01       		.byte	0x1
 2578 0684 00000000 		.4byte	.LFB4
 2579 0688 48010000 		.4byte	.LFE4
 2580 068c 9A040000 		.4byte	.LLST33
 2581 0690 01       		.byte	0x1
 2582 0691 CE070000 		.4byte	0x7ce
 2583 0695 09       		.uleb128 0x9
 2584 0696 91000000 		.4byte	.LASF24
 2585 069a 01       		.byte	0x1
 2586 069b C0       		.byte	0xc0
 2587 069c 6E040000 		.4byte	0x46e
 2588 06a0 C7040000 		.4byte	.LLST34
 2589 06a4 14       		.uleb128 0x14
 2590 06a5 4A4400   		.ascii	"JD\000"
 2591 06a8 01       		.byte	0x1
 2592 06a9 C0       		.byte	0xc0
 2593 06aa 29000000 		.4byte	0x29
 2594 06ae F3040000 		.4byte	.LLST35
 2595 06b2 0E       		.uleb128 0xe
 2596 06b3 55020000 		.4byte	.LASF25
 2597 06b7 01       		.byte	0x1
 2598 06b8 C0       		.byte	0xc0
 2599 06b9 68040000 		.4byte	0x468
 2600 06bd 02       		.byte	0x2
 2601 06be 91       		.byte	0x91
 2602 06bf 00       		.sleb128 0
 2603 06c0 16       		.uleb128 0x16
 2604 06c1 726100   		.ascii	"ra\000"
 2605 06c4 01       		.byte	0x1
 2606 06c5 C2       		.byte	0xc2
 2607 06c6 29000000 		.4byte	0x29
 2608 06ca 06       		.byte	0x6
 2609 06cb 54       		.byte	0x54
 2610 06cc 93       		.byte	0x93
ARM GAS  /tmp/ccNJIE6Y.s 			page 47


 2611 06cd 04       		.uleb128 0x4
 2612 06ce 55       		.byte	0x55
 2613 06cf 93       		.byte	0x93
 2614 06d0 04       		.uleb128 0x4
 2615 06d1 0B       		.uleb128 0xb
 2616 06d2 13000000 		.4byte	.LASF37
 2617 06d6 01       		.byte	0x1
 2618 06d7 C2       		.byte	0xc2
 2619 06d8 29000000 		.4byte	0x29
 2620 06dc 1B050000 		.4byte	.LLST36
 2621 06e0 0B       		.uleb128 0xb
 2622 06e1 28000000 		.4byte	.LASF21
 2623 06e5 01       		.byte	0x1
 2624 06e6 C2       		.byte	0xc2
 2625 06e7 29000000 		.4byte	0x29
 2626 06eb 43050000 		.4byte	.LLST37
 2627 06ef 0B       		.uleb128 0xb
 2628 06f0 F0020000 		.4byte	.LASF36
 2629 06f4 01       		.byte	0x1
 2630 06f5 C2       		.byte	0xc2
 2631 06f6 29000000 		.4byte	0x29
 2632 06fa 5B050000 		.4byte	.LLST38
 2633 06fe 18       		.uleb128 0x18
 2634 06ff 88000000 		.4byte	.LASF44
 2635 0703 01       		.byte	0x1
 2636 0704 C3       		.byte	0xc3
 2637 0705 92010000 		.4byte	0x192
 2638 0709 02       		.byte	0x2
 2639 070a 91       		.byte	0x91
 2640 070b 40       		.sleb128 -64
 2641 070c 11       		.uleb128 0x11
 2642 070d 12000000 		.4byte	.LVL142
 2643 0711 C20E0000 		.4byte	0xec2
 2644 0715 20070000 		.4byte	0x720
 2645 0719 12       		.uleb128 0x12
 2646 071a 01       		.byte	0x1
 2647 071b 52       		.byte	0x52
 2648 071c 02       		.byte	0x2
 2649 071d 91       		.byte	0x91
 2650 071e 40       		.sleb128 -64
 2651 071f 00       		.byte	0
 2652 0720 0C       		.uleb128 0xc
 2653 0721 1A000000 		.4byte	.LVL143
 2654 0725 B50D0000 		.4byte	0xdb5
 2655 0729 0C       		.uleb128 0xc
 2656 072a 26000000 		.4byte	.LVL144
 2657 072e B50D0000 		.4byte	0xdb5
 2658 0732 0C       		.uleb128 0xc
 2659 0733 32000000 		.4byte	.LVL146
 2660 0737 B50D0000 		.4byte	0xdb5
 2661 073b 0C       		.uleb128 0xc
 2662 073c 3E000000 		.4byte	.LVL149
 2663 0740 E50D0000 		.4byte	0xde5
 2664 0744 0C       		.uleb128 0xc
 2665 0745 4E000000 		.4byte	.LVL150
 2666 0749 CD0D0000 		.4byte	0xdcd
 2667 074d 0C       		.uleb128 0xc
ARM GAS  /tmp/ccNJIE6Y.s 			page 48


 2668 074e 5A000000 		.4byte	.LVL151
 2669 0752 920E0000 		.4byte	0xe92
 2670 0756 0C       		.uleb128 0xc
 2671 0757 66000000 		.4byte	.LVL152
 2672 075b E50D0000 		.4byte	0xde5
 2673 075f 0C       		.uleb128 0xc
 2674 0760 72000000 		.4byte	.LVL153
 2675 0764 CD0D0000 		.4byte	0xdcd
 2676 0768 11       		.uleb128 0x11
 2677 0769 A6000000 		.4byte	.LVL158
 2678 076d 450E0000 		.4byte	0xe45
 2679 0771 85070000 		.4byte	0x785
 2680 0775 12       		.uleb128 0x12
 2681 0776 06       		.byte	0x6
 2682 0777 52       		.byte	0x52
 2683 0778 93       		.byte	0x93
 2684 0779 04       		.uleb128 0x4
 2685 077a 53       		.byte	0x53
 2686 077b 93       		.byte	0x93
 2687 077c 04       		.uleb128 0x4
 2688 077d 06       		.byte	0x6
 2689 077e 91       		.byte	0x91
 2690 077f B87F     		.sleb128 -72
 2691 0781 F6       		.byte	0xf6
 2692 0782 08       		.byte	0x8
 2693 0783 29       		.uleb128 0x29
 2694 0784 00       		.byte	0
 2695 0785 0C       		.uleb128 0xc
 2696 0786 B2000000 		.4byte	.LVL160
 2697 078a E50D0000 		.4byte	0xde5
 2698 078e 0C       		.uleb128 0xc
 2699 078f C6000000 		.4byte	.LVL161
 2700 0793 CD0D0000 		.4byte	0xdcd
 2701 0797 0C       		.uleb128 0xc
 2702 0798 D2000000 		.4byte	.LVL162
 2703 079c CD0D0000 		.4byte	0xdcd
 2704 07a0 0C       		.uleb128 0xc
 2705 07a1 E2000000 		.4byte	.LVL164
 2706 07a5 E50D0000 		.4byte	0xde5
 2707 07a9 0C       		.uleb128 0xc
 2708 07aa 1E010000 		.4byte	.LVL169
 2709 07ae FD0D0000 		.4byte	0xdfd
 2710 07b2 0C       		.uleb128 0xc
 2711 07b3 2A010000 		.4byte	.LVL171
 2712 07b7 150E0000 		.4byte	0xe15
 2713 07bb 0C       		.uleb128 0xc
 2714 07bc 2E010000 		.4byte	.LVL172
 2715 07c0 620E0000 		.4byte	0xe62
 2716 07c4 0C       		.uleb128 0xc
 2717 07c5 3C010000 		.4byte	.LVL173
 2718 07c9 150E0000 		.4byte	0xe15
 2719 07cd 00       		.byte	0
 2720 07ce 08       		.uleb128 0x8
 2721 07cf 01       		.byte	0x1
 2722 07d0 03030000 		.4byte	.LASF45
 2723 07d4 01       		.byte	0x1
 2724 07d5 E3       		.byte	0xe3
ARM GAS  /tmp/ccNJIE6Y.s 			page 49


 2725 07d6 01       		.byte	0x1
 2726 07d7 00000000 		.4byte	.LFB5
 2727 07db 44010000 		.4byte	.LFE5
 2728 07df 73050000 		.4byte	.LLST39
 2729 07e3 01       		.byte	0x1
 2730 07e4 0D090000 		.4byte	0x90d
 2731 07e8 09       		.uleb128 0x9
 2732 07e9 91000000 		.4byte	.LASF24
 2733 07ed 01       		.byte	0x1
 2734 07ee E3       		.byte	0xe3
 2735 07ef 68040000 		.4byte	0x468
 2736 07f3 A0050000 		.4byte	.LLST40
 2737 07f7 14       		.uleb128 0x14
 2738 07f8 4A4400   		.ascii	"JD\000"
 2739 07fb 01       		.byte	0x1
 2740 07fc E3       		.byte	0xe3
 2741 07fd 29000000 		.4byte	0x29
 2742 0801 CC050000 		.4byte	.LLST41
 2743 0805 0E       		.uleb128 0xe
 2744 0806 55020000 		.4byte	.LASF25
 2745 080a 01       		.byte	0x1
 2746 080b E3       		.byte	0xe3
 2747 080c 6E040000 		.4byte	0x46e
 2748 0810 02       		.byte	0x2
 2749 0811 91       		.byte	0x91
 2750 0812 00       		.sleb128 0
 2751 0813 0F       		.uleb128 0xf
 2752 0814 726100   		.ascii	"ra\000"
 2753 0817 01       		.byte	0x1
 2754 0818 E5       		.byte	0xe5
 2755 0819 29000000 		.4byte	0x29
 2756 081d F4050000 		.4byte	.LLST42
 2757 0821 0B       		.uleb128 0xb
 2758 0822 13000000 		.4byte	.LASF37
 2759 0826 01       		.byte	0x1
 2760 0827 E5       		.byte	0xe5
 2761 0828 29000000 		.4byte	0x29
 2762 082c 0C060000 		.4byte	.LLST43
 2763 0830 0B       		.uleb128 0xb
 2764 0831 F0020000 		.4byte	.LASF36
 2765 0835 01       		.byte	0x1
 2766 0836 E5       		.byte	0xe5
 2767 0837 29000000 		.4byte	0x29
 2768 083b 24060000 		.4byte	.LLST44
 2769 083f 18       		.uleb128 0x18
 2770 0840 28000000 		.4byte	.LASF21
 2771 0844 01       		.byte	0x1
 2772 0845 E5       		.byte	0xe5
 2773 0846 29000000 		.4byte	0x29
 2774 084a 06       		.byte	0x6
 2775 084b 54       		.byte	0x54
 2776 084c 93       		.byte	0x93
 2777 084d 04       		.uleb128 0x4
 2778 084e 55       		.byte	0x55
 2779 084f 93       		.byte	0x93
 2780 0850 04       		.uleb128 0x4
 2781 0851 18       		.uleb128 0x18
ARM GAS  /tmp/ccNJIE6Y.s 			page 50


 2782 0852 88000000 		.4byte	.LASF44
 2783 0856 01       		.byte	0x1
 2784 0857 E6       		.byte	0xe6
 2785 0858 92010000 		.4byte	0x192
 2786 085c 02       		.byte	0x2
 2787 085d 91       		.byte	0x91
 2788 085e 40       		.sleb128 -64
 2789 085f 0C       		.uleb128 0xc
 2790 0860 14000000 		.4byte	.LVL176
 2791 0864 B50D0000 		.4byte	0xdb5
 2792 0868 0C       		.uleb128 0xc
 2793 0869 20000000 		.4byte	.LVL178
 2794 086d B50D0000 		.4byte	0xdb5
 2795 0871 11       		.uleb128 0x11
 2796 0872 2E000000 		.4byte	.LVL181
 2797 0876 C20E0000 		.4byte	0xec2
 2798 087a 85080000 		.4byte	0x885
 2799 087e 12       		.uleb128 0x12
 2800 087f 01       		.byte	0x1
 2801 0880 52       		.byte	0x52
 2802 0881 02       		.byte	0x2
 2803 0882 91       		.byte	0x91
 2804 0883 40       		.sleb128 -64
 2805 0884 00       		.byte	0
 2806 0885 0C       		.uleb128 0xc
 2807 0886 36000000 		.4byte	.LVL182
 2808 088a B50D0000 		.4byte	0xdb5
 2809 088e 0C       		.uleb128 0xc
 2810 088f 46000000 		.4byte	.LVL183
 2811 0893 E50D0000 		.4byte	0xde5
 2812 0897 0C       		.uleb128 0xc
 2813 0898 52000000 		.4byte	.LVL184
 2814 089c CD0D0000 		.4byte	0xdcd
 2815 08a0 0C       		.uleb128 0xc
 2816 08a1 5E000000 		.4byte	.LVL185
 2817 08a5 920E0000 		.4byte	0xe92
 2818 08a9 0C       		.uleb128 0xc
 2819 08aa 6A000000 		.4byte	.LVL186
 2820 08ae E50D0000 		.4byte	0xde5
 2821 08b2 0C       		.uleb128 0xc
 2822 08b3 76000000 		.4byte	.LVL187
 2823 08b7 CD0D0000 		.4byte	0xdcd
 2824 08bb 0C       		.uleb128 0xc
 2825 08bc AA000000 		.4byte	.LVL192
 2826 08c0 450E0000 		.4byte	0xe45
 2827 08c4 0C       		.uleb128 0xc
 2828 08c5 B6000000 		.4byte	.LVL194
 2829 08c9 E50D0000 		.4byte	0xde5
 2830 08cd 0C       		.uleb128 0xc
 2831 08ce CA000000 		.4byte	.LVL195
 2832 08d2 CD0D0000 		.4byte	0xdcd
 2833 08d6 0C       		.uleb128 0xc
 2834 08d7 D6000000 		.4byte	.LVL196
 2835 08db CD0D0000 		.4byte	0xdcd
 2836 08df 0C       		.uleb128 0xc
 2837 08e0 E6000000 		.4byte	.LVL198
 2838 08e4 E50D0000 		.4byte	0xde5
ARM GAS  /tmp/ccNJIE6Y.s 			page 51


 2839 08e8 0C       		.uleb128 0xc
 2840 08e9 22010000 		.4byte	.LVL203
 2841 08ed FD0D0000 		.4byte	0xdfd
 2842 08f1 0C       		.uleb128 0xc
 2843 08f2 26010000 		.4byte	.LVL204
 2844 08f6 150E0000 		.4byte	0xe15
 2845 08fa 0C       		.uleb128 0xc
 2846 08fb 34010000 		.4byte	.LVL205
 2847 08ff 150E0000 		.4byte	0xe15
 2848 0903 0C       		.uleb128 0xc
 2849 0904 38010000 		.4byte	.LVL206
 2850 0908 620E0000 		.4byte	0xe62
 2851 090c 00       		.byte	0
 2852 090d 19       		.uleb128 0x19
 2853 090e 01       		.byte	0x1
 2854 090f FA030000 		.4byte	.LASF46
 2855 0913 01       		.byte	0x1
 2856 0914 0001     		.2byte	0x100
 2857 0916 01       		.byte	0x1
 2858 0917 00000000 		.4byte	.LFB6
 2859 091b 6C000000 		.4byte	.LFE6
 2860 091f 3C060000 		.4byte	.LLST45
 2861 0923 01       		.byte	0x1
 2862 0924 90090000 		.4byte	0x990
 2863 0928 1A       		.uleb128 0x1a
 2864 0929 48010000 		.4byte	.LASF47
 2865 092d 01       		.byte	0x1
 2866 092e 0001     		.2byte	0x100
 2867 0930 B8020000 		.4byte	0x2b8
 2868 0934 5C060000 		.4byte	.LLST46
 2869 0938 1A       		.uleb128 0x1a
 2870 0939 B5020000 		.4byte	.LASF48
 2871 093d 01       		.byte	0x1
 2872 093e 0001     		.2byte	0x100
 2873 0940 6E040000 		.4byte	0x46e
 2874 0944 7A060000 		.4byte	.LLST47
 2875 0948 1B       		.uleb128 0x1b
 2876 0949 7400     		.ascii	"t\000"
 2877 094b 01       		.byte	0x1
 2878 094c 0201     		.2byte	0x102
 2879 094e 29000000 		.4byte	0x29
 2880 0952 06       		.byte	0x6
 2881 0953 54       		.byte	0x54
 2882 0954 93       		.byte	0x93
 2883 0955 04       		.uleb128 0x4
 2884 0956 55       		.byte	0x55
 2885 0957 93       		.byte	0x93
 2886 0958 04       		.uleb128 0x4
 2887 0959 0C       		.uleb128 0xc
 2888 095a 38000000 		.4byte	.LVL213
 2889 095e E10E0000 		.4byte	0xee1
 2890 0962 0C       		.uleb128 0xc
 2891 0963 48000000 		.4byte	.LVL215
 2892 0967 450E0000 		.4byte	0xe45
 2893 096b 0C       		.uleb128 0xc
 2894 096c 4C000000 		.4byte	.LVL216
 2895 0970 150E0000 		.4byte	0xe15
ARM GAS  /tmp/ccNJIE6Y.s 			page 52


 2896 0974 0C       		.uleb128 0xc
 2897 0975 50000000 		.4byte	.LVL217
 2898 0979 620E0000 		.4byte	0xe62
 2899 097d 0C       		.uleb128 0xc
 2900 097e 60000000 		.4byte	.LVL218
 2901 0982 450E0000 		.4byte	0xe45
 2902 0986 0C       		.uleb128 0xc
 2903 0987 64000000 		.4byte	.LVL219
 2904 098b 150E0000 		.4byte	0xe15
 2905 098f 00       		.byte	0
 2906 0990 19       		.uleb128 0x19
 2907 0991 01       		.byte	0x1
 2908 0992 17030000 		.4byte	.LASF49
 2909 0996 01       		.byte	0x1
 2910 0997 1001     		.2byte	0x110
 2911 0999 01       		.byte	0x1
 2912 099a 00000000 		.4byte	.LFB7
 2913 099e 28010000 		.4byte	.LFE7
 2914 09a2 98060000 		.4byte	.LLST48
 2915 09a6 01       		.byte	0x1
 2916 09a7 060B0000 		.4byte	0xb06
 2917 09ab 1C       		.uleb128 0x1c
 2918 09ac 67616C00 		.ascii	"gal\000"
 2919 09b0 01       		.byte	0x1
 2920 09b1 1001     		.2byte	0x110
 2921 09b3 060B0000 		.4byte	0xb06
 2922 09b7 C5060000 		.4byte	.LLST49
 2923 09bb 1C       		.uleb128 0x1c
 2924 09bc 65717500 		.ascii	"equ\000"
 2925 09c0 01       		.byte	0x1
 2926 09c1 1001     		.2byte	0x110
 2927 09c3 68040000 		.4byte	0x468
 2928 09c7 F1060000 		.4byte	.LLST50
 2929 09cb 1D       		.uleb128 0x1d
 2930 09cc BA020000 		.4byte	.LASF50
 2931 09d0 01       		.byte	0x1
 2932 09d1 1201     		.2byte	0x112
 2933 09d3 29000000 		.4byte	0x29
 2934 09d7 10070000 		.4byte	.LLST51
 2935 09db 1E       		.uleb128 0x1e
 2936 09dc 88020000 		.4byte	.LASF51
 2937 09e0 01       		.byte	0x1
 2938 09e1 1201     		.2byte	0x112
 2939 09e3 29000000 		.4byte	0x29
 2940 09e7 06       		.byte	0x6
 2941 09e8 5A       		.byte	0x5a
 2942 09e9 93       		.byte	0x93
 2943 09ea 04       		.uleb128 0x4
 2944 09eb 5B       		.byte	0x5b
 2945 09ec 93       		.byte	0x93
 2946 09ed 04       		.uleb128 0x4
 2947 09ee 1D       		.uleb128 0x1d
 2948 09ef 22040000 		.4byte	.LASF52
 2949 09f3 01       		.byte	0x1
 2950 09f4 1201     		.2byte	0x112
 2951 09f6 29000000 		.4byte	0x29
 2952 09fa 28070000 		.4byte	.LLST52
ARM GAS  /tmp/ccNJIE6Y.s 			page 53


 2953 09fe 1D       		.uleb128 0x1d
 2954 09ff D5020000 		.4byte	.LASF53
 2955 0a03 01       		.byte	0x1
 2956 0a04 1401     		.2byte	0x114
 2957 0a06 29000000 		.4byte	0x29
 2958 0a0a 4C070000 		.4byte	.LLST53
 2959 0a0e 1D       		.uleb128 0x1d
 2960 0a0f F9020000 		.4byte	.LASF54
 2961 0a13 01       		.byte	0x1
 2962 0a14 1401     		.2byte	0x114
 2963 0a16 29000000 		.4byte	0x29
 2964 0a1a 64070000 		.4byte	.LLST54
 2965 0a1e 1D       		.uleb128 0x1d
 2966 0a1f E9010000 		.4byte	.LASF55
 2967 0a23 01       		.byte	0x1
 2968 0a24 1501     		.2byte	0x115
 2969 0a26 29000000 		.4byte	0x29
 2970 0a2a 88070000 		.4byte	.LLST55
 2971 0a2e 1E       		.uleb128 0x1e
 2972 0a2f 7C020000 		.4byte	.LASF56
 2973 0a33 01       		.byte	0x1
 2974 0a34 1501     		.2byte	0x115
 2975 0a36 29000000 		.4byte	0x29
 2976 0a3a 06       		.byte	0x6
 2977 0a3b 54       		.byte	0x54
 2978 0a3c 93       		.byte	0x93
 2979 0a3d 04       		.uleb128 0x4
 2980 0a3e 55       		.byte	0x55
 2981 0a3f 93       		.byte	0x93
 2982 0a40 04       		.uleb128 0x4
 2983 0a41 1D       		.uleb128 0x1d
 2984 0a42 2B040000 		.4byte	.LASF57
 2985 0a46 01       		.byte	0x1
 2986 0a47 1501     		.2byte	0x115
 2987 0a49 29000000 		.4byte	0x29
 2988 0a4d A0070000 		.4byte	.LLST56
 2989 0a51 1F       		.uleb128 0x1f
 2990 0a52 7900     		.ascii	"y\000"
 2991 0a54 01       		.byte	0x1
 2992 0a55 1601     		.2byte	0x116
 2993 0a57 29000000 		.4byte	0x29
 2994 0a5b 11       		.uleb128 0x11
 2995 0a5c 14000000 		.4byte	.LVL222
 2996 0a60 B50D0000 		.4byte	0xdb5
 2997 0a64 7D0A0000 		.4byte	0xa7d
 2998 0a68 12       		.uleb128 0x12
 2999 0a69 06       		.byte	0x6
 3000 0a6a 50       		.byte	0x50
 3001 0a6b 93       		.byte	0x93
 3002 0a6c 04       		.uleb128 0x4
 3003 0a6d 51       		.byte	0x51
 3004 0a6e 93       		.byte	0x93
 3005 0a6f 04       		.uleb128 0x4
 3006 0a70 0B       		.byte	0xb
 3007 0a71 F4       		.byte	0xf4
 3008 0a72 29       		.uleb128 0x29
 3009 0a73 08       		.byte	0x8
ARM GAS  /tmp/ccNJIE6Y.s 			page 54


 3010 0a74 66666666 		.4byte	0x66666666
 3011 0a78 66663B40 		.4byte	0x403b6666
 3012 0a7c 00       		.byte	0
 3013 0a7d 0C       		.uleb128 0xc
 3014 0a7e 1C000000 		.4byte	.LVL224
 3015 0a82 E50D0000 		.4byte	0xde5
 3016 0a86 0C       		.uleb128 0xc
 3017 0a87 28000000 		.4byte	.LVL226
 3018 0a8b CD0D0000 		.4byte	0xdcd
 3019 0a8f 0C       		.uleb128 0xc
 3020 0a90 3E000000 		.4byte	.LVL230
 3021 0a94 B50D0000 		.4byte	0xdb5
 3022 0a98 0C       		.uleb128 0xc
 3023 0a99 46000000 		.4byte	.LVL232
 3024 0a9d CD0D0000 		.4byte	0xdcd
 3025 0aa1 0C       		.uleb128 0xc
 3026 0aa2 52000000 		.4byte	.LVL235
 3027 0aa6 B50D0000 		.4byte	0xdb5
 3028 0aaa 0C       		.uleb128 0xc
 3029 0aab 5A000000 		.4byte	.LVL238
 3030 0aaf E50D0000 		.4byte	0xde5
 3031 0ab3 0C       		.uleb128 0xc
 3032 0ab4 66000000 		.4byte	.LVL241
 3033 0ab8 CD0D0000 		.4byte	0xdcd
 3034 0abc 0C       		.uleb128 0xc
 3035 0abd 72000000 		.4byte	.LVL244
 3036 0ac1 E50D0000 		.4byte	0xde5
 3037 0ac5 11       		.uleb128 0x11
 3038 0ac6 B2000000 		.4byte	.LVL250
 3039 0aca 450E0000 		.4byte	0xe45
 3040 0ace E10A0000 		.4byte	0xae1
 3041 0ad2 12       		.uleb128 0x12
 3042 0ad3 06       		.byte	0x6
 3043 0ad4 50       		.byte	0x50
 3044 0ad5 93       		.byte	0x93
 3045 0ad6 04       		.uleb128 0x4
 3046 0ad7 51       		.byte	0x51
 3047 0ad8 93       		.byte	0x93
 3048 0ad9 04       		.uleb128 0x4
 3049 0ada 05       		.byte	0x5
 3050 0adb 91       		.byte	0x91
 3051 0adc 50       		.sleb128 -48
 3052 0add F6       		.byte	0xf6
 3053 0ade 08       		.byte	0x8
 3054 0adf 29       		.uleb128 0x29
 3055 0ae0 00       		.byte	0
 3056 0ae1 0C       		.uleb128 0xc
 3057 0ae2 B6000000 		.4byte	.LVL251
 3058 0ae6 150E0000 		.4byte	0xe15
 3059 0aea 0C       		.uleb128 0xc
 3060 0aeb C8000000 		.4byte	.LVL253
 3061 0aef 620E0000 		.4byte	0xe62
 3062 0af3 0C       		.uleb128 0xc
 3063 0af4 04010000 		.4byte	.LVL259
 3064 0af8 FD0D0000 		.4byte	0xdfd
 3065 0afc 0C       		.uleb128 0xc
 3066 0afd 08010000 		.4byte	.LVL260
ARM GAS  /tmp/ccNJIE6Y.s 			page 55


 3067 0b01 150E0000 		.4byte	0xe15
 3068 0b05 00       		.byte	0
 3069 0b06 0D       		.uleb128 0xd
 3070 0b07 04       		.byte	0x4
 3071 0b08 6D010000 		.4byte	0x16d
 3072 0b0c 20       		.uleb128 0x20
 3073 0b0d 01       		.byte	0x1
 3074 0b0e 4D010000 		.4byte	.LASF58
 3075 0b12 01       		.byte	0x1
 3076 0b13 2F01     		.2byte	0x12f
 3077 0b15 01       		.byte	0x1
 3078 0b16 00000000 		.4byte	.LFB8
 3079 0b1a 38000000 		.4byte	.LFE8
 3080 0b1e B8070000 		.4byte	.LLST57
 3081 0b22 01       		.byte	0x1
 3082 0b23 9E0B0000 		.4byte	0xb9e
 3083 0b27 1C       		.uleb128 0x1c
 3084 0b28 67616C00 		.ascii	"gal\000"
 3085 0b2c 01       		.byte	0x1
 3086 0b2d 2F01     		.2byte	0x12f
 3087 0b2f 060B0000 		.4byte	0xb06
 3088 0b33 E4070000 		.4byte	.LLST58
 3089 0b37 1C       		.uleb128 0x1c
 3090 0b38 65717500 		.ascii	"equ\000"
 3091 0b3c 01       		.byte	0x1
 3092 0b3d 2F01     		.2byte	0x12f
 3093 0b3f 68040000 		.4byte	0x468
 3094 0b43 05080000 		.4byte	.LLST59
 3095 0b47 11       		.uleb128 0x11
 3096 0b48 0A000000 		.4byte	.LVL262
 3097 0b4c 90090000 		.4byte	0x990
 3098 0b50 620B0000 		.4byte	0xb62
 3099 0b54 12       		.uleb128 0x12
 3100 0b55 01       		.byte	0x1
 3101 0b56 51       		.byte	0x51
 3102 0b57 02       		.byte	0x2
 3103 0b58 74       		.byte	0x74
 3104 0b59 00       		.sleb128 0
 3105 0b5a 12       		.uleb128 0x12
 3106 0b5b 01       		.byte	0x1
 3107 0b5c 50       		.byte	0x50
 3108 0b5d 03       		.byte	0x3
 3109 0b5e F3       		.byte	0xf3
 3110 0b5f 01       		.uleb128 0x1
 3111 0b60 50       		.byte	0x50
 3112 0b61 00       		.byte	0
 3113 0b62 21       		.uleb128 0x21
 3114 0b63 22000000 		.4byte	.LVL263
 3115 0b67 F90E0000 		.4byte	0xef9
 3116 0b6b 12       		.uleb128 0x12
 3117 0b6c 06       		.byte	0x6
 3118 0b6d 52       		.byte	0x52
 3119 0b6e 93       		.byte	0x93
 3120 0b6f 04       		.uleb128 0x4
 3121 0b70 53       		.byte	0x53
 3122 0b71 93       		.byte	0x93
 3123 0b72 04       		.uleb128 0x4
ARM GAS  /tmp/ccNJIE6Y.s 			page 56


 3124 0b73 0B       		.byte	0xb
 3125 0b74 F4       		.byte	0xf4
 3126 0b75 29       		.uleb128 0x29
 3127 0b76 08       		.byte	0x8
 3128 0b77 7D3F3536 		.4byte	0x36353f7d
 3129 0b7b 81904241 		.4byte	0x41429081
 3130 0b7f 12       		.uleb128 0x12
 3131 0b80 01       		.byte	0x1
 3132 0b81 50       		.byte	0x50
 3133 0b82 02       		.byte	0x2
 3134 0b83 74       		.byte	0x74
 3135 0b84 00       		.sleb128 0
 3136 0b85 12       		.uleb128 0x12
 3137 0b86 02       		.byte	0x2
 3138 0b87 7D       		.byte	0x7d
 3139 0b88 08       		.sleb128 8
 3140 0b89 02       		.byte	0x2
 3141 0b8a 74       		.byte	0x74
 3142 0b8b 00       		.sleb128 0
 3143 0b8c 12       		.uleb128 0x12
 3144 0b8d 02       		.byte	0x2
 3145 0b8e 7D       		.byte	0x7d
 3146 0b8f 00       		.sleb128 0
 3147 0b90 0B       		.byte	0xb
 3148 0b91 F4       		.byte	0xf4
 3149 0b92 29       		.uleb128 0x29
 3150 0b93 08       		.byte	0x8
 3151 0b94 00000080 		.4byte	0x80000000
 3152 0b98 2CB44241 		.4byte	0x4142b42c
 3153 0b9c 00       		.byte	0
 3154 0b9d 00       		.byte	0
 3155 0b9e 19       		.uleb128 0x19
 3156 0b9f 01       		.byte	0x1
 3157 0ba0 32000000 		.4byte	.LASF59
 3158 0ba4 01       		.byte	0x1
 3159 0ba5 3C01     		.2byte	0x13c
 3160 0ba7 01       		.byte	0x1
 3161 0ba8 00000000 		.4byte	.LFB9
 3162 0bac 30010000 		.4byte	.LFE9
 3163 0bb0 23080000 		.4byte	.LLST60
 3164 0bb4 01       		.byte	0x1
 3165 0bb5 140D0000 		.4byte	0xd14
 3166 0bb9 1C       		.uleb128 0x1c
 3167 0bba 65717500 		.ascii	"equ\000"
 3168 0bbe 01       		.byte	0x1
 3169 0bbf 3C01     		.2byte	0x13c
 3170 0bc1 68040000 		.4byte	0x468
 3171 0bc5 50080000 		.4byte	.LLST61
 3172 0bc9 1C       		.uleb128 0x1c
 3173 0bca 67616C00 		.ascii	"gal\000"
 3174 0bce 01       		.byte	0x1
 3175 0bcf 3C01     		.2byte	0x13c
 3176 0bd1 060B0000 		.4byte	0xb06
 3177 0bd5 7C080000 		.4byte	.LLST62
 3178 0bd9 1D       		.uleb128 0x1d
 3179 0bda BA020000 		.4byte	.LASF50
 3180 0bde 01       		.byte	0x1
ARM GAS  /tmp/ccNJIE6Y.s 			page 57


 3181 0bdf 3E01     		.2byte	0x13e
 3182 0be1 29000000 		.4byte	0x29
 3183 0be5 9B080000 		.4byte	.LLST63
 3184 0be9 1E       		.uleb128 0x1e
 3185 0bea 88020000 		.4byte	.LASF51
 3186 0bee 01       		.byte	0x1
 3187 0bef 3E01     		.2byte	0x13e
 3188 0bf1 29000000 		.4byte	0x29
 3189 0bf5 06       		.byte	0x6
 3190 0bf6 5A       		.byte	0x5a
 3191 0bf7 93       		.byte	0x93
 3192 0bf8 04       		.uleb128 0x4
 3193 0bf9 5B       		.byte	0x5b
 3194 0bfa 93       		.byte	0x93
 3195 0bfb 04       		.uleb128 0x4
 3196 0bfc 1D       		.uleb128 0x1d
 3197 0bfd 22040000 		.4byte	.LASF52
 3198 0c01 01       		.byte	0x1
 3199 0c02 3E01     		.2byte	0x13e
 3200 0c04 29000000 		.4byte	0x29
 3201 0c08 B3080000 		.4byte	.LLST64
 3202 0c0c 1D       		.uleb128 0x1d
 3203 0c0d CB020000 		.4byte	.LASF60
 3204 0c11 01       		.byte	0x1
 3205 0c12 4001     		.2byte	0x140
 3206 0c14 29000000 		.4byte	0x29
 3207 0c18 D7080000 		.4byte	.LLST65
 3208 0c1c 1D       		.uleb128 0x1d
 3209 0c1d DB010000 		.4byte	.LASF61
 3210 0c21 01       		.byte	0x1
 3211 0c22 4001     		.2byte	0x140
 3212 0c24 29000000 		.4byte	0x29
 3213 0c28 EF080000 		.4byte	.LLST66
 3214 0c2c 1D       		.uleb128 0x1d
 3215 0c2d 5E020000 		.4byte	.LASF62
 3216 0c31 01       		.byte	0x1
 3217 0c32 4101     		.2byte	0x141
 3218 0c34 29000000 		.4byte	0x29
 3219 0c38 13090000 		.4byte	.LLST67
 3220 0c3c 1E       		.uleb128 0x1e
 3221 0c3d C3020000 		.4byte	.LASF63
 3222 0c41 01       		.byte	0x1
 3223 0c42 4201     		.2byte	0x142
 3224 0c44 29000000 		.4byte	0x29
 3225 0c48 06       		.byte	0x6
 3226 0c49 54       		.byte	0x54
 3227 0c4a 93       		.byte	0x93
 3228 0c4b 04       		.uleb128 0x4
 3229 0c4c 55       		.byte	0x55
 3230 0c4d 93       		.byte	0x93
 3231 0c4e 04       		.uleb128 0x4
 3232 0c4f 1D       		.uleb128 0x1d
 3233 0c50 35040000 		.4byte	.LASF64
 3234 0c54 01       		.byte	0x1
 3235 0c55 4201     		.2byte	0x142
 3236 0c57 29000000 		.4byte	0x29
 3237 0c5b 2B090000 		.4byte	.LLST68
ARM GAS  /tmp/ccNJIE6Y.s 			page 58


 3238 0c5f 1F       		.uleb128 0x1f
 3239 0c60 7800     		.ascii	"x\000"
 3240 0c62 01       		.byte	0x1
 3241 0c63 4301     		.2byte	0x143
 3242 0c65 29000000 		.4byte	0x29
 3243 0c69 11       		.uleb128 0x11
 3244 0c6a 14000000 		.4byte	.LVL266
 3245 0c6e B50D0000 		.4byte	0xdb5
 3246 0c72 8B0C0000 		.4byte	0xc8b
 3247 0c76 12       		.uleb128 0x12
 3248 0c77 06       		.byte	0x6
 3249 0c78 50       		.byte	0x50
 3250 0c79 93       		.byte	0x93
 3251 0c7a 04       		.uleb128 0x4
 3252 0c7b 51       		.byte	0x51
 3253 0c7c 93       		.byte	0x93
 3254 0c7d 04       		.uleb128 0x4
 3255 0c7e 0B       		.byte	0xb
 3256 0c7f F4       		.byte	0xf4
 3257 0c80 29       		.uleb128 0x29
 3258 0c81 08       		.byte	0x8
 3259 0c82 66666666 		.4byte	0x66666666
 3260 0c86 66663B40 		.4byte	0x403b6666
 3261 0c8a 00       		.byte	0
 3262 0c8b 0C       		.uleb128 0xc
 3263 0c8c 1C000000 		.4byte	.LVL268
 3264 0c90 E50D0000 		.4byte	0xde5
 3265 0c94 0C       		.uleb128 0xc
 3266 0c95 28000000 		.4byte	.LVL270
 3267 0c99 CD0D0000 		.4byte	0xdcd
 3268 0c9d 0C       		.uleb128 0xc
 3269 0c9e 3E000000 		.4byte	.LVL274
 3270 0ca2 B50D0000 		.4byte	0xdb5
 3271 0ca6 0C       		.uleb128 0xc
 3272 0ca7 46000000 		.4byte	.LVL276
 3273 0cab CD0D0000 		.4byte	0xdcd
 3274 0caf 0C       		.uleb128 0xc
 3275 0cb0 52000000 		.4byte	.LVL279
 3276 0cb4 B50D0000 		.4byte	0xdb5
 3277 0cb8 0C       		.uleb128 0xc
 3278 0cb9 5A000000 		.4byte	.LVL282
 3279 0cbd E50D0000 		.4byte	0xde5
 3280 0cc1 0C       		.uleb128 0xc
 3281 0cc2 66000000 		.4byte	.LVL285
 3282 0cc6 CD0D0000 		.4byte	0xdcd
 3283 0cca 0C       		.uleb128 0xc
 3284 0ccb 72000000 		.4byte	.LVL288
 3285 0ccf E50D0000 		.4byte	0xde5
 3286 0cd3 11       		.uleb128 0x11
 3287 0cd4 B2000000 		.4byte	.LVL294
 3288 0cd8 450E0000 		.4byte	0xe45
 3289 0cdc EF0C0000 		.4byte	0xcef
 3290 0ce0 12       		.uleb128 0x12
 3291 0ce1 06       		.byte	0x6
 3292 0ce2 50       		.byte	0x50
 3293 0ce3 93       		.byte	0x93
 3294 0ce4 04       		.uleb128 0x4
ARM GAS  /tmp/ccNJIE6Y.s 			page 59


 3295 0ce5 51       		.byte	0x51
 3296 0ce6 93       		.byte	0x93
 3297 0ce7 04       		.uleb128 0x4
 3298 0ce8 05       		.byte	0x5
 3299 0ce9 91       		.byte	0x91
 3300 0cea 50       		.sleb128 -48
 3301 0ceb F6       		.byte	0xf6
 3302 0cec 08       		.byte	0x8
 3303 0ced 29       		.uleb128 0x29
 3304 0cee 00       		.byte	0
 3305 0cef 0C       		.uleb128 0xc
 3306 0cf0 B6000000 		.4byte	.LVL295
 3307 0cf4 150E0000 		.4byte	0xe15
 3308 0cf8 0C       		.uleb128 0xc
 3309 0cf9 C8000000 		.4byte	.LVL297
 3310 0cfd 620E0000 		.4byte	0xe62
 3311 0d01 0C       		.uleb128 0xc
 3312 0d02 04010000 		.4byte	.LVL303
 3313 0d06 FD0D0000 		.4byte	0xdfd
 3314 0d0a 0C       		.uleb128 0xc
 3315 0d0b 08010000 		.4byte	.LVL304
 3316 0d0f 150E0000 		.4byte	0xe15
 3317 0d13 00       		.byte	0
 3318 0d14 20       		.uleb128 0x20
 3319 0d15 01       		.byte	0x1
 3320 0d16 7B010000 		.4byte	.LASF65
 3321 0d1a 01       		.byte	0x1
 3322 0d1b 5C01     		.2byte	0x15c
 3323 0d1d 01       		.byte	0x1
 3324 0d1e 00000000 		.4byte	.LFB10
 3325 0d22 40000000 		.4byte	.LFE10
 3326 0d26 43090000 		.4byte	.LLST69
 3327 0d2a 01       		.byte	0x1
 3328 0d2b B50D0000 		.4byte	0xdb5
 3329 0d2f 1C       		.uleb128 0x1c
 3330 0d30 65717500 		.ascii	"equ\000"
 3331 0d34 01       		.byte	0x1
 3332 0d35 5C01     		.2byte	0x15c
 3333 0d37 68040000 		.4byte	0x468
 3334 0d3b 6F090000 		.4byte	.LLST70
 3335 0d3f 1C       		.uleb128 0x1c
 3336 0d40 67616C00 		.ascii	"gal\000"
 3337 0d44 01       		.byte	0x1
 3338 0d45 5C01     		.2byte	0x15c
 3339 0d47 060B0000 		.4byte	0xb06
 3340 0d4b 90090000 		.4byte	.LLST71
 3341 0d4f 1E       		.uleb128 0x1e
 3342 0d50 72010000 		.4byte	.LASF66
 3343 0d54 01       		.byte	0x1
 3344 0d55 5E01     		.2byte	0x15e
 3345 0d57 92000000 		.4byte	0x92
 3346 0d5b 02       		.byte	0x2
 3347 0d5c 91       		.byte	0x91
 3348 0d5d 60       		.sleb128 -32
 3349 0d5e 11       		.uleb128 0x11
 3350 0d5f 1E000000 		.4byte	.LVL306
 3351 0d63 F90E0000 		.4byte	0xef9
ARM GAS  /tmp/ccNJIE6Y.s 			page 60


 3352 0d67 9E0D0000 		.4byte	0xd9e
 3353 0d6b 12       		.uleb128 0x12
 3354 0d6c 06       		.byte	0x6
 3355 0d6d 52       		.byte	0x52
 3356 0d6e 93       		.byte	0x93
 3357 0d6f 04       		.uleb128 0x4
 3358 0d70 53       		.byte	0x53
 3359 0d71 93       		.byte	0x93
 3360 0d72 04       		.uleb128 0x4
 3361 0d73 0B       		.byte	0xb
 3362 0d74 F4       		.byte	0xf4
 3363 0d75 29       		.uleb128 0x29
 3364 0d76 08       		.byte	0x8
 3365 0d77 00000080 		.4byte	0x80000000
 3366 0d7b 2CB44241 		.4byte	0x4142b42c
 3367 0d7f 12       		.uleb128 0x12
 3368 0d80 01       		.byte	0x1
 3369 0d81 50       		.byte	0x50
 3370 0d82 03       		.byte	0x3
 3371 0d83 F3       		.byte	0xf3
 3372 0d84 01       		.uleb128 0x1
 3373 0d85 50       		.byte	0x50
 3374 0d86 12       		.uleb128 0x12
 3375 0d87 02       		.byte	0x2
 3376 0d88 7D       		.byte	0x7d
 3377 0d89 08       		.sleb128 8
 3378 0d8a 02       		.byte	0x2
 3379 0d8b 74       		.byte	0x74
 3380 0d8c 00       		.sleb128 0
 3381 0d8d 12       		.uleb128 0x12
 3382 0d8e 02       		.byte	0x2
 3383 0d8f 7D       		.byte	0x7d
 3384 0d90 00       		.sleb128 0
 3385 0d91 0B       		.byte	0xb
 3386 0d92 F4       		.byte	0xf4
 3387 0d93 29       		.uleb128 0x29
 3388 0d94 08       		.byte	0x8
 3389 0d95 7D3F3536 		.4byte	0x36353f7d
 3390 0d99 81904241 		.4byte	0x41429081
 3391 0d9d 00       		.byte	0
 3392 0d9e 21       		.uleb128 0x21
 3393 0d9f 26000000 		.4byte	.LVL307
 3394 0da3 9E0B0000 		.4byte	0xb9e
 3395 0da7 12       		.uleb128 0x12
 3396 0da8 01       		.byte	0x1
 3397 0da9 51       		.byte	0x51
 3398 0daa 02       		.byte	0x2
 3399 0dab 75       		.byte	0x75
 3400 0dac 00       		.sleb128 0
 3401 0dad 12       		.uleb128 0x12
 3402 0dae 01       		.byte	0x1
 3403 0daf 50       		.byte	0x50
 3404 0db0 02       		.byte	0x2
 3405 0db1 74       		.byte	0x74
 3406 0db2 00       		.sleb128 0
 3407 0db3 00       		.byte	0
 3408 0db4 00       		.byte	0
ARM GAS  /tmp/ccNJIE6Y.s 			page 61


 3409 0db5 22       		.uleb128 0x22
 3410 0db6 01       		.byte	0x1
 3411 0db7 AF030000 		.4byte	.LASF67
 3412 0dbb 04       		.byte	0x4
 3413 0dbc 53       		.byte	0x53
 3414 0dbd 01       		.byte	0x1
 3415 0dbe 29000000 		.4byte	0x29
 3416 0dc2 01       		.byte	0x1
 3417 0dc3 CD0D0000 		.4byte	0xdcd
 3418 0dc7 23       		.uleb128 0x23
 3419 0dc8 29000000 		.4byte	0x29
 3420 0dcc 00       		.byte	0
 3421 0dcd 24       		.uleb128 0x24
 3422 0dce 01       		.byte	0x1
 3423 0dcf 636F7300 		.ascii	"cos\000"
 3424 0dd3 03       		.byte	0x3
 3425 0dd4 6D       		.byte	0x6d
 3426 0dd5 01       		.byte	0x1
 3427 0dd6 29000000 		.4byte	0x29
 3428 0dda 01       		.byte	0x1
 3429 0ddb E50D0000 		.4byte	0xde5
 3430 0ddf 23       		.uleb128 0x23
 3431 0de0 29000000 		.4byte	0x29
 3432 0de4 00       		.byte	0
 3433 0de5 24       		.uleb128 0x24
 3434 0de6 01       		.byte	0x1
 3435 0de7 73696E00 		.ascii	"sin\000"
 3436 0deb 03       		.byte	0x3
 3437 0dec 6E       		.byte	0x6e
 3438 0ded 01       		.byte	0x1
 3439 0dee 29000000 		.4byte	0x29
 3440 0df2 01       		.byte	0x1
 3441 0df3 FD0D0000 		.4byte	0xdfd
 3442 0df7 23       		.uleb128 0x23
 3443 0df8 29000000 		.4byte	0x29
 3444 0dfc 00       		.byte	0
 3445 0dfd 22       		.uleb128 0x22
 3446 0dfe 01       		.byte	0x1
 3447 0dff 0E000000 		.4byte	.LASF68
 3448 0e03 03       		.byte	0x3
 3449 0e04 7D       		.byte	0x7d
 3450 0e05 01       		.byte	0x1
 3451 0e06 29000000 		.4byte	0x29
 3452 0e0a 01       		.byte	0x1
 3453 0e0b 150E0000 		.4byte	0xe15
 3454 0e0f 23       		.uleb128 0x23
 3455 0e10 29000000 		.4byte	0x29
 3456 0e14 00       		.byte	0
 3457 0e15 22       		.uleb128 0x22
 3458 0e16 01       		.byte	0x1
 3459 0e17 00000000 		.4byte	.LASF69
 3460 0e1b 04       		.byte	0x4
 3461 0e1c 4D       		.byte	0x4d
 3462 0e1d 01       		.byte	0x1
 3463 0e1e 29000000 		.4byte	0x29
 3464 0e22 01       		.byte	0x1
 3465 0e23 2D0E0000 		.4byte	0xe2d
ARM GAS  /tmp/ccNJIE6Y.s 			page 62


 3466 0e27 23       		.uleb128 0x23
 3467 0e28 29000000 		.4byte	0x29
 3468 0e2c 00       		.byte	0
 3469 0e2d 22       		.uleb128 0x22
 3470 0e2e 01       		.byte	0x1
 3471 0e2f 7F030000 		.4byte	.LASF70
 3472 0e33 03       		.byte	0x3
 3473 0e34 7C       		.byte	0x7c
 3474 0e35 01       		.byte	0x1
 3475 0e36 29000000 		.4byte	0x29
 3476 0e3a 01       		.byte	0x1
 3477 0e3b 450E0000 		.4byte	0xe45
 3478 0e3f 23       		.uleb128 0x23
 3479 0e40 29000000 		.4byte	0x29
 3480 0e44 00       		.byte	0
 3481 0e45 22       		.uleb128 0x22
 3482 0e46 01       		.byte	0x1
 3483 0e47 70030000 		.4byte	.LASF71
 3484 0e4b 03       		.byte	0x3
 3485 0e4c 7E       		.byte	0x7e
 3486 0e4d 01       		.byte	0x1
 3487 0e4e 29000000 		.4byte	0x29
 3488 0e52 01       		.byte	0x1
 3489 0e53 620E0000 		.4byte	0xe62
 3490 0e57 23       		.uleb128 0x23
 3491 0e58 29000000 		.4byte	0x29
 3492 0e5c 23       		.uleb128 0x23
 3493 0e5d 29000000 		.4byte	0x29
 3494 0e61 00       		.byte	0
 3495 0e62 22       		.uleb128 0x22
 3496 0e63 01       		.byte	0x1
 3497 0e64 A4020000 		.4byte	.LASF72
 3498 0e68 04       		.byte	0x4
 3499 0e69 BF       		.byte	0xbf
 3500 0e6a 01       		.byte	0x1
 3501 0e6b 29000000 		.4byte	0x29
 3502 0e6f 01       		.byte	0x1
 3503 0e70 7A0E0000 		.4byte	0xe7a
 3504 0e74 23       		.uleb128 0x23
 3505 0e75 29000000 		.4byte	0x29
 3506 0e79 00       		.byte	0
 3507 0e7a 22       		.uleb128 0x22
 3508 0e7b 01       		.byte	0x1
 3509 0e7c B2000000 		.4byte	.LASF73
 3510 0e80 05       		.byte	0x5
 3511 0e81 26       		.byte	0x26
 3512 0e82 01       		.byte	0x1
 3513 0e83 29000000 		.4byte	0x29
 3514 0e87 01       		.byte	0x1
 3515 0e88 920E0000 		.4byte	0xe92
 3516 0e8c 23       		.uleb128 0x23
 3517 0e8d 29000000 		.4byte	0x29
 3518 0e91 00       		.byte	0
 3519 0e92 24       		.uleb128 0x24
 3520 0e93 01       		.byte	0x1
 3521 0e94 74616E00 		.ascii	"tan\000"
 3522 0e98 03       		.byte	0x3
ARM GAS  /tmp/ccNJIE6Y.s 			page 63


 3523 0e99 6F       		.byte	0x6f
 3524 0e9a 01       		.byte	0x1
 3525 0e9b 29000000 		.4byte	0x29
 3526 0e9f 01       		.byte	0x1
 3527 0ea0 AA0E0000 		.4byte	0xeaa
 3528 0ea4 23       		.uleb128 0x23
 3529 0ea5 29000000 		.4byte	0x29
 3530 0ea9 00       		.byte	0
 3531 0eaa 22       		.uleb128 0x22
 3532 0eab 01       		.byte	0x1
 3533 0eac 46000000 		.4byte	.LASF74
 3534 0eb0 05       		.byte	0x5
 3535 0eb1 2D       		.byte	0x2d
 3536 0eb2 01       		.byte	0x1
 3537 0eb3 29000000 		.4byte	0x29
 3538 0eb7 01       		.byte	0x1
 3539 0eb8 C20E0000 		.4byte	0xec2
 3540 0ebc 23       		.uleb128 0x23
 3541 0ebd 29000000 		.4byte	0x29
 3542 0ec1 00       		.byte	0
 3543 0ec2 25       		.uleb128 0x25
 3544 0ec3 01       		.byte	0x1
 3545 0ec4 32010000 		.4byte	.LASF76
 3546 0ec8 06       		.byte	0x6
 3547 0ec9 2A       		.byte	0x2a
 3548 0eca 01       		.byte	0x1
 3549 0ecb 01       		.byte	0x1
 3550 0ecc DB0E0000 		.4byte	0xedb
 3551 0ed0 23       		.uleb128 0x23
 3552 0ed1 29000000 		.4byte	0x29
 3553 0ed5 23       		.uleb128 0x23
 3554 0ed6 DB0E0000 		.4byte	0xedb
 3555 0eda 00       		.byte	0
 3556 0edb 0D       		.uleb128 0xd
 3557 0edc 04       		.byte	0x4
 3558 0edd 92010000 		.4byte	0x192
 3559 0ee1 22       		.uleb128 0x22
 3560 0ee2 01       		.byte	0x1
 3561 0ee3 0F040000 		.4byte	.LASF75
 3562 0ee7 03       		.byte	0x3
 3563 0ee8 86       		.byte	0x86
 3564 0ee9 01       		.byte	0x1
 3565 0eea 29000000 		.4byte	0x29
 3566 0eee 01       		.byte	0x1
 3567 0eef F90E0000 		.4byte	0xef9
 3568 0ef3 23       		.uleb128 0x23
 3569 0ef4 29000000 		.4byte	0x29
 3570 0ef8 00       		.byte	0
 3571 0ef9 26       		.uleb128 0x26
 3572 0efa 01       		.byte	0x1
 3573 0efb FB010000 		.4byte	.LASF77
 3574 0eff 07       		.byte	0x7
 3575 0f00 32       		.byte	0x32
 3576 0f01 01       		.byte	0x1
 3577 0f02 01       		.byte	0x1
 3578 0f03 23       		.uleb128 0x23
 3579 0f04 68040000 		.4byte	0x468
ARM GAS  /tmp/ccNJIE6Y.s 			page 64


 3580 0f08 23       		.uleb128 0x23
 3581 0f09 29000000 		.4byte	0x29
 3582 0f0d 23       		.uleb128 0x23
 3583 0f0e 29000000 		.4byte	0x29
 3584 0f12 23       		.uleb128 0x23
 3585 0f13 68040000 		.4byte	0x468
 3586 0f17 00       		.byte	0
 3587 0f18 00       		.byte	0
 3588              		.section	.debug_abbrev,"",%progbits
 3589              	.Ldebug_abbrev0:
 3590 0000 01       		.uleb128 0x1
 3591 0001 11       		.uleb128 0x11
 3592 0002 01       		.byte	0x1
 3593 0003 25       		.uleb128 0x25
 3594 0004 0E       		.uleb128 0xe
 3595 0005 13       		.uleb128 0x13
 3596 0006 0B       		.uleb128 0xb
 3597 0007 03       		.uleb128 0x3
 3598 0008 0E       		.uleb128 0xe
 3599 0009 1B       		.uleb128 0x1b
 3600 000a 0E       		.uleb128 0xe
 3601 000b 55       		.uleb128 0x55
 3602 000c 06       		.uleb128 0x6
 3603 000d 11       		.uleb128 0x11
 3604 000e 01       		.uleb128 0x1
 3605 000f 52       		.uleb128 0x52
 3606 0010 01       		.uleb128 0x1
 3607 0011 10       		.uleb128 0x10
 3608 0012 06       		.uleb128 0x6
 3609 0013 00       		.byte	0
 3610 0014 00       		.byte	0
 3611 0015 02       		.uleb128 0x2
 3612 0016 24       		.uleb128 0x24
 3613 0017 00       		.byte	0
 3614 0018 0B       		.uleb128 0xb
 3615 0019 0B       		.uleb128 0xb
 3616 001a 3E       		.uleb128 0x3e
 3617 001b 0B       		.uleb128 0xb
 3618 001c 03       		.uleb128 0x3
 3619 001d 0E       		.uleb128 0xe
 3620 001e 00       		.byte	0
 3621 001f 00       		.byte	0
 3622 0020 03       		.uleb128 0x3
 3623 0021 24       		.uleb128 0x24
 3624 0022 00       		.byte	0
 3625 0023 0B       		.uleb128 0xb
 3626 0024 0B       		.uleb128 0xb
 3627 0025 3E       		.uleb128 0x3e
 3628 0026 0B       		.uleb128 0xb
 3629 0027 03       		.uleb128 0x3
 3630 0028 08       		.uleb128 0x8
 3631 0029 00       		.byte	0
 3632 002a 00       		.byte	0
 3633 002b 04       		.uleb128 0x4
 3634 002c 13       		.uleb128 0x13
 3635 002d 01       		.byte	0x1
 3636 002e 03       		.uleb128 0x3
ARM GAS  /tmp/ccNJIE6Y.s 			page 65


 3637 002f 0E       		.uleb128 0xe
 3638 0030 0B       		.uleb128 0xb
 3639 0031 0B       		.uleb128 0xb
 3640 0032 3A       		.uleb128 0x3a
 3641 0033 0B       		.uleb128 0xb
 3642 0034 3B       		.uleb128 0x3b
 3643 0035 0B       		.uleb128 0xb
 3644 0036 01       		.uleb128 0x1
 3645 0037 13       		.uleb128 0x13
 3646 0038 00       		.byte	0
 3647 0039 00       		.byte	0
 3648 003a 05       		.uleb128 0x5
 3649 003b 0D       		.uleb128 0xd
 3650 003c 00       		.byte	0
 3651 003d 03       		.uleb128 0x3
 3652 003e 08       		.uleb128 0x8
 3653 003f 3A       		.uleb128 0x3a
 3654 0040 0B       		.uleb128 0xb
 3655 0041 3B       		.uleb128 0x3b
 3656 0042 0B       		.uleb128 0xb
 3657 0043 49       		.uleb128 0x49
 3658 0044 13       		.uleb128 0x13
 3659 0045 38       		.uleb128 0x38
 3660 0046 0A       		.uleb128 0xa
 3661 0047 00       		.byte	0
 3662 0048 00       		.byte	0
 3663 0049 06       		.uleb128 0x6
 3664 004a 13       		.uleb128 0x13
 3665 004b 01       		.byte	0x1
 3666 004c 03       		.uleb128 0x3
 3667 004d 0E       		.uleb128 0xe
 3668 004e 0B       		.uleb128 0xb
 3669 004f 0B       		.uleb128 0xb
 3670 0050 3A       		.uleb128 0x3a
 3671 0051 0B       		.uleb128 0xb
 3672 0052 3B       		.uleb128 0x3b
 3673 0053 05       		.uleb128 0x5
 3674 0054 01       		.uleb128 0x1
 3675 0055 13       		.uleb128 0x13
 3676 0056 00       		.byte	0
 3677 0057 00       		.byte	0
 3678 0058 07       		.uleb128 0x7
 3679 0059 0D       		.uleb128 0xd
 3680 005a 00       		.byte	0
 3681 005b 03       		.uleb128 0x3
 3682 005c 0E       		.uleb128 0xe
 3683 005d 3A       		.uleb128 0x3a
 3684 005e 0B       		.uleb128 0xb
 3685 005f 3B       		.uleb128 0x3b
 3686 0060 05       		.uleb128 0x5
 3687 0061 49       		.uleb128 0x49
 3688 0062 13       		.uleb128 0x13
 3689 0063 38       		.uleb128 0x38
 3690 0064 0A       		.uleb128 0xa
 3691 0065 00       		.byte	0
 3692 0066 00       		.byte	0
 3693 0067 08       		.uleb128 0x8
ARM GAS  /tmp/ccNJIE6Y.s 			page 66


 3694 0068 2E       		.uleb128 0x2e
 3695 0069 01       		.byte	0x1
 3696 006a 3F       		.uleb128 0x3f
 3697 006b 0C       		.uleb128 0xc
 3698 006c 03       		.uleb128 0x3
 3699 006d 0E       		.uleb128 0xe
 3700 006e 3A       		.uleb128 0x3a
 3701 006f 0B       		.uleb128 0xb
 3702 0070 3B       		.uleb128 0x3b
 3703 0071 0B       		.uleb128 0xb
 3704 0072 27       		.uleb128 0x27
 3705 0073 0C       		.uleb128 0xc
 3706 0074 11       		.uleb128 0x11
 3707 0075 01       		.uleb128 0x1
 3708 0076 12       		.uleb128 0x12
 3709 0077 01       		.uleb128 0x1
 3710 0078 40       		.uleb128 0x40
 3711 0079 06       		.uleb128 0x6
 3712 007a 9642     		.uleb128 0x2116
 3713 007c 0C       		.uleb128 0xc
 3714 007d 01       		.uleb128 0x1
 3715 007e 13       		.uleb128 0x13
 3716 007f 00       		.byte	0
 3717 0080 00       		.byte	0
 3718 0081 09       		.uleb128 0x9
 3719 0082 05       		.uleb128 0x5
 3720 0083 00       		.byte	0
 3721 0084 03       		.uleb128 0x3
 3722 0085 0E       		.uleb128 0xe
 3723 0086 3A       		.uleb128 0x3a
 3724 0087 0B       		.uleb128 0xb
 3725 0088 3B       		.uleb128 0x3b
 3726 0089 0B       		.uleb128 0xb
 3727 008a 49       		.uleb128 0x49
 3728 008b 13       		.uleb128 0x13
 3729 008c 02       		.uleb128 0x2
 3730 008d 06       		.uleb128 0x6
 3731 008e 00       		.byte	0
 3732 008f 00       		.byte	0
 3733 0090 0A       		.uleb128 0xa
 3734 0091 34       		.uleb128 0x34
 3735 0092 00       		.byte	0
 3736 0093 03       		.uleb128 0x3
 3737 0094 0E       		.uleb128 0xe
 3738 0095 3A       		.uleb128 0x3a
 3739 0096 0B       		.uleb128 0xb
 3740 0097 3B       		.uleb128 0x3b
 3741 0098 0B       		.uleb128 0xb
 3742 0099 49       		.uleb128 0x49
 3743 009a 13       		.uleb128 0x13
 3744 009b 1C       		.uleb128 0x1c
 3745 009c 0A       		.uleb128 0xa
 3746 009d 00       		.byte	0
 3747 009e 00       		.byte	0
 3748 009f 0B       		.uleb128 0xb
 3749 00a0 34       		.uleb128 0x34
 3750 00a1 00       		.byte	0
ARM GAS  /tmp/ccNJIE6Y.s 			page 67


 3751 00a2 03       		.uleb128 0x3
 3752 00a3 0E       		.uleb128 0xe
 3753 00a4 3A       		.uleb128 0x3a
 3754 00a5 0B       		.uleb128 0xb
 3755 00a6 3B       		.uleb128 0x3b
 3756 00a7 0B       		.uleb128 0xb
 3757 00a8 49       		.uleb128 0x49
 3758 00a9 13       		.uleb128 0x13
 3759 00aa 02       		.uleb128 0x2
 3760 00ab 06       		.uleb128 0x6
 3761 00ac 00       		.byte	0
 3762 00ad 00       		.byte	0
 3763 00ae 0C       		.uleb128 0xc
 3764 00af 898201   		.uleb128 0x4109
 3765 00b2 00       		.byte	0
 3766 00b3 11       		.uleb128 0x11
 3767 00b4 01       		.uleb128 0x1
 3768 00b5 31       		.uleb128 0x31
 3769 00b6 13       		.uleb128 0x13
 3770 00b7 00       		.byte	0
 3771 00b8 00       		.byte	0
 3772 00b9 0D       		.uleb128 0xd
 3773 00ba 0F       		.uleb128 0xf
 3774 00bb 00       		.byte	0
 3775 00bc 0B       		.uleb128 0xb
 3776 00bd 0B       		.uleb128 0xb
 3777 00be 49       		.uleb128 0x49
 3778 00bf 13       		.uleb128 0x13
 3779 00c0 00       		.byte	0
 3780 00c1 00       		.byte	0
 3781 00c2 0E       		.uleb128 0xe
 3782 00c3 05       		.uleb128 0x5
 3783 00c4 00       		.byte	0
 3784 00c5 03       		.uleb128 0x3
 3785 00c6 0E       		.uleb128 0xe
 3786 00c7 3A       		.uleb128 0x3a
 3787 00c8 0B       		.uleb128 0xb
 3788 00c9 3B       		.uleb128 0x3b
 3789 00ca 0B       		.uleb128 0xb
 3790 00cb 49       		.uleb128 0x49
 3791 00cc 13       		.uleb128 0x13
 3792 00cd 02       		.uleb128 0x2
 3793 00ce 0A       		.uleb128 0xa
 3794 00cf 00       		.byte	0
 3795 00d0 00       		.byte	0
 3796 00d1 0F       		.uleb128 0xf
 3797 00d2 34       		.uleb128 0x34
 3798 00d3 00       		.byte	0
 3799 00d4 03       		.uleb128 0x3
 3800 00d5 08       		.uleb128 0x8
 3801 00d6 3A       		.uleb128 0x3a
 3802 00d7 0B       		.uleb128 0xb
 3803 00d8 3B       		.uleb128 0x3b
 3804 00d9 0B       		.uleb128 0xb
 3805 00da 49       		.uleb128 0x49
 3806 00db 13       		.uleb128 0x13
 3807 00dc 02       		.uleb128 0x2
ARM GAS  /tmp/ccNJIE6Y.s 			page 68


 3808 00dd 06       		.uleb128 0x6
 3809 00de 00       		.byte	0
 3810 00df 00       		.byte	0
 3811 00e0 10       		.uleb128 0x10
 3812 00e1 34       		.uleb128 0x34
 3813 00e2 00       		.byte	0
 3814 00e3 03       		.uleb128 0x3
 3815 00e4 08       		.uleb128 0x8
 3816 00e5 3A       		.uleb128 0x3a
 3817 00e6 0B       		.uleb128 0xb
 3818 00e7 3B       		.uleb128 0x3b
 3819 00e8 0B       		.uleb128 0xb
 3820 00e9 49       		.uleb128 0x49
 3821 00ea 13       		.uleb128 0x13
 3822 00eb 00       		.byte	0
 3823 00ec 00       		.byte	0
 3824 00ed 11       		.uleb128 0x11
 3825 00ee 898201   		.uleb128 0x4109
 3826 00f1 01       		.byte	0x1
 3827 00f2 11       		.uleb128 0x11
 3828 00f3 01       		.uleb128 0x1
 3829 00f4 31       		.uleb128 0x31
 3830 00f5 13       		.uleb128 0x13
 3831 00f6 01       		.uleb128 0x1
 3832 00f7 13       		.uleb128 0x13
 3833 00f8 00       		.byte	0
 3834 00f9 00       		.byte	0
 3835 00fa 12       		.uleb128 0x12
 3836 00fb 8A8201   		.uleb128 0x410a
 3837 00fe 00       		.byte	0
 3838 00ff 02       		.uleb128 0x2
 3839 0100 0A       		.uleb128 0xa
 3840 0101 9142     		.uleb128 0x2111
 3841 0103 0A       		.uleb128 0xa
 3842 0104 00       		.byte	0
 3843 0105 00       		.byte	0
 3844 0106 13       		.uleb128 0x13
 3845 0107 2E       		.uleb128 0x2e
 3846 0108 01       		.byte	0x1
 3847 0109 3F       		.uleb128 0x3f
 3848 010a 0C       		.uleb128 0xc
 3849 010b 03       		.uleb128 0x3
 3850 010c 0E       		.uleb128 0xe
 3851 010d 3A       		.uleb128 0x3a
 3852 010e 0B       		.uleb128 0xb
 3853 010f 3B       		.uleb128 0x3b
 3854 0110 0B       		.uleb128 0xb
 3855 0111 27       		.uleb128 0x27
 3856 0112 0C       		.uleb128 0xc
 3857 0113 11       		.uleb128 0x11
 3858 0114 01       		.uleb128 0x1
 3859 0115 12       		.uleb128 0x12
 3860 0116 01       		.uleb128 0x1
 3861 0117 40       		.uleb128 0x40
 3862 0118 06       		.uleb128 0x6
 3863 0119 9742     		.uleb128 0x2117
 3864 011b 0C       		.uleb128 0xc
ARM GAS  /tmp/ccNJIE6Y.s 			page 69


 3865 011c 01       		.uleb128 0x1
 3866 011d 13       		.uleb128 0x13
 3867 011e 00       		.byte	0
 3868 011f 00       		.byte	0
 3869 0120 14       		.uleb128 0x14
 3870 0121 05       		.uleb128 0x5
 3871 0122 00       		.byte	0
 3872 0123 03       		.uleb128 0x3
 3873 0124 08       		.uleb128 0x8
 3874 0125 3A       		.uleb128 0x3a
 3875 0126 0B       		.uleb128 0xb
 3876 0127 3B       		.uleb128 0x3b
 3877 0128 0B       		.uleb128 0xb
 3878 0129 49       		.uleb128 0x49
 3879 012a 13       		.uleb128 0x13
 3880 012b 02       		.uleb128 0x2
 3881 012c 06       		.uleb128 0x6
 3882 012d 00       		.byte	0
 3883 012e 00       		.byte	0
 3884 012f 15       		.uleb128 0x15
 3885 0130 898201   		.uleb128 0x4109
 3886 0133 01       		.byte	0x1
 3887 0134 11       		.uleb128 0x11
 3888 0135 01       		.uleb128 0x1
 3889 0136 9542     		.uleb128 0x2115
 3890 0138 0C       		.uleb128 0xc
 3891 0139 31       		.uleb128 0x31
 3892 013a 13       		.uleb128 0x13
 3893 013b 00       		.byte	0
 3894 013c 00       		.byte	0
 3895 013d 16       		.uleb128 0x16
 3896 013e 34       		.uleb128 0x34
 3897 013f 00       		.byte	0
 3898 0140 03       		.uleb128 0x3
 3899 0141 08       		.uleb128 0x8
 3900 0142 3A       		.uleb128 0x3a
 3901 0143 0B       		.uleb128 0xb
 3902 0144 3B       		.uleb128 0x3b
 3903 0145 0B       		.uleb128 0xb
 3904 0146 49       		.uleb128 0x49
 3905 0147 13       		.uleb128 0x13
 3906 0148 02       		.uleb128 0x2
 3907 0149 0A       		.uleb128 0xa
 3908 014a 00       		.byte	0
 3909 014b 00       		.byte	0
 3910 014c 17       		.uleb128 0x17
 3911 014d 34       		.uleb128 0x34
 3912 014e 00       		.byte	0
 3913 014f 03       		.uleb128 0x3
 3914 0150 0E       		.uleb128 0xe
 3915 0151 3A       		.uleb128 0x3a
 3916 0152 0B       		.uleb128 0xb
 3917 0153 3B       		.uleb128 0x3b
 3918 0154 0B       		.uleb128 0xb
 3919 0155 49       		.uleb128 0x49
 3920 0156 13       		.uleb128 0x13
 3921 0157 00       		.byte	0
ARM GAS  /tmp/ccNJIE6Y.s 			page 70


 3922 0158 00       		.byte	0
 3923 0159 18       		.uleb128 0x18
 3924 015a 34       		.uleb128 0x34
 3925 015b 00       		.byte	0
 3926 015c 03       		.uleb128 0x3
 3927 015d 0E       		.uleb128 0xe
 3928 015e 3A       		.uleb128 0x3a
 3929 015f 0B       		.uleb128 0xb
 3930 0160 3B       		.uleb128 0x3b
 3931 0161 0B       		.uleb128 0xb
 3932 0162 49       		.uleb128 0x49
 3933 0163 13       		.uleb128 0x13
 3934 0164 02       		.uleb128 0x2
 3935 0165 0A       		.uleb128 0xa
 3936 0166 00       		.byte	0
 3937 0167 00       		.byte	0
 3938 0168 19       		.uleb128 0x19
 3939 0169 2E       		.uleb128 0x2e
 3940 016a 01       		.byte	0x1
 3941 016b 3F       		.uleb128 0x3f
 3942 016c 0C       		.uleb128 0xc
 3943 016d 03       		.uleb128 0x3
 3944 016e 0E       		.uleb128 0xe
 3945 016f 3A       		.uleb128 0x3a
 3946 0170 0B       		.uleb128 0xb
 3947 0171 3B       		.uleb128 0x3b
 3948 0172 05       		.uleb128 0x5
 3949 0173 27       		.uleb128 0x27
 3950 0174 0C       		.uleb128 0xc
 3951 0175 11       		.uleb128 0x11
 3952 0176 01       		.uleb128 0x1
 3953 0177 12       		.uleb128 0x12
 3954 0178 01       		.uleb128 0x1
 3955 0179 40       		.uleb128 0x40
 3956 017a 06       		.uleb128 0x6
 3957 017b 9642     		.uleb128 0x2116
 3958 017d 0C       		.uleb128 0xc
 3959 017e 01       		.uleb128 0x1
 3960 017f 13       		.uleb128 0x13
 3961 0180 00       		.byte	0
 3962 0181 00       		.byte	0
 3963 0182 1A       		.uleb128 0x1a
 3964 0183 05       		.uleb128 0x5
 3965 0184 00       		.byte	0
 3966 0185 03       		.uleb128 0x3
 3967 0186 0E       		.uleb128 0xe
 3968 0187 3A       		.uleb128 0x3a
 3969 0188 0B       		.uleb128 0xb
 3970 0189 3B       		.uleb128 0x3b
 3971 018a 05       		.uleb128 0x5
 3972 018b 49       		.uleb128 0x49
 3973 018c 13       		.uleb128 0x13
 3974 018d 02       		.uleb128 0x2
 3975 018e 06       		.uleb128 0x6
 3976 018f 00       		.byte	0
 3977 0190 00       		.byte	0
 3978 0191 1B       		.uleb128 0x1b
ARM GAS  /tmp/ccNJIE6Y.s 			page 71


 3979 0192 34       		.uleb128 0x34
 3980 0193 00       		.byte	0
 3981 0194 03       		.uleb128 0x3
 3982 0195 08       		.uleb128 0x8
 3983 0196 3A       		.uleb128 0x3a
 3984 0197 0B       		.uleb128 0xb
 3985 0198 3B       		.uleb128 0x3b
 3986 0199 05       		.uleb128 0x5
 3987 019a 49       		.uleb128 0x49
 3988 019b 13       		.uleb128 0x13
 3989 019c 02       		.uleb128 0x2
 3990 019d 0A       		.uleb128 0xa
 3991 019e 00       		.byte	0
 3992 019f 00       		.byte	0
 3993 01a0 1C       		.uleb128 0x1c
 3994 01a1 05       		.uleb128 0x5
 3995 01a2 00       		.byte	0
 3996 01a3 03       		.uleb128 0x3
 3997 01a4 08       		.uleb128 0x8
 3998 01a5 3A       		.uleb128 0x3a
 3999 01a6 0B       		.uleb128 0xb
 4000 01a7 3B       		.uleb128 0x3b
 4001 01a8 05       		.uleb128 0x5
 4002 01a9 49       		.uleb128 0x49
 4003 01aa 13       		.uleb128 0x13
 4004 01ab 02       		.uleb128 0x2
 4005 01ac 06       		.uleb128 0x6
 4006 01ad 00       		.byte	0
 4007 01ae 00       		.byte	0
 4008 01af 1D       		.uleb128 0x1d
 4009 01b0 34       		.uleb128 0x34
 4010 01b1 00       		.byte	0
 4011 01b2 03       		.uleb128 0x3
 4012 01b3 0E       		.uleb128 0xe
 4013 01b4 3A       		.uleb128 0x3a
 4014 01b5 0B       		.uleb128 0xb
 4015 01b6 3B       		.uleb128 0x3b
 4016 01b7 05       		.uleb128 0x5
 4017 01b8 49       		.uleb128 0x49
 4018 01b9 13       		.uleb128 0x13
 4019 01ba 02       		.uleb128 0x2
 4020 01bb 06       		.uleb128 0x6
 4021 01bc 00       		.byte	0
 4022 01bd 00       		.byte	0
 4023 01be 1E       		.uleb128 0x1e
 4024 01bf 34       		.uleb128 0x34
 4025 01c0 00       		.byte	0
 4026 01c1 03       		.uleb128 0x3
 4027 01c2 0E       		.uleb128 0xe
 4028 01c3 3A       		.uleb128 0x3a
 4029 01c4 0B       		.uleb128 0xb
 4030 01c5 3B       		.uleb128 0x3b
 4031 01c6 05       		.uleb128 0x5
 4032 01c7 49       		.uleb128 0x49
 4033 01c8 13       		.uleb128 0x13
 4034 01c9 02       		.uleb128 0x2
 4035 01ca 0A       		.uleb128 0xa
ARM GAS  /tmp/ccNJIE6Y.s 			page 72


 4036 01cb 00       		.byte	0
 4037 01cc 00       		.byte	0
 4038 01cd 1F       		.uleb128 0x1f
 4039 01ce 34       		.uleb128 0x34
 4040 01cf 00       		.byte	0
 4041 01d0 03       		.uleb128 0x3
 4042 01d1 08       		.uleb128 0x8
 4043 01d2 3A       		.uleb128 0x3a
 4044 01d3 0B       		.uleb128 0xb
 4045 01d4 3B       		.uleb128 0x3b
 4046 01d5 05       		.uleb128 0x5
 4047 01d6 49       		.uleb128 0x49
 4048 01d7 13       		.uleb128 0x13
 4049 01d8 00       		.byte	0
 4050 01d9 00       		.byte	0
 4051 01da 20       		.uleb128 0x20
 4052 01db 2E       		.uleb128 0x2e
 4053 01dc 01       		.byte	0x1
 4054 01dd 3F       		.uleb128 0x3f
 4055 01de 0C       		.uleb128 0xc
 4056 01df 03       		.uleb128 0x3
 4057 01e0 0E       		.uleb128 0xe
 4058 01e1 3A       		.uleb128 0x3a
 4059 01e2 0B       		.uleb128 0xb
 4060 01e3 3B       		.uleb128 0x3b
 4061 01e4 05       		.uleb128 0x5
 4062 01e5 27       		.uleb128 0x27
 4063 01e6 0C       		.uleb128 0xc
 4064 01e7 11       		.uleb128 0x11
 4065 01e8 01       		.uleb128 0x1
 4066 01e9 12       		.uleb128 0x12
 4067 01ea 01       		.uleb128 0x1
 4068 01eb 40       		.uleb128 0x40
 4069 01ec 06       		.uleb128 0x6
 4070 01ed 9742     		.uleb128 0x2117
 4071 01ef 0C       		.uleb128 0xc
 4072 01f0 01       		.uleb128 0x1
 4073 01f1 13       		.uleb128 0x13
 4074 01f2 00       		.byte	0
 4075 01f3 00       		.byte	0
 4076 01f4 21       		.uleb128 0x21
 4077 01f5 898201   		.uleb128 0x4109
 4078 01f8 01       		.byte	0x1
 4079 01f9 11       		.uleb128 0x11
 4080 01fa 01       		.uleb128 0x1
 4081 01fb 31       		.uleb128 0x31
 4082 01fc 13       		.uleb128 0x13
 4083 01fd 00       		.byte	0
 4084 01fe 00       		.byte	0
 4085 01ff 22       		.uleb128 0x22
 4086 0200 2E       		.uleb128 0x2e
 4087 0201 01       		.byte	0x1
 4088 0202 3F       		.uleb128 0x3f
 4089 0203 0C       		.uleb128 0xc
 4090 0204 03       		.uleb128 0x3
 4091 0205 0E       		.uleb128 0xe
 4092 0206 3A       		.uleb128 0x3a
ARM GAS  /tmp/ccNJIE6Y.s 			page 73


 4093 0207 0B       		.uleb128 0xb
 4094 0208 3B       		.uleb128 0x3b
 4095 0209 0B       		.uleb128 0xb
 4096 020a 27       		.uleb128 0x27
 4097 020b 0C       		.uleb128 0xc
 4098 020c 49       		.uleb128 0x49
 4099 020d 13       		.uleb128 0x13
 4100 020e 3C       		.uleb128 0x3c
 4101 020f 0C       		.uleb128 0xc
 4102 0210 01       		.uleb128 0x1
 4103 0211 13       		.uleb128 0x13
 4104 0212 00       		.byte	0
 4105 0213 00       		.byte	0
 4106 0214 23       		.uleb128 0x23
 4107 0215 05       		.uleb128 0x5
 4108 0216 00       		.byte	0
 4109 0217 49       		.uleb128 0x49
 4110 0218 13       		.uleb128 0x13
 4111 0219 00       		.byte	0
 4112 021a 00       		.byte	0
 4113 021b 24       		.uleb128 0x24
 4114 021c 2E       		.uleb128 0x2e
 4115 021d 01       		.byte	0x1
 4116 021e 3F       		.uleb128 0x3f
 4117 021f 0C       		.uleb128 0xc
 4118 0220 03       		.uleb128 0x3
 4119 0221 08       		.uleb128 0x8
 4120 0222 3A       		.uleb128 0x3a
 4121 0223 0B       		.uleb128 0xb
 4122 0224 3B       		.uleb128 0x3b
 4123 0225 0B       		.uleb128 0xb
 4124 0226 27       		.uleb128 0x27
 4125 0227 0C       		.uleb128 0xc
 4126 0228 49       		.uleb128 0x49
 4127 0229 13       		.uleb128 0x13
 4128 022a 3C       		.uleb128 0x3c
 4129 022b 0C       		.uleb128 0xc
 4130 022c 01       		.uleb128 0x1
 4131 022d 13       		.uleb128 0x13
 4132 022e 00       		.byte	0
 4133 022f 00       		.byte	0
 4134 0230 25       		.uleb128 0x25
 4135 0231 2E       		.uleb128 0x2e
 4136 0232 01       		.byte	0x1
 4137 0233 3F       		.uleb128 0x3f
 4138 0234 0C       		.uleb128 0xc
 4139 0235 03       		.uleb128 0x3
 4140 0236 0E       		.uleb128 0xe
 4141 0237 3A       		.uleb128 0x3a
 4142 0238 0B       		.uleb128 0xb
 4143 0239 3B       		.uleb128 0x3b
 4144 023a 0B       		.uleb128 0xb
 4145 023b 27       		.uleb128 0x27
 4146 023c 0C       		.uleb128 0xc
 4147 023d 3C       		.uleb128 0x3c
 4148 023e 0C       		.uleb128 0xc
 4149 023f 01       		.uleb128 0x1
ARM GAS  /tmp/ccNJIE6Y.s 			page 74


 4150 0240 13       		.uleb128 0x13
 4151 0241 00       		.byte	0
 4152 0242 00       		.byte	0
 4153 0243 26       		.uleb128 0x26
 4154 0244 2E       		.uleb128 0x2e
 4155 0245 01       		.byte	0x1
 4156 0246 3F       		.uleb128 0x3f
 4157 0247 0C       		.uleb128 0xc
 4158 0248 03       		.uleb128 0x3
 4159 0249 0E       		.uleb128 0xe
 4160 024a 3A       		.uleb128 0x3a
 4161 024b 0B       		.uleb128 0xb
 4162 024c 3B       		.uleb128 0x3b
 4163 024d 0B       		.uleb128 0xb
 4164 024e 27       		.uleb128 0x27
 4165 024f 0C       		.uleb128 0xc
 4166 0250 3C       		.uleb128 0x3c
 4167 0251 0C       		.uleb128 0xc
 4168 0252 00       		.byte	0
 4169 0253 00       		.byte	0
 4170 0254 00       		.byte	0
 4171              		.section	.debug_loc,"",%progbits
 4172              	.Ldebug_loc0:
 4173              	.LLST0:
 4174 0000 00000000 		.4byte	.LFB0
 4175 0004 04000000 		.4byte	.LCFI0
 4176 0008 0200     		.2byte	0x2
 4177 000a 7D       		.byte	0x7d
 4178 000b 00       		.sleb128 0
 4179 000c 04000000 		.4byte	.LCFI0
 4180 0010 08000000 		.4byte	.LCFI1
 4181 0014 0200     		.2byte	0x2
 4182 0016 7D       		.byte	0x7d
 4183 0017 20       		.sleb128 32
 4184 0018 08000000 		.4byte	.LCFI1
 4185 001c 08010000 		.4byte	.LFE0
 4186 0020 0200     		.2byte	0x2
 4187 0022 7D       		.byte	0x7d
 4188 0023 30       		.sleb128 48
 4189 0024 00000000 		.4byte	0
 4190 0028 00000000 		.4byte	0
 4191              	.LLST1:
 4192 002c 00000000 		.4byte	.LVL0
 4193 0030 0E000000 		.4byte	.LVL1
 4194 0034 0100     		.2byte	0x1
 4195 0036 50       		.byte	0x50
 4196 0037 0E000000 		.4byte	.LVL1
 4197 003b 4E000000 		.4byte	.LVL14
 4198 003f 0100     		.2byte	0x1
 4199 0041 54       		.byte	0x54
 4200 0042 4E000000 		.4byte	.LVL14
 4201 0046 08010000 		.4byte	.LFE0
 4202 004a 0400     		.2byte	0x4
 4203 004c F3       		.byte	0xf3
 4204 004d 01       		.uleb128 0x1
 4205 004e 50       		.byte	0x50
 4206 004f 9F       		.byte	0x9f
ARM GAS  /tmp/ccNJIE6Y.s 			page 75


 4207 0050 00000000 		.4byte	0
 4208 0054 00000000 		.4byte	0
 4209              	.LLST2:
 4210 0058 00000000 		.4byte	.LVL0
 4211 005c 11000000 		.4byte	.LVL2-1
 4212 0060 0100     		.2byte	0x1
 4213 0062 51       		.byte	0x51
 4214 0063 11000000 		.4byte	.LVL2-1
 4215 0067 08010000 		.4byte	.LFE0
 4216 006b 0100     		.2byte	0x1
 4217 006d 56       		.byte	0x56
 4218 006e 00000000 		.4byte	0
 4219 0072 00000000 		.4byte	0
 4220              	.LLST3:
 4221 0076 1A000000 		.4byte	.LVL4
 4222 007a 8C000000 		.4byte	.LVL21
 4223 007e 0600     		.2byte	0x6
 4224 0080 58       		.byte	0x58
 4225 0081 93       		.byte	0x93
 4226 0082 04       		.uleb128 0x4
 4227 0083 59       		.byte	0x59
 4228 0084 93       		.byte	0x93
 4229 0085 04       		.uleb128 0x4
 4230 0086 00000000 		.4byte	0
 4231 008a 00000000 		.4byte	0
 4232              	.LLST4:
 4233 008e 3E000000 		.4byte	.LVL10
 4234 0092 42000000 		.4byte	.LVL11
 4235 0096 0600     		.2byte	0x6
 4236 0098 50       		.byte	0x50
 4237 0099 93       		.byte	0x93
 4238 009a 04       		.uleb128 0x4
 4239 009b 51       		.byte	0x51
 4240 009c 93       		.byte	0x93
 4241 009d 04       		.uleb128 0x4
 4242 009e 42000000 		.4byte	.LVL11
 4243 00a2 08010000 		.4byte	.LFE0
 4244 00a6 0200     		.2byte	0x2
 4245 00a8 91       		.byte	0x91
 4246 00a9 58       		.sleb128 -40
 4247 00aa 00000000 		.4byte	0
 4248 00ae 00000000 		.4byte	0
 4249              	.LLST5:
 4250 00b2 56000000 		.4byte	.LVL15
 4251 00b6 7E000000 		.4byte	.LVL19
 4252 00ba 0600     		.2byte	0x6
 4253 00bc 5A       		.byte	0x5a
 4254 00bd 93       		.byte	0x93
 4255 00be 04       		.uleb128 0x4
 4256 00bf 5B       		.byte	0x5b
 4257 00c0 93       		.byte	0x93
 4258 00c1 04       		.uleb128 0x4
 4259 00c2 00000000 		.4byte	0
 4260 00c6 00000000 		.4byte	0
 4261              	.LLST6:
 4262 00ca 2A000000 		.4byte	.LVL7
 4263 00ce 35000000 		.4byte	.LVL8-1
ARM GAS  /tmp/ccNJIE6Y.s 			page 76


 4264 00d2 0600     		.2byte	0x6
 4265 00d4 52       		.byte	0x52
 4266 00d5 93       		.byte	0x93
 4267 00d6 04       		.uleb128 0x4
 4268 00d7 53       		.byte	0x53
 4269 00d8 93       		.byte	0x93
 4270 00d9 04       		.uleb128 0x4
 4271 00da 00000000 		.4byte	0
 4272 00de 00000000 		.4byte	0
 4273              	.LLST7:
 4274 00e2 00000000 		.4byte	.LFB2
 4275 00e6 04000000 		.4byte	.LCFI2
 4276 00ea 0200     		.2byte	0x2
 4277 00ec 7D       		.byte	0x7d
 4278 00ed 00       		.sleb128 0
 4279 00ee 04000000 		.4byte	.LCFI2
 4280 00f2 08000000 		.4byte	.LCFI3
 4281 00f6 0200     		.2byte	0x2
 4282 00f8 7D       		.byte	0x7d
 4283 00f9 24       		.sleb128 36
 4284 00fa 08000000 		.4byte	.LCFI3
 4285 00fe 60020000 		.4byte	.LFE2
 4286 0102 0300     		.2byte	0x3
 4287 0104 7D       		.byte	0x7d
 4288 0105 D000     		.sleb128 80
 4289 0107 00000000 		.4byte	0
 4290 010b 00000000 		.4byte	0
 4291              	.LLST8:
 4292 010f 00000000 		.4byte	.LVL29
 4293 0113 0E000000 		.4byte	.LVL30
 4294 0117 0100     		.2byte	0x1
 4295 0119 50       		.byte	0x50
 4296 011a 0E000000 		.4byte	.LVL30
 4297 011e 60020000 		.4byte	.LFE2
 4298 0122 0100     		.2byte	0x1
 4299 0124 5B       		.byte	0x5b
 4300 0125 00000000 		.4byte	0
 4301 0129 00000000 		.4byte	0
 4302              	.LLST9:
 4303 012d 00000000 		.4byte	.LVL29
 4304 0131 15000000 		.4byte	.LVL32-1
 4305 0135 0100     		.2byte	0x1
 4306 0137 51       		.byte	0x51
 4307 0138 15000000 		.4byte	.LVL32-1
 4308 013c 60020000 		.4byte	.LFE2
 4309 0140 0100     		.2byte	0x1
 4310 0142 5A       		.byte	0x5a
 4311 0143 00000000 		.4byte	0
 4312 0147 00000000 		.4byte	0
 4313              	.LLST10:
 4314 014b 00000000 		.4byte	.LVL29
 4315 014f 12000000 		.4byte	.LVL31
 4316 0153 0600     		.2byte	0x6
 4317 0155 52       		.byte	0x52
 4318 0156 93       		.byte	0x93
 4319 0157 04       		.uleb128 0x4
 4320 0158 53       		.byte	0x53
ARM GAS  /tmp/ccNJIE6Y.s 			page 77


 4321 0159 93       		.byte	0x93
 4322 015a 04       		.uleb128 0x4
 4323 015b 12000000 		.4byte	.LVL31
 4324 015f F2000000 		.4byte	.LVL61
 4325 0163 1000     		.2byte	0x10
 4326 0165 F5       		.byte	0xf5
 4327 0166 08       		.uleb128 0x8
 4328 0167 29       		.uleb128 0x29
 4329 0168 F4       		.byte	0xf4
 4330 0169 29       		.uleb128 0x29
 4331 016a 08       		.byte	0x8
 4332 016b 65732D38 		.4byte	0x382d7365
 4333 016f 52C1D03F 		.4byte	0x3fd0c152
 4334 0173 1E       		.byte	0x1e
 4335 0174 9F       		.byte	0x9f
 4336 0175 00000000 		.4byte	0
 4337 0179 00000000 		.4byte	0
 4338              	.LLST11:
 4339 017d 4C000000 		.4byte	.LVL38
 4340 0181 50000000 		.4byte	.LVL39
 4341 0185 0600     		.2byte	0x6
 4342 0187 50       		.byte	0x50
 4343 0188 93       		.byte	0x93
 4344 0189 04       		.uleb128 0x4
 4345 018a 51       		.byte	0x51
 4346 018b 93       		.byte	0x93
 4347 018c 04       		.uleb128 0x4
 4348 018d 50000000 		.4byte	.LVL39
 4349 0191 60020000 		.4byte	.LFE2
 4350 0195 0200     		.2byte	0x2
 4351 0197 7D       		.byte	0x7d
 4352 0198 00       		.sleb128 0
 4353 0199 00000000 		.4byte	0
 4354 019d 00000000 		.4byte	0
 4355              	.LLST12:
 4356 01a1 1A000000 		.4byte	.LVL33
 4357 01a5 62000000 		.4byte	.LVL43
 4358 01a9 0600     		.2byte	0x6
 4359 01ab 54       		.byte	0x54
 4360 01ac 93       		.byte	0x93
 4361 01ad 04       		.uleb128 0x4
 4362 01ae 55       		.byte	0x55
 4363 01af 93       		.byte	0x93
 4364 01b0 04       		.uleb128 0x4
 4365 01b1 00000000 		.4byte	0
 4366 01b5 00000000 		.4byte	0
 4367              	.LLST13:
 4368 01b9 58000000 		.4byte	.LVL41
 4369 01bd 92000000 		.4byte	.LVL49
 4370 01c1 0600     		.2byte	0x6
 4371 01c3 56       		.byte	0x56
 4372 01c4 93       		.byte	0x93
 4373 01c5 04       		.uleb128 0x4
 4374 01c6 57       		.byte	0x57
 4375 01c7 93       		.byte	0x93
 4376 01c8 04       		.uleb128 0x4
 4377 01c9 00000000 		.4byte	0
ARM GAS  /tmp/ccNJIE6Y.s 			page 78


 4378 01cd 00000000 		.4byte	0
 4379              	.LLST14:
 4380 01d1 64000000 		.4byte	.LVL44
 4381 01d5 B0000000 		.4byte	.LVL52
 4382 01d9 0600     		.2byte	0x6
 4383 01db 54       		.byte	0x54
 4384 01dc 93       		.byte	0x93
 4385 01dd 04       		.uleb128 0x4
 4386 01de 55       		.byte	0x55
 4387 01df 93       		.byte	0x93
 4388 01e0 04       		.uleb128 0x4
 4389 01e1 00000000 		.4byte	0
 4390 01e5 00000000 		.4byte	0
 4391              	.LLST15:
 4392 01e9 D4000000 		.4byte	.LVL56
 4393 01ed 0A010000 		.4byte	.LVL64
 4394 01f1 0600     		.2byte	0x6
 4395 01f3 54       		.byte	0x54
 4396 01f4 93       		.byte	0x93
 4397 01f5 04       		.uleb128 0x4
 4398 01f6 55       		.byte	0x55
 4399 01f7 93       		.byte	0x93
 4400 01f8 04       		.uleb128 0x4
 4401 01f9 54010000 		.4byte	.LVL68
 4402 01fd 92010000 		.4byte	.LVL76
 4403 0201 0600     		.2byte	0x6
 4404 0203 54       		.byte	0x54
 4405 0204 93       		.byte	0x93
 4406 0205 04       		.uleb128 0x4
 4407 0206 55       		.byte	0x55
 4408 0207 93       		.byte	0x93
 4409 0208 04       		.uleb128 0x4
 4410 0209 00000000 		.4byte	0
 4411 020d 00000000 		.4byte	0
 4412              	.LLST16:
 4413 0211 BC010000 		.4byte	.LVL81
 4414 0215 0E020000 		.4byte	.LVL88
 4415 0219 0600     		.2byte	0x6
 4416 021b 58       		.byte	0x58
 4417 021c 93       		.byte	0x93
 4418 021d 04       		.uleb128 0x4
 4419 021e 59       		.byte	0x59
 4420 021f 93       		.byte	0x93
 4421 0220 04       		.uleb128 0x4
 4422 0221 46020000 		.4byte	.LVL91
 4423 0225 60020000 		.4byte	.LFE2
 4424 0229 0600     		.2byte	0x6
 4425 022b 58       		.byte	0x58
 4426 022c 93       		.byte	0x93
 4427 022d 04       		.uleb128 0x4
 4428 022e 59       		.byte	0x59
 4429 022f 93       		.byte	0x93
 4430 0230 04       		.uleb128 0x4
 4431 0231 00000000 		.4byte	0
 4432 0235 00000000 		.4byte	0
 4433              	.LLST17:
 4434 0239 76010000 		.4byte	.LVL72
ARM GAS  /tmp/ccNJIE6Y.s 			page 79


 4435 023d 7C010000 		.4byte	.LVL73
 4436 0241 0600     		.2byte	0x6
 4437 0243 50       		.byte	0x50
 4438 0244 93       		.byte	0x93
 4439 0245 04       		.uleb128 0x4
 4440 0246 51       		.byte	0x51
 4441 0247 93       		.byte	0x93
 4442 0248 04       		.uleb128 0x4
 4443 0249 7C010000 		.4byte	.LVL73
 4444 024d 0E020000 		.4byte	.LVL88
 4445 0251 0200     		.2byte	0x2
 4446 0253 7D       		.byte	0x7d
 4447 0254 00       		.sleb128 0
 4448 0255 46020000 		.4byte	.LVL91
 4449 0259 60020000 		.4byte	.LFE2
 4450 025d 0200     		.2byte	0x2
 4451 025f 7D       		.byte	0x7d
 4452 0260 00       		.sleb128 0
 4453 0261 00000000 		.4byte	0
 4454 0265 00000000 		.4byte	0
 4455              	.LLST18:
 4456 0269 F2000000 		.4byte	.LVL61
 4457 026d F8000000 		.4byte	.LVL62
 4458 0271 0600     		.2byte	0x6
 4459 0273 50       		.byte	0x50
 4460 0274 93       		.byte	0x93
 4461 0275 04       		.uleb128 0x4
 4462 0276 51       		.byte	0x51
 4463 0277 93       		.byte	0x93
 4464 0278 04       		.uleb128 0x4
 4465 0279 F8000000 		.4byte	.LVL62
 4466 027d 01010000 		.4byte	.LVL63-1
 4467 0281 0600     		.2byte	0x6
 4468 0283 50       		.byte	0x50
 4469 0284 93       		.byte	0x93
 4470 0285 04       		.uleb128 0x4
 4471 0286 58       		.byte	0x58
 4472 0287 93       		.byte	0x93
 4473 0288 04       		.uleb128 0x4
 4474 0289 01010000 		.4byte	.LVL63-1
 4475 028d 4E010000 		.4byte	.LVL67
 4476 0291 0600     		.2byte	0x6
 4477 0293 59       		.byte	0x59
 4478 0294 93       		.byte	0x93
 4479 0295 04       		.uleb128 0x4
 4480 0296 58       		.byte	0x58
 4481 0297 93       		.byte	0x93
 4482 0298 04       		.uleb128 0x4
 4483 0299 54010000 		.4byte	.LVL68
 4484 029d BA010000 		.4byte	.LVL80
 4485 02a1 0600     		.2byte	0x6
 4486 02a3 59       		.byte	0x59
 4487 02a4 93       		.byte	0x93
 4488 02a5 04       		.uleb128 0x4
 4489 02a6 58       		.byte	0x58
 4490 02a7 93       		.byte	0x93
 4491 02a8 04       		.uleb128 0x4
ARM GAS  /tmp/ccNJIE6Y.s 			page 80


 4492 02a9 0E020000 		.4byte	.LVL88
 4493 02ad 46020000 		.4byte	.LVL91
 4494 02b1 0600     		.2byte	0x6
 4495 02b3 59       		.byte	0x59
 4496 02b4 93       		.byte	0x93
 4497 02b5 04       		.uleb128 0x4
 4498 02b6 58       		.byte	0x58
 4499 02b7 93       		.byte	0x93
 4500 02b8 04       		.uleb128 0x4
 4501 02b9 00000000 		.4byte	0
 4502 02bd 00000000 		.4byte	0
 4503              	.LLST19:
 4504 02c1 00000000 		.4byte	.LFB1
 4505 02c5 02000000 		.4byte	.LCFI4
 4506 02c9 0200     		.2byte	0x2
 4507 02cb 7D       		.byte	0x7d
 4508 02cc 00       		.sleb128 0
 4509 02cd 02000000 		.4byte	.LCFI4
 4510 02d1 22000000 		.4byte	.LFE1
 4511 02d5 0200     		.2byte	0x2
 4512 02d7 7D       		.byte	0x7d
 4513 02d8 10       		.sleb128 16
 4514 02d9 00000000 		.4byte	0
 4515 02dd 00000000 		.4byte	0
 4516              	.LLST20:
 4517 02e1 00000000 		.4byte	.LVL92
 4518 02e5 08000000 		.4byte	.LVL93
 4519 02e9 0100     		.2byte	0x1
 4520 02eb 50       		.byte	0x50
 4521 02ec 08000000 		.4byte	.LVL93
 4522 02f0 22000000 		.4byte	.LFE1
 4523 02f4 0100     		.2byte	0x1
 4524 02f6 56       		.byte	0x56
 4525 02f7 00000000 		.4byte	0
 4526 02fb 00000000 		.4byte	0
 4527              	.LLST21:
 4528 02ff 00000000 		.4byte	.LVL92
 4529 0303 0A000000 		.4byte	.LVL94
 4530 0307 0100     		.2byte	0x1
 4531 0309 51       		.byte	0x51
 4532 030a 0A000000 		.4byte	.LVL94
 4533 030e 22000000 		.4byte	.LFE1
 4534 0312 0100     		.2byte	0x1
 4535 0314 55       		.byte	0x55
 4536 0315 00000000 		.4byte	0
 4537 0319 00000000 		.4byte	0
 4538              	.LLST22:
 4539 031d 00000000 		.4byte	.LVL92
 4540 0321 0F000000 		.4byte	.LVL95-1
 4541 0325 0600     		.2byte	0x6
 4542 0327 52       		.byte	0x52
 4543 0328 93       		.byte	0x93
 4544 0329 04       		.uleb128 0x4
 4545 032a 53       		.byte	0x53
 4546 032b 93       		.byte	0x93
 4547 032c 04       		.uleb128 0x4
 4548 032d 0F000000 		.4byte	.LVL95-1
ARM GAS  /tmp/ccNJIE6Y.s 			page 81


 4549 0331 22000000 		.4byte	.LFE1
 4550 0335 0600     		.2byte	0x6
 4551 0337 F3       		.byte	0xf3
 4552 0338 03       		.uleb128 0x3
 4553 0339 F5       		.byte	0xf5
 4554 033a 02       		.uleb128 0x2
 4555 033b 29       		.uleb128 0x29
 4556 033c 9F       		.byte	0x9f
 4557 033d 00000000 		.4byte	0
 4558 0341 00000000 		.4byte	0
 4559              	.LLST23:
 4560 0345 14000000 		.4byte	.LVL96
 4561 0349 21000000 		.4byte	.LVL97-1
 4562 034d 0600     		.2byte	0x6
 4563 034f 52       		.byte	0x52
 4564 0350 93       		.byte	0x93
 4565 0351 04       		.uleb128 0x4
 4566 0352 53       		.byte	0x53
 4567 0353 93       		.byte	0x93
 4568 0354 04       		.uleb128 0x4
 4569 0355 00000000 		.4byte	0
 4570 0359 00000000 		.4byte	0
 4571              	.LLST24:
 4572 035d 00000000 		.4byte	.LFB3
 4573 0361 04000000 		.4byte	.LCFI5
 4574 0365 0200     		.2byte	0x2
 4575 0367 7D       		.byte	0x7d
 4576 0368 00       		.sleb128 0
 4577 0369 04000000 		.4byte	.LCFI5
 4578 036d 08000000 		.4byte	.LCFI6
 4579 0371 0200     		.2byte	0x2
 4580 0373 7D       		.byte	0x7d
 4581 0374 24       		.sleb128 36
 4582 0375 08000000 		.4byte	.LCFI6
 4583 0379 58010000 		.4byte	.LFE3
 4584 037d 0300     		.2byte	0x3
 4585 037f 7D       		.byte	0x7d
 4586 0380 D000     		.sleb128 80
 4587 0382 00000000 		.4byte	0
 4588 0386 00000000 		.4byte	0
 4589              	.LLST25:
 4590 038a 00000000 		.4byte	.LVL98
 4591 038e 0E000000 		.4byte	.LVL99
 4592 0392 0100     		.2byte	0x1
 4593 0394 50       		.byte	0x50
 4594 0395 0E000000 		.4byte	.LVL99
 4595 0399 24000000 		.4byte	.LVL103
 4596 039d 0100     		.2byte	0x1
 4597 039f 54       		.byte	0x54
 4598 03a0 24000000 		.4byte	.LVL103
 4599 03a4 58010000 		.4byte	.LFE3
 4600 03a8 0400     		.2byte	0x4
 4601 03aa F3       		.byte	0xf3
 4602 03ab 01       		.uleb128 0x1
 4603 03ac 50       		.byte	0x50
 4604 03ad 9F       		.byte	0x9f
 4605 03ae 00000000 		.4byte	0
ARM GAS  /tmp/ccNJIE6Y.s 			page 82


 4606 03b2 00000000 		.4byte	0
 4607              	.LLST26:
 4608 03b6 00000000 		.4byte	.LVL98
 4609 03ba 15000000 		.4byte	.LVL100-1
 4610 03be 0100     		.2byte	0x1
 4611 03c0 51       		.byte	0x51
 4612 03c1 15000000 		.4byte	.LVL100-1
 4613 03c5 3C000000 		.4byte	.LVL109
 4614 03c9 0100     		.2byte	0x1
 4615 03cb 56       		.byte	0x56
 4616 03cc 3C000000 		.4byte	.LVL109
 4617 03d0 58010000 		.4byte	.LFE3
 4618 03d4 0400     		.2byte	0x4
 4619 03d6 F3       		.byte	0xf3
 4620 03d7 01       		.uleb128 0x1
 4621 03d8 51       		.byte	0x51
 4622 03d9 9F       		.byte	0x9f
 4623 03da 00000000 		.4byte	0
 4624 03de 00000000 		.4byte	0
 4625              	.LLST27:
 4626 03e2 00000000 		.4byte	.LVL98
 4627 03e6 15000000 		.4byte	.LVL100-1
 4628 03ea 0600     		.2byte	0x6
 4629 03ec 52       		.byte	0x52
 4630 03ed 93       		.byte	0x93
 4631 03ee 04       		.uleb128 0x4
 4632 03ef 53       		.byte	0x53
 4633 03f0 93       		.byte	0x93
 4634 03f1 04       		.uleb128 0x4
 4635 03f2 15000000 		.4byte	.LVL100-1
 4636 03f6 58010000 		.4byte	.LFE3
 4637 03fa 0200     		.2byte	0x2
 4638 03fc 91       		.byte	0x91
 4639 03fd 50       		.sleb128 -48
 4640 03fe 00000000 		.4byte	0
 4641 0402 00000000 		.4byte	0
 4642              	.LLST28:
 4643 0406 32000000 		.4byte	.LVL106
 4644 040a 36000000 		.4byte	.LVL107
 4645 040e 0600     		.2byte	0x6
 4646 0410 50       		.byte	0x50
 4647 0411 93       		.byte	0x93
 4648 0412 04       		.uleb128 0x4
 4649 0413 51       		.byte	0x51
 4650 0414 93       		.byte	0x93
 4651 0415 04       		.uleb128 0x4
 4652 0416 36000000 		.4byte	.LVL107
 4653 041a 58010000 		.4byte	.LFE3
 4654 041e 0200     		.2byte	0x2
 4655 0420 91       		.byte	0x91
 4656 0421 40       		.sleb128 -64
 4657 0422 00000000 		.4byte	0
 4658 0426 00000000 		.4byte	0
 4659              	.LLST29:
 4660 042a FE000000 		.4byte	.LVL129
 4661 042e 01010000 		.4byte	.LVL130-1
 4662 0432 0600     		.2byte	0x6
ARM GAS  /tmp/ccNJIE6Y.s 			page 83


 4663 0434 50       		.byte	0x50
 4664 0435 93       		.byte	0x93
 4665 0436 04       		.uleb128 0x4
 4666 0437 51       		.byte	0x51
 4667 0438 93       		.byte	0x93
 4668 0439 04       		.uleb128 0x4
 4669 043a 06010000 		.4byte	.LVL131
 4670 043e 58010000 		.4byte	.LFE3
 4671 0442 0600     		.2byte	0x6
 4672 0444 54       		.byte	0x54
 4673 0445 93       		.byte	0x93
 4674 0446 04       		.uleb128 0x4
 4675 0447 55       		.byte	0x55
 4676 0448 93       		.byte	0x93
 4677 0449 04       		.uleb128 0x4
 4678 044a 00000000 		.4byte	0
 4679 044e 00000000 		.4byte	0
 4680              	.LLST30:
 4681 0452 3E000000 		.4byte	.LVL110
 4682 0456 8A000000 		.4byte	.LVL118
 4683 045a 0600     		.2byte	0x6
 4684 045c 56       		.byte	0x56
 4685 045d 93       		.byte	0x93
 4686 045e 04       		.uleb128 0x4
 4687 045f 57       		.byte	0x57
 4688 0460 93       		.byte	0x93
 4689 0461 04       		.uleb128 0x4
 4690 0462 00000000 		.4byte	0
 4691 0466 00000000 		.4byte	0
 4692              	.LLST31:
 4693 046a 1A000000 		.4byte	.LVL101
 4694 046e 6C000000 		.4byte	.LVL115
 4695 0472 0600     		.2byte	0x6
 4696 0474 58       		.byte	0x58
 4697 0475 93       		.byte	0x93
 4698 0476 04       		.uleb128 0x4
 4699 0477 59       		.byte	0x59
 4700 0478 93       		.byte	0x93
 4701 0479 04       		.uleb128 0x4
 4702 047a 00000000 		.4byte	0
 4703 047e 00000000 		.4byte	0
 4704              	.LLST32:
 4705 0482 26000000 		.4byte	.LVL104
 4706 0486 CA000000 		.4byte	.LVL125
 4707 048a 0600     		.2byte	0x6
 4708 048c 54       		.byte	0x54
 4709 048d 93       		.byte	0x93
 4710 048e 04       		.uleb128 0x4
 4711 048f 55       		.byte	0x55
 4712 0490 93       		.byte	0x93
 4713 0491 04       		.uleb128 0x4
 4714 0492 00000000 		.4byte	0
 4715 0496 00000000 		.4byte	0
 4716              	.LLST33:
 4717 049a 00000000 		.4byte	.LFB4
 4718 049e 04000000 		.4byte	.LCFI7
 4719 04a2 0200     		.2byte	0x2
ARM GAS  /tmp/ccNJIE6Y.s 			page 84


 4720 04a4 7D       		.byte	0x7d
 4721 04a5 00       		.sleb128 0
 4722 04a6 04000000 		.4byte	.LCFI7
 4723 04aa 06000000 		.4byte	.LCFI8
 4724 04ae 0200     		.2byte	0x2
 4725 04b0 7D       		.byte	0x7d
 4726 04b1 24       		.sleb128 36
 4727 04b2 06000000 		.4byte	.LCFI8
 4728 04b6 48010000 		.4byte	.LFE4
 4729 04ba 0300     		.2byte	0x3
 4730 04bc 7D       		.byte	0x7d
 4731 04bd E000     		.sleb128 96
 4732 04bf 00000000 		.4byte	0
 4733 04c3 00000000 		.4byte	0
 4734              	.LLST34:
 4735 04c7 00000000 		.4byte	.LVL139
 4736 04cb 0C000000 		.4byte	.LVL140
 4737 04cf 0100     		.2byte	0x1
 4738 04d1 50       		.byte	0x50
 4739 04d2 0C000000 		.4byte	.LVL140
 4740 04d6 34000000 		.4byte	.LVL147
 4741 04da 0100     		.2byte	0x1
 4742 04dc 56       		.byte	0x56
 4743 04dd 34000000 		.4byte	.LVL147
 4744 04e1 48010000 		.4byte	.LFE4
 4745 04e5 0400     		.2byte	0x4
 4746 04e7 F3       		.byte	0xf3
 4747 04e8 01       		.uleb128 0x1
 4748 04e9 50       		.byte	0x50
 4749 04ea 9F       		.byte	0x9f
 4750 04eb 00000000 		.4byte	0
 4751 04ef 00000000 		.4byte	0
 4752              	.LLST35:
 4753 04f3 00000000 		.4byte	.LVL139
 4754 04f7 0E000000 		.4byte	.LVL141
 4755 04fb 0600     		.2byte	0x6
 4756 04fd 52       		.byte	0x52
 4757 04fe 93       		.byte	0x93
 4758 04ff 04       		.uleb128 0x4
 4759 0500 53       		.byte	0x53
 4760 0501 93       		.byte	0x93
 4761 0502 04       		.uleb128 0x4
 4762 0503 0E000000 		.4byte	.LVL141
 4763 0507 48010000 		.4byte	.LFE4
 4764 050b 0600     		.2byte	0x6
 4765 050d F3       		.byte	0xf3
 4766 050e 03       		.uleb128 0x3
 4767 050f F5       		.byte	0xf5
 4768 0510 02       		.uleb128 0x2
 4769 0511 29       		.uleb128 0x29
 4770 0512 9F       		.byte	0x9f
 4771 0513 00000000 		.4byte	0
 4772 0517 00000000 		.4byte	0
 4773              	.LLST36:
 4774 051b 1A010000 		.4byte	.LVL168
 4775 051f 1D010000 		.4byte	.LVL169-1
 4776 0523 0600     		.2byte	0x6
ARM GAS  /tmp/ccNJIE6Y.s 			page 85


 4777 0525 50       		.byte	0x50
 4778 0526 93       		.byte	0x93
 4779 0527 04       		.uleb128 0x4
 4780 0528 51       		.byte	0x51
 4781 0529 93       		.byte	0x93
 4782 052a 04       		.uleb128 0x4
 4783 052b 22010000 		.4byte	.LVL170
 4784 052f 48010000 		.4byte	.LFE4
 4785 0533 0600     		.2byte	0x6
 4786 0535 56       		.byte	0x56
 4787 0536 93       		.byte	0x93
 4788 0537 04       		.uleb128 0x4
 4789 0538 57       		.byte	0x57
 4790 0539 93       		.byte	0x93
 4791 053a 04       		.uleb128 0x4
 4792 053b 00000000 		.4byte	0
 4793 053f 00000000 		.4byte	0
 4794              	.LLST37:
 4795 0543 2A000000 		.4byte	.LVL145
 4796 0547 86000000 		.4byte	.LVL155
 4797 054b 0600     		.2byte	0x6
 4798 054d 54       		.byte	0x54
 4799 054e 93       		.byte	0x93
 4800 054f 04       		.uleb128 0x4
 4801 0550 55       		.byte	0x55
 4802 0551 93       		.byte	0x93
 4803 0552 04       		.uleb128 0x4
 4804 0553 00000000 		.4byte	0
 4805 0557 00000000 		.4byte	0
 4806              	.LLST38:
 4807 055b 36000000 		.4byte	.LVL148
 4808 055f D8000000 		.4byte	.LVL163
 4809 0563 0600     		.2byte	0x6
 4810 0565 56       		.byte	0x56
 4811 0566 93       		.byte	0x93
 4812 0567 04       		.uleb128 0x4
 4813 0568 57       		.byte	0x57
 4814 0569 93       		.byte	0x93
 4815 056a 04       		.uleb128 0x4
 4816 056b 00000000 		.4byte	0
 4817 056f 00000000 		.4byte	0
 4818              	.LLST39:
 4819 0573 00000000 		.4byte	.LFB5
 4820 0577 04000000 		.4byte	.LCFI9
 4821 057b 0200     		.2byte	0x2
 4822 057d 7D       		.byte	0x7d
 4823 057e 00       		.sleb128 0
 4824 057f 04000000 		.4byte	.LCFI9
 4825 0583 08000000 		.4byte	.LCFI10
 4826 0587 0200     		.2byte	0x2
 4827 0589 7D       		.byte	0x7d
 4828 058a 24       		.sleb128 36
 4829 058b 08000000 		.4byte	.LCFI10
 4830 058f 44010000 		.4byte	.LFE5
 4831 0593 0300     		.2byte	0x3
 4832 0595 7D       		.byte	0x7d
 4833 0596 E000     		.sleb128 96
ARM GAS  /tmp/ccNJIE6Y.s 			page 86


 4834 0598 00000000 		.4byte	0
 4835 059c 00000000 		.4byte	0
 4836              	.LLST40:
 4837 05a0 00000000 		.4byte	.LVL174
 4838 05a4 0C000000 		.4byte	.LVL175
 4839 05a8 0100     		.2byte	0x1
 4840 05aa 50       		.byte	0x50
 4841 05ab 0C000000 		.4byte	.LVL175
 4842 05af 24000000 		.4byte	.LVL179
 4843 05b3 0100     		.2byte	0x1
 4844 05b5 56       		.byte	0x56
 4845 05b6 24000000 		.4byte	.LVL179
 4846 05ba 44010000 		.4byte	.LFE5
 4847 05be 0400     		.2byte	0x4
 4848 05c0 F3       		.byte	0xf3
 4849 05c1 01       		.uleb128 0x1
 4850 05c2 50       		.byte	0x50
 4851 05c3 9F       		.byte	0x9f
 4852 05c4 00000000 		.4byte	0
 4853 05c8 00000000 		.4byte	0
 4854              	.LLST41:
 4855 05cc 00000000 		.4byte	.LVL174
 4856 05d0 13000000 		.4byte	.LVL176-1
 4857 05d4 0600     		.2byte	0x6
 4858 05d6 52       		.byte	0x52
 4859 05d7 93       		.byte	0x93
 4860 05d8 04       		.uleb128 0x4
 4861 05d9 53       		.byte	0x53
 4862 05da 93       		.byte	0x93
 4863 05db 04       		.uleb128 0x4
 4864 05dc 13000000 		.4byte	.LVL176-1
 4865 05e0 44010000 		.4byte	.LFE5
 4866 05e4 0600     		.2byte	0x6
 4867 05e6 F3       		.byte	0xf3
 4868 05e7 03       		.uleb128 0x3
 4869 05e8 F5       		.byte	0xf5
 4870 05e9 02       		.uleb128 0x2
 4871 05ea 29       		.uleb128 0x29
 4872 05eb 9F       		.byte	0x9f
 4873 05ec 00000000 		.4byte	0
 4874 05f0 00000000 		.4byte	0
 4875              	.LLST42:
 4876 05f4 18000000 		.4byte	.LVL177
 4877 05f8 7A000000 		.4byte	.LVL188
 4878 05fc 0600     		.2byte	0x6
 4879 05fe 58       		.byte	0x58
 4880 05ff 93       		.byte	0x93
 4881 0600 04       		.uleb128 0x4
 4882 0601 59       		.byte	0x59
 4883 0602 93       		.byte	0x93
 4884 0603 04       		.uleb128 0x4
 4885 0604 00000000 		.4byte	0
 4886 0608 00000000 		.4byte	0
 4887              	.LLST43:
 4888 060c 26000000 		.4byte	.LVL180
 4889 0610 DC000000 		.4byte	.LVL197
 4890 0614 0600     		.2byte	0x6
ARM GAS  /tmp/ccNJIE6Y.s 			page 87


 4891 0616 56       		.byte	0x56
 4892 0617 93       		.byte	0x93
 4893 0618 04       		.uleb128 0x4
 4894 0619 57       		.byte	0x57
 4895 061a 93       		.byte	0x93
 4896 061b 04       		.uleb128 0x4
 4897 061c 00000000 		.4byte	0
 4898 0620 00000000 		.4byte	0
 4899              	.LLST44:
 4900 0624 1E010000 		.4byte	.LVL202
 4901 0628 21010000 		.4byte	.LVL203-1
 4902 062c 0600     		.2byte	0x6
 4903 062e 50       		.byte	0x50
 4904 062f 93       		.byte	0x93
 4905 0630 04       		.uleb128 0x4
 4906 0631 51       		.byte	0x51
 4907 0632 93       		.byte	0x93
 4908 0633 04       		.uleb128 0x4
 4909 0634 00000000 		.4byte	0
 4910 0638 00000000 		.4byte	0
 4911              	.LLST45:
 4912 063c 00000000 		.4byte	.LFB6
 4913 0640 04000000 		.4byte	.LCFI11
 4914 0644 0200     		.2byte	0x2
 4915 0646 7D       		.byte	0x7d
 4916 0647 00       		.sleb128 0
 4917 0648 04000000 		.4byte	.LCFI11
 4918 064c 6C000000 		.4byte	.LFE6
 4919 0650 0200     		.2byte	0x2
 4920 0652 7D       		.byte	0x7d
 4921 0653 20       		.sleb128 32
 4922 0654 00000000 		.4byte	0
 4923 0658 00000000 		.4byte	0
 4924              	.LLST46:
 4925 065c 00000000 		.4byte	.LVL207
 4926 0660 0E000000 		.4byte	.LVL208
 4927 0664 0100     		.2byte	0x1
 4928 0666 50       		.byte	0x50
 4929 0667 0E000000 		.4byte	.LVL208
 4930 066b 6C000000 		.4byte	.LFE6
 4931 066f 0100     		.2byte	0x1
 4932 0671 58       		.byte	0x58
 4933 0672 00000000 		.4byte	0
 4934 0676 00000000 		.4byte	0
 4935              	.LLST47:
 4936 067a 00000000 		.4byte	.LVL207
 4937 067e 10000000 		.4byte	.LVL209
 4938 0682 0100     		.2byte	0x1
 4939 0684 51       		.byte	0x51
 4940 0685 10000000 		.4byte	.LVL209
 4941 0689 6C000000 		.4byte	.LFE6
 4942 068d 0100     		.2byte	0x1
 4943 068f 59       		.byte	0x59
 4944 0690 00000000 		.4byte	0
 4945 0694 00000000 		.4byte	0
 4946              	.LLST48:
 4947 0698 00000000 		.4byte	.LFB7
ARM GAS  /tmp/ccNJIE6Y.s 			page 88


 4948 069c 04000000 		.4byte	.LCFI12
 4949 06a0 0200     		.2byte	0x2
 4950 06a2 7D       		.byte	0x7d
 4951 06a3 00       		.sleb128 0
 4952 06a4 04000000 		.4byte	.LCFI12
 4953 06a8 06000000 		.4byte	.LCFI13
 4954 06ac 0200     		.2byte	0x2
 4955 06ae 7D       		.byte	0x7d
 4956 06af 24       		.sleb128 36
 4957 06b0 06000000 		.4byte	.LCFI13
 4958 06b4 28010000 		.4byte	.LFE7
 4959 06b8 0300     		.2byte	0x3
 4960 06ba 7D       		.byte	0x7d
 4961 06bb C800     		.sleb128 72
 4962 06bd 00000000 		.4byte	0
 4963 06c1 00000000 		.4byte	0
 4964              	.LLST49:
 4965 06c5 00000000 		.4byte	.LVL220
 4966 06c9 10000000 		.4byte	.LVL221
 4967 06cd 0100     		.2byte	0x1
 4968 06cf 50       		.byte	0x50
 4969 06d0 10000000 		.4byte	.LVL221
 4970 06d4 54000000 		.4byte	.LVL236
 4971 06d8 0100     		.2byte	0x1
 4972 06da 54       		.byte	0x54
 4973 06db 54000000 		.4byte	.LVL236
 4974 06df 28010000 		.4byte	.LFE7
 4975 06e3 0400     		.2byte	0x4
 4976 06e5 F3       		.byte	0xf3
 4977 06e6 01       		.uleb128 0x1
 4978 06e7 50       		.byte	0x50
 4979 06e8 9F       		.byte	0x9f
 4980 06e9 00000000 		.4byte	0
 4981 06ed 00000000 		.4byte	0
 4982              	.LLST50:
 4983 06f1 00000000 		.4byte	.LVL220
 4984 06f5 13000000 		.4byte	.LVL222-1
 4985 06f9 0100     		.2byte	0x1
 4986 06fb 51       		.byte	0x51
 4987 06fc 13000000 		.4byte	.LVL222-1
 4988 0700 28010000 		.4byte	.LFE7
 4989 0704 0200     		.2byte	0x2
 4990 0706 91       		.byte	0x91
 4991 0707 4C       		.sleb128 -52
 4992 0708 00000000 		.4byte	0
 4993 070c 00000000 		.4byte	0
 4994              	.LLST51:
 4995 0710 18000000 		.4byte	.LVL223
 4996 0714 5C000000 		.4byte	.LVL239
 4997 0718 0600     		.2byte	0x6
 4998 071a 56       		.byte	0x56
 4999 071b 93       		.byte	0x93
 5000 071c 04       		.uleb128 0x4
 5001 071d 57       		.byte	0x57
 5002 071e 93       		.byte	0x93
 5003 071f 04       		.uleb128 0x4
 5004 0720 00000000 		.4byte	0
ARM GAS  /tmp/ccNJIE6Y.s 			page 89


 5005 0724 00000000 		.4byte	0
 5006              	.LLST52:
 5007 0728 32000000 		.4byte	.LVL227
 5008 072c 36000000 		.4byte	.LVL228
 5009 0730 0600     		.2byte	0x6
 5010 0732 50       		.byte	0x50
 5011 0733 93       		.byte	0x93
 5012 0734 04       		.uleb128 0x4
 5013 0735 51       		.byte	0x51
 5014 0736 93       		.byte	0x93
 5015 0737 04       		.uleb128 0x4
 5016 0738 36000000 		.4byte	.LVL228
 5017 073c 28010000 		.4byte	.LFE7
 5018 0740 0200     		.2byte	0x2
 5019 0742 7D       		.byte	0x7d
 5020 0743 00       		.sleb128 0
 5021 0744 00000000 		.4byte	0
 5022 0748 00000000 		.4byte	0
 5023              	.LLST53:
 5024 074c 42000000 		.4byte	.LVL231
 5025 0750 86000000 		.4byte	.LVL246
 5026 0754 0600     		.2byte	0x6
 5027 0756 58       		.byte	0x58
 5028 0757 93       		.byte	0x93
 5029 0758 04       		.uleb128 0x4
 5030 0759 59       		.byte	0x59
 5031 075a 93       		.byte	0x93
 5032 075b 04       		.uleb128 0x4
 5033 075c 00000000 		.4byte	0
 5034 0760 00000000 		.4byte	0
 5035              	.LLST54:
 5036 0764 4A000000 		.4byte	.LVL233
 5037 0768 4E000000 		.4byte	.LVL234
 5038 076c 0600     		.2byte	0x6
 5039 076e 50       		.byte	0x50
 5040 076f 93       		.byte	0x93
 5041 0770 04       		.uleb128 0x4
 5042 0771 51       		.byte	0x51
 5043 0772 93       		.byte	0x93
 5044 0773 04       		.uleb128 0x4
 5045 0774 4E000000 		.4byte	.LVL234
 5046 0778 28010000 		.4byte	.LFE7
 5047 077c 0200     		.2byte	0x2
 5048 077e 91       		.byte	0x91
 5049 077f 40       		.sleb128 -64
 5050 0780 00000000 		.4byte	0
 5051 0784 00000000 		.4byte	0
 5052              	.LLST55:
 5053 0788 5E000000 		.4byte	.LVL240
 5054 078c E2000000 		.4byte	.LVL255
 5055 0790 0600     		.2byte	0x6
 5056 0792 56       		.byte	0x56
 5057 0793 93       		.byte	0x93
 5058 0794 04       		.uleb128 0x4
 5059 0795 57       		.byte	0x57
 5060 0796 93       		.byte	0x93
 5061 0797 04       		.uleb128 0x4
ARM GAS  /tmp/ccNJIE6Y.s 			page 90


 5062 0798 00000000 		.4byte	0
 5063 079c 00000000 		.4byte	0
 5064              	.LLST56:
 5065 07a0 56000000 		.4byte	.LVL237
 5066 07a4 68000000 		.4byte	.LVL242
 5067 07a8 0600     		.2byte	0x6
 5068 07aa 54       		.byte	0x54
 5069 07ab 93       		.byte	0x93
 5070 07ac 04       		.uleb128 0x4
 5071 07ad 55       		.byte	0x55
 5072 07ae 93       		.byte	0x93
 5073 07af 04       		.uleb128 0x4
 5074 07b0 00000000 		.4byte	0
 5075 07b4 00000000 		.4byte	0
 5076              	.LLST57:
 5077 07b8 00000000 		.4byte	.LFB8
 5078 07bc 02000000 		.4byte	.LCFI14
 5079 07c0 0200     		.2byte	0x2
 5080 07c2 7D       		.byte	0x7d
 5081 07c3 00       		.sleb128 0
 5082 07c4 02000000 		.4byte	.LCFI14
 5083 07c8 04000000 		.4byte	.LCFI15
 5084 07cc 0200     		.2byte	0x2
 5085 07ce 7D       		.byte	0x7d
 5086 07cf 08       		.sleb128 8
 5087 07d0 04000000 		.4byte	.LCFI15
 5088 07d4 38000000 		.4byte	.LFE8
 5089 07d8 0200     		.2byte	0x2
 5090 07da 7D       		.byte	0x7d
 5091 07db 18       		.sleb128 24
 5092 07dc 00000000 		.4byte	0
 5093 07e0 00000000 		.4byte	0
 5094              	.LLST58:
 5095 07e4 00000000 		.4byte	.LVL261
 5096 07e8 09000000 		.4byte	.LVL262-1
 5097 07ec 0100     		.2byte	0x1
 5098 07ee 50       		.byte	0x50
 5099 07ef 09000000 		.4byte	.LVL262-1
 5100 07f3 38000000 		.4byte	.LFE8
 5101 07f7 0400     		.2byte	0x4
 5102 07f9 F3       		.byte	0xf3
 5103 07fa 01       		.uleb128 0x1
 5104 07fb 50       		.byte	0x50
 5105 07fc 9F       		.byte	0x9f
 5106 07fd 00000000 		.4byte	0
 5107 0801 00000000 		.4byte	0
 5108              	.LLST59:
 5109 0805 00000000 		.4byte	.LVL261
 5110 0809 09000000 		.4byte	.LVL262-1
 5111 080d 0100     		.2byte	0x1
 5112 080f 51       		.byte	0x51
 5113 0810 09000000 		.4byte	.LVL262-1
 5114 0814 38000000 		.4byte	.LFE8
 5115 0818 0100     		.2byte	0x1
 5116 081a 54       		.byte	0x54
 5117 081b 00000000 		.4byte	0
 5118 081f 00000000 		.4byte	0
ARM GAS  /tmp/ccNJIE6Y.s 			page 91


 5119              	.LLST60:
 5120 0823 00000000 		.4byte	.LFB9
 5121 0827 04000000 		.4byte	.LCFI16
 5122 082b 0200     		.2byte	0x2
 5123 082d 7D       		.byte	0x7d
 5124 082e 00       		.sleb128 0
 5125 082f 04000000 		.4byte	.LCFI16
 5126 0833 06000000 		.4byte	.LCFI17
 5127 0837 0200     		.2byte	0x2
 5128 0839 7D       		.byte	0x7d
 5129 083a 24       		.sleb128 36
 5130 083b 06000000 		.4byte	.LCFI17
 5131 083f 30010000 		.4byte	.LFE9
 5132 0843 0300     		.2byte	0x3
 5133 0845 7D       		.byte	0x7d
 5134 0846 C800     		.sleb128 72
 5135 0848 00000000 		.4byte	0
 5136 084c 00000000 		.4byte	0
 5137              	.LLST61:
 5138 0850 00000000 		.4byte	.LVL264
 5139 0854 10000000 		.4byte	.LVL265
 5140 0858 0100     		.2byte	0x1
 5141 085a 50       		.byte	0x50
 5142 085b 10000000 		.4byte	.LVL265
 5143 085f 54000000 		.4byte	.LVL280
 5144 0863 0100     		.2byte	0x1
 5145 0865 54       		.byte	0x54
 5146 0866 54000000 		.4byte	.LVL280
 5147 086a 30010000 		.4byte	.LFE9
 5148 086e 0400     		.2byte	0x4
 5149 0870 F3       		.byte	0xf3
 5150 0871 01       		.uleb128 0x1
 5151 0872 50       		.byte	0x50
 5152 0873 9F       		.byte	0x9f
 5153 0874 00000000 		.4byte	0
 5154 0878 00000000 		.4byte	0
 5155              	.LLST62:
 5156 087c 00000000 		.4byte	.LVL264
 5157 0880 13000000 		.4byte	.LVL266-1
 5158 0884 0100     		.2byte	0x1
 5159 0886 51       		.byte	0x51
 5160 0887 13000000 		.4byte	.LVL266-1
 5161 088b 30010000 		.4byte	.LFE9
 5162 088f 0200     		.2byte	0x2
 5163 0891 91       		.byte	0x91
 5164 0892 4C       		.sleb128 -52
 5165 0893 00000000 		.4byte	0
 5166 0897 00000000 		.4byte	0
 5167              	.LLST63:
 5168 089b 18000000 		.4byte	.LVL267
 5169 089f 5C000000 		.4byte	.LVL283
 5170 08a3 0600     		.2byte	0x6
 5171 08a5 56       		.byte	0x56
 5172 08a6 93       		.byte	0x93
 5173 08a7 04       		.uleb128 0x4
 5174 08a8 57       		.byte	0x57
 5175 08a9 93       		.byte	0x93
ARM GAS  /tmp/ccNJIE6Y.s 			page 92


 5176 08aa 04       		.uleb128 0x4
 5177 08ab 00000000 		.4byte	0
 5178 08af 00000000 		.4byte	0
 5179              	.LLST64:
 5180 08b3 30000000 		.4byte	.LVL271
 5181 08b7 36000000 		.4byte	.LVL272
 5182 08bb 0600     		.2byte	0x6
 5183 08bd 50       		.byte	0x50
 5184 08be 93       		.byte	0x93
 5185 08bf 04       		.uleb128 0x4
 5186 08c0 51       		.byte	0x51
 5187 08c1 93       		.byte	0x93
 5188 08c2 04       		.uleb128 0x4
 5189 08c3 36000000 		.4byte	.LVL272
 5190 08c7 30010000 		.4byte	.LFE9
 5191 08cb 0200     		.2byte	0x2
 5192 08cd 7D       		.byte	0x7d
 5193 08ce 00       		.sleb128 0
 5194 08cf 00000000 		.4byte	0
 5195 08d3 00000000 		.4byte	0
 5196              	.LLST65:
 5197 08d7 42000000 		.4byte	.LVL275
 5198 08db 86000000 		.4byte	.LVL290
 5199 08df 0600     		.2byte	0x6
 5200 08e1 58       		.byte	0x58
 5201 08e2 93       		.byte	0x93
 5202 08e3 04       		.uleb128 0x4
 5203 08e4 59       		.byte	0x59
 5204 08e5 93       		.byte	0x93
 5205 08e6 04       		.uleb128 0x4
 5206 08e7 00000000 		.4byte	0
 5207 08eb 00000000 		.4byte	0
 5208              	.LLST66:
 5209 08ef 4A000000 		.4byte	.LVL277
 5210 08f3 4E000000 		.4byte	.LVL278
 5211 08f7 0600     		.2byte	0x6
 5212 08f9 50       		.byte	0x50
 5213 08fa 93       		.byte	0x93
 5214 08fb 04       		.uleb128 0x4
 5215 08fc 51       		.byte	0x51
 5216 08fd 93       		.byte	0x93
 5217 08fe 04       		.uleb128 0x4
 5218 08ff 4E000000 		.4byte	.LVL278
 5219 0903 30010000 		.4byte	.LFE9
 5220 0907 0200     		.2byte	0x2
 5221 0909 91       		.byte	0x91
 5222 090a 40       		.sleb128 -64
 5223 090b 00000000 		.4byte	0
 5224 090f 00000000 		.4byte	0
 5225              	.LLST67:
 5226 0913 56000000 		.4byte	.LVL281
 5227 0917 68000000 		.4byte	.LVL286
 5228 091b 0600     		.2byte	0x6
 5229 091d 54       		.byte	0x54
 5230 091e 93       		.byte	0x93
 5231 091f 04       		.uleb128 0x4
 5232 0920 55       		.byte	0x55
ARM GAS  /tmp/ccNJIE6Y.s 			page 93


 5233 0921 93       		.byte	0x93
 5234 0922 04       		.uleb128 0x4
 5235 0923 00000000 		.4byte	0
 5236 0927 00000000 		.4byte	0
 5237              	.LLST68:
 5238 092b 5E000000 		.4byte	.LVL284
 5239 092f E2000000 		.4byte	.LVL299
 5240 0933 0600     		.2byte	0x6
 5241 0935 56       		.byte	0x56
 5242 0936 93       		.byte	0x93
 5243 0937 04       		.uleb128 0x4
 5244 0938 57       		.byte	0x57
 5245 0939 93       		.byte	0x93
 5246 093a 04       		.uleb128 0x4
 5247 093b 00000000 		.4byte	0
 5248 093f 00000000 		.4byte	0
 5249              	.LLST69:
 5250 0943 00000000 		.4byte	.LFB10
 5251 0947 02000000 		.4byte	.LCFI18
 5252 094b 0200     		.2byte	0x2
 5253 094d 7D       		.byte	0x7d
 5254 094e 00       		.sleb128 0
 5255 094f 02000000 		.4byte	.LCFI18
 5256 0953 0A000000 		.4byte	.LCFI19
 5257 0957 0200     		.2byte	0x2
 5258 0959 7D       		.byte	0x7d
 5259 095a 0C       		.sleb128 12
 5260 095b 0A000000 		.4byte	.LCFI19
 5261 095f 40000000 		.4byte	.LFE10
 5262 0963 0200     		.2byte	0x2
 5263 0965 7D       		.byte	0x7d
 5264 0966 30       		.sleb128 48
 5265 0967 00000000 		.4byte	0
 5266 096b 00000000 		.4byte	0
 5267              	.LLST70:
 5268 096f 00000000 		.4byte	.LVL305
 5269 0973 1D000000 		.4byte	.LVL306-1
 5270 0977 0100     		.2byte	0x1
 5271 0979 50       		.byte	0x50
 5272 097a 1D000000 		.4byte	.LVL306-1
 5273 097e 40000000 		.4byte	.LFE10
 5274 0982 0400     		.2byte	0x4
 5275 0984 F3       		.byte	0xf3
 5276 0985 01       		.uleb128 0x1
 5277 0986 50       		.byte	0x50
 5278 0987 9F       		.byte	0x9f
 5279 0988 00000000 		.4byte	0
 5280 098c 00000000 		.4byte	0
 5281              	.LLST71:
 5282 0990 00000000 		.4byte	.LVL305
 5283 0994 1D000000 		.4byte	.LVL306-1
 5284 0998 0100     		.2byte	0x1
 5285 099a 51       		.byte	0x51
 5286 099b 1D000000 		.4byte	.LVL306-1
 5287 099f 40000000 		.4byte	.LFE10
 5288 09a3 0100     		.2byte	0x1
 5289 09a5 55       		.byte	0x55
ARM GAS  /tmp/ccNJIE6Y.s 			page 94


 5290 09a6 00000000 		.4byte	0
 5291 09aa 00000000 		.4byte	0
 5292              		.section	.debug_aranges,"",%progbits
 5293 0000 6C000000 		.4byte	0x6c
 5294 0004 0200     		.2byte	0x2
 5295 0006 00000000 		.4byte	.Ldebug_info0
 5296 000a 04       		.byte	0x4
 5297 000b 00       		.byte	0
 5298 000c 0000     		.2byte	0
 5299 000e 0000     		.2byte	0
 5300 0010 00000000 		.4byte	.LFB0
 5301 0014 08010000 		.4byte	.LFE0-.LFB0
 5302 0018 00000000 		.4byte	.LFB2
 5303 001c 60020000 		.4byte	.LFE2-.LFB2
 5304 0020 00000000 		.4byte	.LFB1
 5305 0024 22000000 		.4byte	.LFE1-.LFB1
 5306 0028 00000000 		.4byte	.LFB3
 5307 002c 58010000 		.4byte	.LFE3-.LFB3
 5308 0030 00000000 		.4byte	.LFB4
 5309 0034 48010000 		.4byte	.LFE4-.LFB4
 5310 0038 00000000 		.4byte	.LFB5
 5311 003c 44010000 		.4byte	.LFE5-.LFB5
 5312 0040 00000000 		.4byte	.LFB6
 5313 0044 6C000000 		.4byte	.LFE6-.LFB6
 5314 0048 00000000 		.4byte	.LFB7
 5315 004c 28010000 		.4byte	.LFE7-.LFB7
 5316 0050 00000000 		.4byte	.LFB8
 5317 0054 38000000 		.4byte	.LFE8-.LFB8
 5318 0058 00000000 		.4byte	.LFB9
 5319 005c 30010000 		.4byte	.LFE9-.LFB9
 5320 0060 00000000 		.4byte	.LFB10
 5321 0064 40000000 		.4byte	.LFE10-.LFB10
 5322 0068 00000000 		.4byte	0
 5323 006c 00000000 		.4byte	0
 5324              		.section	.debug_ranges,"",%progbits
 5325              	.Ldebug_ranges0:
 5326 0000 00000000 		.4byte	.LFB0
 5327 0004 08010000 		.4byte	.LFE0
 5328 0008 00000000 		.4byte	.LFB2
 5329 000c 60020000 		.4byte	.LFE2
 5330 0010 00000000 		.4byte	.LFB1
 5331 0014 22000000 		.4byte	.LFE1
 5332 0018 00000000 		.4byte	.LFB3
 5333 001c 58010000 		.4byte	.LFE3
 5334 0020 00000000 		.4byte	.LFB4
 5335 0024 48010000 		.4byte	.LFE4
 5336 0028 00000000 		.4byte	.LFB5
 5337 002c 44010000 		.4byte	.LFE5
 5338 0030 00000000 		.4byte	.LFB6
 5339 0034 6C000000 		.4byte	.LFE6
 5340 0038 00000000 		.4byte	.LFB7
 5341 003c 28010000 		.4byte	.LFE7
 5342 0040 00000000 		.4byte	.LFB8
 5343 0044 38000000 		.4byte	.LFE8
 5344 0048 00000000 		.4byte	.LFB9
 5345 004c 30010000 		.4byte	.LFE9
 5346 0050 00000000 		.4byte	.LFB10
ARM GAS  /tmp/ccNJIE6Y.s 			page 95


 5347 0054 40000000 		.4byte	.LFE10
 5348 0058 00000000 		.4byte	0
 5349 005c 00000000 		.4byte	0
 5350              		.section	.debug_line,"",%progbits
 5351              	.Ldebug_line0:
 5352 0000 68020000 		.section	.debug_str,"MS",%progbits,1
 5352      0200E600 
 5352      00000201 
 5352      FB0E0D00 
 5352      01010101 
 5353              	.LASF69:
 5354 0000 6C6E5F72 		.ascii	"ln_rad_to_deg\000"
 5354      61645F74 
 5354      6F5F6465 
 5354      6700
 5355              	.LASF68:
 5356 000e 6173696E 		.ascii	"asin\000"
 5356      00
 5357              	.LASF37:
 5358 0013 6465636C 		.ascii	"declination\000"
 5358      696E6174 
 5358      696F6E00 
 5359              	.LASF23:
 5360 001f 65636C69 		.ascii	"ecliptic\000"
 5360      70746963 
 5360      00
 5361              	.LASF21:
 5362 0028 6C6F6E67 		.ascii	"longitude\000"
 5362      69747564 
 5362      6500
 5363              	.LASF59:
 5364 0032 6C6E5F67 		.ascii	"ln_get_gal_from_equ\000"
 5364      65745F67 
 5364      616C5F66 
 5364      726F6D5F 
 5364      65717500 
 5365              	.LASF74:
 5366 0046 6C6E5F67 		.ascii	"ln_get_apparent_sidereal_time\000"
 5366      65745F61 
 5366      70706172 
 5366      656E745F 
 5366      73696465 
 5367              	.LASF7:
 5368 0064 6C6F6E67 		.ascii	"long long unsigned int\000"
 5368      206C6F6E 
 5368      6720756E 
 5368      7369676E 
 5368      65642069 
 5369              	.LASF18:
 5370 007b 6C6E5F72 		.ascii	"ln_rect_posn\000"
 5370      6563745F 
 5370      706F736E 
 5370      00
 5371              	.LASF44:
 5372 0088 6E757461 		.ascii	"nutation\000"
 5372      74696F6E 
 5372      00
ARM GAS  /tmp/ccNJIE6Y.s 			page 96


 5373              	.LASF24:
 5374 0091 6F626A65 		.ascii	"object\000"
 5374      637400
 5375              	.LASF6:
 5376 0098 6C6F6E67 		.ascii	"long long int\000"
 5376      206C6F6E 
 5376      6720696E 
 5376      7400
 5377              	.LASF1:
 5378 00a6 7369676E 		.ascii	"signed char\000"
 5378      65642063 
 5378      68617200 
 5379              	.LASF73:
 5380 00b2 6C6E5F67 		.ascii	"ln_get_mean_sidereal_time\000"
 5380      65745F6D 
 5380      65616E5F 
 5380      73696465 
 5380      7265616C 
 5381              	.LASF38:
 5382 00cc 474E5520 		.ascii	"GNU C 4.7.4 20130913 (release) [ARM/embedded-4_7-br"
 5382      4320342E 
 5382      372E3420 
 5382      32303133 
 5382      30393133 
 5383 00ff 616E6368 		.ascii	"anch revision 202601]\000"
 5383      20726576 
 5383      6973696F 
 5383      6E203230 
 5383      32363031 
 5384              	.LASF8:
 5385 0115 6C6F6E67 		.ascii	"long int\000"
 5385      20696E74 
 5385      00
 5386              	.LASF43:
 5387 011e 6C6E5F67 		.ascii	"ln_get_equ_from_ecl\000"
 5387      65745F65 
 5387      71755F66 
 5387      726F6D5F 
 5387      65636C00 
 5388              	.LASF76:
 5389 0132 6C6E5F67 		.ascii	"ln_get_nutation\000"
 5389      65745F6E 
 5389      75746174 
 5389      696F6E00 
 5390              	.LASF29:
 5391 0142 73696E5F 		.ascii	"sin_B\000"
 5391      4200
 5392              	.LASF47:
 5393 0148 72656374 		.ascii	"rect\000"
 5393      00
 5394              	.LASF58:
 5395 014d 6C6E5F67 		.ascii	"ln_get_equ2000_from_gal\000"
 5395      65745F65 
 5395      71753230 
 5395      30305F66 
 5395      726F6D5F 
 5396              	.LASF0:
ARM GAS  /tmp/ccNJIE6Y.s 			page 97


 5397 0165 646F7562 		.ascii	"double\000"
 5397      6C6500
 5398              	.LASF30:
 5399 016c 73696E5F 		.ascii	"sin_L\000"
 5399      4C00
 5400              	.LASF66:
 5401 0172 6571755F 		.ascii	"equ_1950\000"
 5401      31393530 
 5401      00
 5402              	.LASF65:
 5403 017b 6C6E5F67 		.ascii	"ln_get_gal_from_equ2000\000"
 5403      65745F67 
 5403      616C5F66 
 5403      726F6D5F 
 5403      65717532 
 5404              	.LASF40:
 5405 0193 2F426967 		.ascii	"/BigDriver/home/nacho/WORKHOME/programacion/chibiOS"
 5405      44726976 
 5405      65722F68 
 5405      6F6D652F 
 5405      6E616368 
 5406 01c6 2F636869 		.ascii	"/chibios/nacho/lx200\000"
 5406      62696F73 
 5406      2F6E6163 
 5406      686F2F6C 
 5406      78323030 
 5407              	.LASF61:
 5408 01db 636F735F 		.ascii	"cos_ra_192_25\000"
 5408      72615F31 
 5408      39325F32 
 5408      3500
 5409              	.LASF55:
 5410 01e9 73696E5F 		.ascii	"sin_b\000"
 5410      6200
 5411              	.LASF26:
 5412 01ef 73696E5F 		.ascii	"sin_e\000"
 5412      6500
 5413              	.LASF28:
 5414 01f5 636F735F 		.ascii	"cos_B\000"
 5414      4200
 5415              	.LASF77:
 5416 01fb 6C6E5F67 		.ascii	"ln_get_equ_prec2\000"
 5416      65745F65 
 5416      71755F70 
 5416      72656332 
 5416      00
 5417              	.LASF31:
 5418 020c 636F735F 		.ascii	"cos_L\000"
 5418      4C00
 5419              	.LASF41:
 5420 0212 6C6E5F67 		.ascii	"ln_get_hrz_from_equ\000"
 5420      65745F68 
 5420      727A5F66 
 5420      726F6D5F 
 5420      65717500 
 5421              	.LASF33:
 5422 0226 6C6E5F67 		.ascii	"ln_get_hrz_from_equ_sidereal_time\000"
ARM GAS  /tmp/ccNJIE6Y.s 			page 98


 5422      65745F68 
 5422      727A5F66 
 5422      726F6D5F 
 5422      6571755F 
 5423              	.LASF5:
 5424 0248 756E7369 		.ascii	"unsigned int\000"
 5424      676E6564 
 5424      20696E74 
 5424      00
 5425              	.LASF25:
 5426 0255 706F7369 		.ascii	"position\000"
 5426      74696F6E 
 5426      00
 5427              	.LASF62:
 5428 025e 7261645F 		.ascii	"rad_equ_dec\000"
 5428      6571755F 
 5428      64656300 
 5429              	.LASF10:
 5430 026a 6C6F6E67 		.ascii	"long unsigned int\000"
 5430      20756E73 
 5430      69676E65 
 5430      6420696E 
 5430      7400
 5431              	.LASF56:
 5432 027c 636F735F 		.ascii	"cos_b\000"
 5432      6200
 5433              	.LASF27:
 5434 0282 636F735F 		.ascii	"cos_e\000"
 5434      6500
 5435              	.LASF51:
 5436 0288 53494E5F 		.ascii	"SIN_27_4\000"
 5436      32375F34 
 5436      00
 5437              	.LASF4:
 5438 0291 73686F72 		.ascii	"short unsigned int\000"
 5438      7420756E 
 5438      7369676E 
 5438      65642069 
 5438      6E7400
 5439              	.LASF72:
 5440 02a4 6C6E5F72 		.ascii	"ln_range_degrees\000"
 5440      616E6765 
 5440      5F646567 
 5440      72656573 
 5440      00
 5441              	.LASF48:
 5442 02b5 706F736E 		.ascii	"posn\000"
 5442      00
 5443              	.LASF50:
 5444 02ba 5241445F 		.ascii	"RAD_27_4\000"
 5444      32375F34 
 5444      00
 5445              	.LASF63:
 5446 02c3 636F735F 		.ascii	"cos_dec\000"
 5446      64656300 
 5447              	.LASF60:
 5448 02cb 72615F31 		.ascii	"ra_192_25\000"
ARM GAS  /tmp/ccNJIE6Y.s 			page 99


 5448      39325F32 
 5448      3500
 5449              	.LASF53:
 5450 02d5 6C5F3132 		.ascii	"l_123\000"
 5450      3300
 5451              	.LASF9:
 5452 02db 73697A65 		.ascii	"sizetype\000"
 5452      74797065 
 5452      00
 5453              	.LASF13:
 5454 02e4 6C6F6E67 		.ascii	"long double\000"
 5454      20646F75 
 5454      626C6500 
 5455              	.LASF36:
 5456 02f0 6C617469 		.ascii	"latitude\000"
 5456      74756465 
 5456      00
 5457              	.LASF54:
 5458 02f9 636F735F 		.ascii	"cos_l_123\000"
 5458      6C5F3132 
 5458      3300
 5459              	.LASF45:
 5460 0303 6C6E5F67 		.ascii	"ln_get_ecl_from_equ\000"
 5460      65745F65 
 5460      636C5F66 
 5460      726F6D5F 
 5460      65717500 
 5461              	.LASF49:
 5462 0317 6C6E5F67 		.ascii	"ln_get_equ_from_gal\000"
 5462      65745F65 
 5462      71755F66 
 5462      726F6D5F 
 5462      67616C00 
 5463              	.LASF35:
 5464 032b 73696465 		.ascii	"sidereal\000"
 5464      7265616C 
 5464      00
 5465              	.LASF12:
 5466 0334 666C6F61 		.ascii	"float\000"
 5466      7400
 5467              	.LASF22:
 5468 033a 6F626C69 		.ascii	"obliquity\000"
 5468      71756974 
 5468      7900
 5469              	.LASF2:
 5470 0344 756E7369 		.ascii	"unsigned char\000"
 5470      676E6564 
 5470      20636861 
 5470      7200
 5471              	.LASF42:
 5472 0352 6C6E5F67 		.ascii	"ln_get_equ_from_hrz\000"
 5472      65745F65 
 5472      71755F66 
 5472      726F6D5F 
 5472      68727A00 
 5473              	.LASF3:
 5474 0366 73686F72 		.ascii	"short int\000"
ARM GAS  /tmp/ccNJIE6Y.s 			page 100


 5474      7420696E 
 5474      7400
 5475              	.LASF71:
 5476 0370 6174616E 		.ascii	"atan2\000"
 5476      3200
 5477              	.LASF34:
 5478 0376 6F627365 		.ascii	"observer\000"
 5478      72766572 
 5478      00
 5479              	.LASF70:
 5480 037f 61636F73 		.ascii	"acos\000"
 5480      00
 5481              	.LASF11:
 5482 0384 63686172 		.ascii	"char\000"
 5482      00
 5483              	.LASF16:
 5484 0389 6C6E5F6C 		.ascii	"ln_lnlat_posn\000"
 5484      6E6C6174 
 5484      5F706F73 
 5484      6E00
 5485              	.LASF15:
 5486 0397 6C6E5F68 		.ascii	"ln_hrz_posn\000"
 5486      727A5F70 
 5486      6F736E00 
 5487              	.LASF19:
 5488 03a3 6C6E5F67 		.ascii	"ln_gal_posn\000"
 5488      616C5F70 
 5488      6F736E00 
 5489              	.LASF67:
 5490 03af 6C6E5F64 		.ascii	"ln_deg_to_rad\000"
 5490      65675F74 
 5490      6F5F7261 
 5490      6400
 5491              	.LASF20:
 5492 03bd 6C6E5F6E 		.ascii	"ln_nutation\000"
 5492      75746174 
 5492      696F6E00 
 5493              	.LASF39:
 5494 03c9 2E2F6C69 		.ascii	"./libnova/src/transform.c\000"
 5494      626E6F76 
 5494      612F7372 
 5494      632F7472 
 5494      616E7366 
 5495              	.LASF32:
 5496 03e3 6C6E5F67 		.ascii	"ln_get_rect_from_helio\000"
 5496      65745F72 
 5496      6563745F 
 5496      66726F6D 
 5496      5F68656C 
 5497              	.LASF46:
 5498 03fa 6C6E5F67 		.ascii	"ln_get_ecl_from_rect\000"
 5498      65745F65 
 5498      636C5F66 
 5498      726F6D5F 
 5498      72656374 
 5499              	.LASF75:
 5500 040f 73717274 		.ascii	"sqrt\000"
ARM GAS  /tmp/ccNJIE6Y.s 			page 101


 5500      00
 5501              	.LASF17:
 5502 0414 6C6E5F68 		.ascii	"ln_helio_posn\000"
 5502      656C696F 
 5502      5F706F73 
 5502      6E00
 5503              	.LASF52:
 5504 0422 434F535F 		.ascii	"COS_27_4\000"
 5504      32375F34 
 5504      00
 5505              	.LASF57:
 5506 042b 7261645F 		.ascii	"rad_gal_b\000"
 5506      67616C5F 
 5506      6200
 5507              	.LASF64:
 5508 0435 73696E5F 		.ascii	"sin_dec\000"
 5508      64656300 
 5509              	.LASF14:
 5510 043d 6C6E5F65 		.ascii	"ln_equ_posn\000"
 5510      71755F70 
 5510      6F736E00 
 5511              		.ident	"GCC: (GNU Tools for ARM Embedded Processors) 4.7.4 20130913 (release) [ARM/embedded-4_7-br
ARM GAS  /tmp/ccNJIE6Y.s 			page 102


DEFINED SYMBOLS
                            *ABS*:0000000000000000 transform.c
     /tmp/ccNJIE6Y.s:22     .text.ln_get_rect_from_helio:0000000000000000 $t
     /tmp/ccNJIE6Y.s:28     .text.ln_get_rect_from_helio:0000000000000000 ln_get_rect_from_helio
     /tmp/ccNJIE6Y.s:180    .text.ln_get_rect_from_helio:00000000000000f8 $d
     /tmp/ccNJIE6Y.s:192    .text.ln_get_hrz_from_equ_sidereal_time:0000000000000000 $t
     /tmp/ccNJIE6Y.s:198    .text.ln_get_hrz_from_equ_sidereal_time:0000000000000000 ln_get_hrz_from_equ_sidereal_time
     /tmp/ccNJIE6Y.s:540    .text.ln_get_hrz_from_equ_sidereal_time:0000000000000250 $d
     /tmp/ccNJIE6Y.s:548    .text.ln_get_hrz_from_equ:0000000000000000 $t
     /tmp/ccNJIE6Y.s:554    .text.ln_get_hrz_from_equ:0000000000000000 ln_get_hrz_from_equ
     /tmp/ccNJIE6Y.s:597    .text.ln_get_equ_from_hrz:0000000000000000 $t
     /tmp/ccNJIE6Y.s:603    .text.ln_get_equ_from_hrz:0000000000000000 ln_get_equ_from_hrz
     /tmp/ccNJIE6Y.s:798    .text.ln_get_equ_from_hrz:0000000000000150 $d
     /tmp/ccNJIE6Y.s:804    .text.ln_get_equ_from_ecl:0000000000000000 $t
     /tmp/ccNJIE6Y.s:810    .text.ln_get_equ_from_ecl:0000000000000000 ln_get_equ_from_ecl
     /tmp/ccNJIE6Y.s:1000   .text.ln_get_ecl_from_equ:0000000000000000 $t
     /tmp/ccNJIE6Y.s:1006   .text.ln_get_ecl_from_equ:0000000000000000 ln_get_ecl_from_equ
     /tmp/ccNJIE6Y.s:1197   .text.ln_get_ecl_from_rect:0000000000000000 $t
     /tmp/ccNJIE6Y.s:1203   .text.ln_get_ecl_from_rect:0000000000000000 ln_get_ecl_from_rect
     /tmp/ccNJIE6Y.s:1281   .text.ln_get_equ_from_gal:0000000000000000 $t
     /tmp/ccNJIE6Y.s:1287   .text.ln_get_equ_from_gal:0000000000000000 ln_get_equ_from_gal
     /tmp/ccNJIE6Y.s:1462   .text.ln_get_equ_from_gal:0000000000000118 $d
     /tmp/ccNJIE6Y.s:1470   .text.ln_get_equ2000_from_gal:0000000000000000 $t
     /tmp/ccNJIE6Y.s:1476   .text.ln_get_equ2000_from_gal:0000000000000000 ln_get_equ2000_from_gal
     /tmp/ccNJIE6Y.s:1512   .text.ln_get_equ2000_from_gal:0000000000000028 $d
     /tmp/ccNJIE6Y.s:1520   .text.ln_get_gal_from_equ:0000000000000000 $t
     /tmp/ccNJIE6Y.s:1526   .text.ln_get_gal_from_equ:0000000000000000 ln_get_gal_from_equ
     /tmp/ccNJIE6Y.s:1702   .text.ln_get_gal_from_equ:0000000000000118 $d
     /tmp/ccNJIE6Y.s:1712   .text.ln_get_gal_from_equ2000:0000000000000000 $t
     /tmp/ccNJIE6Y.s:1718   .text.ln_get_gal_from_equ2000:0000000000000000 ln_get_gal_from_equ2000
     /tmp/ccNJIE6Y.s:1760   .text.ln_get_gal_from_equ2000:0000000000000030 $d
                     .debug_frame:0000000000000010 $d
     /tmp/ccNJIE6Y.s:191    .text.ln_get_rect_from_helio:0000000000000108 $t
     /tmp/ccNJIE6Y.s:803    .text.ln_get_equ_from_hrz:0000000000000158 $t
     /tmp/ccNJIE6Y.s:1469   .text.ln_get_equ_from_gal:0000000000000128 $t
     /tmp/ccNJIE6Y.s:1519   .text.ln_get_equ2000_from_gal:0000000000000038 $t

UNDEFINED SYMBOLS
__aeabi_dmul
__aeabi_dsub
__aeabi_dadd
ln_deg_to_rad
cos
sin
__aeabi_dcmplt
__aeabi_dcmpgt
__aeabi_ddiv
__aeabi_dcmpeq
asin
ln_rad_to_deg
acos
atan2
ln_range_degrees
ln_get_mean_sidereal_time
tan
ln_get_apparent_sidereal_time
ln_get_nutation
ARM GAS  /tmp/ccNJIE6Y.s 			page 103


sqrt
ln_get_equ_prec2
