ARM GAS  /tmp/ccwjq9u9.s 			page 1


   1              		.syntax unified
   2              		.cpu cortex-m4
   3              		.fpu softvfp
   4              		.eabi_attribute 20, 1
   5              		.eabi_attribute 21, 1
   6              		.eabi_attribute 23, 3
   7              		.eabi_attribute 24, 1
   8              		.eabi_attribute 25, 1
   9              		.eabi_attribute 26, 1
  10              		.eabi_attribute 30, 2
  11              		.eabi_attribute 34, 1
  12              		.eabi_attribute 18, 4
  13              		.thumb
  14              		.file	"usb.c"
  15              		.text
  16              	.Ltext0:
  17              		.cfi_sections	.debug_frame
  18              		.section	.text.usbInit,"ax",%progbits
  19              		.align	2
  20              		.p2align 4,,15
  21              		.global	usbInit
  22              		.thumb
  23              		.thumb_func
  24              		.type	usbInit, %function
  25              	usbInit:
  26              	.LFB120:
  27              		.file 1 "../../os/hal/src/usb.c"
  28              		.loc 1 228 0
  29              		.cfi_startproc
  30              		@ args = 0, pretend = 0, frame = 0
  31              		@ frame_needed = 0, uses_anonymous_args = 0
  32              		@ link register save eliminated.
  33              		.loc 1 231 0
  34              		.loc 1 230 0
  35 0000 FFF7FEBF 		b	usb_lld_init
  36              	.LVL0:
  37              		.cfi_endproc
  38              	.LFE120:
  39              		.size	usbInit, .-usbInit
  40 0004 AFF30080 		.section	.text.usbObjectInit,"ax",%progbits
  40      AFF30080 
  40      AFF30080 
  41              		.align	2
  42              		.p2align 4,,15
  43              		.global	usbObjectInit
  44              		.thumb
  45              		.thumb_func
  46              		.type	usbObjectInit, %function
  47              	usbObjectInit:
  48              	.LFB121:
  49              		.loc 1 240 0
  50              		.cfi_startproc
  51              		@ args = 0, pretend = 0, frame = 0
  52              		@ frame_needed = 0, uses_anonymous_args = 0
  53              		@ link register save eliminated.
  54              	.LVL1:
  55              		.loc 1 243 0
ARM GAS  /tmp/ccwjq9u9.s 			page 2


  56 0000 0023     		movs	r3, #0
  57              		.loc 1 242 0
  58 0002 0122     		movs	r2, #1
  59 0004 0270     		strb	r2, [r0, #0]
  60              		.loc 1 243 0
  61 0006 4360     		str	r3, [r0, #4]
  62              		.loc 1 244 0
  63 0008 8360     		str	r3, [r0, #8]
  64              		.loc 1 245 0
  65 000a 8381     		strh	r3, [r0, #12]	@ movhi
  66              		.loc 1 246 0
  67 000c C381     		strh	r3, [r0, #14]	@ movhi
  68 000e 7047     		bx	lr
  69              		.cfi_endproc
  70              	.LFE121:
  71              		.size	usbObjectInit, .-usbObjectInit
  72              		.section	.text.usbStart,"ax",%progbits
  73              		.align	2
  74              		.p2align 4,,15
  75              		.global	usbStart
  76              		.thumb
  77              		.thumb_func
  78              		.type	usbStart, %function
  79              	usbStart:
  80              	.LFB122:
  81              		.loc 1 257 0
  82              		.cfi_startproc
  83              		@ args = 0, pretend = 0, frame = 0
  84              		@ frame_needed = 0, uses_anonymous_args = 0
  85              	.LVL2:
  86 0000 38B5     		push	{r3, r4, r5, lr}
  87              	.LCFI0:
  88              		.cfi_def_cfa_offset 16
  89              		.cfi_offset 3, -16
  90              		.cfi_offset 4, -12
  91              		.cfi_offset 5, -8
  92              		.cfi_offset 14, -4
  93              		.loc 1 257 0
  94 0002 0446     		mov	r4, r0
  95              	.LBB2:
  96              		.loc 1 262 0
  97 0004 2023     		movs	r3, #32
  98              	.LVL3:
  99              	@ 262 "../../os/hal/src/usb.c" 1
 100 0006 83F31188 		msr     BASEPRI, r3
 101              	@ 0 "" 2
 102              	.LVL4:
 103              		.thumb
 104              	.LBE2:
 105              		.loc 1 267 0
 106 000a 0025     		movs	r5, #0
 107              		.loc 1 265 0
 108 000c 4160     		str	r1, [r0, #4]
 109              	.LVL5:
 110              		.loc 1 267 0
 111 000e 0561     		str	r5, [r0, #16]
 112              	.LVL6:
ARM GAS  /tmp/ccwjq9u9.s 			page 3


 113 0010 4561     		str	r5, [r0, #20]
 114              	.LVL7:
 115 0012 8561     		str	r5, [r0, #24]
 116              	.LVL8:
 117 0014 C561     		str	r5, [r0, #28]
 118              	.LVL9:
 119              		.loc 1 268 0
 120 0016 FFF7FEFF 		bl	usb_lld_start
 121              	.LVL10:
 122              		.loc 1 269 0
 123 001a 0223     		movs	r3, #2
 124 001c 2370     		strb	r3, [r4, #0]
 125              	.LBB3:
 126              		.loc 1 270 0
 127 001e 2B46     		mov	r3, r5
 128              	.LVL11:
 129              	@ 270 "../../os/hal/src/usb.c" 1
 130 0020 83F31188 		msr     BASEPRI, r3
 131              	@ 0 "" 2
 132              	.LVL12:
 133              		.thumb
 134 0024 38BD     		pop	{r3, r4, r5, pc}
 135              	.LBE3:
 136              		.cfi_endproc
 137              	.LFE122:
 138              		.size	usbStart, .-usbStart
 139 0026 00BFAFF3 		.section	.text.usbStop,"ax",%progbits
 139      0080AFF3 
 139      0080
 140              		.align	2
 141              		.p2align 4,,15
 142              		.global	usbStop
 143              		.thumb
 144              		.thumb_func
 145              		.type	usbStop, %function
 146              	usbStop:
 147              	.LFB123:
 148              		.loc 1 280 0
 149              		.cfi_startproc
 150              		@ args = 0, pretend = 0, frame = 0
 151              		@ frame_needed = 0, uses_anonymous_args = 0
 152              	.LVL13:
 153 0000 10B5     		push	{r4, lr}
 154              	.LCFI1:
 155              		.cfi_def_cfa_offset 8
 156              		.cfi_offset 4, -8
 157              		.cfi_offset 14, -4
 158              	.LBB4:
 159              		.loc 1 284 0
 160 0002 2023     		movs	r3, #32
 161              	.LVL14:
 162              	.LBE4:
 163              		.loc 1 280 0
 164 0004 0446     		mov	r4, r0
 165              	.LBB5:
 166              		.loc 1 284 0
 167              	@ 284 "../../os/hal/src/usb.c" 1
ARM GAS  /tmp/ccwjq9u9.s 			page 4


 168 0006 83F31188 		msr     BASEPRI, r3
 169              	@ 0 "" 2
 170              	.LVL15:
 171              		.thumb
 172              	.LBE5:
 173              		.loc 1 287 0
 174 000a FFF7FEFF 		bl	usb_lld_stop
 175              	.LVL16:
 176              		.loc 1 288 0
 177 000e 0123     		movs	r3, #1
 178 0010 2370     		strb	r3, [r4, #0]
 179              	.LBB6:
 180              		.loc 1 289 0
 181 0012 0023     		movs	r3, #0
 182              	.LVL17:
 183              	@ 289 "../../os/hal/src/usb.c" 1
 184 0014 83F31188 		msr     BASEPRI, r3
 185              	@ 0 "" 2
 186              	.LVL18:
 187              		.thumb
 188 0018 10BD     		pop	{r4, pc}
 189              	.LBE6:
 190              		.cfi_endproc
 191              	.LFE123:
 192              		.size	usbStop, .-usbStop
 193 001a 00BFAFF3 		.section	.text.usbInitEndpointI,"ax",%progbits
 193      0080
 194              		.align	2
 195              		.p2align 4,,15
 196              		.global	usbInitEndpointI
 197              		.thumb
 198              		.thumb_func
 199              		.type	usbInitEndpointI, %function
 200              	usbInitEndpointI:
 201              	.LFB124:
 202              		.loc 1 306 0
 203              		.cfi_startproc
 204              		@ args = 0, pretend = 0, frame = 0
 205              		@ frame_needed = 0, uses_anonymous_args = 0
 206              	.LVL19:
 207 0000 70B5     		push	{r4, r5, r6, lr}
 208              	.LCFI2:
 209              		.cfi_def_cfa_offset 16
 210              		.cfi_offset 4, -16
 211              		.cfi_offset 5, -12
 212              		.cfi_offset 6, -8
 213              		.cfi_offset 14, -4
 214              		.loc 1 306 0
 215 0002 0646     		mov	r6, r0
 216              		.loc 1 316 0
 217 0004 5069     		ldr	r0, [r2, #20]
 218              	.LVL20:
 219              		.loc 1 306 0
 220 0006 1446     		mov	r4, r2
 221 0008 0D46     		mov	r5, r1
 222              		.loc 1 316 0
 223 000a 18B1     		cbz	r0, .L6
ARM GAS  /tmp/ccwjq9u9.s 			page 5


 224              		.loc 1 317 0
 225 000c 0021     		movs	r1, #0
 226              	.LVL21:
 227 000e 1022     		movs	r2, #16
 228              	.LVL22:
 229 0010 FFF7FEFF 		bl	memset
 230              	.LVL23:
 231              	.L6:
 232              		.loc 1 318 0
 233 0014 A069     		ldr	r0, [r4, #24]
 234 0016 18B1     		cbz	r0, .L7
 235              		.loc 1 319 0
 236 0018 0021     		movs	r1, #0
 237 001a 1022     		movs	r2, #16
 238 001c FFF7FEFF 		bl	memset
 239              	.LVL24:
 240              	.L7:
 241              		.loc 1 321 0
 242 0020 2B1D     		adds	r3, r5, #4
 243              		.loc 1 324 0
 244 0022 3046     		mov	r0, r6
 245 0024 2946     		mov	r1, r5
 246              		.loc 1 321 0
 247 0026 46F82340 		str	r4, [r6, r3, lsl #2]
 248              		.loc 1 325 0
 249 002a BDE87040 		pop	{r4, r5, r6, lr}
 250              		.loc 1 324 0
 251 002e FFF7FEBF 		b	usb_lld_init_endpoint
 252              	.LVL25:
 253              		.cfi_endproc
 254              	.LFE124:
 255              		.size	usbInitEndpointI, .-usbInitEndpointI
 256 0032 00BFAFF3 		.section	.text.usbDisableEndpointsI,"ax",%progbits
 256      0080AFF3 
 256      0080AFF3 
 256      0080
 257              		.align	2
 258              		.p2align 4,,15
 259              		.global	usbDisableEndpointsI
 260              		.thumb
 261              		.thumb_func
 262              		.type	usbDisableEndpointsI, %function
 263              	usbDisableEndpointsI:
 264              	.LFB125:
 265              		.loc 1 338 0
 266              		.cfi_startproc
 267              		@ args = 0, pretend = 0, frame = 0
 268              		@ frame_needed = 0, uses_anonymous_args = 0
 269              		@ link register save eliminated.
 270              	.LVL26:
 271 0000 10B4     		push	{r4}
 272              	.LCFI3:
 273              		.cfi_def_cfa_offset 4
 274              		.cfi_offset 4, -4
 275              		.loc 1 347 0
 276 0002 C189     		ldrh	r1, [r0, #14]
 277              		.loc 1 346 0
ARM GAS  /tmp/ccwjq9u9.s 			page 6


 278 0004 8489     		ldrh	r4, [r0, #12]
 279              		.loc 1 349 0
 280 0006 0022     		movs	r2, #0
 281              		.loc 1 346 0
 282 0008 24F00104 		bic	r4, r4, #1
 283              		.loc 1 347 0
 284 000c 21F00101 		bic	r1, r1, #1
 285              		.loc 1 349 0
 286 0010 4261     		str	r2, [r0, #20]
 287              		.loc 1 346 0
 288 0012 8481     		strh	r4, [r0, #12]	@ movhi
 289              		.loc 1 347 0
 290 0014 C181     		strh	r1, [r0, #14]	@ movhi
 291              	.LVL27:
 292              		.loc 1 349 0
 293 0016 8261     		str	r2, [r0, #24]
 294              	.LVL28:
 295 0018 C261     		str	r2, [r0, #28]
 296              	.LVL29:
 297              		.loc 1 353 0
 298 001a 10BC     		pop	{r4}
 299              		.loc 1 352 0
 300 001c FFF7FEBF 		b	usb_lld_disable_endpoints
 301              	.LVL30:
 302              		.cfi_endproc
 303              	.LFE125:
 304              		.size	usbDisableEndpointsI, .-usbDisableEndpointsI
 305              		.section	.text.usbPrepareReceive,"ax",%progbits
 306              		.align	2
 307              		.p2align 4,,15
 308              		.global	usbPrepareReceive
 309              		.thumb
 310              		.thumb_func
 311              		.type	usbPrepareReceive, %function
 312              	usbPrepareReceive:
 313              	.LFB126:
 314              		.loc 1 367 0
 315              		.cfi_startproc
 316              		@ args = 0, pretend = 0, frame = 0
 317              		@ frame_needed = 0, uses_anonymous_args = 0
 318              		@ link register save eliminated.
 319              	.LVL31:
 320 0000 30B4     		push	{r4, r5}
 321              	.LCFI4:
 322              		.cfi_def_cfa_offset 8
 323              		.cfi_offset 4, -8
 324              		.cfi_offset 5, -4
 325              		.loc 1 368 0
 326 0002 0C1D     		adds	r4, r1, #4
 327              		.loc 1 370 0
 328 0004 0025     		movs	r5, #0
 329              		.loc 1 368 0
 330 0006 50F82440 		ldr	r4, [r0, r4, lsl #2]
 331 000a A469     		ldr	r4, [r4, #24]
 332              	.LVL32:
 333              		.loc 1 370 0
 334 000c 2560     		str	r5, [r4, #0]
ARM GAS  /tmp/ccwjq9u9.s 			page 7


 335              		.loc 1 371 0
 336 000e E260     		str	r2, [r4, #12]
 337              		.loc 1 372 0
 338 0010 6360     		str	r3, [r4, #4]
 339              		.loc 1 373 0
 340 0012 A560     		str	r5, [r4, #8]
 341              		.loc 1 376 0
 342 0014 30BC     		pop	{r4, r5}
 343              		.loc 1 375 0
 344 0016 FFF7FEBF 		b	usb_lld_prepare_receive
 345              	.LVL33:
 346              		.cfi_endproc
 347              	.LFE126:
 348              		.size	usbPrepareReceive, .-usbPrepareReceive
 349 001a 00BFAFF3 		.section	.text.usbPrepareTransmit,"ax",%progbits
 349      0080
 350              		.align	2
 351              		.p2align 4,,15
 352              		.global	usbPrepareTransmit
 353              		.thumb
 354              		.thumb_func
 355              		.type	usbPrepareTransmit, %function
 356              	usbPrepareTransmit:
 357              	.LFB127:
 358              		.loc 1 393 0
 359              		.cfi_startproc
 360              		@ args = 0, pretend = 0, frame = 0
 361              		@ frame_needed = 0, uses_anonymous_args = 0
 362              		@ link register save eliminated.
 363              	.LVL34:
 364 0000 30B4     		push	{r4, r5}
 365              	.LCFI5:
 366              		.cfi_def_cfa_offset 8
 367              		.cfi_offset 4, -8
 368              		.cfi_offset 5, -4
 369              		.loc 1 394 0
 370 0002 0C1D     		adds	r4, r1, #4
 371              		.loc 1 396 0
 372 0004 0025     		movs	r5, #0
 373              		.loc 1 394 0
 374 0006 50F82440 		ldr	r4, [r0, r4, lsl #2]
 375 000a 6469     		ldr	r4, [r4, #20]
 376              	.LVL35:
 377              		.loc 1 396 0
 378 000c 2560     		str	r5, [r4, #0]
 379              		.loc 1 397 0
 380 000e E260     		str	r2, [r4, #12]
 381              		.loc 1 398 0
 382 0010 6360     		str	r3, [r4, #4]
 383              		.loc 1 399 0
 384 0012 A560     		str	r5, [r4, #8]
 385              		.loc 1 402 0
 386 0014 30BC     		pop	{r4, r5}
 387              		.loc 1 401 0
 388 0016 FFF7FEBF 		b	usb_lld_prepare_transmit
 389              	.LVL36:
 390              		.cfi_endproc
ARM GAS  /tmp/ccwjq9u9.s 			page 8


 391              	.LFE127:
 392              		.size	usbPrepareTransmit, .-usbPrepareTransmit
 393 001a 00BFAFF3 		.section	.text.usbPrepareQueuedReceive,"ax",%progbits
 393      0080
 394              		.align	2
 395              		.p2align 4,,15
 396              		.global	usbPrepareQueuedReceive
 397              		.thumb
 398              		.thumb_func
 399              		.type	usbPrepareQueuedReceive, %function
 400              	usbPrepareQueuedReceive:
 401              	.LFB128:
 402              		.loc 1 422 0
 403              		.cfi_startproc
 404              		@ args = 0, pretend = 0, frame = 0
 405              		@ frame_needed = 0, uses_anonymous_args = 0
 406              		@ link register save eliminated.
 407              	.LVL37:
 408 0000 30B4     		push	{r4, r5}
 409              	.LCFI6:
 410              		.cfi_def_cfa_offset 8
 411              		.cfi_offset 4, -8
 412              		.cfi_offset 5, -4
 413              		.loc 1 423 0
 414 0002 0C1D     		adds	r4, r1, #4
 415 0004 50F82450 		ldr	r5, [r0, r4, lsl #2]
 416 0008 AC69     		ldr	r4, [r5, #24]
 417              	.LVL38:
 418              		.loc 1 425 0
 419 000a 0125     		movs	r5, #1
 420              		.loc 1 427 0
 421 000c 6360     		str	r3, [r4, #4]
 422              		.loc 1 428 0
 423 000e 0023     		movs	r3, #0
 424              	.LVL39:
 425              		.loc 1 425 0
 426 0010 2560     		str	r5, [r4, #0]
 427              		.loc 1 426 0
 428 0012 E260     		str	r2, [r4, #12]
 429              		.loc 1 428 0
 430 0014 A360     		str	r3, [r4, #8]
 431              		.loc 1 431 0
 432 0016 30BC     		pop	{r4, r5}
 433              		.loc 1 430 0
 434 0018 FFF7FEBF 		b	usb_lld_prepare_receive
 435              	.LVL40:
 436              		.cfi_endproc
 437              	.LFE128:
 438              		.size	usbPrepareQueuedReceive, .-usbPrepareQueuedReceive
 439 001c AFF30080 		.section	.text.usbPrepareQueuedTransmit,"ax",%progbits
 440              		.align	2
 441              		.p2align 4,,15
 442              		.global	usbPrepareQueuedTransmit
 443              		.thumb
 444              		.thumb_func
 445              		.type	usbPrepareQueuedTransmit, %function
 446              	usbPrepareQueuedTransmit:
ARM GAS  /tmp/ccwjq9u9.s 			page 9


 447              	.LFB129:
 448              		.loc 1 448 0
 449              		.cfi_startproc
 450              		@ args = 0, pretend = 0, frame = 0
 451              		@ frame_needed = 0, uses_anonymous_args = 0
 452              		@ link register save eliminated.
 453              	.LVL41:
 454 0000 30B4     		push	{r4, r5}
 455              	.LCFI7:
 456              		.cfi_def_cfa_offset 8
 457              		.cfi_offset 4, -8
 458              		.cfi_offset 5, -4
 459              		.loc 1 449 0
 460 0002 0C1D     		adds	r4, r1, #4
 461 0004 50F82450 		ldr	r5, [r0, r4, lsl #2]
 462 0008 6C69     		ldr	r4, [r5, #20]
 463              	.LVL42:
 464              		.loc 1 451 0
 465 000a 0125     		movs	r5, #1
 466              		.loc 1 453 0
 467 000c 6360     		str	r3, [r4, #4]
 468              		.loc 1 454 0
 469 000e 0023     		movs	r3, #0
 470              	.LVL43:
 471              		.loc 1 451 0
 472 0010 2560     		str	r5, [r4, #0]
 473              		.loc 1 452 0
 474 0012 E260     		str	r2, [r4, #12]
 475              		.loc 1 454 0
 476 0014 A360     		str	r3, [r4, #8]
 477              		.loc 1 457 0
 478 0016 30BC     		pop	{r4, r5}
 479              		.loc 1 456 0
 480 0018 FFF7FEBF 		b	usb_lld_prepare_transmit
 481              	.LVL44:
 482              		.cfi_endproc
 483              	.LFE129:
 484              		.size	usbPrepareQueuedTransmit, .-usbPrepareQueuedTransmit
 485 001c AFF30080 		.section	.text.usbStartReceiveI,"ax",%progbits
 486              		.align	2
 487              		.p2align 4,,15
 488              		.global	usbStartReceiveI
 489              		.thumb
 490              		.thumb_func
 491              		.type	usbStartReceiveI, %function
 492              	usbStartReceiveI:
 493              	.LFB130:
 494              		.loc 1 473 0
 495              		.cfi_startproc
 496              		@ args = 0, pretend = 0, frame = 0
 497              		@ frame_needed = 0, uses_anonymous_args = 0
 498              	.LVL45:
 499 0000 70B5     		push	{r4, r5, r6, lr}
 500              	.LCFI8:
 501              		.cfi_def_cfa_offset 16
 502              		.cfi_offset 4, -16
 503              		.cfi_offset 5, -12
ARM GAS  /tmp/ccwjq9u9.s 			page 10


 504              		.cfi_offset 6, -8
 505              		.cfi_offset 14, -4
 506              		.loc 1 478 0
 507 0002 C489     		ldrh	r4, [r0, #14]
 508 0004 44FA01F3 		asr	r3, r4, r1
 509 0008 13F00106 		ands	r6, r3, #1
 510              		.loc 1 473 0
 511 000c 0D46     		mov	r5, r1
 512              		.loc 1 478 0
 513 000e 01D0     		beq	.L23
 514              		.loc 1 479 0
 515 0010 0120     		movs	r0, #1
 516              	.LVL46:
 517              		.loc 1 484 0
 518 0012 70BD     		pop	{r4, r5, r6, pc}
 519              	.LVL47:
 520              	.L23:
 521              		.loc 1 481 0
 522 0014 0123     		movs	r3, #1
 523 0016 03FA01F5 		lsl	r5, r3, r1
 524 001a 2C43     		orrs	r4, r4, r5
 525 001c C481     		strh	r4, [r0, #14]	@ movhi
 526              		.loc 1 482 0
 527 001e FFF7FEFF 		bl	usb_lld_start_out
 528              	.LVL48:
 529              		.loc 1 483 0
 530 0022 3046     		mov	r0, r6
 531 0024 70BD     		pop	{r4, r5, r6, pc}
 532              		.cfi_endproc
 533              	.LFE130:
 534              		.size	usbStartReceiveI, .-usbStartReceiveI
 535 0026 00BFAFF3 		.section	.text.usbStartTransmitI,"ax",%progbits
 535      0080AFF3 
 535      0080
 536              		.align	2
 537              		.p2align 4,,15
 538              		.global	usbStartTransmitI
 539              		.thumb
 540              		.thumb_func
 541              		.type	usbStartTransmitI, %function
 542              	usbStartTransmitI:
 543              	.LFB131:
 544              		.loc 1 500 0
 545              		.cfi_startproc
 546              		@ args = 0, pretend = 0, frame = 0
 547              		@ frame_needed = 0, uses_anonymous_args = 0
 548              	.LVL49:
 549 0000 70B5     		push	{r4, r5, r6, lr}
 550              	.LCFI9:
 551              		.cfi_def_cfa_offset 16
 552              		.cfi_offset 4, -16
 553              		.cfi_offset 5, -12
 554              		.cfi_offset 6, -8
 555              		.cfi_offset 14, -4
 556              		.loc 1 505 0
 557 0002 8489     		ldrh	r4, [r0, #12]
 558 0004 44FA01F3 		asr	r3, r4, r1
ARM GAS  /tmp/ccwjq9u9.s 			page 11


 559 0008 13F00106 		ands	r6, r3, #1
 560              		.loc 1 500 0
 561 000c 0D46     		mov	r5, r1
 562              		.loc 1 505 0
 563 000e 01D0     		beq	.L27
 564              		.loc 1 506 0
 565 0010 0120     		movs	r0, #1
 566              	.LVL50:
 567              		.loc 1 511 0
 568 0012 70BD     		pop	{r4, r5, r6, pc}
 569              	.LVL51:
 570              	.L27:
 571              		.loc 1 508 0
 572 0014 0123     		movs	r3, #1
 573 0016 03FA01F5 		lsl	r5, r3, r1
 574 001a 2C43     		orrs	r4, r4, r5
 575 001c 8481     		strh	r4, [r0, #12]	@ movhi
 576              		.loc 1 509 0
 577 001e FFF7FEFF 		bl	usb_lld_start_in
 578              	.LVL52:
 579              		.loc 1 510 0
 580 0022 3046     		mov	r0, r6
 581 0024 70BD     		pop	{r4, r5, r6, pc}
 582              		.cfi_endproc
 583              	.LFE131:
 584              		.size	usbStartTransmitI, .-usbStartTransmitI
 585 0026 00BFAFF3 		.section	.text.usbStallReceiveI,"ax",%progbits
 585      0080AFF3 
 585      0080
 586              		.align	2
 587              		.p2align 4,,15
 588              		.global	usbStallReceiveI
 589              		.thumb
 590              		.thumb_func
 591              		.type	usbStallReceiveI, %function
 592              	usbStallReceiveI:
 593              	.LFB132:
 594              		.loc 1 525 0
 595              		.cfi_startproc
 596              		@ args = 0, pretend = 0, frame = 0
 597              		@ frame_needed = 0, uses_anonymous_args = 0
 598              	.LVL53:
 599              		.loc 1 530 0
 600 0000 C389     		ldrh	r3, [r0, #14]
 601 0002 43FA01F3 		asr	r3, r3, r1
 602              		.loc 1 525 0
 603 0006 10B5     		push	{r4, lr}
 604              	.LCFI10:
 605              		.cfi_def_cfa_offset 8
 606              		.cfi_offset 4, -8
 607              		.cfi_offset 14, -4
 608              		.loc 1 530 0
 609 0008 13F00104 		ands	r4, r3, #1
 610 000c 01D0     		beq	.L31
 611              		.loc 1 531 0
 612 000e 0120     		movs	r0, #1
 613              	.LVL54:
ARM GAS  /tmp/ccwjq9u9.s 			page 12


 614              		.loc 1 535 0
 615 0010 10BD     		pop	{r4, pc}
 616              	.LVL55:
 617              	.L31:
 618              		.loc 1 533 0
 619 0012 FFF7FEFF 		bl	usb_lld_stall_out
 620              	.LVL56:
 621              		.loc 1 534 0
 622 0016 2046     		mov	r0, r4
 623 0018 10BD     		pop	{r4, pc}
 624              		.cfi_endproc
 625              	.LFE132:
 626              		.size	usbStallReceiveI, .-usbStallReceiveI
 627 001a 00BFAFF3 		.section	.text.usbStallTransmitI,"ax",%progbits
 627      0080
 628              		.align	2
 629              		.p2align 4,,15
 630              		.global	usbStallTransmitI
 631              		.thumb
 632              		.thumb_func
 633              		.type	usbStallTransmitI, %function
 634              	usbStallTransmitI:
 635              	.LFB133:
 636              		.loc 1 549 0
 637              		.cfi_startproc
 638              		@ args = 0, pretend = 0, frame = 0
 639              		@ frame_needed = 0, uses_anonymous_args = 0
 640              	.LVL57:
 641              		.loc 1 554 0
 642 0000 8389     		ldrh	r3, [r0, #12]
 643 0002 43FA01F3 		asr	r3, r3, r1
 644              		.loc 1 549 0
 645 0006 10B5     		push	{r4, lr}
 646              	.LCFI11:
 647              		.cfi_def_cfa_offset 8
 648              		.cfi_offset 4, -8
 649              		.cfi_offset 14, -4
 650              		.loc 1 554 0
 651 0008 13F00104 		ands	r4, r3, #1
 652 000c 01D0     		beq	.L35
 653              		.loc 1 555 0
 654 000e 0120     		movs	r0, #1
 655              	.LVL58:
 656              		.loc 1 559 0
 657 0010 10BD     		pop	{r4, pc}
 658              	.LVL59:
 659              	.L35:
 660              		.loc 1 557 0
 661 0012 FFF7FEFF 		bl	usb_lld_stall_in
 662              	.LVL60:
 663              		.loc 1 558 0
 664 0016 2046     		mov	r0, r4
 665 0018 10BD     		pop	{r4, pc}
 666              		.cfi_endproc
 667              	.LFE133:
 668              		.size	usbStallTransmitI, .-usbStallTransmitI
 669 001a 00BFAFF3 		.section	.text._usb_reset,"ax",%progbits
ARM GAS  /tmp/ccwjq9u9.s 			page 13


 669      0080
 670              		.align	2
 671              		.p2align 4,,15
 672              		.global	_usb_reset
 673              		.thumb
 674              		.thumb_func
 675              		.type	_usb_reset, %function
 676              	_usb_reset:
 677              	.LFB134:
 678              		.loc 1 570 0
 679              		.cfi_startproc
 680              		@ args = 0, pretend = 0, frame = 0
 681              		@ frame_needed = 0, uses_anonymous_args = 0
 682              		@ link register save eliminated.
 683              	.LVL61:
 684 0000 10B4     		push	{r4}
 685              	.LCFI12:
 686              		.cfi_def_cfa_offset 4
 687              		.cfi_offset 4, -4
 688              		.loc 1 570 0
 689 0002 0346     		mov	r3, r0
 690              		.loc 1 574 0
 691 0004 0022     		movs	r2, #0
 692              		.loc 1 573 0
 693 0006 0224     		movs	r4, #2
 694 0008 0470     		strb	r4, [r0, #0]
 695              		.loc 1 574 0
 696 000a 0287     		strh	r2, [r0, #56]	@ movhi
 697              		.loc 1 575 0
 698 000c 83F83A20 		strb	r2, [r3, #58]
 699              		.loc 1 576 0
 700 0010 80F83B20 		strb	r2, [r0, #59]
 701              		.loc 1 577 0
 702 0014 8281     		strh	r2, [r0, #12]	@ movhi
 703              		.loc 1 578 0
 704 0016 C281     		strh	r2, [r0, #14]	@ movhi
 705              	.LVL62:
 706              		.loc 1 582 0
 707 0018 0261     		str	r2, [r0, #16]
 708              	.LVL63:
 709 001a 4261     		str	r2, [r0, #20]
 710              	.LVL64:
 711 001c 8261     		str	r2, [r0, #24]
 712              	.LVL65:
 713 001e C261     		str	r2, [r0, #28]
 714              	.LVL66:
 715              		.loc 1 585 0
 716 0020 83F82020 		strb	r2, [r3, #32]
 717              		.loc 1 589 0
 718 0024 10BC     		pop	{r4}
 719              		.loc 1 588 0
 720 0026 FFF7FEBF 		b	usb_lld_reset
 721              	.LVL67:
 722              		.cfi_endproc
 723              	.LFE134:
 724              		.size	_usb_reset, .-_usb_reset
 725 002a 00BFAFF3 		.section	.text._usb_ep0setup,"ax",%progbits
ARM GAS  /tmp/ccwjq9u9.s 			page 14


 725      0080
 726              		.align	2
 727              		.p2align 4,,15
 728              		.global	_usb_ep0setup
 729              		.thumb
 730              		.thumb_func
 731              		.type	_usb_ep0setup, %function
 732              	_usb_ep0setup:
 733              	.LFB135:
 734              		.loc 1 601 0
 735              		.cfi_startproc
 736              		@ args = 0, pretend = 0, frame = 0
 737              		@ frame_needed = 0, uses_anonymous_args = 0
 738              	.LVL68:
 739 0000 F8B5     		push	{r3, r4, r5, r6, r7, lr}
 740              	.LCFI13:
 741              		.cfi_def_cfa_offset 24
 742              		.cfi_offset 3, -24
 743              		.cfi_offset 4, -20
 744              		.cfi_offset 5, -16
 745              		.cfi_offset 6, -12
 746              		.cfi_offset 7, -8
 747              		.cfi_offset 14, -4
 748              		.loc 1 601 0
 749 0002 0446     		mov	r4, r0
 750              		.loc 1 604 0
 751 0004 0023     		movs	r3, #0
 752 0006 80F82030 		strb	r3, [r0, #32]
 753              		.loc 1 605 0
 754 000a 00F13002 		add	r2, r0, #48
 755 000e FFF7FEFF 		bl	usb_lld_read_setup
 756              	.LVL69:
 757              		.loc 1 609 0
 758 0012 6068     		ldr	r0, [r4, #4]
 759 0014 8168     		ldr	r1, [r0, #8]
 760 0016 41B3     		cbz	r1, .L41
 761              		.loc 1 610 0 discriminator 1
 762 0018 2046     		mov	r0, r4
 763 001a 8847     		blx	r1
 764              	.LVL70:
 765              		.loc 1 609 0 discriminator 1
 766 001c 28B3     		cbz	r0, .L41
 767 001e A56A     		ldr	r5, [r4, #40]
 768 0020 94F83030 		ldrb	r3, [r4, #48]	@ zero_extendqisi2
 769              	.L81:
 770              		.loc 1 629 0
 771 0024 94F83710 		ldrb	r1, [r4, #55]	@ zero_extendqisi2
 772 0028 94F83620 		ldrb	r2, [r4, #54]	@ zero_extendqisi2
 773 002c 42EA0120 		orr	r0, r2, r1, lsl #8
 774              	.LVL71:
 775              		.loc 1 631 0
 776 0030 A842     		cmp	r0, r5
 777              		.loc 1 632 0
 778 0032 3CBF     		itt	cc
 779 0034 0546     		movcc	r5, r0
 780 0036 A062     		strcc	r0, [r4, #40]
 781              		.loc 1 633 0
ARM GAS  /tmp/ccwjq9u9.s 			page 15


 782 0038 13F0800F 		tst	r3, #128
 783              		.loc 1 638 0
 784 003c 2B46     		mov	r3, r5
 785              		.loc 1 633 0
 786 003e 7DD1     		bne	.L110
 787              		.loc 1 655 0
 788 0040 002D     		cmp	r5, #0
 789 0042 68D1     		bne	.L111
 790              		.loc 1 666 0
 791 0044 0421     		movs	r1, #4
 792 0046 84F82010 		strb	r1, [r4, #32]
 793              		.loc 1 667 0
 794 004a 2046     		mov	r0, r4
 795              	.LVL72:
 796 004c 2946     		mov	r1, r5
 797 004e 2A46     		mov	r2, r5
 798              	.LVL73:
 799 0050 FFF7FEFF 		bl	usbPrepareTransmit
 800              	.LVL74:
 801              	.LBB19:
 802              		.loc 1 668 0
 803 0054 2023     		movs	r3, #32
 804              	.LVL75:
 805              	@ 668 "../../os/hal/src/usb.c" 1
 806 0056 83F31188 		msr     BASEPRI, r3
 807              	@ 0 "" 2
 808              	.LVL76:
 809              		.thumb
 810              	.LBE19:
 811              		.loc 1 669 0
 812 005a 2046     		mov	r0, r4
 813 005c 2946     		mov	r1, r5
 814 005e FFF7FEFF 		bl	usbStartTransmitI
 815              	.LVL77:
 816              	.LBB20:
 817              		.loc 1 670 0
 818 0062 2B46     		mov	r3, r5
 819              	.LVL78:
 820              	@ 670 "../../os/hal/src/usb.c" 1
 821 0064 83F31188 		msr     BASEPRI, r3
 822              	@ 0 "" 2
 823              	.LVL79:
 824              		.thumb
 825 0068 F8BD     		pop	{r3, r4, r5, r6, r7, pc}
 826              	.LVL80:
 827              	.L41:
 828              	.LBE20:
 829              		.loc 1 613 0
 830 006a 94F83030 		ldrb	r3, [r4, #48]	@ zero_extendqisi2
 831 006e 13F06007 		ands	r7, r3, #96
 832 0072 11D0     		beq	.L112
 833              	.L39:
 834              		.loc 1 618 0
 835 0074 0021     		movs	r1, #0
 836 0076 2046     		mov	r0, r4
 837 0078 FFF7FEFF 		bl	usb_lld_stall_in
 838              	.LVL81:
ARM GAS  /tmp/ccwjq9u9.s 			page 16


 839              		.loc 1 619 0
 840 007c 2046     		mov	r0, r4
 841 007e 0021     		movs	r1, #0
 842 0080 FFF7FEFF 		bl	usb_lld_stall_out
 843              	.LVL82:
 844              		.loc 1 620 0
 845 0084 6368     		ldr	r3, [r4, #4]
 846 0086 1A68     		ldr	r2, [r3, #0]
 847 0088 12B1     		cbz	r2, .L75
 848              		.loc 1 620 0 is_stmt 0 discriminator 1
 849 008a 2046     		mov	r0, r4
 850 008c 0521     		movs	r1, #5
 851 008e 9047     		blx	r2
 852              	.LVL83:
 853              	.L75:
 854              		.loc 1 621 0 is_stmt 1
 855 0090 0520     		movs	r0, #5
 856 0092 84F82000 		strb	r0, [r4, #32]
 857              		.loc 1 622 0
 858 0096 F8BD     		pop	{r3, r4, r5, r6, r7, pc}
 859              	.L112:
 860              	.LVL84:
 861              	.LBB21:
 862              	.LBB22:
 863              		.loc 1 88 0
 864 0098 94F83160 		ldrb	r6, [r4, #49]	@ zero_extendqisi2
 865              		.loc 1 86 0
 866 009c 03F07F02 		and	r2, r3, #127
 867              		.loc 1 87 0
 868 00a0 42EA0626 		orr	r6, r2, r6, lsl #8
 869              		.loc 1 86 0
 870 00a4 B6F5407F 		cmp	r6, #768
 871 00a8 00F0F680 		beq	.L49
 872 00ac 16DD     		ble	.L113
 873 00ae B6F5C06F 		cmp	r6, #1536
 874 00b2 00F08880 		beq	.L52
 875 00b6 68DD     		ble	.L114
 876 00b8 B6F5106F 		cmp	r6, #2304
 877 00bc 00F0B180 		beq	.L54
 878 00c0 40F60242 		movw	r2, #3074
 879 00c4 9642     		cmp	r6, r2
 880 00c6 77D0     		beq	.L45
 881 00c8 B6F5006F 		cmp	r6, #2048
 882 00cc D2D1     		bne	.L39
 883              		.loc 1 135 0
 884 00ce 0125     		movs	r5, #1
 885 00d0 04F13B00 		add	r0, r4, #59
 886 00d4 6062     		str	r0, [r4, #36]
 887 00d6 A562     		str	r5, [r4, #40]
 888 00d8 E762     		str	r7, [r4, #44]
 889 00da A3E7     		b	.L81
 890              	.L113:
 891              		.loc 1 86 0
 892 00dc 022E     		cmp	r6, #2
 893 00de 00F0B280 		beq	.L46
 894 00e2 64DD     		ble	.L115
 895 00e4 B6F5807F 		cmp	r6, #256
ARM GAS  /tmp/ccwjq9u9.s 			page 17


 896 00e8 00F08680 		beq	.L47
 897 00ec B6F5817F 		cmp	r6, #258
 898 00f0 C0D1     		bne	.L39
 899              		.loc 1 181 0
 900 00f2 94F83210 		ldrb	r1, [r4, #50]	@ zero_extendqisi2
 901 00f6 0029     		cmp	r1, #0
 902 00f8 BCD1     		bne	.L39
 903              		.loc 1 184 0
 904 00fa 94F83450 		ldrb	r5, [r4, #52]	@ zero_extendqisi2
 905 00fe 15F00F01 		ands	r1, r5, #15
 906 0102 4FD0     		beq	.L73
 907              		.loc 1 185 0
 908 0104 2A06     		lsls	r2, r5, #24
 909              		.loc 1 186 0
 910 0106 2046     		mov	r0, r4
 911              		.loc 1 185 0
 912 0108 00F1F580 		bmi	.L116
 913              	.LVL85:
 914              		.loc 1 188 0
 915 010c FFF7FEFF 		bl	usb_lld_clear_out
 916              	.LVL86:
 917 0110 94F83030 		ldrb	r3, [r4, #48]	@ zero_extendqisi2
 918 0114 46E0     		b	.L73
 919              	.LVL87:
 920              	.L111:
 921              	.LBE22:
 922              	.LBE21:
 923              		.loc 1 657 0
 924 0116 0322     		movs	r2, #3
 925 0118 84F82020 		strb	r2, [r4, #32]
 926              		.loc 1 658 0
 927 011c 2046     		mov	r0, r4
 928              	.LVL88:
 929 011e 0021     		movs	r1, #0
 930              	.LVL89:
 931 0120 626A     		ldr	r2, [r4, #36]
 932 0122 FFF7FEFF 		bl	usbPrepareReceive
 933              	.LVL90:
 934              	.LBB26:
 935              		.loc 1 659 0
 936 0126 2023     		movs	r3, #32
 937              	.LVL91:
 938              	@ 659 "../../os/hal/src/usb.c" 1
 939 0128 83F31188 		msr     BASEPRI, r3
 940              	@ 0 "" 2
 941              	.LVL92:
 942              		.thumb
 943              	.LBE26:
 944              		.loc 1 660 0
 945 012c 0021     		movs	r1, #0
 946 012e 2046     		mov	r0, r4
 947 0130 FFF7FEFF 		bl	usbStartReceiveI
 948              	.LVL93:
 949              	.LBB27:
 950              		.loc 1 661 0
 951 0134 0023     		movs	r3, #0
 952              	.LVL94:
ARM GAS  /tmp/ccwjq9u9.s 			page 18


 953              	@ 661 "../../os/hal/src/usb.c" 1
 954 0136 83F31188 		msr     BASEPRI, r3
 955              	@ 0 "" 2
 956              	.LVL95:
 957              		.thumb
 958 013a F8BD     		pop	{r3, r4, r5, r6, r7, pc}
 959              	.LVL96:
 960              	.L110:
 961              	.LBE27:
 962              		.loc 1 635 0
 963 013c 95B1     		cbz	r5, .L79
 964              		.loc 1 637 0
 965 013e 0121     		movs	r1, #1
 966 0140 84F82010 		strb	r1, [r4, #32]
 967              		.loc 1 638 0
 968 0144 2046     		mov	r0, r4
 969              	.LVL97:
 970 0146 0021     		movs	r1, #0
 971 0148 626A     		ldr	r2, [r4, #36]
 972              	.LVL98:
 973 014a FFF7FEFF 		bl	usbPrepareTransmit
 974              	.LVL99:
 975              	.LBB28:
 976              		.loc 1 639 0
 977 014e 2023     		movs	r3, #32
 978              	.LVL100:
 979              	@ 639 "../../os/hal/src/usb.c" 1
 980 0150 83F31188 		msr     BASEPRI, r3
 981              	@ 0 "" 2
 982              	.LVL101:
 983              		.thumb
 984              	.LBE28:
 985              		.loc 1 640 0
 986 0154 0021     		movs	r1, #0
 987 0156 2046     		mov	r0, r4
 988 0158 FFF7FEFF 		bl	usbStartTransmitI
 989              	.LVL102:
 990              	.LBB29:
 991              		.loc 1 641 0
 992 015c 0023     		movs	r3, #0
 993              	.LVL103:
 994              	@ 641 "../../os/hal/src/usb.c" 1
 995 015e 83F31188 		msr     BASEPRI, r3
 996              	@ 0 "" 2
 997              	.LVL104:
 998              		.thumb
 999 0162 F8BD     		pop	{r3, r4, r5, r6, r7, pc}
 1000              	.LVL105:
 1001              	.L79:
 1002              	.LBE29:
 1003              		.loc 1 646 0
 1004 0164 0220     		movs	r0, #2
 1005              	.LVL106:
 1006 0166 84F82000 		strb	r0, [r4, #32]
 1007              		.loc 1 647 0
 1008 016a 2946     		mov	r1, r5
 1009              	.LVL107:
ARM GAS  /tmp/ccwjq9u9.s 			page 19


 1010 016c 2046     		mov	r0, r4
 1011 016e 2A46     		mov	r2, r5
 1012              	.LVL108:
 1013 0170 FFF7FEFF 		bl	usbPrepareReceive
 1014              	.LVL109:
 1015              	.LBB30:
 1016              		.loc 1 648 0
 1017 0174 2023     		movs	r3, #32
 1018              	.LVL110:
 1019              	@ 648 "../../os/hal/src/usb.c" 1
 1020 0176 83F31188 		msr     BASEPRI, r3
 1021              	@ 0 "" 2
 1022              	.LVL111:
 1023              		.thumb
 1024              	.LBE30:
 1025              		.loc 1 649 0
 1026 017a 2046     		mov	r0, r4
 1027 017c 2946     		mov	r1, r5
 1028 017e FFF7FEFF 		bl	usbStartReceiveI
 1029              	.LVL112:
 1030              	.LBB31:
 1031              		.loc 1 650 0
 1032 0182 2B46     		mov	r3, r5
 1033              	.LVL113:
 1034              	@ 650 "../../os/hal/src/usb.c" 1
 1035 0184 83F31188 		msr     BASEPRI, r3
 1036              	@ 0 "" 2
 1037              	.LVL114:
 1038              		.thumb
 1039 0188 F8BD     		pop	{r3, r4, r5, r6, r7, pc}
 1040              	.LVL115:
 1041              	.L114:
 1042              	.LBE31:
 1043              	.LBB32:
 1044              	.LBB25:
 1045              		.loc 1 86 0
 1046 018a 40F20230 		movw	r0, #770
 1047 018e 8642     		cmp	r6, r0
 1048 0190 70D0     		beq	.L50
 1049 0192 B6F5A06F 		cmp	r6, #1280
 1050 0196 7FF46DAF 		bne	.L39
 1051              		.loc 1 116 0
 1052 019a 218E     		ldrh	r1, [r4, #48]
 1053 019c B1F5A06F 		cmp	r1, #1280
 1054 01a0 00F09780 		beq	.L117
 1055              	.L73:
 1056              		.loc 1 203 0
 1057 01a4 0025     		movs	r5, #0
 1058 01a6 6562     		str	r5, [r4, #36]
 1059 01a8 A562     		str	r5, [r4, #40]
 1060 01aa E562     		str	r5, [r4, #44]
 1061 01ac 3AE7     		b	.L81
 1062              	.L115:
 1063              		.loc 1 86 0
 1064 01ae 002E     		cmp	r6, #0
 1065 01b0 30D0     		beq	.L44
 1066 01b2 012E     		cmp	r6, #1
ARM GAS  /tmp/ccwjq9u9.s 			page 20


 1067 01b4 7FF45EAF 		bne	.L39
 1068              	.L45:
 1069              		.loc 1 151 0
 1070 01b8 5449     		ldr	r1, .L120
 1071 01ba 0225     		movs	r5, #2
 1072 01bc 0022     		movs	r2, #0
 1073 01be 6162     		str	r1, [r4, #36]
 1074 01c0 A562     		str	r5, [r4, #40]
 1075 01c2 E262     		str	r2, [r4, #44]
 1076 01c4 2EE7     		b	.L81
 1077              	.L52:
 1078              		.loc 1 126 0
 1079 01c6 6068     		ldr	r0, [r4, #4]
 1080              		.loc 1 128 0
 1081 01c8 94F83560 		ldrb	r6, [r4, #53]	@ zero_extendqisi2
 1082              		.loc 1 126 0
 1083 01cc 94F83430 		ldrb	r3, [r4, #52]	@ zero_extendqisi2
 1084 01d0 4568     		ldr	r5, [r0, #4]
 1085 01d2 94F83310 		ldrb	r1, [r4, #51]	@ zero_extendqisi2
 1086 01d6 94F83220 		ldrb	r2, [r4, #50]	@ zero_extendqisi2
 1087 01da 2046     		mov	r0, r4
 1088 01dc 43EA0623 		orr	r3, r3, r6, lsl #8
 1089 01e0 A847     		blx	r5
 1090              	.LVL116:
 1091              		.loc 1 129 0
 1092 01e2 0028     		cmp	r0, #0
 1093 01e4 3FF446AF 		beq	.L39
 1094              		.loc 1 131 0
 1095 01e8 4168     		ldr	r1, [r0, #4]
 1096 01ea 0568     		ldr	r5, [r0, #0]
 1097 01ec 94F83030 		ldrb	r3, [r4, #48]	@ zero_extendqisi2
 1098 01f0 6162     		str	r1, [r4, #36]
 1099 01f2 A562     		str	r5, [r4, #40]
 1100 01f4 E762     		str	r7, [r4, #44]
 1101 01f6 15E7     		b	.L81
 1102              	.LVL117:
 1103              	.L47:
 1104              		.loc 1 96 0
 1105 01f8 94F83220 		ldrb	r2, [r4, #50]	@ zero_extendqisi2
 1106 01fc 012A     		cmp	r2, #1
 1107 01fe 7FF439AF 		bne	.L39
 1108              		.loc 1 97 0
 1109 0202 208F     		ldrh	r0, [r4, #56]
 1110              		.loc 1 98 0
 1111 0204 6762     		str	r7, [r4, #36]
 1112              		.loc 1 97 0
 1113 0206 20F00201 		bic	r1, r0, #2
 1114 020a 2187     		strh	r1, [r4, #56]	@ movhi
 1115              		.loc 1 98 0
 1116 020c A762     		str	r7, [r4, #40]
 1117 020e E762     		str	r7, [r4, #44]
 1118 0210 3D46     		mov	r5, r7
 1119 0212 07E7     		b	.L81
 1120              	.L44:
 1121              		.loc 1 91 0
 1122 0214 0225     		movs	r5, #2
 1123 0216 04F13800 		add	r0, r4, #56
ARM GAS  /tmp/ccwjq9u9.s 			page 21


 1124 021a 6062     		str	r0, [r4, #36]
 1125 021c A562     		str	r5, [r4, #40]
 1126 021e E662     		str	r6, [r4, #44]
 1127 0220 00E7     		b	.L81
 1128              	.L54:
 1129              		.loc 1 139 0
 1130 0222 94F83250 		ldrb	r5, [r4, #50]	@ zero_extendqisi2
 1131 0226 84F83B50 		strb	r5, [r4, #59]
 1132              		.loc 1 140 0
 1133 022a 002D     		cmp	r5, #0
 1134 022c 42D1     		bne	.L63
 1135              		.loc 1 141 0
 1136 022e 0321     		movs	r1, #3
 1137 0230 2170     		strb	r1, [r4, #0]
 1138              	.L64:
 1139              		.loc 1 144 0
 1140 0232 6268     		ldr	r2, [r4, #4]
 1141 0234 1568     		ldr	r5, [r2, #0]
 1142 0236 002D     		cmp	r5, #0
 1143 0238 B4D0     		beq	.L73
 1144 023a 2046     		mov	r0, r4
 1145 023c 0221     		movs	r1, #2
 1146 023e A847     		blx	r5
 1147              	.LVL118:
 1148 0240 94F83030 		ldrb	r3, [r4, #48]	@ zero_extendqisi2
 1149 0244 AEE7     		b	.L73
 1150              	.L46:
 1151              		.loc 1 155 0
 1152 0246 94F83430 		ldrb	r3, [r4, #52]	@ zero_extendqisi2
 1153 024a 13F0800F 		tst	r3, #128
 1154              		.loc 1 156 0
 1155 024e 2046     		mov	r0, r4
 1156 0250 03F00F01 		and	r1, r3, #15
 1157              		.loc 1 155 0
 1158 0254 31D1     		bne	.L118
 1159              	.LVL119:
 1160              		.loc 1 168 0
 1161 0256 FFF7FEFF 		bl	usb_lld_get_status_out
 1162              	.LVL120:
 1163 025a 0128     		cmp	r0, #1
 1164 025c 31D0     		beq	.L69
 1165              	.L109:
 1166 025e 0228     		cmp	r0, #2
 1167 0260 7FF408AF 		bne	.L39
 1168              		.loc 1 173 0
 1169 0264 2A4D     		ldr	r5, .L120+4
 1170 0266 A062     		str	r0, [r4, #40]
 1171 0268 6562     		str	r5, [r4, #36]
 1172 026a E762     		str	r7, [r4, #44]
 1173 026c 94F83030 		ldrb	r3, [r4, #48]	@ zero_extendqisi2
 1174 0270 0546     		mov	r5, r0
 1175 0272 D7E6     		b	.L81
 1176              	.L50:
 1177              		.loc 1 194 0
 1178 0274 94F83210 		ldrb	r1, [r4, #50]	@ zero_extendqisi2
 1179 0278 0029     		cmp	r1, #0
 1180 027a 7FF4FBAE 		bne	.L39
ARM GAS  /tmp/ccwjq9u9.s 			page 22


 1181              		.loc 1 197 0
 1182 027e 94F83450 		ldrb	r5, [r4, #52]	@ zero_extendqisi2
 1183 0282 15F00F01 		ands	r1, r5, #15
 1184 0286 8DD0     		beq	.L73
 1185              		.loc 1 198 0
 1186 0288 2B06     		lsls	r3, r5, #24
 1187              		.loc 1 199 0
 1188 028a 2046     		mov	r0, r4
 1189              		.loc 1 198 0
 1190 028c 38D4     		bmi	.L119
 1191              	.LVL121:
 1192              		.loc 1 201 0
 1193 028e FFF7FEFF 		bl	usb_lld_stall_out
 1194              	.LVL122:
 1195 0292 94F83030 		ldrb	r3, [r4, #48]	@ zero_extendqisi2
 1196 0296 85E7     		b	.L73
 1197              	.L49:
 1198              		.loc 1 105 0
 1199 0298 94F83220 		ldrb	r2, [r4, #50]	@ zero_extendqisi2
 1200 029c 012A     		cmp	r2, #1
 1201 029e 7FF4E9AE 		bne	.L39
 1202              		.loc 1 106 0
 1203 02a2 258F     		ldrh	r5, [r4, #56]
 1204              		.loc 1 107 0
 1205 02a4 6762     		str	r7, [r4, #36]
 1206              		.loc 1 106 0
 1207 02a6 45F00200 		orr	r0, r5, #2
 1208 02aa 2087     		strh	r0, [r4, #56]	@ movhi
 1209              		.loc 1 107 0
 1210 02ac A762     		str	r7, [r4, #40]
 1211 02ae E762     		str	r7, [r4, #44]
 1212 02b0 3D46     		mov	r5, r7
 1213 02b2 B7E6     		b	.L81
 1214              	.L63:
 1215              		.loc 1 143 0
 1216 02b4 0420     		movs	r0, #4
 1217 02b6 2070     		strb	r0, [r4, #0]
 1218 02b8 BBE7     		b	.L64
 1219              	.LVL123:
 1220              	.L118:
 1221              		.loc 1 156 0
 1222 02ba FFF7FEFF 		bl	usb_lld_get_status_in
 1223              	.LVL124:
 1224 02be 0128     		cmp	r0, #1
 1225 02c0 CDD1     		bne	.L109
 1226              	.L69:
 1227              		.loc 1 170 0
 1228 02c2 144A     		ldr	r2, .L120+8
 1229 02c4 A662     		str	r6, [r4, #40]
 1230 02c6 6262     		str	r2, [r4, #36]
 1231 02c8 E762     		str	r7, [r4, #44]
 1232 02ca 94F83030 		ldrb	r3, [r4, #48]	@ zero_extendqisi2
 1233 02ce 3546     		mov	r5, r6
 1234 02d0 A8E6     		b	.L81
 1235              	.L117:
 1236              	.LVL125:
 1237              	.LBB23:
ARM GAS  /tmp/ccwjq9u9.s 			page 23


 1238              	.LBB24:
 1239              		.loc 1 64 0
 1240 02d2 94F83230 		ldrb	r3, [r4, #50]	@ zero_extendqisi2
 1241              		.loc 1 65 0
 1242 02d6 2046     		mov	r0, r4
 1243              		.loc 1 64 0
 1244 02d8 84F83A30 		strb	r3, [r4, #58]
 1245              		.loc 1 65 0
 1246 02dc FFF7FEFF 		bl	usb_lld_set_address
 1247              	.LVL126:
 1248              		.loc 1 66 0
 1249 02e0 6568     		ldr	r5, [r4, #4]
 1250 02e2 2A68     		ldr	r2, [r5, #0]
 1251 02e4 12B1     		cbz	r2, .L62
 1252 02e6 2046     		mov	r0, r4
 1253 02e8 0121     		movs	r1, #1
 1254 02ea 9047     		blx	r2
 1255              	.LVL127:
 1256              	.L62:
 1257              		.loc 1 67 0
 1258 02ec 0320     		movs	r0, #3
 1259 02ee 94F83030 		ldrb	r3, [r4, #48]	@ zero_extendqisi2
 1260 02f2 2070     		strb	r0, [r4, #0]
 1261 02f4 56E7     		b	.L73
 1262              	.LVL128:
 1263              	.L116:
 1264              	.LBE24:
 1265              	.LBE23:
 1266              		.loc 1 186 0
 1267 02f6 FFF7FEFF 		bl	usb_lld_clear_in
 1268              	.LVL129:
 1269 02fa 94F83030 		ldrb	r3, [r4, #48]	@ zero_extendqisi2
 1270 02fe 51E7     		b	.L73
 1271              	.LVL130:
 1272              	.L119:
 1273              		.loc 1 199 0
 1274 0300 FFF7FEFF 		bl	usb_lld_stall_in
 1275              	.LVL131:
 1276 0304 94F83030 		ldrb	r3, [r4, #48]	@ zero_extendqisi2
 1277 0308 4CE7     		b	.L73
 1278              	.L121:
 1279 030a 00BF     		.align	2
 1280              	.L120:
 1281 030c 00000000 		.word	.LANCHOR0
 1282 0310 00000000 		.word	.LANCHOR2
 1283 0314 00000000 		.word	.LANCHOR1
 1284              	.LBE25:
 1285              	.LBE32:
 1286              		.cfi_endproc
 1287              	.LFE135:
 1288              		.size	_usb_ep0setup, .-_usb_ep0setup
 1289 0318 AFF30080 		.section	.text._usb_ep0in,"ax",%progbits
 1289      AFF30080 
 1290              		.align	2
 1291              		.p2align 4,,15
 1292              		.global	_usb_ep0in
 1293              		.thumb
ARM GAS  /tmp/ccwjq9u9.s 			page 24


 1294              		.thumb_func
 1295              		.type	_usb_ep0in, %function
 1296              	_usb_ep0in:
 1297              	.LFB136:
 1298              		.loc 1 685 0
 1299              		.cfi_startproc
 1300              		@ args = 0, pretend = 0, frame = 0
 1301              		@ frame_needed = 0, uses_anonymous_args = 0
 1302              	.LVL132:
 1303 0000 38B5     		push	{r3, r4, r5, lr}
 1304              	.LCFI14:
 1305              		.cfi_def_cfa_offset 16
 1306              		.cfi_offset 3, -16
 1307              		.cfi_offset 4, -12
 1308              		.cfi_offset 5, -8
 1309              		.cfi_offset 14, -4
 1310              		.loc 1 689 0
 1311 0002 90F82030 		ldrb	r3, [r0, #32]	@ zero_extendqisi2
 1312 0006 012B     		cmp	r3, #1
 1313              		.loc 1 685 0
 1314 0008 0446     		mov	r4, r0
 1315              		.loc 1 689 0
 1316 000a 19D0     		beq	.L124
 1317 000c 042B     		cmp	r3, #4
 1318 000e 10D0     		beq	.L137
 1319              		.loc 1 723 0
 1320 0010 0021     		movs	r1, #0
 1321              	.LVL133:
 1322 0012 FFF7FEFF 		bl	usb_lld_stall_in
 1323              	.LVL134:
 1324              		.loc 1 724 0
 1325 0016 2046     		mov	r0, r4
 1326 0018 0021     		movs	r1, #0
 1327 001a FFF7FEFF 		bl	usb_lld_stall_out
 1328              	.LVL135:
 1329              		.loc 1 725 0
 1330 001e 6068     		ldr	r0, [r4, #4]
 1331 0020 0268     		ldr	r2, [r0, #0]
 1332 0022 12B1     		cbz	r2, .L129
 1333              		.loc 1 725 0 is_stmt 0 discriminator 1
 1334 0024 2046     		mov	r0, r4
 1335 0026 0521     		movs	r1, #5
 1336 0028 9047     		blx	r2
 1337              	.LVL136:
 1338              	.L129:
 1339              		.loc 1 726 0 is_stmt 1
 1340 002a 0521     		movs	r1, #5
 1341 002c 84F82010 		strb	r1, [r4, #32]
 1342 0030 38BD     		pop	{r3, r4, r5, pc}
 1343              	.LVL137:
 1344              	.L137:
 1345              		.loc 1 713 0
 1346 0032 C36A     		ldr	r3, [r0, #44]
 1347 0034 03B1     		cbz	r3, .L128
 1348              		.loc 1 714 0
 1349 0036 9847     		blx	r3
 1350              	.LVL138:
ARM GAS  /tmp/ccwjq9u9.s 			page 25


 1351              	.L128:
 1352              		.loc 1 715 0
 1353 0038 0020     		movs	r0, #0
 1354 003a 84F82000 		strb	r0, [r4, #32]
 1355              		.loc 1 716 0
 1356 003e 38BD     		pop	{r3, r4, r5, pc}
 1357              	.LVL139:
 1358              	.L124:
 1359              		.loc 1 691 0
 1360 0040 90F83720 		ldrb	r2, [r0, #55]	@ zero_extendqisi2
 1361 0044 90F83610 		ldrb	r1, [r0, #54]	@ zero_extendqisi2
 1362              	.LVL140:
 1363              		.loc 1 695 0
 1364 0048 856A     		ldr	r5, [r0, #40]
 1365              		.loc 1 691 0
 1366 004a 41EA0223 		orr	r3, r1, r2, lsl #8
 1367              		.loc 1 695 0
 1368 004e AB42     		cmp	r3, r5
 1369 0050 06D9     		bls	.L126
 1370              		.loc 1 696 0 discriminator 1
 1371 0052 0269     		ldr	r2, [r0, #16]
 1372 0054 118A     		ldrh	r1, [r2, #16]
 1373 0056 B5FBF1F3 		udiv	r3, r5, r1
 1374 005a 01FB1355 		mls	r5, r1, r3, r5
 1375              		.loc 1 695 0 discriminator 1
 1376 005e 9DB1     		cbz	r5, .L138
 1377              	.L126:
 1378              		.loc 1 706 0
 1379 0060 0021     		movs	r1, #0
 1380              		.loc 1 705 0
 1381 0062 0220     		movs	r0, #2
 1382              	.LVL141:
 1383              		.loc 1 706 0
 1384 0064 0B46     		mov	r3, r1
 1385              		.loc 1 705 0
 1386 0066 84F82000 		strb	r0, [r4, #32]
 1387              		.loc 1 706 0
 1388 006a 0A46     		mov	r2, r1
 1389 006c 2046     		mov	r0, r4
 1390 006e FFF7FEFF 		bl	usbPrepareReceive
 1391              	.LVL142:
 1392              	.LBB33:
 1393              		.loc 1 707 0
 1394 0072 2023     		movs	r3, #32
 1395              	.LVL143:
 1396              	@ 707 "../../os/hal/src/usb.c" 1
 1397 0074 83F31188 		msr     BASEPRI, r3
 1398              	@ 0 "" 2
 1399              	.LVL144:
 1400              		.thumb
 1401              	.LBE33:
 1402              		.loc 1 708 0
 1403 0078 0021     		movs	r1, #0
 1404 007a 2046     		mov	r0, r4
 1405 007c FFF7FEFF 		bl	usbStartReceiveI
 1406              	.LVL145:
 1407              	.LBB34:
ARM GAS  /tmp/ccwjq9u9.s 			page 26


 1408              		.loc 1 709 0
 1409 0080 0023     		movs	r3, #0
 1410              	.LVL146:
 1411              	@ 709 "../../os/hal/src/usb.c" 1
 1412 0082 83F31188 		msr     BASEPRI, r3
 1413              	@ 0 "" 2
 1414              	.LVL147:
 1415              		.thumb
 1416              	.LBE34:
 1417              		.loc 1 710 0
 1418 0086 38BD     		pop	{r3, r4, r5, pc}
 1419              	.LVL148:
 1420              	.L138:
 1421              		.loc 1 697 0
 1422 0088 2B46     		mov	r3, r5
 1423 008a 2946     		mov	r1, r5
 1424 008c 2A46     		mov	r2, r5
 1425 008e FFF7FEFF 		bl	usbPrepareTransmit
 1426              	.LVL149:
 1427              	.LBB35:
 1428              		.loc 1 698 0
 1429 0092 2023     		movs	r3, #32
 1430              	.LVL150:
 1431              	@ 698 "../../os/hal/src/usb.c" 1
 1432 0094 83F31188 		msr     BASEPRI, r3
 1433              	@ 0 "" 2
 1434              	.LVL151:
 1435              		.thumb
 1436              	.LBE35:
 1437              		.loc 1 699 0
 1438 0098 2046     		mov	r0, r4
 1439 009a 2946     		mov	r1, r5
 1440 009c FFF7FEFF 		bl	usbStartTransmitI
 1441              	.LVL152:
 1442              	.LBB36:
 1443              		.loc 1 700 0
 1444 00a0 2B46     		mov	r3, r5
 1445              	.LVL153:
 1446              	@ 700 "../../os/hal/src/usb.c" 1
 1447 00a2 83F31188 		msr     BASEPRI, r3
 1448              	@ 0 "" 2
 1449              	.LVL154:
 1450              		.thumb
 1451              	.LBE36:
 1452              		.loc 1 701 0
 1453 00a6 38BD     		pop	{r3, r4, r5, pc}
 1454              		.cfi_endproc
 1455              	.LFE136:
 1456              		.size	_usb_ep0in, .-_usb_ep0in
 1457              		.section	.text._usb_ep0out,"ax",%progbits
 1458              		.align	2
 1459              		.p2align 4,,15
 1460              		.global	_usb_ep0out
 1461              		.thumb
 1462              		.thumb_func
 1463              		.type	_usb_ep0out, %function
 1464              	_usb_ep0out:
ARM GAS  /tmp/ccwjq9u9.s 			page 27


 1465              	.LFB137:
 1466              		.loc 1 739 0
 1467              		.cfi_startproc
 1468              		@ args = 0, pretend = 0, frame = 0
 1469              		@ frame_needed = 0, uses_anonymous_args = 0
 1470              	.LVL155:
 1471              		.loc 1 742 0
 1472 0000 90F82030 		ldrb	r3, [r0, #32]	@ zero_extendqisi2
 1473 0004 022B     		cmp	r3, #2
 1474              		.loc 1 739 0
 1475 0006 10B5     		push	{r4, lr}
 1476              	.LCFI15:
 1477              		.cfi_def_cfa_offset 8
 1478              		.cfi_offset 4, -8
 1479              		.cfi_offset 14, -4
 1480              		.loc 1 739 0
 1481 0008 0446     		mov	r4, r0
 1482              		.loc 1 742 0
 1483 000a 26D0     		beq	.L141
 1484 000c 032B     		cmp	r3, #3
 1485 000e 11D0     		beq	.L152
 1486              	.LVL156:
 1487              	.L140:
 1488              		.loc 1 766 0
 1489 0010 0021     		movs	r1, #0
 1490 0012 2046     		mov	r0, r4
 1491              	.LVL157:
 1492 0014 FFF7FEFF 		bl	usb_lld_stall_in
 1493              	.LVL158:
 1494              		.loc 1 767 0
 1495 0018 2046     		mov	r0, r4
 1496 001a 0021     		movs	r1, #0
 1497 001c FFF7FEFF 		bl	usb_lld_stall_out
 1498              	.LVL159:
 1499              		.loc 1 768 0
 1500 0020 6368     		ldr	r3, [r4, #4]
 1501 0022 1A68     		ldr	r2, [r3, #0]
 1502 0024 12B1     		cbz	r2, .L145
 1503              		.loc 1 768 0 is_stmt 0 discriminator 1
 1504 0026 2046     		mov	r0, r4
 1505 0028 0521     		movs	r1, #5
 1506 002a 9047     		blx	r2
 1507              	.LVL160:
 1508              	.L145:
 1509              		.loc 1 769 0 is_stmt 1
 1510 002c 0521     		movs	r1, #5
 1511 002e 84F82010 		strb	r1, [r4, #32]
 1512 0032 10BD     		pop	{r4, pc}
 1513              	.LVL161:
 1514              	.L152:
 1515              		.loc 1 746 0
 1516 0034 0021     		movs	r1, #0
 1517              	.LVL162:
 1518              		.loc 1 745 0
 1519 0036 0422     		movs	r2, #4
 1520              		.loc 1 746 0
 1521 0038 0B46     		mov	r3, r1
ARM GAS  /tmp/ccwjq9u9.s 			page 28


 1522              		.loc 1 745 0
 1523 003a 80F82020 		strb	r2, [r0, #32]
 1524              		.loc 1 746 0
 1525 003e 0A46     		mov	r2, r1
 1526 0040 FFF7FEFF 		bl	usbPrepareTransmit
 1527              	.LVL163:
 1528              	.LBB37:
 1529              		.loc 1 747 0
 1530 0044 2023     		movs	r3, #32
 1531              	.LVL164:
 1532              	@ 747 "../../os/hal/src/usb.c" 1
 1533 0046 83F31188 		msr     BASEPRI, r3
 1534              	@ 0 "" 2
 1535              	.LVL165:
 1536              		.thumb
 1537              	.LBE37:
 1538              		.loc 1 748 0
 1539 004a 0021     		movs	r1, #0
 1540 004c 2046     		mov	r0, r4
 1541 004e FFF7FEFF 		bl	usbStartTransmitI
 1542              	.LVL166:
 1543              	.LBB38:
 1544              		.loc 1 749 0
 1545 0052 0023     		movs	r3, #0
 1546              	.LVL167:
 1547              	@ 749 "../../os/hal/src/usb.c" 1
 1548 0054 83F31188 		msr     BASEPRI, r3
 1549              	@ 0 "" 2
 1550              	.LVL168:
 1551              		.thumb
 1552              	.LBE38:
 1553              		.loc 1 750 0
 1554 0058 10BD     		pop	{r4, pc}
 1555              	.LVL169:
 1556              	.L141:
 1557              		.loc 1 754 0
 1558 005a 0169     		ldr	r1, [r0, #16]
 1559              	.LVL170:
 1560 005c 8B69     		ldr	r3, [r1, #24]
 1561 005e 9A68     		ldr	r2, [r3, #8]
 1562 0060 002A     		cmp	r2, #0
 1563 0062 D5D1     		bne	.L140
 1564              		.loc 1 756 0
 1565 0064 C16A     		ldr	r1, [r0, #44]
 1566 0066 01B1     		cbz	r1, .L144
 1567              		.loc 1 757 0
 1568 0068 8847     		blx	r1
 1569              	.LVL171:
 1570              	.L144:
 1571              		.loc 1 758 0
 1572 006a 0020     		movs	r0, #0
 1573 006c 84F82000 		strb	r0, [r4, #32]
 1574              		.loc 1 759 0
 1575 0070 10BD     		pop	{r4, pc}
 1576              		.cfi_endproc
 1577              	.LFE137:
 1578              		.size	_usb_ep0out, .-_usb_ep0out
ARM GAS  /tmp/ccwjq9u9.s 			page 29


 1579 0072 00BFAFF3 		.section	.rodata.zero_status,"a",%progbits
 1579      0080AFF3 
 1579      0080AFF3 
 1579      0080
 1580              		.align	2
 1581              		.set	.LANCHOR0,. + 0
 1582              		.type	zero_status, %object
 1583              		.size	zero_status, 2
 1584              	zero_status:
 1585 0000 0000     		.space	2
 1586 0002 0000     		.section	.rodata.active_status,"a",%progbits
 1587              		.align	2
 1588              		.set	.LANCHOR2,. + 0
 1589              		.type	active_status, %object
 1590              		.size	active_status, 2
 1591              	active_status:
 1592 0000 0000     		.space	2
 1593 0002 0000     		.section	.rodata.halted_status,"a",%progbits
 1594              		.align	2
 1595              		.set	.LANCHOR1,. + 0
 1596              		.type	halted_status, %object
 1597              		.size	halted_status, 2
 1598              	halted_status:
 1599 0000 01       		.byte	1
 1600 0001 00       		.byte	0
 1601 0002 0000     		.text
 1602              	.Letext0:
 1603              		.file 2 "/usr/bin/../lib/gcc/arm-none-eabi/4.7.4/include/stddef.h"
 1604              		.file 3 "/usr/bin/../lib/gcc/arm-none-eabi/4.7.4/../../../../arm-none-eabi/include/stdint.h"
 1605              		.file 4 "../../os/ports/GCC/ARMCMx/chtypes.h"
 1606              		.file 5 "../../os/kernel/include/chlists.h"
 1607              		.file 6 "../../os/kernel/include/chthreads.h"
 1608              		.file 7 "../../os/ports/GCC/ARMCMx/chcore_v7m.h"
 1609              		.file 8 "../../os/kernel/include/chmtx.h"
 1610              		.file 9 "../../os/kernel/include/chqueues.h"
 1611              		.file 10 "../../os/hal/include/usb.h"
 1612              		.file 11 "../../os/hal/platforms/STM32/OTGv1/usb_lld.h"
 1613              		.file 12 "../../os/hal/platforms/STM32/OTGv1/stm32_otg.h"
 1614              		.file 13 "../../os/ports/common/ARMCMx/CMSIS/include/core_cm4.h"