ARM GAS  /tmp/cc3IGbAH.s 			page 1


   1              		.syntax unified
   2              		.cpu cortex-m4
   3              		.fpu softvfp
   4              		.eabi_attribute 20, 1
   5              		.eabi_attribute 21, 1
   6              		.eabi_attribute 23, 3
   7              		.eabi_attribute 24, 1
   8              		.eabi_attribute 25, 1
   9              		.eabi_attribute 26, 1
  10              		.eabi_attribute 30, 2
  11              		.eabi_attribute 34, 1
  12              		.eabi_attribute 18, 4
  13              		.thumb
  14              		.file	"usb_lld.c"
  15              		.text
  16              	.Ltext0:
  17              		.cfi_sections	.debug_frame
  18              		.section	.text.otg_disable_ep,"ax",%progbits
  19              		.align	2
  20              		.p2align 4,,15
  21              		.thumb
  22              		.thumb_func
  23              		.type	otg_disable_ep, %function
  24              	otg_disable_ep:
  25              	.LFB120:
  26              		.file 1 "../../os/hal/platforms/STM32/OTGv1/usb_lld.c"
  27              		.loc 1 145 0
  28              		.cfi_startproc
  29              		@ args = 0, pretend = 0, frame = 0
  30              		@ frame_needed = 0, uses_anonymous_args = 0
  31              		@ link register save eliminated.
  32              	.LVL0:
  33 0000 016C     		ldr	r1, [r0, #64]
  34              		.loc 1 146 0
  35 0002 C36B     		ldr	r3, [r0, #60]
  36              	.LVL1:
  37              		.loc 1 149 0
  38 0004 0022     		movs	r2, #0
  39              		.loc 1 145 0
  40 0006 2DE9F001 		push	{r4, r5, r6, r7, r8}
  41              	.LCFI0:
  42              		.cfi_def_cfa_offset 20
  43              		.cfi_offset 4, -20
  44              		.cfi_offset 5, -16
  45              		.cfi_offset 6, -12
  46              		.cfi_offset 7, -8
  47              		.cfi_offset 8, -4
  48              		.loc 1 160 0
  49 000a 1046     		mov	r0, r2
  50              	.LVL2:
  51 000c 8F68     		ldr	r7, [r1, #8]
  52              		.loc 1 154 0
  53 000e 4FF0804C 		mov	ip, #1073741824
  54              		.loc 1 162 0
  55 0012 4FF0FF36 		mov	r6, #-1
  56 0016 17E0     		b	.L8
  57              	.LVL3:
ARM GAS  /tmp/cc3IGbAH.s 			page 2


  58              	.L2:
  59              		.loc 1 160 0
  60 0018 5850     		str	r0, [r3, r1]
  61 001a 5501     		lsls	r5, r2, #5
  62              	.L4:
  63              		.loc 1 161 0
  64 001c 5C19     		adds	r4, r3, r5
  65              		.loc 1 168 0
  66 001e 02F15801 		add	r1, r2, #88
  67 0022 4901     		lsls	r1, r1, #5
  68              		.loc 1 161 0
  69 0024 C4F81009 		str	r0, [r4, #2320]
  70              		.loc 1 162 0
  71 0028 C4F80869 		str	r6, [r4, #2312]
  72              		.loc 1 168 0
  73 002c 53F80180 		ldr	r8, [r3, r1]
  74 0030 B8F1000F 		cmp	r8, #0
  75 0034 17DB     		blt	.L19
  76              		.loc 1 175 0
  77 0036 5850     		str	r0, [r3, r1]
  78              	.L7:
  79              		.loc 1 176 0
  80 0038 5D19     		adds	r5, r3, r5
  81              		.loc 1 149 0
  82 003a 0132     		adds	r2, r2, #1
  83              	.LVL4:
  84 003c BA42     		cmp	r2, r7
  85              		.loc 1 176 0
  86 003e C5F8100B 		str	r0, [r5, #2832]
  87              		.loc 1 177 0
  88 0042 C5F8086B 		str	r6, [r5, #2824]
  89              		.loc 1 149 0
  90 0046 15D8     		bhi	.L20
  91              	.LVL5:
  92              	.L8:
  93              		.loc 1 153 0
  94 0048 02F14804 		add	r4, r2, #72
  95 004c 6101     		lsls	r1, r4, #5
  96 004e 5D58     		ldr	r5, [r3, r1]
  97 0050 002D     		cmp	r5, #0
  98 0052 E1DA     		bge	.L2
  99 0054 5501     		lsls	r5, r2, #5
 100              		.loc 1 154 0
 101 0056 43F801C0 		str	ip, [r3, r1]
 102              		.loc 1 156 0
 103 005a 5C19     		adds	r4, r3, r5
 104              	.L3:
 105              		.loc 1 156 0 is_stmt 0 discriminator 1
 106 005c D4F80819 		ldr	r1, [r4, #2312]
 107 0060 8907     		lsls	r1, r1, #30
 108 0062 FBD5     		bpl	.L3
 109 0064 DAE7     		b	.L4
 110              	.L19:
 111              		.loc 1 169 0 is_stmt 1
 112 0066 43F801C0 		str	ip, [r3, r1]
 113              	.L6:
 114              		.loc 1 171 0 discriminator 1
ARM GAS  /tmp/cc3IGbAH.s 			page 3


 115 006a D4F8081B 		ldr	r1, [r4, #2824]
 116 006e C906     		lsls	r1, r1, #27
 117 0070 FBD5     		bpl	.L6
 118 0072 E1E7     		b	.L7
 119              	.LVL6:
 120              	.L20:
 121              		.loc 1 179 0
 122 0074 4FF00110 		mov	r0, #65537
 123 0078 C3F81C08 		str	r0, [r3, #2076]
 124              		.loc 1 180 0
 125 007c BDE8F001 		pop	{r4, r5, r6, r7, r8}
 126 0080 7047     		bx	lr
 127              		.cfi_endproc
 128              	.LFE120:
 129              		.size	otg_disable_ep, .-otg_disable_ep
 130 0082 00BFAFF3 		.section	.text.otg_epout_handler,"ax",%progbits
 130      0080AFF3 
 130      0080AFF3 
 130      0080
 131              		.align	2
 132              		.p2align 4,,15
 133              		.thumb
 134              		.thumb_func
 135              		.type	otg_epout_handler, %function
 136              	otg_epout_handler:
 137              	.LFB134:
 138              		.loc 1 580 0
 139              		.cfi_startproc
 140              		@ args = 0, pretend = 0, frame = 0
 141              		@ frame_needed = 0, uses_anonymous_args = 0
 142              	.LVL7:
 143 0000 F8B5     		push	{r3, r4, r5, r6, r7, lr}
 144              	.LCFI1:
 145              		.cfi_def_cfa_offset 24
 146              		.cfi_offset 3, -24
 147              		.cfi_offset 4, -20
 148              		.cfi_offset 5, -16
 149              		.cfi_offset 6, -12
 150              		.cfi_offset 7, -8
 151              		.cfi_offset 14, -4
 152              		.loc 1 581 0
 153 0002 C46B     		ldr	r4, [r0, #60]
 154              	.LVL8:
 155              		.loc 1 582 0
 156 0004 04EB4113 		add	r3, r4, r1, lsl #5
 157              		.loc 1 585 0
 158 0008 4FF0FF32 		mov	r2, #-1
 159              		.loc 1 582 0
 160 000c D3F8086B 		ldr	r6, [r3, #2824]
 161              	.LVL9:
 162              		.loc 1 585 0
 163 0010 C3F8082B 		str	r2, [r3, #2824]
 164              		.loc 1 587 0
 165 0014 3307     		lsls	r3, r6, #28
 166              		.loc 1 580 0
 167 0016 0546     		mov	r5, r0
 168 0018 0F46     		mov	r7, r1
ARM GAS  /tmp/cc3IGbAH.s 			page 4


 169              		.loc 1 587 0
 170 001a 03D5     		bpl	.L22
 171              		.loc 1 587 0 is_stmt 0 discriminator 1
 172 001c D4F81438 		ldr	r3, [r4, #2068]
 173 0020 1A07     		lsls	r2, r3, #28
 174 0022 15D4     		bmi	.L36
 175              	.LVL10:
 176              	.L22:
 177              		.loc 1 593 0 is_stmt 1
 178 0024 F307     		lsls	r3, r6, #31
 179 0026 03D5     		bpl	.L21
 180              		.loc 1 593 0 is_stmt 0 discriminator 1
 181 0028 D4F81408 		ldr	r0, [r4, #2068]
 182 002c C007     		lsls	r0, r0, #31
 183 002e 00D4     		bmi	.L37
 184              	.L21:
 185 0030 F8BD     		pop	{r3, r4, r5, r6, r7, pc}
 186              	.L37:
 187              		.loc 1 595 0 is_stmt 1
 188 0032 3B1D     		adds	r3, r7, #4
 189 0034 E989     		ldrh	r1, [r5, #14]
 190 0036 55F82300 		ldr	r0, [r5, r3, lsl #2]
 191 003a 0122     		movs	r2, #1
 192 003c 02FA07F2 		lsl	r2, r2, r7
 193 0040 21EA0203 		bic	r3, r1, r2
 194 0044 EB81     		strh	r3, [r5, #14]	@ movhi
 195 0046 C268     		ldr	r2, [r0, #12]
 196 0048 3946     		mov	r1, r7
 197 004a 2846     		mov	r0, r5
 198 004c 9047     		blx	r2
 199              	.LVL11:
 200 004e F8BD     		pop	{r3, r4, r5, r6, r7, pc}
 201              	.LVL12:
 202              	.L36:
 203              		.loc 1 590 0
 204 0050 0A1D     		adds	r2, r1, #4
 205 0052 50F82230 		ldr	r3, [r0, r2, lsl #2]
 206 0056 5A68     		ldr	r2, [r3, #4]
 207 0058 9047     		blx	r2
 208              	.LVL13:
 209 005a E3E7     		b	.L22
 210              		.cfi_endproc
 211              	.LFE134:
 212              		.size	otg_epout_handler, .-otg_epout_handler
 213 005c AFF30080 		.section	.text.otg_txfifo_flush,"ax",%progbits
 214              		.align	2
 215              		.p2align 4,,15
 216              		.thumb
 217              		.thumb_func
 218              		.type	otg_txfifo_flush, %function
 219              	otg_txfifo_flush:
 220              	.LFB122:
 221              		.loc 1 192 0
 222              		.cfi_startproc
 223              		@ args = 0, pretend = 0, frame = 0
 224              		@ frame_needed = 0, uses_anonymous_args = 0
 225              		@ link register save eliminated.
ARM GAS  /tmp/cc3IGbAH.s 			page 5


 226              	.LVL14:
 227              		.loc 1 193 0
 228 0000 C26B     		ldr	r2, [r0, #60]
 229              	.LVL15:
 230              		.loc 1 195 0
 231 0002 8901     		lsls	r1, r1, #6
 232              	.LVL16:
 233 0004 41F02003 		orr	r3, r1, #32
 234 0008 1361     		str	r3, [r2, #16]
 235              	.LVL17:
 236              	.L39:
 237              		.loc 1 196 0 discriminator 1
 238 000a 1069     		ldr	r0, [r2, #16]
 239 000c 8106     		lsls	r1, r0, #26
 240 000e FCD4     		bmi	.L39
 241              		.loc 1 199 0
 242 0010 0C20     		movs	r0, #12
 243              		.loc 1 200 0
 244              		.loc 1 199 0
 245 0012 FFF7FEBF 		b	halPolledDelay
 246              	.LVL18:
 247              		.cfi_endproc
 248              	.LFE122:
 249              		.size	otg_txfifo_flush, .-otg_txfifo_flush
 250 0016 00BFAFF3 		.section	.text.usb_lld_pump,"ax",%progbits
 250      0080AFF3 
 250      0080
 251              		.align	2
 252              		.p2align 4,,15
 253              		.thumb
 254              		.thumb_func
 255              		.type	usb_lld_pump, %function
 256              	usb_lld_pump:
 257              	.LFB136:
 258              		.loc 1 679 0
 259              		.cfi_startproc
 260              		@ args = 0, pretend = 0, frame = 24
 261              		@ frame_needed = 0, uses_anonymous_args = 0
 262              	.LVL19:
 263 0000 2DE9F04F 		push	{r4, r5, r6, r7, r8, r9, sl, fp, lr}
 264              	.LCFI2:
 265              		.cfi_def_cfa_offset 36
 266              		.cfi_offset 4, -36
 267              		.cfi_offset 5, -32
 268              		.cfi_offset 6, -28
 269              		.cfi_offset 7, -24
 270              		.cfi_offset 8, -20
 271              		.cfi_offset 9, -16
 272              		.cfi_offset 10, -12
 273              		.cfi_offset 11, -8
 274              		.cfi_offset 14, -4
 275              		.loc 1 683 0
 276 0004 40F20001 		movw	r1, #:lower16:rlist
 277 0008 C0F20001 		movt	r1, #:upper16:rlist
 278              		.loc 1 681 0
 279 000c D0F83CA0 		ldr	sl, [r0, #60]
 280              		.loc 1 683 0
ARM GAS  /tmp/cc3IGbAH.s 			page 6


 281 0010 8A69     		ldr	r2, [r1, #24]
 282              		.loc 1 679 0
 283 0012 8346     		mov	fp, r0
 284              	.LVL20:
 285              		.loc 1 683 0
 286 0014 9048     		ldr	r0, .L231
 287              	.LVL21:
 288              		.loc 1 679 0
 289 0016 87B0     		sub	sp, sp, #28
 290              	.LCFI3:
 291              		.cfi_def_cfa_offset 64
 292              	.LBB85:
 293              		.loc 1 684 0
 294 0018 2023     		movs	r3, #32
 295              	.LVL22:
 296              	.LBE85:
 297              		.loc 1 683 0
 298 001a 9061     		str	r0, [r2, #24]
 299              	.LBB86:
 300              		.loc 1 684 0
 301              	@ 684 "../../os/hal/platforms/STM32/OTGv1/usb_lld.c" 1
 302 001c 83F31188 		msr     BASEPRI, r3
 303              	@ 0 "" 2
 304              	.LVL23:
 305              		.thumb
 306              	.LBE86:
 307              	.LBB87:
 308              	.LBB88:
 309              		.loc 1 696 0
 310 0020 4FF00008 		mov	r8, #0
 311              	.LVL24:
 312              	.L102:
 313              	.LBE88:
 314              		.loc 1 690 0
 315 0024 9BF80030 		ldrb	r3, [fp, #0]	@ zero_extendqisi2
 316              	.LVL25:
 317 0028 012B     		cmp	r3, #1
 318 002a 06D0     		beq	.L42
 319              		.loc 1 690 0 is_stmt 0 discriminator 1
 320 002c DBF84840 		ldr	r4, [fp, #72]
 321 0030 9CB9     		cbnz	r4, .L43
 322              		.loc 1 691 0 is_stmt 1
 323 0032 DAF81450 		ldr	r5, [sl, #20]
 324 0036 E806     		lsls	r0, r5, #27
 325 0038 0FD4     		bmi	.L43
 326              	.L42:
 327              		.loc 1 693 0
 328 003a 40F20007 		movw	r7, #:lower16:rlist
 329 003e C0F20007 		movt	r7, #:upper16:rlist
 330              		.loc 1 692 0
 331 0042 DAF81860 		ldr	r6, [sl, #24]
 332              		.loc 1 693 0
 333 0046 B969     		ldr	r1, [r7, #24]
 334              		.loc 1 692 0
 335 0048 46F01002 		orr	r2, r6, #16
 336 004c CAF81820 		str	r2, [sl, #24]
 337              		.loc 1 694 0
ARM GAS  /tmp/cc3IGbAH.s 			page 7


 338 0050 0220     		movs	r0, #2
 339              		.loc 1 693 0
 340 0052 CBF85010 		str	r1, [fp, #80]
 341              		.loc 1 694 0
 342 0056 FFF7FEFF 		bl	chSchGoSleepS
 343              	.LVL26:
 344              	.L43:
 345              	.LBB89:
 346              		.loc 1 696 0
 347 005a 0023     		movs	r3, #0
 348              	.LVL27:
 349              	@ 696 "../../os/hal/platforms/STM32/OTGv1/usb_lld.c" 1
 350 005c 83F31188 		msr     BASEPRI, r3
 351              	@ 0 "" 2
 352              	.LVL28:
 353              		.loc 1 699 0
 354              		.thumb
 355 0060 1C46     		mov	r4, r3
 356              	.LVL29:
 357              	.L201:
 358              	.LBE89:
 359              		.loc 1 702 0 discriminator 1
 360 0062 DAF81400 		ldr	r0, [sl, #20]
 361 0066 10F01007 		ands	r7, r0, #16
 362 006a 3AD0     		beq	.L227
 363              	.L68:
 364              	.LVL30:
 365              	.LBB90:
 366              	.LBB91:
 367              		.loc 1 452 0
 368 006c DBF83C00 		ldr	r0, [fp, #60]
 369 0070 056A     		ldr	r5, [r0, #32]
 370              	.LVL31:
 371              		.loc 1 453 0
 372 0072 05F4F017 		and	r7, r5, #1966080
 373 0076 B7F5802F 		cmp	r7, #262144
 374 007a 47D0     		beq	.L46
 375 007c B7F5402F 		cmp	r7, #786432
 376 0080 EFD1     		bne	.L201
 377              	.LVL32:
 378              		.loc 1 458 0
 379 0082 05F00F06 		and	r6, r5, #15
 380              	.LVL33:
 381              		.loc 1 459 0
 382 0086 311D     		adds	r1, r6, #4
 383              		.loc 1 457 0
 384 0088 C5F30A12 		ubfx	r2, r5, #4, #11
 385              		.loc 1 459 0
 386 008c 5BF82130 		ldr	r3, [fp, r1, lsl #2]
 387              	.LVL34:
 388              	.LBB92:
 389              	.LBB93:
 390              		.loc 1 370 0
 391 0090 D51C     		adds	r5, r2, #3
 392              	.LVL35:
 393              		.loc 1 372 0
 394 0092 AE08     		lsrs	r6, r5, #2
ARM GAS  /tmp/cc3IGbAH.s 			page 8


 395              	.LVL36:
 396              	.LBE93:
 397              	.LBE92:
 398              		.loc 1 459 0
 399 0094 1F6A     		ldr	r7, [r3, #32]
 400              	.LVL37:
 401              	.LBB100:
 402              	.LBB99:
 403              		.loc 1 372 0
 404 0096 E4D0     		beq	.L201
 405 0098 00F58050 		add	r0, r0, #4096
 406              	.LVL38:
 407 009c 721E     		subs	r2, r6, #1
 408              	.LBB94:
 409              		.loc 1 373 0
 410 009e 0368     		ldr	r3, [r0, #0]
 411              	.LVL39:
 412              	.LBE94:
 413              		.loc 1 372 0
 414 00a0 1146     		mov	r1, r2
 415              	.LVL40:
 416              	.LBB95:
 417              		.loc 1 377 0
 418 00a2 47F8043B 		str	r3, [r7], #4
 419              	.LVL41:
 420 00a6 02F00105 		and	r5, r2, #1
 421              		.loc 1 379 0
 422 00aa 0123     		movs	r3, #1
 423              	.LVL42:
 424              	.LBE95:
 425              		.loc 1 372 0
 426 00ac 002A     		cmp	r2, #0
 427 00ae D8D0     		beq	.L201
 428 00b0 2DB1     		cbz	r5, .L48
 429              	.LBB96:
 430              		.loc 1 373 0
 431 00b2 0668     		ldr	r6, [r0, #0]
 432              	.LVL43:
 433              		.loc 1 379 0
 434 00b4 0023     		movs	r3, #0
 435              	.LVL44:
 436              	.LBE96:
 437              		.loc 1 372 0
 438 00b6 511E     		subs	r1, r2, #1
 439              	.LVL45:
 440              	.LBB97:
 441              		.loc 1 377 0
 442 00b8 47F8046B 		str	r6, [r7], #4
 443              	.LVL46:
 444              	.LBE97:
 445              		.loc 1 372 0
 446 00bc D1D0     		beq	.L201
 447              	.L48:
 448              	.LBB98:
 449              		.loc 1 373 0
 450 00be 0268     		ldr	r2, [r0, #0]
 451              		.loc 1 374 0
ARM GAS  /tmp/cc3IGbAH.s 			page 9


 452 00c0 13B1     		cbz	r3, .L50
 453              		.loc 1 377 0
 454 00c2 47F8042B 		str	r2, [r7], #4
 455              	.LVL47:
 456              		.loc 1 379 0
 457 00c6 013B     		subs	r3, r3, #1
 458              	.LVL48:
 459              	.L50:
 460              		.loc 1 381 0
 461 00c8 0139     		subs	r1, r1, #1
 462              		.loc 1 373 0
 463 00ca 0568     		ldr	r5, [r0, #0]
 464              		.loc 1 374 0
 465 00cc 13B1     		cbz	r3, .L160
 466              		.loc 1 377 0
 467 00ce 47F8045B 		str	r5, [r7], #4
 468              	.LVL49:
 469              		.loc 1 379 0
 470 00d2 013B     		subs	r3, r3, #1
 471              	.LVL50:
 472              	.L160:
 473              	.LBE98:
 474              		.loc 1 372 0
 475 00d4 0139     		subs	r1, r1, #1
 476 00d6 F2D1     		bne	.L48
 477              	.LBE99:
 478              	.LBE100:
 479              	.LBE91:
 480              	.LBE90:
 481              		.loc 1 702 0
 482 00d8 DAF81400 		ldr	r0, [sl, #20]
 483              	.LVL51:
 484 00dc 10F01007 		ands	r7, r0, #16
 485              	.LVL52:
 486 00e0 C4D1     		bne	.L68
 487              	.LVL53:
 488              	.L227:
 489              		.loc 1 706 0
 490 00e2 0125     		movs	r5, #1
 491              		.loc 1 707 0
 492 00e4 DBF84830 		ldr	r3, [fp, #72]
 493              	.LVL54:
 494              		.loc 1 706 0
 495 00e8 A540     		lsls	r5, r5, r4
 496              		.loc 1 707 0
 497 00ea 1D42     		tst	r5, r3
 498              		.loc 1 706 0
 499 00ec 0495     		str	r5, [sp, #16]
 500              	.LVL55:
 501              		.loc 1 707 0
 502 00ee 40F0B580 		bne	.L206
 503 00f2 0134     		adds	r4, r4, #1
 504 00f4 0594     		str	r4, [sp, #20]
 505              	.LVL56:
 506              	.L69:
 507              		.loc 1 699 0
 508 00f6 DBF84010 		ldr	r1, [fp, #64]
ARM GAS  /tmp/cc3IGbAH.s 			page 10


 509 00fa 059A     		ldr	r2, [sp, #20]
 510 00fc 8B68     		ldr	r3, [r1, #8]
 511              	.LVL57:
 512 00fe D4B2     		uxtb	r4, r2
 513              	.LVL58:
 514 0100 9C42     		cmp	r4, r3
 515 0102 AED9     		bls	.L201
 516              	.LBB119:
 517              		.loc 1 731 0
 518 0104 2023     		movs	r3, #32
 519              	@ 731 "../../os/hal/platforms/STM32/OTGv1/usb_lld.c" 1
 520 0106 83F31188 		msr     BASEPRI, r3
 521              	@ 0 "" 2
 522              	.LVL59:
 523              		.thumb
 524              	.LBE119:
 525              	.LBE87:
 526              		.loc 1 732 0
 527 010a 8BE7     		b	.L102
 528              	.LVL60:
 529              	.L46:
 530              	.LBB154:
 531              	.LBB120:
 532              	.LBB118:
 533              		.loc 1 464 0
 534 010c 05F00F07 		and	r7, r5, #15
 535              		.loc 1 465 0
 536 0110 0437     		adds	r7, r7, #4
 537              		.loc 1 463 0
 538 0112 C5F30A16 		ubfx	r6, r5, #4, #11
 539              	.LVL61:
 540              		.loc 1 465 0
 541 0116 5BF82720 		ldr	r2, [fp, r7, lsl #2]
 542 011a 9569     		ldr	r5, [r2, #24]
 543              	.LVL62:
 544 011c 2B68     		ldr	r3, [r5, #0]
 545              	.LVL63:
 546 011e 002B     		cmp	r3, #0
 547 0120 3AD1     		bne	.L228
 548              		.loc 1 472 0
 549 0122 6968     		ldr	r1, [r5, #4]
 550              	.LBB101:
 551              	.LBB102:
 552              		.loc 1 371 0
 553 0124 AB68     		ldr	r3, [r5, #8]
 554              	.LBE102:
 555              	.LBE101:
 556              		.loc 1 472 0
 557 0126 EA68     		ldr	r2, [r5, #12]
 558              	.LVL64:
 559 0128 0331     		adds	r1, r1, #3
 560              	.LVL65:
 561              	.LBB107:
 562              	.LBB106:
 563              		.loc 1 371 0
 564 012a CB1A     		subs	r3, r1, r3
 565              	.LVL66:
ARM GAS  /tmp/cc3IGbAH.s 			page 11


 566              		.loc 1 370 0
 567 012c F11C     		adds	r1, r6, #3
 568              	.LVL67:
 569              		.loc 1 371 0
 570 012e 9B08     		lsrs	r3, r3, #2
 571              	.LVL68:
 572              		.loc 1 372 0
 573 0130 8908     		lsrs	r1, r1, #2
 574              	.LVL69:
 575 0132 28D0     		beq	.L65
 576 0134 00F58050 		add	r0, r0, #4096
 577              	.LVL70:
 578 0138 01F1FF39 		add	r9, r1, #-1
 579 013c 09F0010E 		and	lr, r9, #1
 580              	.LBB103:
 581              		.loc 1 373 0
 582 0140 D0F800C0 		ldr	ip, [r0, #0]
 583              	.LVL71:
 584              		.loc 1 374 0
 585 0144 13B1     		cbz	r3, .L148
 586              		.loc 1 377 0
 587 0146 42F804CB 		str	ip, [r2], #4
 588              	.LVL72:
 589              		.loc 1 379 0
 590 014a 013B     		subs	r3, r3, #1
 591              	.LVL73:
 592              	.L148:
 593              	.LBE103:
 594              		.loc 1 372 0
 595 014c 0139     		subs	r1, r1, #1
 596              	.LVL74:
 597 014e 19D0     		beq	.L211
 598 0150 BEF1000F 		cmp	lr, #0
 599 0154 07D0     		beq	.L220
 600              	.LBB104:
 601              		.loc 1 373 0
 602 0156 D0F80090 		ldr	r9, [r0, #0]
 603              	.LVL75:
 604              		.loc 1 374 0
 605 015a 13B1     		cbz	r3, .L150
 606              		.loc 1 377 0
 607 015c 42F8049B 		str	r9, [r2], #4
 608              	.LVL76:
 609              		.loc 1 379 0
 610 0160 013B     		subs	r3, r3, #1
 611              	.LVL77:
 612              	.L150:
 613              	.LBE104:
 614              		.loc 1 372 0
 615 0162 0139     		subs	r1, r1, #1
 616 0164 0ED0     		beq	.L211
 617              	.L220:
 618 0166 A646     		mov	lr, r4
 619              	.L67:
 620              	.LBB105:
 621              		.loc 1 373 0
 622 0168 0468     		ldr	r4, [r0, #0]
ARM GAS  /tmp/cc3IGbAH.s 			page 12


 623              		.loc 1 374 0
 624 016a 13B1     		cbz	r3, .L66
 625              		.loc 1 377 0
 626 016c 42F8044B 		str	r4, [r2], #4
 627              	.LVL78:
 628              		.loc 1 379 0
 629 0170 013B     		subs	r3, r3, #1
 630              	.LVL79:
 631              	.L66:
 632              		.loc 1 381 0
 633 0172 0139     		subs	r1, r1, #1
 634              		.loc 1 373 0
 635 0174 0468     		ldr	r4, [r0, #0]
 636              		.loc 1 374 0
 637 0176 13B1     		cbz	r3, .L153
 638              		.loc 1 377 0
 639 0178 42F8044B 		str	r4, [r2], #4
 640              	.LVL80:
 641              		.loc 1 379 0
 642 017c 013B     		subs	r3, r3, #1
 643              	.LVL81:
 644              	.L153:
 645              	.LBE105:
 646              		.loc 1 372 0
 647 017e 0139     		subs	r1, r1, #1
 648 0180 F2D1     		bne	.L67
 649 0182 7446     		mov	r4, lr
 650              	.L211:
 651 0184 EA68     		ldr	r2, [r5, #12]
 652              	.LVL82:
 653              	.L65:
 654              	.LBE106:
 655              	.LBE107:
 656              		.loc 1 477 0
 657 0186 9019     		adds	r0, r2, r6
 658 0188 E860     		str	r0, [r5, #12]
 659              	.LVL83:
 660              	.L62:
 661              		.loc 1 479 0
 662 018a 5BF82770 		ldr	r7, [fp, r7, lsl #2]
 663              	.LVL84:
 664 018e B869     		ldr	r0, [r7, #24]
 665 0190 8568     		ldr	r5, [r0, #8]
 666 0192 AE19     		adds	r6, r5, r6
 667              	.LVL85:
 668 0194 8660     		str	r6, [r0, #8]
 669 0196 64E7     		b	.L201
 670              	.LVL86:
 671              	.L228:
 672              		.loc 1 467 0
 673 0198 00F58050 		add	r0, r0, #4096
 674 019c ED68     		ldr	r5, [r5, #12]
 675              	.LVL87:
 676              	.LBB108:
 677              	.LBB109:
 678              		.loc 1 400 0
 679 019e 002E     		cmp	r6, #0
ARM GAS  /tmp/cc3IGbAH.s 			page 13


 680 01a0 40D0     		beq	.L53
 681 01a2 3346     		mov	r3, r6
 682 01a4 A446     		mov	ip, r4
 683              	.LVL88:
 684              	.L200:
 685              	.LBB110:
 686              		.loc 1 404 0
 687 01a6 032B     		cmp	r3, #3
 688              	.LBB111:
 689              		.loc 1 410 0
 690 01a8 6969     		ldr	r1, [r5, #20]
 691              	.LBE111:
 692              		.loc 1 404 0
 693 01aa 07D9     		bls	.L55
 694              	.LVL89:
 695              	.L203:
 696              	.LBB112:
 697              		.loc 1 410 0
 698 01ac 2C69     		ldr	r4, [r5, #16]
 699 01ae A142     		cmp	r1, r4
 700 01b0 04D3     		bcc	.L55
 701              		.loc 1 411 0
 702 01b2 EC68     		ldr	r4, [r5, #12]
 703              	.LBE112:
 704              		.loc 1 404 0
 705 01b4 032B     		cmp	r3, #3
 706              	.LBB113:
 707              		.loc 1 411 0
 708 01b6 6C61     		str	r4, [r5, #20]
 709              	.LVL90:
 710              		.loc 1 410 0
 711 01b8 6969     		ldr	r1, [r5, #20]
 712              	.LBE113:
 713              		.loc 1 404 0
 714 01ba F7D8     		bhi	.L203
 715              	.LVL91:
 716              	.L55:
 717              		.loc 1 422 0
 718 01bc 0268     		ldr	r2, [r0, #0]
 719              	.LVL92:
 720              		.loc 1 425 0
 721 01be 01F8012B 		strb	r2, [r1], #1
 722              		.loc 1 426 0
 723 01c2 2C69     		ldr	r4, [r5, #16]
 724              		.loc 1 425 0
 725 01c4 6961     		str	r1, [r5, #20]
 726              		.loc 1 426 0
 727 01c6 A142     		cmp	r1, r4
 728              		.loc 1 427 0
 729 01c8 24BF     		itt	cs
 730 01ca E968     		ldrcs	r1, [r5, #12]
 731 01cc 6961     		strcs	r1, [r5, #20]
 732              		.loc 1 424 0
 733 01ce 012B     		cmp	r3, #1
 734 01d0 27D0     		beq	.L214
 735              	.LVL93:
 736              		.loc 1 425 0
ARM GAS  /tmp/cc3IGbAH.s 			page 14


 737 01d2 D5F81490 		ldr	r9, [r5, #20]
 738 01d6 110A     		lsrs	r1, r2, #8
 739 01d8 09F8011B 		strb	r1, [r9], #1
 740              		.loc 1 426 0
 741 01dc 2C69     		ldr	r4, [r5, #16]
 742              		.loc 1 425 0
 743 01de C5F81490 		str	r9, [r5, #20]
 744              		.loc 1 426 0
 745 01e2 A145     		cmp	r9, r4
 746              		.loc 1 427 0
 747 01e4 24BF     		itt	cs
 748 01e6 EC68     		ldrcs	r4, [r5, #12]
 749 01e8 6C61     		strcs	r4, [r5, #20]
 750              		.loc 1 424 0
 751 01ea 022B     		cmp	r3, #2
 752 01ec 19D0     		beq	.L214
 753              	.LVL94:
 754              		.loc 1 425 0
 755 01ee D5F814E0 		ldr	lr, [r5, #20]
 756 01f2 110C     		lsrs	r1, r2, #16
 757 01f4 0EF8011B 		strb	r1, [lr], #1
 758              		.loc 1 426 0
 759 01f8 2C69     		ldr	r4, [r5, #16]
 760              		.loc 1 425 0
 761 01fa C5F814E0 		str	lr, [r5, #20]
 762              		.loc 1 426 0
 763 01fe A645     		cmp	lr, r4
 764              		.loc 1 427 0
 765 0200 24BF     		itt	cs
 766 0202 EC68     		ldrcs	r4, [r5, #12]
 767 0204 6C61     		strcs	r4, [r5, #20]
 768              		.loc 1 424 0
 769 0206 032B     		cmp	r3, #3
 770 0208 0BD0     		beq	.L214
 771              	.LVL95:
 772              		.loc 1 425 0
 773 020a 6969     		ldr	r1, [r5, #20]
 774 020c 120E     		lsrs	r2, r2, #24
 775              	.LVL96:
 776 020e 01F8012B 		strb	r2, [r1], #1
 777              		.loc 1 426 0
 778 0212 2C69     		ldr	r4, [r5, #16]
 779              		.loc 1 425 0
 780 0214 6961     		str	r1, [r5, #20]
 781              		.loc 1 426 0
 782 0216 A142     		cmp	r1, r4
 783              		.loc 1 427 0
 784 0218 24BF     		itt	cs
 785 021a EC68     		ldrcs	r4, [r5, #12]
 786 021c 6C61     		strcs	r4, [r5, #20]
 787              		.loc 1 424 0
 788 021e 043B     		subs	r3, r3, #4
 789              	.LVL97:
 790 0220 C1D1     		bne	.L200
 791              	.LVL98:
 792              	.L214:
 793 0222 6446     		mov	r4, ip
ARM GAS  /tmp/cc3IGbAH.s 			page 15


 794              	.L53:
 795              	.LBE110:
 796              	.LBB114:
 797              		.loc 1 434 0
 798 0224 2023     		movs	r3, #32
 799              	.LVL99:
 800              	@ 434 "../../os/hal/platforms/STM32/OTGv1/usb_lld.c" 1
 801 0226 83F31188 		msr     BASEPRI, r3
 802              	@ 0 "" 2
 803              	.LVL100:
 804              		.thumb
 805              	.LBE114:
 806              		.loc 1 435 0
 807 022a A968     		ldr	r1, [r5, #8]
 808              		.loc 1 436 0
 809 022c 2868     		ldr	r0, [r5, #0]
 810              	.LVL101:
 811              		.loc 1 435 0
 812 022e 8A19     		adds	r2, r1, r6
 813              		.loc 1 436 0
 814 0230 A842     		cmp	r0, r5
 815              		.loc 1 435 0
 816 0232 AA60     		str	r2, [r5, #8]
 817              		.loc 1 436 0
 818 0234 09D0     		beq	.L64
 819              	.LVL102:
 820              	.L139:
 821              	.LBB115:
 822              	.LBB116:
 823              		.file 2 "../../os/kernel/include/chinline.h"
 824              		.loc 2 55 0
 825 0236 0368     		ldr	r3, [r0, #0]
 826              	.LVL103:
 827 0238 2B60     		str	r3, [r5, #0]
 828 023a 5D60     		str	r5, [r3, #4]
 829              	.LBE116:
 830              	.LBE115:
 831              		.loc 1 437 0
 832 023c FFF7FEFF 		bl	chSchReadyI
 833              	.LVL104:
 834 0240 C0F82480 		str	r8, [r0, #36]
 835              		.loc 1 436 0
 836 0244 2868     		ldr	r0, [r5, #0]
 837 0246 A842     		cmp	r0, r5
 838 0248 F5D1     		bne	.L139
 839              	.LVL105:
 840              	.L64:
 841              		.loc 1 438 0
 842 024a FFF7FEFF 		bl	chSchRescheduleS
 843              	.LVL106:
 844              	.LBB117:
 845              		.loc 1 439 0
 846 024e 0023     		movs	r3, #0
 847              	@ 439 "../../os/hal/platforms/STM32/OTGv1/usb_lld.c" 1
 848 0250 83F31188 		msr     BASEPRI, r3
 849              	@ 0 "" 2
 850              	.LVL107:
ARM GAS  /tmp/cc3IGbAH.s 			page 16


 851              		.thumb
 852 0254 99E7     		b	.L62
 853              	.L232:
 854 0256 00BF     		.align	2
 855              	.L231:
 856 0258 00000000 		.word	.LC0
 857              	.LVL108:
 858              	.L206:
 859              	.LBE117:
 860              	.LBE109:
 861              	.LBE108:
 862              	.LBE118:
 863              	.LBE120:
 864              	.LBB121:
 865              	.LBB122:
 866              		.loc 1 710 0
 867 025c 2023     		movs	r3, #32
 868              	.LVL109:
 869              	@ 710 "../../os/hal/platforms/STM32/OTGv1/usb_lld.c" 1
 870 025e 83F31188 		msr     BASEPRI, r3
 871              	@ 0 "" 2
 872              	.LVL110:
 873              		.thumb
 874              	.LBE122:
 875              		.loc 1 718 0
 876 0262 DAF80860 		ldr	r6, [sl, #8]
 877              		.loc 1 719 0
 878 0266 DBF84810 		ldr	r1, [fp, #72]
 879 026a 0498     		ldr	r0, [sp, #16]
 880              		.loc 1 718 0
 881 026c 26F00102 		bic	r2, r6, #1
 882              		.loc 1 719 0
 883 0270 21EA0005 		bic	r5, r1, r0
 884              	.LVL111:
 885              		.loc 1 718 0
 886 0274 CAF80820 		str	r2, [sl, #8]
 887              	.LBB123:
 888              		.loc 1 720 0
 889 0278 3B46     		mov	r3, r7
 890              	.LVL112:
 891              	.LBE123:
 892              		.loc 1 719 0
 893 027a CBF84850 		str	r5, [fp, #72]
 894              	.LBB124:
 895              		.loc 1 720 0
 896              	@ 720 "../../os/hal/platforms/STM32/OTGv1/usb_lld.c" 1
 897 027e 83F31188 		msr     BASEPRI, r3
 898              	@ 0 "" 2
 899              	.LVL113:
 900              		.thumb
 901              	.LBE124:
 902              	.LBB125:
 903              	.LBB126:
 904              		.loc 1 503 0
 905 0282 271D     		adds	r7, r4, #4
 906 0284 0297     		str	r7, [sp, #8]
 907 0286 5BF82760 		ldr	r6, [fp, r7, lsl #2]
ARM GAS  /tmp/cc3IGbAH.s 			page 17


 908 028a 7269     		ldr	r2, [r6, #20]
 909 028c 9368     		ldr	r3, [r2, #8]
 910              	.LVL114:
 911 028e 5068     		ldr	r0, [r2, #4]
 912 0290 9842     		cmp	r0, r3
 913 0292 40F2F680 		bls	.L229
 914              		.loc 1 513 0
 915 0296 DBF83C10 		ldr	r1, [fp, #60]
 916              		.loc 1 508 0
 917 029a 358A     		ldrh	r5, [r6, #16]
 918              		.loc 1 513 0
 919 029c 6701     		lsls	r7, r4, #5
 920 029e CE19     		adds	r6, r1, r7
 921              		.loc 1 507 0
 922 02a0 C01A     		subs	r0, r0, r3
 923              	.LVL115:
 924              		.loc 1 513 0
 925 02a2 D6F81839 		ldr	r3, [r6, #2328]
 926 02a6 0397     		str	r7, [sp, #12]
 927 02a8 8542     		cmp	r5, r0
 928 02aa 28BF     		it	cs
 929 02ac 0546     		movcs	r5, r0
 930              	.LVL116:
 931 02ae 9FB2     		uxth	r7, r3
 932 02b0 0134     		adds	r4, r4, #1
 933              	.LVL117:
 934 02b2 B5EB870F 		cmp	r5, r7, lsl #2
 935 02b6 0594     		str	r4, [sp, #20]
 936 02b8 43D8     		bhi	.L73
 937              		.loc 1 528 0
 938 02ba 2603     		lsls	r6, r4, #12
 939 02bc 0196     		str	r6, [sp, #4]
 940 02be 0C46     		mov	r4, r1
 941              	.LVL118:
 942              	.L74:
 943              		.loc 1 520 0
 944 02c0 1168     		ldr	r1, [r2, #0]
 945 02c2 0029     		cmp	r1, #0
 946 02c4 53D1     		bne	.L230
 947              	.LBB127:
 948              	.LBB128:
 949              		.loc 1 269 0
 950 02c6 EB1C     		adds	r3, r5, #3
 951              	.LBE128:
 952              	.LBE127:
 953              		.loc 1 528 0
 954 02c8 0198     		ldr	r0, [sp, #4]
 955 02ca D168     		ldr	r1, [r2, #12]
 956              	.LBB135:
 957              	.LBB133:
 958              	.LBB129:
 959              	.LBB130:
 960              		.loc 1 246 0
 961 02cc 9F08     		lsrs	r7, r3, #2
 962              	.LBE130:
 963              	.LBE129:
 964              	.LBE133:
ARM GAS  /tmp/cc3IGbAH.s 			page 18


 965              	.LBE135:
 966              		.loc 1 528 0
 967 02ce 2044     		add	r0, r4, r0
 968              	.LVL119:
 969              	.LBB136:
 970              	.LBB134:
 971              	.LBB132:
 972              	.LBB131:
 973              		.loc 1 246 0
 974 02d0 1BD0     		beq	.L95
 975 02d2 7E1E     		subs	r6, r7, #1
 976              		.loc 1 249 0
 977 02d4 51F804EB 		ldr	lr, [r1], #4
 978              	.LVL120:
 979              		.loc 1 246 0
 980 02d8 3346     		mov	r3, r6
 981 02da 06F00107 		and	r7, r6, #1
 982              	.LVL121:
 983              		.loc 1 249 0
 984 02de 019E     		ldr	r6, [sp, #4]
 985 02e0 0431     		adds	r1, r1, #4
 986 02e2 44F806E0 		str	lr, [r4, r6]
 987              	.LVL122:
 988              		.loc 1 246 0
 989 02e6 7BB1     		cbz	r3, .L209
 990 02e8 2FB1     		cbz	r7, .L96
 991              		.loc 1 249 0
 992 02ea 51F8044C 		ldr	r4, [r1, #-4]
 993 02ee 0431     		adds	r1, r1, #4
 994              		.loc 1 246 0
 995 02f0 013B     		subs	r3, r3, #1
 996              	.LVL123:
 997              		.loc 1 249 0
 998 02f2 0460     		str	r4, [r0, #0]
 999              	.LVL124:
 1000              		.loc 1 246 0
 1001 02f4 08D0     		beq	.L209
 1002              	.L96:
 1003              		.loc 1 249 0
 1004 02f6 51F8047C 		ldr	r7, [r1, #-4]
 1005 02fa 0760     		str	r7, [r0, #0]
 1006 02fc 51F8046B 		ldr	r6, [r1], #4
 1007 0300 0431     		adds	r1, r1, #4
 1008              		.loc 1 246 0
 1009 0302 023B     		subs	r3, r3, #2
 1010              		.loc 1 249 0
 1011 0304 0660     		str	r6, [r0, #0]
 1012              		.loc 1 246 0
 1013 0306 F6D1     		bne	.L96
 1014              	.L209:
 1015 0308 D168     		ldr	r1, [r2, #12]
 1016              	.L95:
 1017              	.LBE131:
 1018              	.LBE132:
 1019              	.LBE134:
 1020              	.LBE136:
 1021              		.loc 1 531 0
ARM GAS  /tmp/cc3IGbAH.s 			page 19


 1022 030a 4819     		adds	r0, r1, r5
 1023              	.LVL125:
 1024 030c D060     		str	r0, [r2, #12]
 1025              	.LVL126:
 1026              	.L93:
 1027              		.loc 1 533 0
 1028 030e 0298     		ldr	r0, [sp, #8]
 1029 0310 5BF82060 		ldr	r6, [fp, r0, lsl #2]
 1030 0314 7269     		ldr	r2, [r6, #20]
 1031 0316 9468     		ldr	r4, [r2, #8]
 1032              		.loc 1 503 0
 1033 0318 5168     		ldr	r1, [r2, #4]
 1034              		.loc 1 533 0
 1035 031a 2B19     		adds	r3, r5, r4
 1036              	.LVL127:
 1037              		.loc 1 503 0
 1038 031c 9942     		cmp	r1, r3
 1039              		.loc 1 533 0
 1040 031e 9360     		str	r3, [r2, #8]
 1041              		.loc 1 503 0
 1042 0320 40F2B180 		bls	.L97
 1043              		.loc 1 513 0
 1044 0324 039D     		ldr	r5, [sp, #12]
 1045              	.LVL128:
 1046 0326 DBF83C40 		ldr	r4, [fp, #60]
 1047              		.loc 1 508 0
 1048 032a 308A     		ldrh	r0, [r6, #16]
 1049              		.loc 1 513 0
 1050 032c 6719     		adds	r7, r4, r5
 1051              		.loc 1 507 0
 1052 032e CD1A     		subs	r5, r1, r3
 1053              	.LVL129:
 1054              		.loc 1 513 0
 1055 0330 D7F81869 		ldr	r6, [r7, #2328]
 1056 0334 8542     		cmp	r5, r0
 1057 0336 28BF     		it	cs
 1058 0338 0546     		movcs	r5, r0
 1059              	.LVL130:
 1060 033a B1B2     		uxth	r1, r6
 1061 033c B5EB810F 		cmp	r5, r1, lsl #2
 1062 0340 BED9     		bls	.L74
 1063              	.L73:
 1064              	.LBB137:
 1065              	.LBB138:
 1066              		.loc 1 514 0
 1067 0342 0022     		movs	r2, #0
 1068              	.LVL131:
 1069              	.L71:
 1070              	.LBE138:
 1071              	.LBE137:
 1072              	.LBE126:
 1073              	.LBE125:
 1074              	.LBB151:
 1075              		.loc 1 724 0
 1076 0344 2023     		movs	r3, #32
 1077              	.LVL132:
 1078              	@ 724 "../../os/hal/platforms/STM32/OTGv1/usb_lld.c" 1
ARM GAS  /tmp/cc3IGbAH.s 			page 20


 1079 0346 83F31188 		msr     BASEPRI, r3
 1080              	@ 0 "" 2
 1081              	.LVL133:
 1082              		.thumb
 1083              	.LBE151:
 1084              		.loc 1 725 0
 1085 034a DAF80840 		ldr	r4, [sl, #8]
 1086 034e 44F00100 		orr	r0, r4, #1
 1087 0352 CAF80800 		str	r0, [sl, #8]
 1088              		.loc 1 726 0
 1089 0356 32B9     		cbnz	r2, .L99
 1090              		.loc 1 727 0
 1091 0358 DAF83458 		ldr	r5, [sl, #2100]
 1092 035c 049F     		ldr	r7, [sp, #16]
 1093 035e 47EA0506 		orr	r6, r7, r5
 1094 0362 CAF83468 		str	r6, [sl, #2100]
 1095              	.L99:
 1096              	.LBB152:
 1097              		.loc 1 728 0
 1098 0366 0023     		movs	r3, #0
 1099              	.LVL134:
 1100              	@ 728 "../../os/hal/platforms/STM32/OTGv1/usb_lld.c" 1
 1101 0368 83F31188 		msr     BASEPRI, r3
 1102              	@ 0 "" 2
 1103              	.LVL135:
 1104              		.thumb
 1105 036c C3E6     		b	.L69
 1106              	.LVL136:
 1107              	.L230:
 1108              	.LBE152:
 1109              	.LBB153:
 1110              	.LBB150:
 1111              		.loc 1 522 0
 1112 036e 019B     		ldr	r3, [sp, #4]
 1113 0370 E118     		adds	r1, r4, r3
 1114 0372 D468     		ldr	r4, [r2, #12]
 1115              	.LVL137:
 1116              	.LBB149:
 1117              	.LBB148:
 1118              		.loc 1 287 0
 1119 0374 002D     		cmp	r5, #0
 1120 0376 35D0     		beq	.L85
 1121 0378 2069     		ldr	r0, [r4, #16]
 1122 037a 2A46     		mov	r2, r5
 1123 037c AE46     		mov	lr, r5
 1124              	.LVL138:
 1125              	.L92:
 1126              	.LBB139:
 1127              		.loc 1 291 0
 1128 037e 9708     		lsrs	r7, r2, #2
 1129              	.LVL139:
 1130 0380 4BD0     		beq	.L79
 1131              	.LBB140:
 1132              		.loc 1 293 0
 1133 0382 A569     		ldr	r5, [r4, #24]
 1134              	.LVL140:
 1135 0384 461B     		subs	r6, r0, r5
ARM GAS  /tmp/cc3IGbAH.s 			page 21


 1136 0386 48BF     		it	mi
 1137 0388 0336     		addmi	r6, r6, #3
 1138 038a B310     		asrs	r3, r6, #2
 1139              		.loc 1 295 0
 1140 038c 9F42     		cmp	r7, r3
 1141 038e 38BF     		it	cc
 1142 0390 3B46     		movcc	r3, r7
 1143              	.LVL141:
 1144 0392 4FEA830C 		lsl	ip, r3, #2
 1145 0396 CCEB0202 		rsb	r2, ip, r2
 1146              	.LVL142:
 1147              	.LBB141:
 1148              	.LBB142:
 1149              		.loc 1 246 0
 1150 039a DBB1     		cbz	r3, .L81
 1151              		.loc 1 679 0
 1152 039c 2E46     		mov	r6, r5
 1153 039e 5F1E     		subs	r7, r3, #1
 1154              	.LVL143:
 1155              		.loc 1 249 0
 1156 03a0 56F8049B 		ldr	r9, [r6], #4
 1157              		.loc 1 246 0
 1158 03a4 3B46     		mov	r3, r7
 1159              	.LVL144:
 1160              		.loc 1 249 0
 1161 03a6 C1F80090 		str	r9, [r1, #0]
 1162              	.LVL145:
 1163 03aa 07F00107 		and	r7, r7, #1
 1164 03ae 0436     		adds	r6, r6, #4
 1165              		.loc 1 246 0
 1166 03b0 7BB1     		cbz	r3, .L208
 1167 03b2 2FB1     		cbz	r7, .L82
 1168              		.loc 1 249 0
 1169 03b4 56F8047C 		ldr	r7, [r6, #-4]
 1170 03b8 0436     		adds	r6, r6, #4
 1171              		.loc 1 246 0
 1172 03ba 013B     		subs	r3, r3, #1
 1173              	.LVL146:
 1174              		.loc 1 249 0
 1175 03bc 0F60     		str	r7, [r1, #0]
 1176              	.LVL147:
 1177              		.loc 1 246 0
 1178 03be 08D0     		beq	.L208
 1179              	.LVL148:
 1180              	.L82:
 1181              		.loc 1 249 0
 1182 03c0 56F8047C 		ldr	r7, [r6, #-4]
 1183 03c4 0F60     		str	r7, [r1, #0]
 1184 03c6 56F8047B 		ldr	r7, [r6], #4
 1185 03ca 0436     		adds	r6, r6, #4
 1186              		.loc 1 246 0
 1187 03cc 023B     		subs	r3, r3, #2
 1188              		.loc 1 249 0
 1189 03ce 0F60     		str	r7, [r1, #0]
 1190              		.loc 1 246 0
 1191 03d0 F6D1     		bne	.L82
 1192              	.L208:
ARM GAS  /tmp/cc3IGbAH.s 			page 22


 1193 03d2 6544     		add	r5, r5, ip
 1194              	.LVL149:
 1195              	.L81:
 1196              	.LBE142:
 1197              	.LBE141:
 1198              		.loc 1 297 0
 1199 03d4 A842     		cmp	r0, r5
 1200              		.loc 1 296 0
 1201 03d6 A561     		str	r5, [r4, #24]
 1202              		.loc 1 297 0
 1203 03d8 1DD8     		bhi	.L83
 1204              		.loc 1 298 0
 1205 03da E668     		ldr	r6, [r4, #12]
 1206 03dc A661     		str	r6, [r4, #24]
 1207              	.LBE140:
 1208              	.LBE139:
 1209              		.loc 1 287 0
 1210 03de 002A     		cmp	r2, #0
 1211 03e0 CDD1     		bne	.L92
 1212              	.LVL150:
 1213              	.L218:
 1214 03e2 7546     		mov	r5, lr
 1215              	.LVL151:
 1216              	.L85:
 1217              	.LBB143:
 1218              		.loc 1 322 0
 1219 03e4 2023     		movs	r3, #32
 1220              	.LVL152:
 1221              	@ 322 "../../os/hal/platforms/STM32/OTGv1/usb_lld.c" 1
 1222 03e6 83F31188 		msr     BASEPRI, r3
 1223              	@ 0 "" 2
 1224              	.LVL153:
 1225              		.thumb
 1226              	.LBE143:
 1227              		.loc 1 323 0
 1228 03ea A168     		ldr	r1, [r4, #8]
 1229              	.LVL154:
 1230              		.loc 1 324 0
 1231 03ec 2068     		ldr	r0, [r4, #0]
 1232              		.loc 1 323 0
 1233 03ee 4F19     		adds	r7, r1, r5
 1234              		.loc 1 324 0
 1235 03f0 A042     		cmp	r0, r4
 1236              		.loc 1 323 0
 1237 03f2 A760     		str	r7, [r4, #8]
 1238              		.loc 1 324 0
 1239 03f4 09D0     		beq	.L78
 1240              	.L140:
 1241              	.LVL155:
 1242              	.LBB144:
 1243              	.LBB145:
 1244              		.loc 2 55 0
 1245 03f6 0368     		ldr	r3, [r0, #0]
 1246              	.LVL156:
 1247 03f8 2360     		str	r3, [r4, #0]
 1248 03fa 5C60     		str	r4, [r3, #4]
 1249              	.LBE145:
ARM GAS  /tmp/cc3IGbAH.s 			page 23


 1250              	.LBE144:
 1251              		.loc 1 325 0
 1252 03fc FFF7FEFF 		bl	chSchReadyI
 1253              	.LVL157:
 1254 0400 C0F82480 		str	r8, [r0, #36]
 1255              		.loc 1 324 0
 1256 0404 2068     		ldr	r0, [r4, #0]
 1257 0406 A042     		cmp	r0, r4
 1258 0408 F5D1     		bne	.L140
 1259              	.LVL158:
 1260              	.L78:
 1261              		.loc 1 326 0
 1262 040a FFF7FEFF 		bl	chSchRescheduleS
 1263              	.LVL159:
 1264              	.LBB146:
 1265              		.loc 1 327 0
 1266 040e 0023     		movs	r3, #0
 1267              	@ 327 "../../os/hal/platforms/STM32/OTGv1/usb_lld.c" 1
 1268 0410 83F31188 		msr     BASEPRI, r3
 1269              	@ 0 "" 2
 1270              	.LVL160:
 1271              		.thumb
 1272 0414 7BE7     		b	.L93
 1273              	.LVL161:
 1274              	.L83:
 1275              	.LBE146:
 1276              	.LBB147:
 1277              		.loc 1 305 0
 1278 0416 002A     		cmp	r2, #0
 1279 0418 E3D0     		beq	.L218
 1280              	.LVL162:
 1281              	.L79:
 1282              		.loc 1 312 0
 1283 041a A669     		ldr	r6, [r4, #24]
 1284 041c 16F8013B 		ldrb	r3, [r6], #1	@ zero_extendqisi2
 1285              	.LVL163:
 1286              		.loc 1 313 0
 1287 0420 8642     		cmp	r6, r0
 1288              		.loc 1 312 0
 1289 0422 A661     		str	r6, [r4, #24]
 1290              		.loc 1 314 0
 1291 0424 24BF     		itt	cs
 1292 0426 E668     		ldrcs	r6, [r4, #12]
 1293 0428 A661     		strcs	r6, [r4, #24]
 1294              		.loc 1 311 0
 1295 042a 012A     		cmp	r2, #1
 1296 042c 27D0     		beq	.L87
 1297              		.loc 1 312 0
 1298 042e A769     		ldr	r7, [r4, #24]
 1299 0430 17F8015B 		ldrb	r5, [r7], #1	@ zero_extendqisi2
 1300              		.loc 1 313 0
 1301 0434 B842     		cmp	r0, r7
 1302              		.loc 1 312 0
 1303 0436 A761     		str	r7, [r4, #24]
 1304              		.loc 1 314 0
 1305 0438 9CBF     		itt	ls
 1306 043a E768     		ldrls	r7, [r4, #12]
ARM GAS  /tmp/cc3IGbAH.s 			page 24


 1307 043c A761     		strls	r7, [r4, #24]
 1308              		.loc 1 311 0
 1309 043e 022A     		cmp	r2, #2
 1310              		.loc 1 312 0
 1311 0440 43EA0523 		orr	r3, r3, r5, lsl #8
 1312              	.LVL164:
 1313              		.loc 1 311 0
 1314 0444 1BD0     		beq	.L87
 1315              		.loc 1 312 0
 1316 0446 A769     		ldr	r7, [r4, #24]
 1317 0448 17F8016B 		ldrb	r6, [r7], #1	@ zero_extendqisi2
 1318              		.loc 1 313 0
 1319 044c B842     		cmp	r0, r7
 1320              		.loc 1 312 0
 1321 044e A761     		str	r7, [r4, #24]
 1322              		.loc 1 314 0
 1323 0450 9CBF     		itt	ls
 1324 0452 E768     		ldrls	r7, [r4, #12]
 1325 0454 A761     		strls	r7, [r4, #24]
 1326              		.loc 1 311 0
 1327 0456 032A     		cmp	r2, #3
 1328              		.loc 1 312 0
 1329 0458 43EA0643 		orr	r3, r3, r6, lsl #16
 1330              	.LVL165:
 1331              		.loc 1 311 0
 1332 045c 0FD0     		beq	.L87
 1333              		.loc 1 312 0
 1334 045e A569     		ldr	r5, [r4, #24]
 1335 0460 15F8017B 		ldrb	r7, [r5], #1	@ zero_extendqisi2
 1336              		.loc 1 313 0
 1337 0464 8542     		cmp	r5, r0
 1338              		.loc 1 312 0
 1339 0466 A561     		str	r5, [r4, #24]
 1340              		.loc 1 314 0
 1341 0468 24BF     		itt	cs
 1342 046a E568     		ldrcs	r5, [r4, #12]
 1343 046c A561     		strcs	r5, [r4, #24]
 1344              		.loc 1 311 0
 1345 046e 043A     		subs	r2, r2, #4
 1346              	.LVL166:
 1347              		.loc 1 312 0
 1348 0470 43EA0763 		orr	r3, r3, r7, lsl #24
 1349              	.LVL167:
 1350              		.loc 1 311 0
 1351 0474 03D0     		beq	.L87
 1352              	.LVL168:
 1353              	.L91:
 1354              		.loc 1 318 0
 1355 0476 0B60     		str	r3, [r1, #0]
 1356              	.LVL169:
 1357              	.LBE147:
 1358              		.loc 1 287 0
 1359 0478 002A     		cmp	r2, #0
 1360 047a 80D1     		bne	.L92
 1361 047c B1E7     		b	.L218
 1362              	.LVL170:
 1363              	.L87:
ARM GAS  /tmp/cc3IGbAH.s 			page 25


 1364 047e 0022     		movs	r2, #0
 1365 0480 F9E7     		b	.L91
 1366              	.LVL171:
 1367              	.L229:
 1368 0482 631C     		adds	r3, r4, #1
 1369 0484 0593     		str	r3, [sp, #20]
 1370              	.LVL172:
 1371              	.L97:
 1372              		.loc 1 504 0
 1373 0486 0122     		movs	r2, #1
 1374 0488 5CE7     		b	.L71
 1375              	.LBE148:
 1376              	.LBE149:
 1377              	.LBE150:
 1378              	.LBE153:
 1379              	.LBE121:
 1380              	.LBE154:
 1381              		.cfi_endproc
 1382              	.LFE136:
 1383              		.size	usb_lld_pump, .-usb_lld_pump
 1384 048a 00BFAFF3 		.section	.text.otg_epin_handler,"ax",%progbits
 1384      0080
 1385              		.align	2
 1386              		.p2align 4,,15
 1387              		.thumb
 1388              		.thumb_func
 1389              		.type	otg_epin_handler, %function
 1390              	otg_epin_handler:
 1391              	.LFB133:
 1392              		.loc 1 548 0
 1393              		.cfi_startproc
 1394              		@ args = 0, pretend = 0, frame = 0
 1395              		@ frame_needed = 0, uses_anonymous_args = 0
 1396              	.LVL173:
 1397 0000 F8B5     		push	{r3, r4, r5, r6, r7, lr}
 1398              	.LCFI4:
 1399              		.cfi_def_cfa_offset 24
 1400              		.cfi_offset 3, -24
 1401              		.cfi_offset 4, -20
 1402              		.cfi_offset 5, -16
 1403              		.cfi_offset 6, -12
 1404              		.cfi_offset 7, -8
 1405              		.cfi_offset 14, -4
 1406              		.loc 1 549 0
 1407 0002 C46B     		ldr	r4, [r0, #60]
 1408              	.LVL174:
 1409              		.loc 1 550 0
 1410 0004 04EB4113 		add	r3, r4, r1, lsl #5
 1411              		.loc 1 552 0
 1412 0008 4FF0FF32 		mov	r2, #-1
 1413              		.loc 1 550 0
 1414 000c D3F80869 		ldr	r6, [r3, #2312]
 1415              	.LVL175:
 1416              		.loc 1 552 0
 1417 0010 C3F80829 		str	r2, [r3, #2312]
 1418              		.loc 1 557 0
 1419 0014 F307     		lsls	r3, r6, #31
ARM GAS  /tmp/cc3IGbAH.s 			page 26


 1420              		.loc 1 548 0
 1421 0016 0546     		mov	r5, r0
 1422 0018 0F46     		mov	r7, r1
 1423              		.loc 1 557 0
 1424 001a 03D5     		bpl	.L234
 1425              		.loc 1 557 0 is_stmt 0 discriminator 1
 1426 001c D4F81038 		ldr	r3, [r4, #2064]
 1427 0020 DA07     		lsls	r2, r3, #31
 1428 0022 1FD4     		bmi	.L252
 1429              	.LVL176:
 1430              	.L234:
 1431              		.loc 1 561 0 is_stmt 1
 1432 0024 3306     		lsls	r3, r6, #24
 1433 0026 06D5     		bpl	.L233
 1434              		.loc 1 562 0 discriminator 1
 1435 0028 0121     		movs	r1, #1
 1436 002a D4F83408 		ldr	r0, [r4, #2100]
 1437 002e 01FA07F7 		lsl	r7, r1, r7
 1438              		.loc 1 561 0 discriminator 1
 1439 0032 0742     		tst	r7, r0
 1440 0034 00D1     		bne	.L253
 1441              	.L233:
 1442 0036 F8BD     		pop	{r3, r4, r5, r6, r7, pc}
 1443              	.L253:
 1444              	.LBB159:
 1445              		.loc 1 564 0
 1446 0038 2023     		movs	r3, #32
 1447              	.LVL177:
 1448              	@ 564 "../../os/hal/platforms/STM32/OTGv1/usb_lld.c" 1
 1449 003a 83F31188 		msr     BASEPRI, r3
 1450              	@ 0 "" 2
 1451              	.LVL178:
 1452              		.thumb
 1453              	.LBE159:
 1454              		.loc 1 565 0
 1455 003e AB6C     		ldr	r3, [r5, #72]
 1456              	.LVL179:
 1457              		.loc 1 566 0
 1458 0040 D4F83428 		ldr	r2, [r4, #2100]
 1459              	.LBB160:
 1460              	.LBB161:
 1461              		.loc 1 126 0
 1462 0044 286D     		ldr	r0, [r5, #80]
 1463              	.LBE161:
 1464              	.LBE160:
 1465              		.loc 1 565 0
 1466 0046 3B43     		orrs	r3, r3, r7
 1467              		.loc 1 566 0
 1468 0048 22EA0707 		bic	r7, r2, r7
 1469              		.loc 1 565 0
 1470 004c AB64     		str	r3, [r5, #72]
 1471              		.loc 1 566 0
 1472 004e C4F83478 		str	r7, [r4, #2100]
 1473              	.LVL180:
 1474              	.LBB163:
 1475              	.LBB162:
 1476              		.loc 1 126 0
ARM GAS  /tmp/cc3IGbAH.s 			page 27


 1477 0052 18B1     		cbz	r0, .L236
 1478              		.loc 1 127 0
 1479 0054 FFF7FEFF 		bl	chSchReadyI
 1480              	.LVL181:
 1481              		.loc 1 128 0
 1482 0058 0020     		movs	r0, #0
 1483 005a 2865     		str	r0, [r5, #80]
 1484              	.L236:
 1485              	.LBE162:
 1486              	.LBE163:
 1487              	.LBB164:
 1488              		.loc 1 568 0
 1489 005c 0023     		movs	r3, #0
 1490              	.LVL182:
 1491              	@ 568 "../../os/hal/platforms/STM32/OTGv1/usb_lld.c" 1
 1492 005e 83F31188 		msr     BASEPRI, r3
 1493              	@ 0 "" 2
 1494              	.LVL183:
 1495              		.thumb
 1496 0062 F8BD     		pop	{r3, r4, r5, r6, r7, pc}
 1497              	.LVL184:
 1498              	.L252:
 1499              	.LBE164:
 1500              		.loc 1 559 0
 1501 0064 0A1D     		adds	r2, r1, #4
 1502 0066 B0F80CE0 		ldrh	lr, [r0, #12]
 1503 006a 50F82230 		ldr	r3, [r0, r2, lsl #2]
 1504 006e 0122     		movs	r2, #1
 1505 0070 02FA01F2 		lsl	r2, r2, r1
 1506 0074 2EEA0202 		bic	r2, lr, r2
 1507 0078 8281     		strh	r2, [r0, #12]	@ movhi
 1508 007a 9B68     		ldr	r3, [r3, #8]
 1509 007c 9847     		blx	r3
 1510              	.LVL185:
 1511 007e D1E7     		b	.L234
 1512              		.cfi_endproc
 1513              	.LFE133:
 1514              		.size	otg_epin_handler, .-otg_epin_handler
 1515              		.section	.text.Vector14C,"ax",%progbits
 1516              		.align	2
 1517              		.p2align 4,,15
 1518              		.global	Vector14C
 1519              		.thumb
 1520              		.thumb_func
 1521              		.type	Vector14C, %function
 1522              	Vector14C:
 1523              	.LFB137:
 1524              		.loc 1 746 0
 1525              		.cfi_startproc
 1526              		@ args = 0, pretend = 0, frame = 0
 1527              		@ frame_needed = 0, uses_anonymous_args = 0
 1528              	.LVL186:
 1529 0000 70B5     		push	{r4, r5, r6, lr}
 1530              	.LCFI5:
 1531              		.cfi_def_cfa_offset 16
 1532              		.cfi_offset 4, -16
 1533              		.cfi_offset 5, -12
ARM GAS  /tmp/cc3IGbAH.s 			page 28


 1534              		.cfi_offset 6, -8
 1535              		.cfi_offset 14, -4
 1536              	.LBB171:
 1537              	.LBB172:
 1538              		.loc 1 607 0
 1539 0002 3E4E     		ldr	r6, .L326
 1540 0004 F56B     		ldr	r5, [r6, #60]
 1541              	.LVL187:
 1542              		.loc 1 610 0
 1543 0006 6B69     		ldr	r3, [r5, #20]
 1544 0008 AC69     		ldr	r4, [r5, #24]
 1545 000a 1C40     		ands	r4, r4, r3
 1546              	.LVL188:
 1547              		.loc 1 614 0
 1548 000c E104     		lsls	r1, r4, #19
 1549              		.loc 1 611 0
 1550 000e 6C61     		str	r4, [r5, #20]
 1551              		.loc 1 614 0
 1552 0010 2BD4     		bmi	.L316
 1553              	.L256:
 1554              		.loc 1 620 0
 1555 0012 A204     		lsls	r2, r4, #18
 1556              		.loc 1 621 0
 1557 0014 48BF     		it	mi
 1558 0016 D5F80838 		ldrmi	r3, [r5, #2056]
 1559              		.loc 1 625 0
 1560 001a 2307     		lsls	r3, r4, #28
 1561 001c 04D5     		bpl	.L259
 1562              		.loc 1 626 0
 1563 001e 7068     		ldr	r0, [r6, #4]
 1564 0020 C168     		ldr	r1, [r0, #12]
 1565 0022 09B1     		cbz	r1, .L259
 1566 0024 3548     		ldr	r0, .L326
 1567 0026 8847     		blx	r1
 1568              	.LVL189:
 1569              	.L259:
 1570              		.loc 1 630 0
 1571 0028 E006     		lsls	r0, r4, #27
 1572 002a 29D4     		bmi	.L317
 1573              	.LVL190:
 1574              	.L260:
 1575              		.loc 1 641 0
 1576 002c 6103     		lsls	r1, r4, #13
 1577              		.loc 1 640 0
 1578 002e D5F81858 		ldr	r5, [r5, #2072]
 1579              	.LVL191:
 1580              		.loc 1 641 0
 1581 0032 07D5     		bpl	.L263
 1582              		.loc 1 642 0
 1583 0034 EA07     		lsls	r2, r5, #31
 1584 0036 49D4     		bmi	.L318
 1585              		.loc 1 644 0
 1586 0038 AB07     		lsls	r3, r5, #30
 1587              	.LVL192:
 1588 003a 4DD4     		bmi	.L319
 1589              	.L265:
 1590              		.loc 1 646 0
ARM GAS  /tmp/cc3IGbAH.s 			page 29


 1591 003c 6807     		lsls	r0, r5, #29
 1592 003e 51D4     		bmi	.L320
 1593              	.L266:
 1594              		.loc 1 648 0
 1595 0040 2907     		lsls	r1, r5, #28
 1596 0042 55D4     		bmi	.L321
 1597              	.LVL193:
 1598              	.L263:
 1599              		.loc 1 657 0
 1600 0044 2203     		lsls	r2, r4, #12
 1601 0046 07D5     		bpl	.L269
 1602              		.loc 1 658 0
 1603 0048 EB03     		lsls	r3, r5, #15
 1604              	.LVL194:
 1605 004a 32D4     		bmi	.L322
 1606              		.loc 1 660 0
 1607 004c A803     		lsls	r0, r5, #14
 1608 004e 36D4     		bmi	.L323
 1609              	.L271:
 1610              		.loc 1 662 0
 1611 0050 6903     		lsls	r1, r5, #13
 1612 0052 27D4     		bmi	.L324
 1613              	.L272:
 1614              		.loc 1 664 0
 1615 0054 2A03     		lsls	r2, r5, #12
 1616 0056 03D4     		bmi	.L325
 1617              	.LVL195:
 1618              	.L269:
 1619              	.LBE172:
 1620              	.LBE171:
 1621              		.loc 1 753 0
 1622 0058 BDE87040 		pop	{r4, r5, r6, lr}
 1623              		.loc 1 752 0
 1624 005c FFF7FEBF 		b	_port_irq_epilogue
 1625              	.LVL196:
 1626              	.L325:
 1627              	.LBB180:
 1628              	.LBB179:
 1629              		.loc 1 665 0
 1630 0060 2648     		ldr	r0, .L326
 1631 0062 0321     		movs	r1, #3
 1632 0064 FFF7FEFF 		bl	otg_epout_handler
 1633              	.LVL197:
 1634 0068 F6E7     		b	.L269
 1635              	.LVL198:
 1636              	.L316:
 1637              		.loc 1 615 0
 1638 006a 3046     		mov	r0, r6
 1639 006c FFF7FEFF 		bl	_usb_reset
 1640              	.LVL199:
 1641              		.loc 1 616 0
 1642 0070 7368     		ldr	r3, [r6, #4]
 1643 0072 1B68     		ldr	r3, [r3, #0]
 1644 0074 002B     		cmp	r3, #0
 1645 0076 CCD0     		beq	.L256
 1646 0078 3046     		mov	r0, r6
 1647 007a 0021     		movs	r1, #0
ARM GAS  /tmp/cc3IGbAH.s 			page 30


 1648 007c 9847     		blx	r3
 1649              	.LVL200:
 1650 007e C8E7     		b	.L256
 1651              	.L317:
 1652              	.LBB173:
 1653              		.loc 1 633 0
 1654 0080 2023     		movs	r3, #32
 1655              	.LVL201:
 1656              	@ 633 "../../os/hal/platforms/STM32/OTGv1/usb_lld.c" 1
 1657 0082 83F31188 		msr     BASEPRI, r3
 1658              	@ 0 "" 2
 1659              	.LVL202:
 1660              		.thumb
 1661              	.LBE173:
 1662              		.loc 1 634 0
 1663 0086 AA69     		ldr	r2, [r5, #24]
 1664              	.LBB174:
 1665              	.LBB175:
 1666              		.loc 1 126 0
 1667 0088 306D     		ldr	r0, [r6, #80]
 1668              	.LBE175:
 1669              	.LBE174:
 1670              		.loc 1 634 0
 1671 008a 22F01003 		bic	r3, r2, #16
 1672              	.LVL203:
 1673 008e AB61     		str	r3, [r5, #24]
 1674              	.LVL204:
 1675              	.LBB177:
 1676              	.LBB176:
 1677              		.loc 1 126 0
 1678 0090 20B1     		cbz	r0, .L261
 1679              		.loc 1 127 0
 1680 0092 FFF7FEFF 		bl	chSchReadyI
 1681              	.LVL205:
 1682              		.loc 1 128 0
 1683 0096 1949     		ldr	r1, .L326
 1684 0098 0020     		movs	r0, #0
 1685 009a 0865     		str	r0, [r1, #80]
 1686              	.L261:
 1687              	.LBE176:
 1688              	.LBE177:
 1689              	.LBB178:
 1690              		.loc 1 636 0
 1691 009c 0023     		movs	r3, #0
 1692              	@ 636 "../../os/hal/platforms/STM32/OTGv1/usb_lld.c" 1
 1693 009e 83F31188 		msr     BASEPRI, r3
 1694              	@ 0 "" 2
 1695              	.LVL206:
 1696              		.thumb
 1697 00a2 C3E7     		b	.L260
 1698              	.LVL207:
 1699              	.L324:
 1700              	.LBE178:
 1701              		.loc 1 663 0
 1702 00a4 0221     		movs	r1, #2
 1703 00a6 1548     		ldr	r0, .L326
 1704 00a8 FFF7FEFF 		bl	otg_epout_handler
ARM GAS  /tmp/cc3IGbAH.s 			page 31


 1705              	.LVL208:
 1706              		.loc 1 664 0
 1707 00ac 2A03     		lsls	r2, r5, #12
 1708 00ae D3D5     		bpl	.L269
 1709 00b0 D6E7     		b	.L325
 1710              	.L322:
 1711              		.loc 1 659 0
 1712 00b2 1248     		ldr	r0, .L326
 1713 00b4 0021     		movs	r1, #0
 1714 00b6 FFF7FEFF 		bl	otg_epout_handler
 1715              	.LVL209:
 1716              		.loc 1 660 0
 1717 00ba A803     		lsls	r0, r5, #14
 1718 00bc C8D5     		bpl	.L271
 1719              	.L323:
 1720              		.loc 1 661 0
 1721 00be 0121     		movs	r1, #1
 1722 00c0 0E48     		ldr	r0, .L326
 1723 00c2 FFF7FEFF 		bl	otg_epout_handler
 1724              	.LVL210:
 1725              		.loc 1 662 0
 1726 00c6 6903     		lsls	r1, r5, #13
 1727 00c8 C4D5     		bpl	.L272
 1728 00ca EBE7     		b	.L324
 1729              	.LVL211:
 1730              	.L318:
 1731              		.loc 1 643 0
 1732 00cc 0021     		movs	r1, #0
 1733 00ce 0B48     		ldr	r0, .L326
 1734 00d0 FFF7FEFF 		bl	otg_epin_handler
 1735              	.LVL212:
 1736              		.loc 1 644 0
 1737 00d4 AB07     		lsls	r3, r5, #30
 1738 00d6 B1D5     		bpl	.L265
 1739              	.L319:
 1740              		.loc 1 645 0
 1741 00d8 0848     		ldr	r0, .L326
 1742 00da 0121     		movs	r1, #1
 1743 00dc FFF7FEFF 		bl	otg_epin_handler
 1744              	.LVL213:
 1745              		.loc 1 646 0
 1746 00e0 6807     		lsls	r0, r5, #29
 1747 00e2 ADD5     		bpl	.L266
 1748              	.L320:
 1749              		.loc 1 647 0
 1750 00e4 0221     		movs	r1, #2
 1751 00e6 0548     		ldr	r0, .L326
 1752 00e8 FFF7FEFF 		bl	otg_epin_handler
 1753              	.LVL214:
 1754              		.loc 1 648 0
 1755 00ec 2907     		lsls	r1, r5, #28
 1756 00ee A9D5     		bpl	.L263
 1757              	.L321:
 1758              		.loc 1 649 0
 1759 00f0 0248     		ldr	r0, .L326
 1760 00f2 0321     		movs	r1, #3
 1761 00f4 FFF7FEFF 		bl	otg_epin_handler
ARM GAS  /tmp/cc3IGbAH.s 			page 32


 1762              	.LVL215:
 1763 00f8 A4E7     		b	.L263
 1764              	.L327:
 1765 00fa 00BF     		.align	2
 1766              	.L326:
 1767 00fc 00000000 		.word	.LANCHOR0
 1768              	.LBE179:
 1769              	.LBE180:
 1770              		.cfi_endproc
 1771              	.LFE137:
 1772              		.size	Vector14C, .-Vector14C
 1773              		.section	.text.usb_lld_init,"ax",%progbits
 1774              		.align	2
 1775              		.p2align 4,,15
 1776              		.global	usb_lld_init
 1777              		.thumb
 1778              		.thumb_func
 1779              		.type	usb_lld_init, %function
 1780              	usb_lld_init:
 1781              	.LFB138:
 1782              		.loc 1 784 0
 1783              		.cfi_startproc
 1784              		@ args = 0, pretend = 0, frame = 0
 1785              		@ frame_needed = 0, uses_anonymous_args = 0
 1786 0000 10B5     		push	{r4, lr}
 1787              	.LCFI6:
 1788              		.cfi_def_cfa_offset 8
 1789              		.cfi_offset 4, -8
 1790              		.cfi_offset 14, -4
 1791              		.loc 1 788 0
 1792 0002 40F20004 		movw	r4, #:lower16:.LANCHOR0
 1793 0006 C0F20004 		movt	r4, #:upper16:.LANCHOR0
 1794 000a 2046     		mov	r0, r4
 1795 000c FFF7FEFF 		bl	usbObjectInit
 1796              	.LVL216:
 1797              		.loc 1 792 0
 1798 0010 40F20001 		movw	r1, #:lower16:.LANCHOR1
 1799              		.loc 1 789 0
 1800 0014 0023     		movs	r3, #0
 1801              		.loc 1 791 0
 1802 0016 4FF0A040 		mov	r0, #1342177280
 1803              		.loc 1 792 0
 1804 001a C0F20001 		movt	r1, #:upper16:.LANCHOR1
 1805              		.loc 1 789 0
 1806 001e E364     		str	r3, [r4, #76]
 1807              		.loc 1 790 0
 1808 0020 2365     		str	r3, [r4, #80]
 1809              		.loc 1 791 0
 1810 0022 E063     		str	r0, [r4, #60]
 1811              		.loc 1 792 0
 1812 0024 2164     		str	r1, [r4, #64]
 1813 0026 10BD     		pop	{r4, pc}
 1814              		.cfi_endproc
 1815              	.LFE138:
 1816              		.size	usb_lld_init, .-usb_lld_init
 1817 0028 AFF30080 		.section	.text.usb_lld_start,"ax",%progbits
 1817      AFF30080 
ARM GAS  /tmp/cc3IGbAH.s 			page 33


 1818              		.align	2
 1819              		.p2align 4,,15
 1820              		.global	usb_lld_start
 1821              		.thumb
 1822              		.thumb_func
 1823              		.type	usb_lld_start, %function
 1824              	usb_lld_start:
 1825              	.LFB139:
 1826              		.loc 1 842 0
 1827              		.cfi_startproc
 1828              		@ args = 0, pretend = 0, frame = 0
 1829              		@ frame_needed = 0, uses_anonymous_args = 0
 1830              	.LVL217:
 1831 0000 70B5     		push	{r4, r5, r6, lr}
 1832              	.LCFI7:
 1833              		.cfi_def_cfa_offset 16
 1834              		.cfi_offset 4, -16
 1835              		.cfi_offset 5, -12
 1836              		.cfi_offset 6, -8
 1837              		.cfi_offset 14, -4
 1838              		.loc 1 845 0
 1839 0002 0378     		ldrb	r3, [r0, #0]	@ zero_extendqisi2
 1840              		.loc 1 843 0
 1841 0004 C56B     		ldr	r5, [r0, #60]
 1842              	.LVL218:
 1843              		.loc 1 845 0
 1844 0006 012B     		cmp	r3, #1
 1845              		.loc 1 842 0
 1846 0008 82B0     		sub	sp, sp, #8
 1847              	.LCFI8:
 1848              		.cfi_def_cfa_offset 24
 1849              		.loc 1 842 0
 1850 000a 0646     		mov	r6, r0
 1851              		.loc 1 845 0
 1852 000c 01D0     		beq	.L339
 1853              	.LVL219:
 1854              	.L329:
 1855              		.loc 1 919 0
 1856 000e 02B0     		add	sp, sp, #8
 1857 0010 70BD     		pop	{r4, r5, r6, pc}
 1858              	.LVL220:
 1859              	.L339:
 1860              		.loc 1 848 0
 1861 0012 3048     		ldr	r0, .L343
 1862              	.LVL221:
 1863 0014 8642     		cmp	r6, r0
 1864 0016 49D0     		beq	.L340
 1865              	.L331:
 1866              		.loc 1 873 0
 1867 0018 F16C     		ldr	r1, [r6, #76]
 1868              		.loc 1 872 0
 1869 001a 0024     		movs	r4, #0
 1870 001c B464     		str	r4, [r6, #72]
 1871              		.loc 1 873 0
 1872 001e 0029     		cmp	r1, #0
 1873 0020 38D0     		beq	.L341
 1874              	.L332:
ARM GAS  /tmp/cc3IGbAH.s 			page 34


 1875              		.loc 1 883 0
 1876 0022 4FF4A250 		mov	r0, #5184
 1877              	.LBB183:
 1878              	.LBB184:
 1879              		.loc 1 133 0
 1880 0026 F46B     		ldr	r4, [r6, #60]
 1881              	.LBE184:
 1882              	.LBE183:
 1883              		.loc 1 883 0
 1884 0028 C4F20000 		movt	r0, 16384
 1885              		.loc 1 886 0
 1886 002c 0323     		movs	r3, #3
 1887              		.loc 1 883 0
 1888 002e E860     		str	r0, [r5, #12]
 1889              		.loc 1 886 0
 1890 0030 C0F22023 		movt	r3, 544
 1891              		.loc 1 889 0
 1892 0034 0022     		movs	r2, #0
 1893              		.loc 1 892 0
 1894 0036 4FF45021 		mov	r1, #851968
 1895              	.LBB187:
 1896              	.LBB185:
 1897              		.loc 1 136 0
 1898 003a 0120     		movs	r0, #1
 1899              	.LBE185:
 1900              	.LBE187:
 1901              		.loc 1 886 0
 1902 003c C5F80038 		str	r3, [r5, #2048]
 1903              		.loc 1 889 0
 1904 0040 C5F8002E 		str	r2, [r5, #3584]
 1905              		.loc 1 892 0
 1906 0044 A963     		str	r1, [r5, #56]
 1907              	.LVL222:
 1908              	.LBB188:
 1909              	.LBB186:
 1910              		.loc 1 136 0
 1911 0046 2061     		str	r0, [r4, #16]
 1912              	.L333:
 1913              		.loc 1 137 0
 1914 0048 2369     		ldr	r3, [r4, #16]
 1915 004a D807     		lsls	r0, r3, #31
 1916 004c FCD4     		bmi	.L333
 1917              		.loc 1 139 0
 1918 004e 0C20     		movs	r0, #12
 1919 0050 FFF7FEFF 		bl	halPolledDelay
 1920              	.LVL223:
 1921              	.L334:
 1922              		.loc 1 141 0
 1923 0054 2269     		ldr	r2, [r4, #16]
 1924 0056 002A     		cmp	r2, #0
 1925 0058 FCDA     		bge	.L334
 1926              	.LBE186:
 1927              	.LBE188:
 1928              		.loc 1 898 0
 1929 005a 0024     		movs	r4, #0
 1930              	.LVL224:
 1931              		.loc 1 901 0
ARM GAS  /tmp/cc3IGbAH.s 			page 35


 1932 005c 3046     		mov	r0, r6
 1933              		.loc 1 898 0
 1934 005e AC60     		str	r4, [r5, #8]
 1935              		.loc 1 901 0
 1936 0060 FFF7FEFF 		bl	otg_disable_ep
 1937              	.LVL225:
 1938              		.loc 1 908 0
 1939 0064 7168     		ldr	r1, [r6, #4]
 1940              		.loc 1 905 0
 1941 0066 C5F81048 		str	r4, [r5, #2064]
 1942              		.loc 1 908 0
 1943 006a C868     		ldr	r0, [r1, #12]
 1944              		.loc 1 906 0
 1945 006c C5F81448 		str	r4, [r5, #2068]
 1946              		.loc 1 907 0
 1947 0070 C5F81C48 		str	r4, [r5, #2076]
 1948              		.loc 1 908 0
 1949 0074 50B1     		cbz	r0, .L342
 1950              		.loc 1 912 0
 1951 0076 43F20803 		movw	r3, #12296
 1952 007a AB61     		str	r3, [r5, #24]
 1953              	.L336:
 1954              		.loc 1 914 0
 1955 007c 4FF0FF31 		mov	r1, #-1
 1956 0080 6961     		str	r1, [r5, #20]
 1957              		.loc 1 917 0
 1958 0082 A868     		ldr	r0, [r5, #8]
 1959 0084 40F00103 		orr	r3, r0, #1
 1960 0088 AB60     		str	r3, [r5, #8]
 1961 008a C0E7     		b	.L329
 1962              	.L342:
 1963              		.loc 1 909 0
 1964 008c 4FF44052 		mov	r2, #12288
 1965 0090 AA61     		str	r2, [r5, #24]
 1966 0092 F3E7     		b	.L336
 1967              	.LVL226:
 1968              	.L341:
 1969              		.loc 1 874 0
 1970 0094 0096     		str	r6, [sp, #0]
 1971 0096 06F15800 		add	r0, r6, #88
 1972 009a 4FF49871 		mov	r1, #304
 1973 009e 0222     		movs	r2, #2
 1974 00a0 0D4B     		ldr	r3, .L343+4
 1975 00a2 FFF7FEFF 		bl	chThdCreateI
 1976              	.LVL227:
 1977 00a6 3065     		str	r0, [r6, #80]
 1978 00a8 F064     		str	r0, [r6, #76]
 1979 00aa BAE7     		b	.L332
 1980              	.L340:
 1981              		.loc 1 850 0
 1982 00ac 4FF46051 		mov	r1, #14336
 1983 00b0 C4F20201 		movt	r1, 16386
 1984 00b4 4A6B     		ldr	r2, [r1, #52]
 1985 00b6 42F08004 		orr	r4, r2, #128
 1986 00ba 4C63     		str	r4, [r1, #52]
 1987              		.loc 1 851 0
 1988 00bc 4B69     		ldr	r3, [r1, #20]
ARM GAS  /tmp/cc3IGbAH.s 			page 36


 1989 00be 0022     		movs	r2, #0
 1990 00c0 43F08000 		orr	r0, r3, #128
 1991 00c4 4861     		str	r0, [r1, #20]
 1992 00c6 4A61     		str	r2, [r1, #20]
 1993              		.loc 1 854 0
 1994 00c8 4320     		movs	r0, #67
 1995 00ca E021     		movs	r1, #224
 1996 00cc FFF7FEFF 		bl	nvicEnableVector
 1997              	.LVL228:
 1998 00d0 A2E7     		b	.L331
 1999              	.L344:
 2000 00d2 00BF     		.align	2
 2001              	.L343:
 2002 00d4 00000000 		.word	.LANCHOR0
 2003 00d8 00000000 		.word	usb_lld_pump
 2004              		.cfi_endproc
 2005              	.LFE139:
 2006              		.size	usb_lld_start, .-usb_lld_start
 2007 00dc AFF30080 		.section	.text.usb_lld_stop,"ax",%progbits
 2008              		.align	2
 2009              		.p2align 4,,15
 2010              		.global	usb_lld_stop
 2011              		.thumb
 2012              		.thumb_func
 2013              		.type	usb_lld_stop, %function
 2014              	usb_lld_stop:
 2015              	.LFB140:
 2016              		.loc 1 928 0
 2017              		.cfi_startproc
 2018              		@ args = 0, pretend = 0, frame = 0
 2019              		@ frame_needed = 0, uses_anonymous_args = 0
 2020              		@ link register save eliminated.
 2021              	.LVL229:
 2022              		.loc 1 932 0
 2023 0000 0378     		ldrb	r3, [r0, #0]	@ zero_extendqisi2
 2024              		.loc 1 929 0
 2025 0002 C26B     		ldr	r2, [r0, #60]
 2026              	.LVL230:
 2027              		.loc 1 932 0
 2028 0004 012B     		cmp	r3, #1
 2029 0006 05D0     		beq	.L345
 2030              		.loc 1 934 0
 2031 0008 0021     		movs	r1, #0
 2032 000a 8164     		str	r1, [r0, #72]
 2033              		.loc 1 936 0
 2034 000c C2F81C18 		str	r1, [r2, #2076]
 2035              		.loc 1 937 0
 2036 0010 9160     		str	r1, [r2, #8]
 2037              		.loc 1 938 0
 2038 0012 9163     		str	r1, [r2, #56]
 2039              	.L345:
 2040 0014 7047     		bx	lr
 2041              		.cfi_endproc
 2042              	.LFE140:
 2043              		.size	usb_lld_stop, .-usb_lld_stop
 2044 0016 00BFAFF3 		.section	.text.usb_lld_reset,"ax",%progbits
 2044      0080AFF3 
ARM GAS  /tmp/cc3IGbAH.s 			page 37


 2044      0080
 2045              		.align	2
 2046              		.p2align 4,,15
 2047              		.global	usb_lld_reset
 2048              		.thumb
 2049              		.thumb_func
 2050              		.type	usb_lld_reset, %function
 2051              	usb_lld_reset:
 2052              	.LFB141:
 2053              		.loc 1 963 0
 2054              		.cfi_startproc
 2055              		@ args = 0, pretend = 0, frame = 0
 2056              		@ frame_needed = 0, uses_anonymous_args = 0
 2057              	.LVL231:
 2058 0000 2DE9F84F 		push	{r3, r4, r5, r6, r7, r8, r9, sl, fp, lr}
 2059              	.LCFI9:
 2060              		.cfi_def_cfa_offset 40
 2061              		.cfi_offset 3, -40
 2062              		.cfi_offset 4, -36
 2063              		.cfi_offset 5, -32
 2064              		.cfi_offset 6, -28
 2065              		.cfi_offset 7, -24
 2066              		.cfi_offset 8, -20
 2067              		.cfi_offset 9, -16
 2068              		.cfi_offset 10, -12
 2069              		.cfi_offset 11, -8
 2070              		.cfi_offset 14, -4
 2071              		.loc 1 963 0
 2072 0004 8046     		mov	r8, r0
 2073              		.loc 1 968 0
 2074 0006 0021     		movs	r1, #0
 2075              		.loc 1 965 0
 2076 0008 C46B     		ldr	r4, [r0, #60]
 2077              	.LVL232:
 2078              		.loc 1 968 0
 2079 000a FFF7FEFF 		bl	otg_txfifo_flush
 2080              	.LVL233:
 2081 000e D8F840B0 		ldr	fp, [r8, #64]
 2082 0012 DBF808A0 		ldr	sl, [fp, #8]
 2083              		.loc 1 972 0
 2084 0016 4FF00061 		mov	r1, #134217728
 2085              		.loc 1 974 0
 2086 001a FF22     		movs	r2, #255
 2087              		.loc 1 972 0
 2088 001c C4F80019 		str	r1, [r4, #2304]
 2089 0020 0AF00106 		and	r6, sl, #1
 2090              		.loc 1 973 0
 2091 0024 C4F8001B 		str	r1, [r4, #2816]
 2092              		.loc 1 971 0
 2093 0028 0123     		movs	r3, #1
 2094              		.loc 1 974 0
 2095 002a C4F80829 		str	r2, [r4, #2312]
 2096              		.loc 1 975 0
 2097 002e C4F8082B 		str	r2, [r4, #2824]
 2098              		.loc 1 971 0
 2099 0032 BAF1000F 		cmp	sl, #0
 2100 0036 33D0     		beq	.L361
ARM GAS  /tmp/cc3IGbAH.s 			page 38


 2101 0038 66B1     		cbz	r6, .L351
 2102 003a 0223     		movs	r3, #2
 2103 003c 5345     		cmp	r3, sl
 2104              		.loc 1 972 0
 2105 003e C4F82019 		str	r1, [r4, #2336]
 2106 0042 04F51267 		add	r7, r4, #2336
 2107              		.loc 1 973 0
 2108 0046 C4F8201B 		str	r1, [r4, #2848]
 2109              		.loc 1 974 0
 2110 004a C4F82829 		str	r2, [r4, #2344]
 2111              		.loc 1 975 0
 2112 004e C4F8282B 		str	r2, [r4, #2856]
 2113              		.loc 1 971 0
 2114 0052 25D8     		bhi	.L361
 2115              	.L351:
 2116              		.loc 1 971 0 is_stmt 0 discriminator 2
 2117 0054 5F1C     		adds	r7, r3, #1
 2118              		.loc 1 972 0 is_stmt 1 discriminator 2
 2119 0056 03F14809 		add	r9, r3, #72
 2120              		.loc 1 973 0 discriminator 2
 2121 005a 03F15800 		add	r0, r3, #88
 2122              		.loc 1 972 0 discriminator 2
 2123 005e 03F1490C 		add	ip, r3, #73
 2124              		.loc 1 973 0 discriminator 2
 2125 0062 03F1590E 		add	lr, r3, #89
 2126              		.loc 1 974 0 discriminator 2
 2127 0066 04EB4316 		add	r6, r4, r3, lsl #5
 2128 006a 04EB4715 		add	r5, r4, r7, lsl #5
 2129              		.loc 1 973 0 discriminator 2
 2130 006e 4001     		lsls	r0, r0, #5
 2131              		.loc 1 972 0 discriminator 2
 2132 0070 4FEA4919 		lsl	r9, r9, #5
 2133 0074 4FEA4C1C 		lsl	ip, ip, #5
 2134              		.loc 1 973 0 discriminator 2
 2135 0078 4FEA4E1E 		lsl	lr, lr, #5
 2136              		.loc 1 971 0 discriminator 2
 2137 007c 0233     		adds	r3, r3, #2
 2138 007e 5345     		cmp	r3, sl
 2139              		.loc 1 972 0 discriminator 2
 2140 0080 44F80910 		str	r1, [r4, r9]
 2141              		.loc 1 973 0 discriminator 2
 2142 0084 2150     		str	r1, [r4, r0]
 2143              		.loc 1 974 0 discriminator 2
 2144 0086 C6F80829 		str	r2, [r6, #2312]
 2145              		.loc 1 975 0 discriminator 2
 2146 008a C6F8082B 		str	r2, [r6, #2824]
 2147              		.loc 1 972 0 discriminator 2
 2148 008e 44F80C10 		str	r1, [r4, ip]
 2149              		.loc 1 973 0 discriminator 2
 2150 0092 44F80E10 		str	r1, [r4, lr]
 2151              		.loc 1 974 0 discriminator 2
 2152 0096 C5F80829 		str	r2, [r5, #2312]
 2153              		.loc 1 975 0 discriminator 2
 2154 009a C5F8082B 		str	r2, [r5, #2824]
 2155              		.loc 1 971 0 discriminator 2
 2156 009e D9D9     		bls	.L351
 2157              	.L361:
ARM GAS  /tmp/cc3IGbAH.s 			page 39


 2158              	.LBB195:
 2159              	.LBB196:
 2160              		.loc 1 211 0
 2161 00a0 DBF80030 		ldr	r3, [fp, #0]
 2162              	.LBE196:
 2163              	.LBE195:
 2164              	.LBB198:
 2165              	.LBB199:
 2166              		.loc 1 183 0
 2167 00a4 D8F83C20 		ldr	r2, [r8, #60]
 2168              	.LBE199:
 2169              	.LBE198:
 2170              		.loc 1 979 0
 2171 00a8 4FF0FF31 		mov	r1, #-1
 2172              		.loc 1 980 0
 2173 00ac 4FF00116 		mov	r6, #65537
 2174              	.LBB202:
 2175              	.LBB200:
 2176              		.loc 1 185 0
 2177 00b0 1025     		movs	r5, #16
 2178              	.LBE200:
 2179              	.LBE202:
 2180              		.loc 1 979 0
 2181 00b2 C4F81818 		str	r1, [r4, #2072]
 2182              		.loc 1 980 0
 2183 00b6 C4F81C68 		str	r6, [r4, #2076]
 2184              	.LVL234:
 2185              	.LBB203:
 2186              	.LBB197:
 2187              		.loc 1 211 0
 2188 00ba C8F84430 		str	r3, [r8, #68]
 2189              	.LBE197:
 2190              	.LBE203:
 2191              		.loc 1 986 0
 2192 00be 6362     		str	r3, [r4, #36]
 2193              	.LVL235:
 2194              	.LBB204:
 2195              	.LBB201:
 2196              		.loc 1 185 0
 2197 00c0 1561     		str	r5, [r2, #16]
 2198              	.L352:
 2199              		.loc 1 186 0
 2200 00c2 1069     		ldr	r0, [r2, #16]
 2201 00c4 10F01005 		ands	r5, r0, #16
 2202 00c8 FBD1     		bne	.L352
 2203              		.loc 1 189 0
 2204 00ca 0C20     		movs	r0, #12
 2205 00cc FFF7FEFF 		bl	halPolledDelay
 2206              	.LVL236:
 2207              	.LBE201:
 2208              	.LBE204:
 2209              		.loc 1 990 0
 2210 00d0 D4F80038 		ldr	r3, [r4, #2048]
 2211              	.LBB205:
 2212              	.LBB206:
 2213              		.loc 1 225 0
 2214 00d4 D8F84410 		ldr	r1, [r8, #68]
ARM GAS  /tmp/cc3IGbAH.s 			page 40


 2215              	.LBE206:
 2216              	.LBE205:
 2217              		.loc 1 990 0
 2218 00d8 23F4FE62 		bic	r2, r3, #2032
 2219 00dc C4F80028 		str	r2, [r4, #2048]
 2220              		.loc 1 993 0
 2221 00e0 A669     		ldr	r6, [r4, #24]
 2222 00e2 46F44020 		orr	r0, r6, #786432
 2223              		.loc 1 994 0
 2224 00e6 0922     		movs	r2, #9
 2225              		.loc 1 993 0
 2226 00e8 40F01006 		orr	r6, r0, #16
 2227 00ec A661     		str	r6, [r4, #24]
 2228              		.loc 1 1000 0
 2229 00ee 48F24003 		movw	r3, #32832
 2230              		.loc 1 994 0
 2231 00f2 C4F81028 		str	r2, [r4, #2064]
 2232              		.loc 1 995 0
 2233 00f6 C4F81428 		str	r2, [r4, #2068]
 2234              		.loc 1 998 0
 2235 00fa 0B4A     		ldr	r2, .L362
 2236              		.loc 1 1000 0
 2237 00fc C1F20003 		movt	r3, 4096
 2238              	.LBB209:
 2239              	.LBB207:
 2240              		.loc 1 226 0
 2241 0100 01F11000 		add	r0, r1, #16
 2242              	.LBE207:
 2243              	.LBE209:
 2244              		.loc 1 1005 0
 2245 0104 41F48011 		orr	r1, r1, #1048576
 2246              		.loc 1 998 0
 2247 0108 C8F81020 		str	r2, [r8, #16]
 2248              		.loc 1 999 0
 2249 010c C4F8105B 		str	r5, [r4, #2832]
 2250              		.loc 1 1000 0
 2251 0110 C4F8003B 		str	r3, [r4, #2816]
 2252              		.loc 1 1002 0
 2253 0114 C4F81059 		str	r5, [r4, #2320]
 2254              		.loc 1 1003 0
 2255 0118 C4F80039 		str	r3, [r4, #2304]
 2256              	.LVL237:
 2257              	.LBB210:
 2258              	.LBB208:
 2259              		.loc 1 226 0
 2260 011c C8F84400 		str	r0, [r8, #68]
 2261              	.LBE208:
 2262              	.LBE210:
 2263              		.loc 1 1005 0
 2264 0120 A162     		str	r1, [r4, #40]
 2265 0122 BDE8F88F 		pop	{r3, r4, r5, r6, r7, r8, r9, sl, fp, pc}
 2266              	.L363:
 2267 0126 00BF     		.align	2
 2268              	.L362:
 2269 0128 00000000 		.word	.LANCHOR2
 2270              		.cfi_endproc
 2271              	.LFE141:
ARM GAS  /tmp/cc3IGbAH.s 			page 41


 2272              		.size	usb_lld_reset, .-usb_lld_reset
 2273 012c AFF30080 		.section	.text.usb_lld_set_address,"ax",%progbits
 2274              		.align	2
 2275              		.p2align 4,,15
 2276              		.global	usb_lld_set_address
 2277              		.thumb
 2278              		.thumb_func
 2279              		.type	usb_lld_set_address, %function
 2280              	usb_lld_set_address:
 2281              	.LFB142:
 2282              		.loc 1 1017 0
 2283              		.cfi_startproc
 2284              		@ args = 0, pretend = 0, frame = 0
 2285              		@ frame_needed = 0, uses_anonymous_args = 0
 2286              		@ link register save eliminated.
 2287              	.LVL238:
 2288              		.loc 1 1018 0
 2289 0000 C36B     		ldr	r3, [r0, #60]
 2290              	.LVL239:
 2291              		.loc 1 1020 0
 2292 0002 90F83A10 		ldrb	r1, [r0, #58]	@ zero_extendqisi2
 2293 0006 D3F80028 		ldr	r2, [r3, #2048]
 2294 000a 22F4FE60 		bic	r0, r2, #2032
 2295              	.LVL240:
 2296 000e 40EA0111 		orr	r1, r0, r1, lsl #4
 2297 0012 C3F80018 		str	r1, [r3, #2048]
 2298 0016 7047     		bx	lr
 2299              		.cfi_endproc
 2300              	.LFE142:
 2301              		.size	usb_lld_set_address, .-usb_lld_set_address
 2302 0018 AFF30080 		.section	.text.usb_lld_init_endpoint,"ax",%progbits
 2302      AFF30080 
 2303              		.align	2
 2304              		.p2align 4,,15
 2305              		.global	usb_lld_init_endpoint
 2306              		.thumb
 2307              		.thumb_func
 2308              		.type	usb_lld_init_endpoint, %function
 2309              	usb_lld_init_endpoint:
 2310              	.LFB143:
 2311              		.loc 1 1031 0
 2312              		.cfi_startproc
 2313              		@ args = 0, pretend = 0, frame = 0
 2314              		@ frame_needed = 0, uses_anonymous_args = 0
 2315              	.LVL241:
 2316 0000 2DE9F041 		push	{r4, r5, r6, r7, r8, lr}
 2317              	.LCFI10:
 2318              		.cfi_def_cfa_offset 24
 2319              		.cfi_offset 4, -24
 2320              		.cfi_offset 5, -20
 2321              		.cfi_offset 6, -16
 2322              		.cfi_offset 7, -12
 2323              		.cfi_offset 8, -8
 2324              		.cfi_offset 14, -4
 2325              		.loc 1 1036 0
 2326 0004 0F1D     		adds	r7, r1, #4
 2327              		.loc 1 1031 0
ARM GAS  /tmp/cc3IGbAH.s 			page 42


 2328 0006 0646     		mov	r6, r0
 2329              		.loc 1 1036 0
 2330 0008 50F82730 		ldr	r3, [r0, r7, lsl #2]
 2331              		.loc 1 1033 0
 2332 000c C46B     		ldr	r4, [r0, #60]
 2333              	.LVL242:
 2334              		.loc 1 1036 0
 2335 000e 1A68     		ldr	r2, [r3, #0]
 2336 0010 02F00300 		and	r0, r2, #3
 2337              	.LVL243:
 2338 0014 0228     		cmp	r0, #2
 2339              		.loc 1 1031 0
 2340 0016 0D46     		mov	r5, r1
 2341              		.loc 1 1044 0
 2342 0018 4FF40048 		mov	r8, #32768
 2343              		.loc 1 1036 0
 2344 001c 53D0     		beq	.L368
 2345 001e 0328     		cmp	r0, #3
 2346 0020 54D0     		beq	.L369
 2347              		.loc 1 1038 0
 2348 0022 4146     		mov	r1, r8
 2349              	.LVL244:
 2350 0024 C1F20001 		movt	r1, 4096
 2351 0028 C1F20408 		movt	r8, 4100
 2352 002c 0128     		cmp	r0, #1
 2353 002e 18BF     		it	ne
 2354 0030 8846     		movne	r8, r1
 2355              	.L367:
 2356              	.LVL245:
 2357              		.loc 1 1054 0
 2358 0032 6A01     		lsls	r2, r5, #5
 2359 0034 A018     		adds	r0, r4, r2
 2360 0036 0021     		movs	r1, #0
 2361 0038 C0F8101B 		str	r1, [r0, #2832]
 2362              		.loc 1 1055 0
 2363 003c D868     		ldr	r0, [r3, #12]
 2364 003e 0028     		cmp	r0, #0
 2365 0040 47D0     		beq	.L370
 2366              		.loc 1 1056 0
 2367 0042 588A     		ldrh	r0, [r3, #18]
 2368 0044 05F15801 		add	r1, r5, #88
 2369 0048 4901     		lsls	r1, r1, #5
 2370 004a 48EA0000 		orr	r0, r8, r0
 2371 004e 6050     		str	r0, [r4, r1]
 2372              		.loc 1 1057 0
 2373 0050 4FF0010C 		mov	ip, #1
 2374 0054 D4F81C08 		ldr	r0, [r4, #2076]
 2375 0058 05F11001 		add	r1, r5, #16
 2376 005c 0CFA01F1 		lsl	r1, ip, r1
 2377 0060 0143     		orrs	r1, r1, r0
 2378 0062 C4F81C18 		str	r1, [r4, #2076]
 2379              	.L371:
 2380              		.loc 1 1065 0
 2381 0066 A218     		adds	r2, r4, r2
 2382              		.loc 1 1066 0
 2383 0068 9968     		ldr	r1, [r3, #8]
 2384              		.loc 1 1065 0
ARM GAS  /tmp/cc3IGbAH.s 			page 43


 2385 006a 0020     		movs	r0, #0
 2386 006c C2F81009 		str	r0, [r2, #2320]
 2387              		.loc 1 1066 0
 2388 0070 0029     		cmp	r1, #0
 2389 0072 41D0     		beq	.L372
 2390              		.loc 1 1069 0
 2391 0074 9A8B     		ldrh	r2, [r3, #28]
 2392              		.loc 1 1068 0
 2393 0076 198A     		ldrh	r1, [r3, #16]
 2394 0078 8B08     		lsrs	r3, r1, #2
 2395              	.LVL246:
 2396              		.loc 1 1069 0
 2397 007a 012A     		cmp	r2, #1
 2398              		.loc 1 1070 0
 2399 007c 88BF     		it	hi
 2400 007e 5343     		mulhi	r3, r2, r3
 2401              	.LVL247:
 2402              		.loc 1 1071 0
 2403 0080 05F13F00 		add	r0, r5, #63
 2404              	.LBB211:
 2405              	.LBB212:
 2406              		.loc 1 225 0
 2407 0084 726C     		ldr	r2, [r6, #68]
 2408              	.LVL248:
 2409              	.LBE212:
 2410              	.LBE211:
 2411              		.loc 1 1071 0
 2412 0086 04EB8001 		add	r1, r4, r0, lsl #2
 2413              	.LBB215:
 2414              	.LBB213:
 2415              		.loc 1 226 0
 2416 008a 9818     		adds	r0, r3, r2
 2417              	.LBE213:
 2418              	.LBE215:
 2419              		.loc 1 1071 0
 2420 008c 42EA0343 		orr	r3, r2, r3, lsl #16
 2421              	.LVL249:
 2422              	.LBB216:
 2423              	.LBB214:
 2424              		.loc 1 226 0
 2425 0090 7064     		str	r0, [r6, #68]
 2426              	.LBE214:
 2427              	.LBE216:
 2428              		.loc 1 1071 0
 2429 0092 4B60     		str	r3, [r1, #4]
 2430              		.loc 1 1073 0
 2431 0094 3046     		mov	r0, r6
 2432 0096 2946     		mov	r1, r5
 2433 0098 FFF7FEFF 		bl	otg_txfifo_flush
 2434              	.LVL250:
 2435              		.loc 1 1077 0
 2436 009c 56F82720 		ldr	r2, [r6, r7, lsl #2]
 2437              		.loc 1 1076 0
 2438 00a0 118A     		ldrh	r1, [r2, #16]
 2439              		.loc 1 1075 0
 2440 00a2 05F14800 		add	r0, r5, #72
 2441 00a6 41EA8552 		orr	r2, r1, r5, lsl #22
ARM GAS  /tmp/cc3IGbAH.s 			page 44


 2442 00aa 4301     		lsls	r3, r0, #5
 2443              		.loc 1 1076 0
 2444 00ac 42EA0801 		orr	r1, r2, r8
 2445              		.loc 1 1075 0
 2446 00b0 E150     		str	r1, [r4, r3]
 2447              		.loc 1 1078 0
 2448 00b2 0122     		movs	r2, #1
 2449 00b4 D4F81C08 		ldr	r0, [r4, #2076]
 2450 00b8 02FA05F5 		lsl	r5, r2, r5
 2451 00bc 0543     		orrs	r5, r5, r0
 2452 00be C4F81C58 		str	r5, [r4, #2076]
 2453 00c2 BDE8F081 		pop	{r4, r5, r6, r7, r8, pc}
 2454              	.LVL251:
 2455              	.L368:
 2456              		.loc 1 1044 0
 2457 00c6 C1F20808 		movt	r8, 4104
 2458              	.LVL252:
 2459              		.loc 1 1045 0
 2460 00ca B2E7     		b	.L367
 2461              	.L369:
 2462              	.LVL253:
 2463              		.loc 1 1047 0
 2464 00cc C1F20C08 		movt	r8, 4108
 2465              	.LVL254:
 2466              		.loc 1 1048 0
 2467 00d0 AFE7     		b	.L367
 2468              	.LVL255:
 2469              	.L370:
 2470              		.loc 1 1060 0
 2471 00d2 05F15801 		add	r1, r5, #88
 2472 00d6 4901     		lsls	r1, r1, #5
 2473              		.loc 1 1061 0
 2474 00d8 05F1100E 		add	lr, r5, #16
 2475              		.loc 1 1060 0
 2476 00dc 6058     		ldr	r0, [r4, r1]
 2477 00de 20F40040 		bic	r0, r0, #32768
 2478 00e2 6050     		str	r0, [r4, r1]
 2479              		.loc 1 1061 0
 2480 00e4 0121     		movs	r1, #1
 2481 00e6 D4F81C08 		ldr	r0, [r4, #2076]
 2482 00ea 01FA0EF1 		lsl	r1, r1, lr
 2483 00ee 20EA0100 		bic	r0, r0, r1
 2484 00f2 C4F81C08 		str	r0, [r4, #2076]
 2485 00f6 B6E7     		b	.L371
 2486              	.L372:
 2487              		.loc 1 1081 0
 2488 00f8 05F13F03 		add	r3, r5, #63
 2489 00fc 04EB8302 		add	r2, r4, r3, lsl #2
 2490 0100 4FF48061 		mov	r1, #1024
 2491 0104 C0F20021 		movt	r1, 512
 2492 0108 5160     		str	r1, [r2, #4]
 2493              		.loc 1 1082 0
 2494 010a 3046     		mov	r0, r6
 2495 010c 2946     		mov	r1, r5
 2496 010e FFF7FEFF 		bl	otg_txfifo_flush
 2497              	.LVL256:
 2498              		.loc 1 1083 0
ARM GAS  /tmp/cc3IGbAH.s 			page 45


 2499 0112 05F14800 		add	r0, r5, #72
 2500 0116 4301     		lsls	r3, r0, #5
 2501 0118 E258     		ldr	r2, [r4, r3]
 2502 011a 22F40041 		bic	r1, r2, #32768
 2503 011e E150     		str	r1, [r4, r3]
 2504              		.loc 1 1084 0
 2505 0120 0123     		movs	r3, #1
 2506 0122 D4F81C08 		ldr	r0, [r4, #2076]
 2507 0126 03FA05F5 		lsl	r5, r3, r5
 2508 012a 20EA0505 		bic	r5, r0, r5
 2509 012e C4F81C58 		str	r5, [r4, #2076]
 2510 0132 BDE8F081 		pop	{r4, r5, r6, r7, r8, pc}
 2511              		.cfi_endproc
 2512              	.LFE143:
 2513              		.size	usb_lld_init_endpoint, .-usb_lld_init_endpoint
 2514 0136 00BFAFF3 		.section	.text.usb_lld_disable_endpoints,"ax",%progbits
 2514      0080AFF3 
 2514      0080
 2515              		.align	2
 2516              		.p2align 4,,15
 2517              		.global	usb_lld_disable_endpoints
 2518              		.thumb
 2519              		.thumb_func
 2520              		.type	usb_lld_disable_endpoints, %function
 2521              	usb_lld_disable_endpoints:
 2522              	.LFB144:
 2523              		.loc 1 1095 0
 2524              		.cfi_startproc
 2525              		@ args = 0, pretend = 0, frame = 0
 2526              		@ frame_needed = 0, uses_anonymous_args = 0
 2527              		@ link register save eliminated.
 2528              	.LVL257:
 2529              	.LBB217:
 2530              	.LBB218:
 2531              		.loc 1 211 0
 2532 0000 026C     		ldr	r2, [r0, #64]
 2533 0002 1168     		ldr	r1, [r2, #0]
 2534 0004 4164     		str	r1, [r0, #68]
 2535              	.LBE218:
 2536              	.LBE217:
 2537              		.loc 1 1102 0
 2538              		.loc 1 1101 0
 2539 0006 FFF7FEBF 		b	otg_disable_ep
 2540              	.LVL258:
 2541              		.cfi_endproc
 2542              	.LFE144:
 2543              		.size	usb_lld_disable_endpoints, .-usb_lld_disable_endpoints
 2544 000a 00BFAFF3 		.section	.text.usb_lld_get_status_out,"ax",%progbits
 2544      0080
 2545              		.align	2
 2546              		.p2align 4,,15
 2547              		.global	usb_lld_get_status_out
 2548              		.thumb
 2549              		.thumb_func
 2550              		.type	usb_lld_get_status_out, %function
 2551              	usb_lld_get_status_out:
 2552              	.LFB145:
ARM GAS  /tmp/cc3IGbAH.s 			page 46


 2553              		.loc 1 1116 0
 2554              		.cfi_startproc
 2555              		@ args = 0, pretend = 0, frame = 0
 2556              		@ frame_needed = 0, uses_anonymous_args = 0
 2557              		@ link register save eliminated.
 2558              	.LVL259:
 2559              		.loc 1 1121 0
 2560 0000 5831     		adds	r1, r1, #88
 2561              	.LVL260:
 2562 0002 C36B     		ldr	r3, [r0, #60]
 2563 0004 4901     		lsls	r1, r1, #5
 2564 0006 5A58     		ldr	r2, [r3, r1]
 2565              	.LVL261:
 2566              		.loc 1 1122 0
 2567 0008 12F40040 		ands	r0, r2, #32768
 2568              	.LVL262:
 2569 000c 04D0     		beq	.L378
 2570              		.loc 1 1124 0
 2571 000e 12F4001F 		tst	r2, #2097152
 2572              		.loc 1 1125 0
 2573 0012 0CBF     		ite	eq
 2574 0014 0220     		moveq	r0, #2
 2575 0016 0120     		movne	r0, #1
 2576              	.L378:
 2577              		.loc 1 1127 0
 2578 0018 7047     		bx	lr
 2579              		.cfi_endproc
 2580              	.LFE145:
 2581              		.size	usb_lld_get_status_out, .-usb_lld_get_status_out
 2582 001a 00BFAFF3 		.section	.text.usb_lld_get_status_in,"ax",%progbits
 2582      0080
 2583              		.align	2
 2584              		.p2align 4,,15
 2585              		.global	usb_lld_get_status_in
 2586              		.thumb
 2587              		.thumb_func
 2588              		.type	usb_lld_get_status_in, %function
 2589              	usb_lld_get_status_in:
 2590              	.LFB146:
 2591              		.loc 1 1141 0
 2592              		.cfi_startproc
 2593              		@ args = 0, pretend = 0, frame = 0
 2594              		@ frame_needed = 0, uses_anonymous_args = 0
 2595              		@ link register save eliminated.
 2596              	.LVL263:
 2597              		.loc 1 1146 0
 2598 0000 4831     		adds	r1, r1, #72
 2599              	.LVL264:
 2600 0002 C36B     		ldr	r3, [r0, #60]
 2601 0004 4901     		lsls	r1, r1, #5
 2602 0006 5A58     		ldr	r2, [r3, r1]
 2603              	.LVL265:
 2604              		.loc 1 1147 0
 2605 0008 12F40040 		ands	r0, r2, #32768
 2606              	.LVL266:
 2607 000c 04D0     		beq	.L382
 2608              		.loc 1 1149 0
ARM GAS  /tmp/cc3IGbAH.s 			page 47


 2609 000e 12F4001F 		tst	r2, #2097152
 2610              		.loc 1 1150 0
 2611 0012 0CBF     		ite	eq
 2612 0014 0220     		moveq	r0, #2
 2613 0016 0120     		movne	r0, #1
 2614              	.L382:
 2615              		.loc 1 1152 0
 2616 0018 7047     		bx	lr
 2617              		.cfi_endproc
 2618              	.LFE146:
 2619              		.size	usb_lld_get_status_in, .-usb_lld_get_status_in
 2620 001a 00BFAFF3 		.section	.text.usb_lld_read_setup,"ax",%progbits
 2620      0080
 2621              		.align	2
 2622              		.p2align 4,,15
 2623              		.global	usb_lld_read_setup
 2624              		.thumb
 2625              		.thumb_func
 2626              		.type	usb_lld_read_setup, %function
 2627              	usb_lld_read_setup:
 2628              	.LFB147:
 2629              		.loc 1 1168 0
 2630              		.cfi_startproc
 2631              		@ args = 0, pretend = 0, frame = 0
 2632              		@ frame_needed = 0, uses_anonymous_args = 0
 2633              		@ link register save eliminated.
 2634              	.LVL267:
 2635              		.loc 1 1170 0
 2636 0000 0431     		adds	r1, r1, #4
 2637              	.LVL268:
 2638 0002 50F82130 		ldr	r3, [r0, r1, lsl #2]
 2639 0006 186A     		ldr	r0, [r3, #32]
 2640              	.LVL269:
 2641 0008 0168     		ldr	r1, [r0, #0]	@ unaligned
 2642 000a 4368     		ldr	r3, [r0, #4]	@ unaligned
 2643 000c 1160     		str	r1, [r2, #0]	@ unaligned
 2644 000e 5360     		str	r3, [r2, #4]	@ unaligned
 2645 0010 7047     		bx	lr
 2646              		.cfi_endproc
 2647              	.LFE147:
 2648              		.size	usb_lld_read_setup, .-usb_lld_read_setup
 2649 0012 00BFAFF3 		.section	.text.usb_lld_prepare_receive,"ax",%progbits
 2649      0080AFF3 
 2649      0080AFF3 
 2649      0080
 2650              		.align	2
 2651              		.p2align 4,,15
 2652              		.global	usb_lld_prepare_receive
 2653              		.thumb
 2654              		.thumb_func
 2655              		.type	usb_lld_prepare_receive, %function
 2656              	usb_lld_prepare_receive:
 2657              	.LFB148:
 2658              		.loc 1 1181 0
 2659              		.cfi_startproc
 2660              		@ args = 0, pretend = 0, frame = 0
 2661              		@ frame_needed = 0, uses_anonymous_args = 0
ARM GAS  /tmp/cc3IGbAH.s 			page 48


 2662              		@ link register save eliminated.
 2663              	.LVL270:
 2664              		.loc 1 1183 0
 2665 0000 0B1D     		adds	r3, r1, #4
 2666              		.loc 1 1181 0
 2667 0002 10B4     		push	{r4}
 2668              	.LCFI11:
 2669              		.cfi_def_cfa_offset 4
 2670              		.cfi_offset 4, -4
 2671              		.loc 1 1188 0
 2672 0004 C46B     		ldr	r4, [r0, #60]
 2673              		.loc 1 1183 0
 2674 0006 50F82300 		ldr	r0, [r0, r3, lsl #2]
 2675              	.LVL271:
 2676              		.loc 1 1186 0
 2677 000a 8269     		ldr	r2, [r0, #24]
 2678 000c 438A     		ldrh	r3, [r0, #18]
 2679              	.LVL272:
 2680 000e 5068     		ldr	r0, [r2, #4]
 2681              	.LVL273:
 2682 0010 421E     		subs	r2, r0, #1
 2683              	.LVL274:
 2684 0012 D018     		adds	r0, r2, r3
 2685              		.loc 1 1188 0
 2686 0014 04EB4111 		add	r1, r4, r1, lsl #5
 2687              	.LVL275:
 2688 0018 43F0C042 		orr	r2, r3, #1610612736
 2689              		.loc 1 1186 0
 2690 001c B0FBF3F3 		udiv	r3, r0, r3
 2691              		.loc 1 1188 0
 2692 0020 42EAC340 		orr	r0, r2, r3, lsl #19
 2693 0024 C1F8100B 		str	r0, [r1, #2832]
 2694              		.loc 1 1191 0
 2695 0028 10BC     		pop	{r4}
 2696 002a 7047     		bx	lr
 2697              		.cfi_endproc
 2698              	.LFE148:
 2699              		.size	usb_lld_prepare_receive, .-usb_lld_prepare_receive
 2700 002c AFF30080 		.section	.text.usb_lld_prepare_transmit,"ax",%progbits
 2701              		.align	2
 2702              		.p2align 4,,15
 2703              		.global	usb_lld_prepare_transmit
 2704              		.thumb
 2705              		.thumb_func
 2706              		.type	usb_lld_prepare_transmit, %function
 2707              	usb_lld_prepare_transmit:
 2708              	.LFB149:
 2709              		.loc 1 1201 0
 2710              		.cfi_startproc
 2711              		@ args = 0, pretend = 0, frame = 0
 2712              		@ frame_needed = 0, uses_anonymous_args = 0
 2713              		@ link register save eliminated.
 2714              	.LVL276:
 2715              		.loc 1 1202 0
 2716 0000 0B1D     		adds	r3, r1, #4
 2717              		.loc 1 1201 0
 2718 0002 10B4     		push	{r4}
ARM GAS  /tmp/cc3IGbAH.s 			page 49


 2719              	.LCFI12:
 2720              		.cfi_def_cfa_offset 4
 2721              		.cfi_offset 4, -4
 2722              		.loc 1 1202 0
 2723 0004 50F82320 		ldr	r2, [r0, r3, lsl #2]
 2724              	.LVL277:
 2725              		.loc 1 1205 0
 2726 0008 5369     		ldr	r3, [r2, #20]
 2727 000a 5B68     		ldr	r3, [r3, #4]
 2728 000c 6BB1     		cbz	r3, .L390
 2729              	.LBB219:
 2730              		.loc 1 1211 0
 2731 000e 128A     		ldrh	r2, [r2, #16]
 2732              	.LVL278:
 2733              		.loc 1 1213 0
 2734 0010 C06B     		ldr	r0, [r0, #60]
 2735              	.LVL279:
 2736              		.loc 1 1211 0
 2737 0012 5C1E     		subs	r4, r3, #1
 2738 0014 A418     		adds	r4, r4, r2
 2739 0016 B4FBF2F2 		udiv	r2, r4, r2
 2740              	.LVL280:
 2741              		.loc 1 1213 0
 2742 001a 00EB4111 		add	r1, r0, r1, lsl #5
 2743              	.LVL281:
 2744 001e 43EAC243 		orr	r3, r3, r2, lsl #19
 2745 0022 C1F81039 		str	r3, [r1, #2320]
 2746              	.L387:
 2747              	.LBE219:
 2748              		.loc 1 1217 0
 2749 0026 10BC     		pop	{r4}
 2750 0028 7047     		bx	lr
 2751              	.LVL282:
 2752              	.L390:
 2753              		.loc 1 1207 0
 2754 002a C06B     		ldr	r0, [r0, #60]
 2755              	.LVL283:
 2756 002c 00EB4112 		add	r2, r0, r1, lsl #5
 2757              	.LVL284:
 2758 0030 4FF40021 		mov	r1, #524288
 2759              	.LVL285:
 2760 0034 C2F81019 		str	r1, [r2, #2320]
 2761 0038 F5E7     		b	.L387
 2762              		.cfi_endproc
 2763              	.LFE149:
 2764              		.size	usb_lld_prepare_transmit, .-usb_lld_prepare_transmit
 2765 003a 00BFAFF3 		.section	.text.usb_lld_start_out,"ax",%progbits
 2765      0080
 2766              		.align	2
 2767              		.p2align 4,,15
 2768              		.global	usb_lld_start_out
 2769              		.thumb
 2770              		.thumb_func
 2771              		.type	usb_lld_start_out, %function
 2772              	usb_lld_start_out:
 2773              	.LFB150:
 2774              		.loc 1 1227 0
ARM GAS  /tmp/cc3IGbAH.s 			page 50


 2775              		.cfi_startproc
 2776              		@ args = 0, pretend = 0, frame = 0
 2777              		@ frame_needed = 0, uses_anonymous_args = 0
 2778              		@ link register save eliminated.
 2779              	.LVL286:
 2780              		.loc 1 1229 0
 2781 0000 5831     		adds	r1, r1, #88
 2782              	.LVL287:
 2783 0002 C36B     		ldr	r3, [r0, #60]
 2784 0004 4901     		lsls	r1, r1, #5
 2785 0006 5A58     		ldr	r2, [r3, r1]
 2786 0008 42F08060 		orr	r0, r2, #67108864
 2787              	.LVL288:
 2788 000c 5850     		str	r0, [r3, r1]
 2789 000e 7047     		bx	lr
 2790              		.cfi_endproc
 2791              	.LFE150:
 2792              		.size	usb_lld_start_out, .-usb_lld_start_out
 2793              		.section	.text.usb_lld_start_in,"ax",%progbits
 2794              		.align	2
 2795              		.p2align 4,,15
 2796              		.global	usb_lld_start_in
 2797              		.thumb
 2798              		.thumb_func
 2799              		.type	usb_lld_start_in, %function
 2800              	usb_lld_start_in:
 2801              	.LFB151:
 2802              		.loc 1 1240 0
 2803              		.cfi_startproc
 2804              		@ args = 0, pretend = 0, frame = 0
 2805              		@ frame_needed = 0, uses_anonymous_args = 0
 2806              		@ link register save eliminated.
 2807              	.LVL289:
 2808              		.loc 1 1242 0
 2809 0000 01F14802 		add	r2, r1, #72
 2810 0004 C36B     		ldr	r3, [r0, #60]
 2811 0006 5201     		lsls	r2, r2, #5
 2812 0008 9858     		ldr	r0, [r3, r2]
 2813              	.LVL290:
 2814 000a 40F00440 		orr	r0, r0, #-2080374784
 2815 000e 9850     		str	r0, [r3, r2]
 2816              		.loc 1 1243 0
 2817 0010 0120     		movs	r0, #1
 2818 0012 D3F83428 		ldr	r2, [r3, #2100]
 2819 0016 00FA01F1 		lsl	r1, r0, r1
 2820              	.LVL291:
 2821 001a 1143     		orrs	r1, r1, r2
 2822 001c C3F83418 		str	r1, [r3, #2100]
 2823 0020 7047     		bx	lr
 2824              		.cfi_endproc
 2825              	.LFE151:
 2826              		.size	usb_lld_start_in, .-usb_lld_start_in
 2827 0022 00BFAFF3 		.section	.text.usb_lld_stall_out,"ax",%progbits
 2827      0080AFF3 
 2827      0080AFF3 
 2827      0080
 2828              		.align	2
ARM GAS  /tmp/cc3IGbAH.s 			page 51


 2829              		.p2align 4,,15
 2830              		.global	usb_lld_stall_out
 2831              		.thumb
 2832              		.thumb_func
 2833              		.type	usb_lld_stall_out, %function
 2834              	usb_lld_stall_out:
 2835              	.LFB152:
 2836              		.loc 1 1254 0
 2837              		.cfi_startproc
 2838              		@ args = 0, pretend = 0, frame = 0
 2839              		@ frame_needed = 0, uses_anonymous_args = 0
 2840              		@ link register save eliminated.
 2841              	.LVL292:
 2842              		.loc 1 1256 0
 2843 0000 5831     		adds	r1, r1, #88
 2844              	.LVL293:
 2845 0002 C36B     		ldr	r3, [r0, #60]
 2846 0004 4901     		lsls	r1, r1, #5
 2847 0006 5A58     		ldr	r2, [r3, r1]
 2848 0008 42F40010 		orr	r0, r2, #2097152
 2849              	.LVL294:
 2850 000c 5850     		str	r0, [r3, r1]
 2851 000e 7047     		bx	lr
 2852              		.cfi_endproc
 2853              	.LFE152:
 2854              		.size	usb_lld_stall_out, .-usb_lld_stall_out
 2855              		.section	.text.usb_lld_stall_in,"ax",%progbits
 2856              		.align	2
 2857              		.p2align 4,,15
 2858              		.global	usb_lld_stall_in
 2859              		.thumb
 2860              		.thumb_func
 2861              		.type	usb_lld_stall_in, %function
 2862              	usb_lld_stall_in:
 2863              	.LFB153:
 2864              		.loc 1 1267 0
 2865              		.cfi_startproc
 2866              		@ args = 0, pretend = 0, frame = 0
 2867              		@ frame_needed = 0, uses_anonymous_args = 0
 2868              		@ link register save eliminated.
 2869              	.LVL295:
 2870              		.loc 1 1269 0
 2871 0000 4831     		adds	r1, r1, #72
 2872              	.LVL296:
 2873 0002 C36B     		ldr	r3, [r0, #60]
 2874 0004 4901     		lsls	r1, r1, #5
 2875 0006 5A58     		ldr	r2, [r3, r1]
 2876 0008 42F40010 		orr	r0, r2, #2097152
 2877              	.LVL297:
 2878 000c 5850     		str	r0, [r3, r1]
 2879 000e 7047     		bx	lr
 2880              		.cfi_endproc
 2881              	.LFE153:
 2882              		.size	usb_lld_stall_in, .-usb_lld_stall_in
 2883              		.section	.text.usb_lld_clear_out,"ax",%progbits
 2884              		.align	2
 2885              		.p2align 4,,15
ARM GAS  /tmp/cc3IGbAH.s 			page 52


 2886              		.global	usb_lld_clear_out
 2887              		.thumb
 2888              		.thumb_func
 2889              		.type	usb_lld_clear_out, %function
 2890              	usb_lld_clear_out:
 2891              	.LFB154:
 2892              		.loc 1 1280 0
 2893              		.cfi_startproc
 2894              		@ args = 0, pretend = 0, frame = 0
 2895              		@ frame_needed = 0, uses_anonymous_args = 0
 2896              		@ link register save eliminated.
 2897              	.LVL298:
 2898              		.loc 1 1282 0
 2899 0000 5831     		adds	r1, r1, #88
 2900              	.LVL299:
 2901 0002 C36B     		ldr	r3, [r0, #60]
 2902 0004 4901     		lsls	r1, r1, #5
 2903 0006 5A58     		ldr	r2, [r3, r1]
 2904 0008 22F40010 		bic	r0, r2, #2097152
 2905              	.LVL300:
 2906 000c 5850     		str	r0, [r3, r1]
 2907 000e 7047     		bx	lr
 2908              		.cfi_endproc
 2909              	.LFE154:
 2910              		.size	usb_lld_clear_out, .-usb_lld_clear_out
 2911              		.section	.text.usb_lld_clear_in,"ax",%progbits
 2912              		.align	2
 2913              		.p2align 4,,15
 2914              		.global	usb_lld_clear_in
 2915              		.thumb
 2916              		.thumb_func
 2917              		.type	usb_lld_clear_in, %function
 2918              	usb_lld_clear_in:
 2919              	.LFB155:
 2920              		.loc 1 1293 0
 2921              		.cfi_startproc
 2922              		@ args = 0, pretend = 0, frame = 0
 2923              		@ frame_needed = 0, uses_anonymous_args = 0
 2924              		@ link register save eliminated.
 2925              	.LVL301:
 2926              		.loc 1 1295 0
 2927 0000 4831     		adds	r1, r1, #72
 2928              	.LVL302:
 2929 0002 C36B     		ldr	r3, [r0, #60]
 2930 0004 4901     		lsls	r1, r1, #5
 2931 0006 5A58     		ldr	r2, [r3, r1]
 2932 0008 22F40010 		bic	r0, r2, #2097152
 2933              	.LVL303:
 2934 000c 5850     		str	r0, [r3, r1]
 2935 000e 7047     		bx	lr
 2936              		.cfi_endproc
 2937              	.LFE155:
 2938              		.size	usb_lld_clear_in, .-usb_lld_clear_in
 2939              		.global	USBD1
 2940              		.section	.rodata.fsparams,"a",%progbits
 2941              		.align	2
 2942              		.set	.LANCHOR1,. + 0
ARM GAS  /tmp/cc3IGbAH.s 			page 53


 2943              		.type	fsparams, %object
 2944              		.size	fsparams, 12
 2945              	fsparams:
 2946 0000 80000000 		.word	128
 2947 0004 80010000 		.word	384
 2948 0008 03000000 		.word	3
 2949              		.section	.bss.USBD1,"aw",%nobits
 2950              		.align	3
 2951              		.set	.LANCHOR0,. + 0
 2952              		.type	USBD1, %object
 2953              		.size	USBD1, 392
 2954              	USBD1:
 2955 0000 00000000 		.space	392
 2955      00000000 
 2955      00000000 
 2955      00000000 
 2955      00000000 
 2956              		.section	.rodata.str1.4,"aMS",%progbits,1
 2957              		.align	2
 2958              	.LC0:
 2959 0000 7573625F 		.ascii	"usb_lld_pump\000"
 2959      6C6C645F 
 2959      70756D70 
 2959      00
 2960 000d 000000   		.section	.rodata.ep0config,"a",%progbits
 2961              		.align	2
 2962              		.set	.LANCHOR2,. + 0
 2963              		.type	ep0config, %object
 2964              		.size	ep0config, 36
 2965              	ep0config:
 2966 0000 00000000 		.word	0
 2967 0004 00000000 		.word	_usb_ep0setup
 2968 0008 00000000 		.word	_usb_ep0in
 2969 000c 00000000 		.word	_usb_ep0out
 2970 0010 4000     		.short	64
 2971 0012 4000     		.short	64
 2972 0014 00000000 		.word	ep0_state
 2973 0018 00000000 		.word	ep0_state
 2974 001c 0100     		.short	1
 2975 001e 0000     		.space	2
 2976 0020 00000000 		.word	ep0setup_buffer
 2977              		.section	.bss.ep0_state,"aw",%nobits
 2978              		.align	2
 2979              		.type	ep0_state, %object
 2980              		.size	ep0_state, 16
 2981              	ep0_state:
 2982 0000 00000000 		.space	16
 2982      00000000 
 2982      00000000 
 2982      00000000 
 2983              		.section	.bss.ep0setup_buffer,"aw",%nobits
 2984              		.align	2
 2985              		.type	ep0setup_buffer, %object
 2986              		.size	ep0setup_buffer, 8
 2987              	ep0setup_buffer:
 2988 0000 00000000 		.space	8
 2988      00000000 
ARM GAS  /tmp/cc3IGbAH.s 			page 54


 2989              		.text
 2990              	.Letext0:
 2991              		.file 3 "/usr/bin/../lib/gcc/arm-none-eabi/4.7.4/include/stddef.h"
 2992              		.file 4 "/usr/bin/../lib/gcc/arm-none-eabi/4.7.4/../../../../arm-none-eabi/include/stdint.h"
 2993              		.file 5 "../../os/ports/GCC/ARMCMx/chtypes.h"
 2994              		.file 6 "../../os/kernel/include/chlists.h"
 2995              		.file 7 "../../os/kernel/include/chthreads.h"
 2996              		.file 8 "../../os/ports/GCC/ARMCMx/chcore_v7m.h"
 2997              		.file 9 "../../os/kernel/include/chschd.h"
 2998              		.file 10 "../../os/kernel/include/chmtx.h"
 2999              		.file 11 "../../os/kernel/include/chqueues.h"
 3000              		.file 12 "../../os/hal/platforms/STM32F4xx/stm32f4xx.h"
 3001              		.file 13 "../../os/hal/platforms/STM32F4xx/hal_lld.h"
 3002              		.file 14 "../../os/hal/include/usb.h"
 3003              		.file 15 "../../os/hal/platforms/STM32/OTGv1/usb_lld.h"
 3004              		.file 16 "../../os/hal/platforms/STM32/OTGv1/stm32_otg.h"
 3005              		.file 17 "../../os/ports/common/ARMCMx/CMSIS/include/core_cm4.h"
 3006              		.file 18 "../../os/hal/include/hal.h"
 3007              		.file 19 "../../os/ports/common/ARMCMx/nvic.h"