ARM GAS  /tmp/cc3IGbAH.s 			page 1


   1              		.syntax unified
   2              		.cpu cortex-m4
   3              		.fpu softvfp
   4              		.eabi_attribute 20, 1
   5              		.eabi_attribute 21, 1
   6              		.eabi_attribute 23, 3
   7              		.eabi_attribute 24, 1
   8              		.eabi_attribute 25, 1
   9              		.eabi_attribute 26, 1
  10              		.eabi_attribute 30, 2
  11              		.eabi_attribute 34, 1
  12              		.eabi_attribute 18, 4
  13              		.thumb
  14              		.file	"usb_lld.c"
  15              		.text
  16              	.Ltext0:
  17              		.cfi_sections	.debug_frame
  18              		.section	.text.otg_disable_ep,"ax",%progbits
  19              		.align	2
  20              		.p2align 4,,15
  21              		.thumb
  22              		.thumb_func
  23              		.type	otg_disable_ep, %function
  24              	otg_disable_ep:
  25              	.LFB120:
  26              		.file 1 "../../os/hal/platforms/STM32/OTGv1/usb_lld.c"
  27              		.loc 1 145 0
  28              		.cfi_startproc
  29              		@ args = 0, pretend = 0, frame = 0
  30              		@ frame_needed = 0, uses_anonymous_args = 0
  31              		@ link register save eliminated.
  32              	.LVL0:
  33 0000 016C     		ldr	r1, [r0, #64]
  34              		.loc 1 146 0
  35 0002 C36B     		ldr	r3, [r0, #60]
  36              	.LVL1:
  37              		.loc 1 149 0
  38 0004 0022     		movs	r2, #0
  39              		.loc 1 145 0
  40 0006 2DE9F001 		push	{r4, r5, r6, r7, r8}
  41              	.LCFI0:
  42              		.cfi_def_cfa_offset 20
  43              		.cfi_offset 4, -20
  44              		.cfi_offset 5, -16
  45              		.cfi_offset 6, -12
  46              		.cfi_offset 7, -8
  47              		.cfi_offset 8, -4
  48              		.loc 1 160 0
  49 000a 1046     		mov	r0, r2
  50              	.LVL2:
  51 000c 8F68     		ldr	r7, [r1, #8]
  52              		.loc 1 154 0
  53 000e 4FF0804C 		mov	ip, #1073741824
  54              		.loc 1 162 0
  55 0012 4FF0FF36 		mov	r6, #-1
  56 0016 17E0     		b	.L8
  57              	.LVL3:
ARM GAS  /tmp/cc3IGbAH.s 			page 2


  58              	.L2:
  59              		.loc 1 160 0
  60 0018 5850     		str	r0, [r3, r1]
  61 001a 5501     		lsls	r5, r2, #5
  62              	.L4:
  63              		.loc 1 161 0
  64 001c 5C19     		adds	r4, r3, r5
  65              		.loc 1 168 0
  66 001e 02F15801 		add	r1, r2, #88
  67 0022 4901     		lsls	r1, r1, #5
  68              		.loc 1 161 0
  69 0024 C4F81009 		str	r0, [r4, #2320]
  70              		.loc 1 162 0
  71 0028 C4F80869 		str	r6, [r4, #2312]
  72              		.loc 1 168 0
  73 002c 53F80180 		ldr	r8, [r3, r1]
  74 0030 B8F1000F 		cmp	r8, #0
  75 0034 17DB     		blt	.L19
  76              		.loc 1 175 0
  77 0036 5850     		str	r0, [r3, r1]
  78              	.L7:
  79              		.loc 1 176 0
  80 0038 5D19     		adds	r5, r3, r5
  81              		.loc 1 149 0
  82 003a 0132     		adds	r2, r2, #1
  83              	.LVL4:
  84 003c BA42     		cmp	r2, r7
  85              		.loc 1 176 0
  86 003e C5F8100B 		str	r0, [r5, #2832]
  87              		.loc 1 177 0
  88 0042 C5F8086B 		str	r6, [r5, #2824]
  89              		.loc 1 149 0
  90 0046 15D8     		bhi	.L20
  91              	.LVL5:
  92              	.L8:
  93              		.loc 1 153 0
  94 0048 02F14804 		add	r4, r2, #72
  95 004c 6101     		lsls	r1, r4, #5
  96 004e 5D58     		ldr	r5, [r3, r1]
  97 0050 002D     		cmp	r5, #0
  98 0052 E1DA     		bge	.L2
  99 0054 5501     		lsls	r5, r2, #5
 100              		.loc 1 154 0
 101 0056 43F801C0 		str	ip, [r3, r1]
 102              		.loc 1 156 0
 103 005a 5C19     		adds	r4, r3, r5
 104              	.L3:
 105              		.loc 1 156 0 is_stmt 0 discriminator 1
 106 005c D4F80819 		ldr	r1, [r4, #2312]
 107 0060 8907     		lsls	r1, r1, #30
 108 0062 FBD5     		bpl	.L3
 109 0064 DAE7     		b	.L4
 110              	.L19:
 111              		.loc 1 169 0 is_stmt 1
 112 0066 43F801C0 		str	ip, [r3, r1]
 113              	.L6:
 114              		.loc 1 171 0 discriminator 1
ARM GAS  /tmp/cc3IGbAH.s 			page 3


 115 006a D4F8081B 		ldr	r1, [r4, #2824]
 116 006e C906     		lsls	r1, r1, #27
 117 0070 FBD5     		bpl	.L6
 118 0072 E1E7     		b	.L7
 119              	.LVL6:
 120              	.L20:
 121              		.loc 1 179 0
 122 0074 4FF00110 		mov	r0, #65537
 123 0078 C3F81C08 		str	r0, [r3, #2076]
 124              		.loc 1 180 0
 125 007c BDE8F001 		pop	{r4, r5, r6, r7, r8}
 126 0080 7047     		bx	lr
 127              		.cfi_endproc
 128              	.LFE120:
 129              		.size	otg_disable_ep, .-otg_disable_ep
 130 0082 00BFAFF3 		.section	.text.otg_epout_handler,"ax",%progbits
 130      0080AFF3 
 130      0080AFF3 
 130      0080
 131              		.align	2
 132              		.p2align 4,,15
 133              		.thumb
 134              		.thumb_func
 135              		.type	otg_epout_handler, %function
 136              	otg_epout_handler:
 137              	.LFB134:
 138              		.loc 1 580 0
 139              		.cfi_startproc
 140              		@ args = 0, pretend = 0, frame = 0
 141              		@ frame_needed = 0, uses_anonymous_args = 0
 142              	.LVL7:
 143 0000 F8B5     		push	{r3, r4, r5, r6, r7, lr}
 144              	.LCFI1:
 145              		.cfi_def_cfa_offset 24
 146              		.cfi_offset 3, -24
 147              		.cfi_offset 4, -20
 148              		.cfi_offset 5, -16
 149              		.cfi_offset 6, -12
 150              		.cfi_offset 7, -8
 151              		.cfi_offset 14, -4
 152              		.loc 1 581 0
 153 0002 C46B     		ldr	r4, [r0, #60]
 154              	.LVL8:
 155              		.loc 1 582 0
 156 0004 04EB4113 		add	r3, r4, r1, lsl #5
 157              		.loc 1 585 0
 158 0008 4FF0FF32 		mov	r2, #-1
 159              		.loc 1 582 0
 160 000c D3F8086B 		ldr	r6, [r3, #2824]
 161              	.LVL9:
 162              		.loc 1 585 0
 163 0010 C3F8082B 		str	r2, [r3, #2824]
 164              		.loc 1 587 0
 165 0014 3307     		lsls	r3, r6, #28
 166              		.loc 1 580 0
 167 0016 0546     		mov	r5, r0
 168 0018 0F46     		mov	r7, r1
ARM GAS  /tmp/cc3IGbAH.s 			page 4


 169              		.loc 1 587 0
 170 001a 03D5     		bpl	.L22
 171              		.loc 1 587 0 is_stmt 0 discriminator 1
 172 001c D4F81438 		ldr	r3, [r4, #2068]
 173 0020 1A07     		lsls	r2, r3, #28
 174 0022 15D4     		bmi	.L36
 175              	.LVL10:
 176              	.L22:
 177              		.loc 1 593 0 is_stmt 1
 178 0024 F307     		lsls	r3, r6, #31
 179 0026 03D5     		bpl	.L21
 180              		.loc 1 593 0 is_stmt 0 discriminator 1
 181 0028 D4F81408 		ldr	r0, [r4, #2068]
 182 002c C007     		lsls	r0, r0, #31
 183 002e 00D4     		bmi	.L37
 184              	.L21:
 185 0030 F8BD     		pop	{r3, r4, r5, r6, r7, pc}
 186              	.L37:
 187              		.loc 1 595 0 is_stmt 1
 188 0032 3B1D     		adds	r3, r7, #4
 189 0034 E989     		ldrh	r1, [r5, #14]
 190 0036 55F82300 		ldr	r0, [r5, r3, lsl #2]
 191 003a 0122     		movs	r2, #1
 192 003c 02FA07F2 		lsl	r2, r2, r7
 193 0040 21EA0203 		bic	r3, r1, r2
 194 0044 EB81     		strh	r3, [r5, #14]	@ movhi
 195 0046 C268     		ldr	r2, [r0, #12]
 196 0048 3946     		mov	r1, r7
 197 004a 2846     		mov	r0, r5
 198 004c 9047     		blx	r2
 199              	.LVL11:
 200 004e F8BD     		pop	{r3, r4, r5, r6, r7, pc}
 201              	.LVL12:
 202              	.L36:
 203              		.loc 1 590 0
 204 0050 0A1D     		adds	r2, r1, #4
 205 0052 50F82230 		ldr	r3, [r0, r2, lsl #2]
 206 0056 5A68     		ldr	r2, [r3, #4]
 207 0058 9047     		blx	r2
 208              	.LVL13:
 209 005a E3E7     		b	.L22
 210              		.cfi_endproc
 211              	.LFE134:
 212              		.size	otg_epout_handler, .-otg_epout_handler
 213 005c AFF30080 		.section	.text.otg_txfifo_flush,"ax",%progbits
 214              		.align	2
 215              		.p2align 4,,15
 216              		.thumb
 217              		.thumb_func
 218              		.type	otg_txfifo_flush, %function
 219              	otg_txfifo_flush:
 220              	.LFB122:
 221              		.loc 1 192 0
 222              		.cfi_startproc
 223              		@ args = 0, pretend = 0, frame = 0
 224              		@ frame_needed = 0, uses_anonymous_args = 0
 225              		@ link register save eliminated.
ARM GAS  /tmp/cc3IGbAH.s 			page 5


 226              	.LVL14:
 227              		.loc 1 193 0
 228 0000 C26B     		ldr	r2, [r0, #60]
 229              	.LVL15:
 230              		.loc 1 195 0
 231 0002 8901     		lsls	r1, r1, #6
 232              	.LVL16:
 233 0004 41F02003 		orr	r3, r1, #32
 234 0008 1361     		str	r3, [r2, #16]
 235              	.LVL17:
 236              	.L39:
 237              		.loc 1 196 0 discriminator 1
 238 000a 1069     		ldr	r0, [r2, #16]
 239 000c 8106     		lsls	r1, r0, #26
 240 000e FCD4     		bmi	.L39
 241              		.loc 1 199 0
 242 0010 0C20     		movs	r0, #12
 243              		.loc 1 200 0
 244              		.loc 1 199 0
 245 0012 FFF7FEBF 		b	halPolledDelay
 246              	.LVL18:
 247              		.cfi_endproc
 248              	.LFE122:
 249              		.size	otg_txfifo_flush, .-otg_txfifo_flush
 250 0016 00BFAFF3 		.section	.text.usb_lld_pump,"ax",%progbits
 250      0080AFF3 
 250      0080
 251              		.align	2
 252              		.p2align 4,,15
 253              		.thumb
 254              		.thumb_func
 255              		.type	usb_lld_pump, %function
 256              	usb_lld_pump:
 257              	.LFB136:
 258              		.loc 1 679 0
 259              		.cfi_startproc
 260              		@ args = 0, pretend = 0, frame = 24
 261              		@ frame_needed = 0, uses_anonymous_args = 0
 262              	.LVL19:
 263 0000 2DE9F04F 		push	{r4, r5, r6, r7, r8, r9, sl, fp, lr}
 264              	.LCFI2:
 265              		.cfi_def_cfa_offset 36
 266              		.cfi_offset 4, -36
 267              		.cfi_offset 5, -32
 268              		.cfi_offset 6, -28
 269              		.cfi_offset 7, -24
 270              		.cfi_offset 8, -20
 271              		.cfi_offset 9, -16
 272              		.cfi_offset 10, -12
 273              		.cfi_offset 11, -8
 274              		.cfi_offset 14, -4
 275              		.loc 1 683 0
 276 0004 40F20001 		movw	r1, #:lower16:rlist
 277 0008 C0F20001 		movt	r1, #:upper16:rlist
 278              		.loc 1 681 0
 279 000c D0F83CA0 		ldr	sl, [r0, #60]
 280              		.loc 1 683 0
ARM GAS  /tmp/cc3IGbAH.s 			page 6


 281 0010 8A69     		ldr	r2, [r1, #24]
 282              		.loc 1 679 0
 283 0012 8346     		mov	fp, r0
 284              	.LVL20:
 285              		.loc 1 683 0
 286 0014 9048     		ldr	r0, .L231
 287              	.LVL21:
 288              		.loc 1 679 0
 289 0016 87B0     		sub	sp, sp, #28
 290              	.LCFI3:
 291              		.cfi_def_cfa_offset 64
 292              	.LBB85:
 293              		.loc 1 684 0
 294 0018 2023     		movs	r3, #32
 295              	.LVL22:
 296              	.LBE85:
 297              		.loc 1 683 0
 298 001a 9061     		str	r0, [r2, #24]
 299              	.LBB86:
 300              		.loc 1 684 0
 301              	@ 684 "../../os/hal/platforms/STM32/OTGv1/usb_lld.c" 1
 302 001c 83F31188 		msr     BASEPRI, r3
 303              	@ 0 "" 2
 304              	.LVL23:
 305              		.thumb
 306              	.LBE86:
 307              	.LBB87:
 308              	.LBB88:
 309              		.loc 1 696 0
 310 0020 4FF00008 		mov	r8, #0
 311              	.LVL24:
 312              	.L102:
 313              	.LBE88:
 314              		.loc 1 690 0
 315 0024 9BF80030 		ldrb	r3, [fp, #0]	@ zero_extendqisi2
 316              	.LVL25:
 317 0028 012B     		cmp	r3, #1
 318 002a 06D0     		beq	.L42
 319              		.loc 1 690 0 is_stmt 0 discriminator 1
 320 002c DBF84840 		ldr	r4, [fp, #72]
 321 0030 9CB9     		cbnz	r4, .L43
 322              		.loc 1 691 0 is_stmt 1
 323 0032 DAF81450 		ldr	r5, [sl, #20]
 324 0036 E806     		lsls	r0, r5, #27
 325 0038 0FD4     		bmi	.L43
 326              	.L42:
 327              		.loc 1 693 0
 328 003a 40F20007 		movw	r7, #:lower16:rlist
 329 003e C0F20007 		movt	r7, #:upper16:rlist
 330              		.loc 1 692 0
 331 0042 DAF81860 		ldr	r6, [sl, #24]
 332              		.loc 1 693 0
 333 0046 B969     		ldr	r1, [r7, #24]
 334              		.loc 1 692 0
 335 0048 46F01002 		orr	r2, r6, #16
 336 004c CAF81820 		str	r2, [sl, #24]
 337              		.loc 1 694 0
ARM GAS  /tmp/cc3IGbAH.s 			page 7


 338 0050 0220     		movs	r0, #2
 339              		.loc 1 693 0
 340 0052 CBF85010 		str	r1, [fp, #80]
 341              		.loc 1 694 0
 342 0056 FFF7FEFF 		bl	chSchGoSleepS
 343              	.LVL26:
 344              	.L43:
 345              	.LBB89:
 346              		.loc 1 696 0
 347 005a 0023     		movs	r3, #0
 348              	.LVL27:
 349              	@ 696 "../../os/hal/platforms/STM32/OTGv1/usb_lld.c" 1
 350 005c 83F31188 		msr     BASEPRI, r3
 351              	@ 0 "" 2
 352              	.LVL28:
 353              		.loc 1 699 0
 354              		.thumb
 355 0060 1C46     		mov	r4, r3
 356              	.LVL29:
 357              	.L201:
 358              	.LBE89:
 359              		.loc 1 702 0 discriminator 1
 360 0062 DAF81400 		ldr	r0, [sl, #20]
 361 0066 10F01007 		ands	r7, r0, #16
 362 006a 3AD0     		beq	.L227
 363              	.L68:
 364              	.LVL30:
 365              	.LBB90:
 366              	.LBB91:
 367              		.loc 1 452 0
 368 006c DBF83C00 		ldr	r0, [fp, #60]
 369 0070 056A     		ldr	r5, [r0, #32]
 370              	.LVL31:
 371              		.loc 1 453 0
 372 0072 05F4F017 		and	r7, r5, #1966080
 373 0076 B7F5802F 		cmp	r7, #262144
 374 007a 47D0     		beq	.L46
 375 007c B7F5402F 		cmp	r7, #786432
 376 0080 EFD1     		bne	.L201
 377              	.LVL32:
 378              		.loc 1 458 0
 379 0082 05F00F06 		and	r6, r5, #15
 380              	.LVL33:
 381              		.loc 1 459 0
 382 0086 311D     		adds	r1, r6, #4
 383              		.loc 1 457 0
 384 0088 C5F30A12 		ubfx	r2, r5, #4, #11
 385              		.loc 1 459 0
 386 008c 5BF82130 		ldr	r3, [fp, r1, lsl #2]
 387              	.LVL34:
 388              	.LBB92:
 389              	.LBB93:
 390              		.loc 1 370 0
 391 0090 D51C     		adds	r5, r2, #3
 392              	.LVL35:
 393              		.loc 1 372 0
 394 0092 AE08     		lsrs	r6, r5, #2
ARM GAS  /tmp/cc3IGbAH.s 			page 8


 395              	.LVL36:
 396              	.LBE93:
 397              	.LBE92:
 398              		.loc 1 459 0
 399 0094 1F6A     		ldr	r7, [r3, #32]
 400              	.LVL37:
 401              	.LBB100:
 402              	.LBB99:
 403              		.loc 1 372 0
 404 0096 E4D0     		beq	.L201
 405 0098 00F58050 		add	r0, r0, #4096
 406              	.LVL38:
 407 009c 721E     		subs	r2, r6, #1
 408              	.LBB94:
 409              		.loc 1 373 0
 410 009e 0368     		ldr	r3, [r0, #0]
 411              	.LVL39:
 412              	.LBE94:
 413              		.loc 1 372 0
 414 00a0 1146     		mov	r1, r2
 415              	.LVL40:
 416              	.LBB95:
 417              		.loc 1 377 0
 418 00a2 47F8043B 		str	r3, [r7], #4
 419              	.LVL41:
 420 00a6 02F00105 		and	r5, r2, #1
 421              		.loc 1 379 0
 422 00aa 0123     		movs	r3, #1
 423              	.LVL42:
 424              	.LBE95:
 425              		.loc 1 372 0
 426 00ac 002A     		cmp	r2, #0
 427 00ae D8D0     		beq	.L201
 428 00b0 2DB1     		cbz	r5, .L48
 429              	.LBB96:
 430              		.loc 1 373 0
 431 00b2 0668     		ldr	r6, [r0, #0]
 432              	.LVL43:
 433              		.loc 1 379 0
 434 00b4 0023     		movs	r3, #0
 435              	.LVL44:
 436              	.LBE96:
 437              		.loc 1 372 0
 438 00b6 511E     		subs	r1, r2, #1
 439              	.LVL45:
 440              	.LBB97:
 441              		.loc 1 377 0
 442 00b8 47F8046B 		str	r6, [r7], #4
 443              	.LVL46:
 444              	.LBE97:
 445              		.loc 1 372 0
 446 00bc D1D0     		beq	.L201
 447              	.L48:
 448              	.LBB98:
 449              		.loc 1 373 0
 450 00be 0268     		ldr	r2, [r0, #0]
 451              		.loc 1 374 0
ARM GAS  /tmp/cc3IGbAH.s 			page 9


 452 00c0 13B1     		cbz	r3, .L50
 453              		.loc 1 377 0
 454 00c2 47F8042B 		str	r2, [r7], #4
 455              	.LVL47:
 456              		.loc 1 379 0
 457 00c6 013B     		subs	r3, r3, #1
 458              	.LVL48:
 459              	.L50:
 460              		.loc 1 381 0
 461 00c8 0139     		subs	r1, r1, #1
 462              		.loc 1 373 0
 463 00ca 0568     		ldr	r5, [r0, #0]
 464              		.loc 1 374 0
 465 00cc 13B1     		cbz	r3, .L160
 466              		.loc 1 377 0
 467 00ce 47F8045B 		str	r5, [r7], #4
 468              	.LVL49:
 469              		.loc 1 379 0
 470 00d2 013B     		subs	r3, r3, #1
 471              	.LVL50:
 472              	.L160:
 473              	.LBE98:
 474              		.loc 1 372 0
 475 00d4 0139     		subs	r1, r1, #1
 476 00d6 F2D1     		bne	.L48
 477              	.LBE99:
 478              	.LBE100:
 479              	.LBE91:
 480              	.LBE90:
 481              		.loc 1 702 0
 482 00d8 DAF81400 		ldr	r0, [sl, #20]
 483              	.LVL51:
 484 00dc 10F01007 		ands	r7, r0, #16
 485              	.LVL52:
 486 00e0 C4D1     		bne	.L68
 487              	.LVL53:
 488              	.L227:
 489              		.loc 1 706 0
 490 00e2 0125     		movs	r5, #1
 491              		.loc 1 707 0
 492 00e4 DBF84830 		ldr	r3, [fp, #72]
 493              	.LVL54:
 494              		.loc 1 706 0
 495 00e8 A540     		lsls	r5, r5, r4
 496              		.loc 1 707 0
 497 00ea 1D42     		tst	r5, r3
 498              		.loc 1 706 0
 499 00ec 0495     		str	r5, [sp, #16]
 500              	.LVL55:
 501              		.loc 1 707 0
 502 00ee 40F0B580 		bne	.L206
 503 00f2 0134     		adds	r4, r4, #1
 504 00f4 0594     		str	r4, [sp, #20]
 505              	.LVL56:
 506              	.L69:
 507              		.loc 1 699 0
 508 00f6 DBF84010 		ldr	r1, [fp, #64]
ARM GAS  /tmp/cc3IGbAH.s 			page 10


 509 00fa 059A     		ldr	r2, [sp, #20]
 510 00fc 8B68     		ldr	r3, [r1, #8]
 511              	.LVL57:
 512 00fe D4B2     		uxtb	r4, r2
 513              	.LVL58:
 514 0100 9C42     		cmp	r4, r3
 515 0102 AED9     		bls	.L201
 516              	.LBB119:
 517              		.loc 1 731 0
 518 0104 2023     		movs	r3, #32
 519              	@ 731 "../../os/hal/platforms/STM32/OTGv1/usb_lld.c" 1
 520 0106 83F31188 		msr     BASEPRI, r3
 521              	@ 0 "" 2
 522              	.LVL59:
 523              		.thumb
 524              	.LBE119:
 525              	.LBE87:
 526              		.loc 1 732 0
 527 010a 8BE7     		b	.L102
 528              	.LVL60:
 529              	.L46:
 530              	.LBB154:
 531              	.LBB120:
 532              	.LBB118:
 533              		.loc 1 464 0
 534 010c 05F00F07 		and	r7, r5, #15
 535              		.loc 1 465 0
 536 0110 0437     		adds	r7, r7, #4
 537              		.loc 1 463 0
 538 0112 C5F30A16 		ubfx	r6, r5, #4, #11
 539              	.LVL61:
 540              		.loc 1 465 0
 541 0116 5BF82720 		ldr	r2, [fp, r7, lsl #2]
 542 011a 9569     		ldr	r5, [r2, #24]
 543              	.LVL62:
 544 011c 2B68     		ldr	r3, [r5, #0]
 545              	.LVL63:
 546 011e 002B     		cmp	r3, #0
 547 0120 3AD1     		bne	.L228
 548              		.loc 1 472 0
 549 0122 6968     		ldr	r1, [r5, #4]
 550              	.LBB101:
 551              	.LBB102:
 552              		.loc 1 371 0
 553 0124 AB68     		ldr	r3, [r5, #8]
 554              	.LBE102:
 555              	.LBE101:
 556              		.loc 1 472 0
 557 0126 EA68     		ldr	r2, [r5, #12]
 558              	.LVL64:
 559 0128 0331     		adds	r1, r1, #3
 560              	.LVL65:
 561              	.LBB107:
 562              	.LBB106:
 563              		.loc 1 371 0
 564 012a CB1A     		subs	r3, r1, r3
 565              	.LVL66:
ARM GAS  /tmp/cc3IGbAH.s 			page 11


 566              		.loc 1 370 0
 567 012c F11C     		adds	r1, r6, #3
 568              	.LVL67:
 569              		.loc 1 371 0
 570 012e 9B08     		lsrs	r3, r3, #2
 571              	.LVL68:
 572              		.loc 1 372 0
 573 0130 8908     		lsrs	r1, r1, #2
 574              	.LVL69:
 575 0132 28D0     		beq	.L65
 576 0134 00F58050 		add	r0, r0, #4096
 577              	.LVL70:
 578 0138 01F1FF39 		add	r9, r1, #-1
 579 013c 09F0010E 		and	lr, r9, #1
 580              	.LBB103:
 581              		.loc 1 373 0
 582 0140 D0F800C0 		ldr	ip, [r0, #0]
 583              	.LVL71:
 584              		.loc 1 374 0
 585 0144 13B1     		cbz	r3, .L148
 586              		.loc 1 377 0
 587 0146 42F804CB 		str	ip, [r2], #4
 588              	.LVL72:
 589              		.loc 1 379 0
 590 014a 013B     		subs	r3, r3, #1
 591              	.LVL73:
 592              	.L148:
 593              	.LBE103:
 594              		.loc 1 372 0
 595 014c 0139     		subs	r1, r1, #1
 596              	.LVL74:
 597 014e 19D0     		beq	.L211
 598 0150 BEF1000F 		cmp	lr, #0
 599 0154 07D0     		beq	.L220
 600              	.LBB104:
 601              		.loc 1 373 0
 602 0156 D0F80090 		ldr	r9, [r0, #0]
 603              	.LVL75:
 604              		.loc 1 374 0
 605 015a 13B1     		cbz	r3, .L150
 606              		.loc 1 377 0
 607 015c 42F8049B 		str	r9, [r2], #4
 608              	.LVL76:
 609              		.loc 1 379 0
 610 0160 013B     		subs	r3, r3, #1
 611              	.LVL77:
 612              	.L150:
 613              	.LBE104:
 614              		.loc 1 372 0
 615 0162 0139     		subs	r1, r1, #1
 616 0164 0ED0     		beq	.L211
 617              	.L220:
 618 0166 A646     		mov	lr, r4
 619              	.L67:
 620              	.LBB105:
 621              		.loc 1 373 0
 622 0168 0468     		ldr	r4, [r0, #0]
ARM GAS  /tmp/cc3IGbAH.s 			page 12


 623              		.loc 1 374 0
 624 016a 13B1     		cbz	r3, .L66
 625              		.loc 1 377 0
 626 016c 42F8044B 		str	r4, [r2], #4
 627              	.LVL78:
 628              		.loc 1 379 0
 629 0170 013B     		subs	r3, r3, #1
 630              	.LVL79:
 631              	.L66:
 632              		.loc 1 381 0
 633 0172 0139     		subs	r1, r1, #1
 634              		.loc 1 373 0
 635 0174 0468     		ldr	r4, [r0, #0]
 636              		.loc 1 374 0
 637 0176 13B1     		cbz	r3, .L153
 638              		.loc 1 377 0
 639 0178 42F8044B 		str	r4, [r2], #4
 640              	.LVL80:
 641              		.loc 1 379 0
 642 017c 013B     		subs	r3, r3, #1
 643              	.LVL81:
 644              	.L153:
 645              	.LBE105:
 646              		.loc 1 372 0
 647 017e 0139     		subs	r1, r1, #1
 648 0180 F2D1     		bne	.L67
 649 0182 7446     		mov	r4, lr
 650              	.L211:
 651 0184 EA68     		ldr	r2, [r5, #12]
 652              	.LVL82:
 653              	.L65:
 654              	.LBE106:
 655              	.LBE107:
 656              		.loc 1 477 0
 657 0186 9019     		adds	r0, r2, r6
 658 0188 E860     		str	r0, [r5, #12]
 659              	.LVL83:
 660              	.L62:
 661              		.loc 1 479 0
 662 018a 5BF82770 		ldr	r7, [fp, r7, lsl #2]
 663              	.LVL84:
 664 018e B869     		ldr	r0, [r7, #24]
 665 0190 8568     		ldr	r5, [r0, #8]
 666 0192 AE19     		adds	r6, r5, r6
 667              	.LVL85:
 668 0194 8660     		str	r6, [r0, #8]
 669 0196 64E7     		b	.L201
 670              	.LVL86:
 671              	.L228:
 672              		.loc 1 467 0
 673 0198 00F58050 		add	r0, r0, #4096
 674 019c ED68     		ldr	r5, [r5, #12]
 675              	.LVL87:
 676              	.LBB108:
 677              	.LBB109:
 678              		.loc 1 400 0
 679 019e 002E     		cmp	r6, #0
ARM GAS  /tmp/cc3IGbAH.s 			page 13


 680 01a0 40D0     		beq	.L53
 681 01a2 3346     		mov	r3, r6
 682 01a4 A446     		mov	ip, r4
 683              	.LVL88:
 684              	.L200:
 685              	.LBB110:
 686              		.loc 1 404 0
 687 01a6 032B     		cmp	r3, #3
 688              	.LBB111:
 689              		.loc 1 410 0
 690 01a8 6969     		ldr	r1, [r5, #20]
 691              	.LBE111:
 692              		.loc 1 404 0
 693 01aa 07D9     		bls	.L55
 694              	.LVL89:
 695              	.L203:
 696              	.LBB112:
 697              		.loc 1 410 0
 698 01ac 2C69     		ldr	r4, [r5, #16]
 699 01ae A142     		cmp	r1, r4
 700 01b0 04D3     		bcc	.L55
 701              		.loc 1 411 0
 702 01b2 EC68     		ldr	r4, [r5, #12]
 703              	.LBE112:
 704              		.loc 1 404 0
 705 01b4 032B     		cmp	r3, #3
 706              	.LBB113:
 707              		.loc 1 411 0
 708 01b6 6C61     		str	r4, [r5, #20]
 709              	.LVL90:
 710              		.loc 1 410 0
 711 01b8 6969     		ldr	r1, [r5, #20]
 712              	.LBE113:
 713              		.loc 1 404 0
 714 01ba F7D8     		bhi	.L203
 715              	.LVL91:
 716              	.L55:
 717              		.loc 1 422 0
 718 01bc 0268     		ldr	r2, [r0, #0]
 719              	.LVL92:
 720              		.loc 1 425 0
 721 01be 01F8012B 		strb	r2, [r1], #1
 722              		.loc 1 426 0
 723 01c2 2C69     		ldr	r4, [r5, #16]
 724              		.loc 1 425 0
 725 01c4 6961     		str	r1, [r5, #20]
 726              		.loc 1 426 0
 727 01c6 A142     		cmp	r1, r4
 728              		.loc 1 427 0
 729 01c8 24BF     		itt	cs
 730 01ca E968     		ldrcs	r1, [r5, #12]
 731 01cc 6961     		strcs	r1, [r5, #20]
 732              		.loc 1 424 0
 733 01ce 012B     		cmp	r3, #1
 734 01d0 27D0     		beq	.L214
 735              	.LVL93:
 736              		.loc 1 425 0
ARM GAS  /tmp/cc3IGbAH.s 			page 14


 737 01d2 D5F81490 		ldr	r9, [r5, #20]
 738 01d6 110A     		lsrs	r1, r2, #8
 739 01d8 09F8011B 		strb	r1, [r9], #1
 740              		.loc 1 426 0
 741 01dc 2C69     		ldr	r4, [r5, #16]
 742              		.loc 1 425 0
 743 01de C5F81490 		str	r9, [r5, #20]
 744              		.loc 1 426 0
 745 01e2 A145     		cmp	r9, r4
 746              		.loc 1 427 0
 747 01e4 24BF     		itt	cs
 748 01e6 EC68     		ldrcs	r4, [r5, #12]
 749 01e8 6C61     		strcs	r4, [r5, #20]
 750              		.loc 1 424 0
 751 01ea 022B     		cmp	r3, #2
 752 01ec 19D0     		beq	.L214
 753              	.LVL94:
 754              		.loc 1 425 0
 755 01ee D5F814E0 		ldr	lr, [r5, #20]
 756 01f2 110C     		lsrs	r1, r2, #16
 757 01f4 0EF8011B 		strb	r1, [lr], #1
 758              		.loc 1 426 0
 759 01f8 2C69     		ldr	r4, [r5, #16]
 760              		.loc 1 425 0
 761 01fa C5F814E0 		str	lr, [r5, #20]
 762              		.loc 1 426 0
 763 01fe A645     		cmp	lr, r4
 764              		.loc 1 427 0
 765 0200 24BF     		itt	cs
 766 0202 EC68     		ldrcs	r4, [r5, #12]
 767 0204 6C61     		strcs	r4, [r5, #20]
 768              		.loc 1 424 0
 769 0206 032B     		cmp	r3, #3
 770 0208 0BD0     		beq	.L214
 771              	.LVL95:
 772              		.loc 1 425 0
 773 020a 6969     		ldr	r1, [r5, #20]
 774 020c 120E     		lsrs	r2, r2, #24
 775              	.LVL96:
 776 020e 01F8012B 		strb	r2, [r1], #1
 777              		.loc 1 426 0
 778 0212 2C69     		ldr	r4, [r5, #16]
 779              		.loc 1 425 0
 780 0214 6961     		str	r1, [r5, #20]
 781              		.loc 1 426 0
 782 0216 A142     		cmp	r1, r4
 783              		.loc 1 427 0
 784 0218 24BF     		itt	cs
 785 021a EC68     		ldrcs	r4, [r5, #12]
 786 021c 6C61     		strcs	r4, [r5, #20]
 787              		.loc 1 424 0
 788 021e 043B     		subs	r3, r3, #4
 789              	.LVL97:
 790 0220 C1D1     		bne	.L200
 791              	.LVL98:
 792              	.L214:
 793 0222 6446     		mov	r4, ip
ARM GAS  /tmp/cc3IGbAH.s 			page 15


 794              	.L53:
 795              	.LBE110:
 796              	.LBB114:
 797              		.loc 1 434 0
 798 0224 2023     		movs	r3, #32
 799              	.LVL99:
 800              	@ 434 "../../os/hal/platforms/STM32/OTGv1/usb_lld.c" 1
 801 0226 83F31188 		msr     BASEPRI, r3
 802              	@ 0 "" 2
 803              	.LVL100:
 804              		.thumb
 805              	.LBE114:
 806              		.loc 1 435 0
 807 022a A968     		ldr	r1, [r5, #8]
 808              		.loc 1 436 0
 809 022c 2868     		ldr	r0, [r5, #0]
 810              	.LVL101:
 811              		.loc 1 435 0
 812 022e 8A19     		adds	r2, r1, r6
 813              		.loc 1 436 0
 814 0230 A842     		cmp	r0, r5
 815              		.loc 1 435 0
 816 0232 AA60     		str	r2, [r5, #8]
 817              		.loc 1 436 0
 818 0234 09D0     		beq	.L64
 819              	.LVL102:
 820              	.L139:
 821              	.LBB115:
 822              	.LBB116:
 823              		.file 2 "../../os/kernel/include/chinline.h"
 824              		.loc 2 55 0
 825 0236 0368     		ldr	r3, [r0, #0]
 826              	.LVL103:
 827 0238 2B60     		str	r3, [r5, #0]
 828 023a 5D60     		str	r5, [r3, #4]
 829              	.LBE116:
 830              	.LBE115:
 831              		.loc 1 437 0
 832 023c FFF7FEFF 		bl	chSchReadyI
 833              	.LVL104:
 834 0240 C0F82480 		str	r8, [r0, #36]
 835              		.loc 1 436 0
 836 0244 2868     		ldr	r0, [r5, #0]
 837 0246 A842     		cmp	r0, r5
 838 0248 F5D1     		bne	.L139
 839              	.LVL105:
 840              	.L64:
 841              		.loc 1 438 0
 842 024a FFF7FEFF 		bl	chSchRescheduleS
 843              	.LVL106:
 844              	.LBB117:
 845              		.loc 1 439 0
 846 024e 0023     		movs	r3, #0
 847              	@ 439 "../../os/hal/platforms/STM32/OTGv1/usb_lld.c" 1
 848 0250 83F31188 		msr     BASEPRI, r3
 849              	@ 0 "" 2
 850              	.LVL107:
ARM GAS  /tmp/cc3IGbAH.s 			page 16


 851              		.thumb
 852 0254 99E7     		b	.L62
 853              	.L232:
 854 0256 00BF     		.align	2
 855              	.L231:
 856 0258 00000000 		.word	.LC0
 857              	.LVL108:
 858              	.L206:
 859              	.LBE117:
 860              	.LBE109:
 861              	.LBE108:
 862              	.LBE118:
 863              	.LBE120:
 864              	.LBB121:
 865              	.LBB122:
 866              		.loc 1 710 0
 867 025c 2023     		movs	r3, #32
 868              	.LVL109:
 869              	@ 710 "../../os/hal/platforms/STM32/OTGv1/usb_lld.c" 1
 870 025e 83F31188 		msr     BASEPRI, r3
 871              	@ 0 "" 2
 872              	.LVL110:
 873              		.thumb
 874              	.LBE122:
 875              		.loc 1 718 0
 876 0262 DAF80860 		ldr	r6, [sl, #8]
 877              		.loc 1 719 0
 878 0266 DBF84810 		ldr	r1, [fp, #72]
 879 026a 0498     		ldr	r0, [sp, #16]
 880              		.loc 1 718 0
 881 026c 26F00102 		bic	r2, r6, #1
 882              		.loc 1 719 0
 883 0270 21EA0005 		bic	r5, r1, r0
 884              	.LVL111:
 885              		.loc 1 718 0
 886 0274 CAF80820 		str	r2, [sl, #8]
 887              	.LBB123:
 888              		.loc 1 720 0
 889 0278 3B46     		mov	r3, r7
 890              	.LVL112:
 891              	.LBE123:
 892              		.loc 1 719 0
 893 027a CBF84850 		str	r5, [fp, #72]
 894              	.LBB124:
 895              		.loc 1 720 0
 896              	@ 720 "../../os/hal/platforms/STM32/OTGv1/usb_lld.c" 1
 897 027e 83F31188 		msr     BASEPRI, r3
 898              	@ 0 "" 2
 899              	.LVL113:
 900              		.thumb
 901              	.LBE124:
 902              	.LBB125:
 903              	.LBB126:
 904              		.loc 1 503 0
 905 0282 271D     		adds	r7, r4, #4
 906 0284 0297     		str	r7, [sp, #8]
 907 0286 5BF82760 		ldr	r6, [fp, r7, lsl #2]
ARM GAS  /tmp/cc3IGbAH.s 			page 17


 908 028a 7269     		ldr	r2, [r6, #20]
 909 028c 9368     		ldr	r3, [r2, #8]
 910              	.LVL114:
 911 028e 5068     		ldr	r0, [r2, #4]
 912 0290 9842     		cmp	r0, r3
 913 0292 40F2F680 		bls	.L229
 914              		.loc 1 513 0
 915 0296 DBF83C10 		ldr	r1, [fp, #60]
 916              		.loc 1 508 0
 917 029a 358A     		ldrh	r5, [r6, #16]
 918              		.loc 1 513 0
 919 029c 6701     		lsls	r7, r4, #5
 920 029e CE19     		adds	r6, r1, r7
 921              		.loc 1 507 0
 922 02a0 C01A     		subs	r0, r0, r3
 923              	.LVL115:
 924              		.loc 1 513 0
 925 02a2 D6F81839 		ldr	r3, [r6, #2328]
 926 02a6 0397     		str	r7, [sp, #12]
 927 02a8 8542     		cmp	r5, r0
 928 02aa 28BF     		it	cs
 929 02ac 0546     		movcs	r5, r0
 930              	.LVL116:
 931 02ae 9FB2     		uxth	r7, r3
 932 02b0 0134     		adds	r4, r4, #1
 933              	.LVL117:
 934 02b2 B5EB870F 		cmp	r5, r7, lsl #2
 935 02b6 0594     		str	r4, [sp, #20]
 936 02b8 43D8     		bhi	.L73
 937              		.loc 1 528 0
 938 02ba 2603     		lsls	r6, r4, #12
 939 02bc 0196     		str	r6, [sp, #4]
 940 02be 0C46     		mov	r4, r1
 941              	.LVL118:
 942              	.L74:
 943              		.loc 1 520 0
 944 02c0 1168     		ldr	r1, [r2, #0]
 945 02c2 0029     		cmp	r1, #0
 946 02c4 53D1     		bne	.L230
 947              	.LBB127:
 948              	.LBB128:
 949              		.loc 1 269 0
 950 02c6 EB1C     		adds	r3, r5, #3
 951              	.LBE128:
 952              	.LBE127:
 953              		.loc 1 528 0
 954 02c8 0198     		ldr	r0, [sp, #4]
 955 02ca D168     		ldr	r1, [r2, #12]
 956              	.LBB135:
 957              	.LBB133:
 958              	.LBB129:
 959              	.LBB130:
 960              		.loc 1 246 0
 961 02cc 9F08     		lsrs	r7, r3, #2
 962              	.LBE130:
 963              	.LBE129:
 964              	.LBE133:
ARM GAS  /tmp/cc3IGbAH.s 			page 18


 965              	.LBE135:
 966              		.loc 1 528 0
 967 02ce 2044     		add	r0, r4, r0
 968              	.LVL119:
 969              	.LBB136:
 970              	.LBB134:
 971              	.LBB132:
 972              	.LBB131:
 973              		.loc 1 246 0
 974 02d0 1BD0     		beq	.L95
 975 02d2 7E1E     		subs	r6, r7, #1
 976              		.loc 1 249 0
 977 02d4 51F804EB 		ldr	lr, [r1], #4
 978              	.LVL120:
 979              		.loc 1 246 0
 980 02d8 3346     		mov	r3, r6
 981 02da 06F00107 		and	r7, r6, #1
 982              	.LVL121:
 983              		.loc 1 249 0
 984 02de 019E     		ldr	r6, [sp, #4]
 985 02e0 0431     		adds	r1, r1, #4
 986 02e2 44F806E0 		str	lr, [r4, r6]
 987              	.LVL122:
 988              		.loc 1 246 0
 989 02e6 7BB1     		cbz	r3, .L209
 990 02e8 2FB1     		cbz	r7, .L96
 991              		.loc 1 249 0
 992 02ea 51F8044C 		ldr	r4, [r1, #-4]
 993 02ee 0431     		adds	r1, r1, #4
 994              		.loc 1 246 0
 995 02f0 013B     		subs	r3, r3, #1
 996              	.LVL123:
 997              		.loc 1 249 0
 998 02f2 0460     		str	r4, [r0, #0]
 999              	.LVL124:
 1000              		.loc 1 246 0
 1001 02f4 08D0     		beq	.L209
 1002              	.L96:
 1003              		.loc 1 249 0
 1004 02f6 51F8047C 		ldr	r7, [r1, #-4]
 1005 02fa 0760     		str	r7, [r0, #0]
 1006 02fc 51F8046B 		ldr	r6, [r1], #4
 1007 0300 0431     		adds	r1, r1, #4
 1008              		.loc 1 246 0
 1009 0302 023B     		subs	r3, r3, #2
 1010              		.loc 1 249 0
 1011 0304 0660     		str	r6, [r0, #0]
 1012              		.loc 1 246 0
 1013 0306 F6D1     		bne	.L96
 1014              	.L209:
 1015 0308 D168     		ldr	r1, [r2, #12]
 1016              	.L95:
 1017              	.LBE131:
 1018              	.LBE132:
 1019              	.LBE134:
 1020              	.LBE136:
 1021              		.loc 1 531 0
ARM GAS  /tmp/cc3IGbAH.s 			page 19


 1022 030a 4819     		adds	r0, r1, r5
 1023              	.LVL125:
 1024 030c D060     		str	r0, [r2, #12]
 1025              	.LVL126:
 1026              	.L93:
 1027              		.loc 1 533 0
 1028 030e 0298     		ldr	r0, [sp, #8]
 1029 0310 5BF82060 		ldr	r6, [fp, r0, lsl #2]
 1030 0314 7269     		ldr	r2, [r6, #20]
 1031 0316 9468     		ldr	r4, [r2, #8]
 1032              		.loc 1 503 0
 1033 0318 5168     		ldr	r1, [r2, #4]
 1034              		.loc 1 533 0
 1035 031a 2B19     		adds	r3, r5, r4
 1036              	.LVL127:
 1037              		.loc 1 503 0
 1038 031c 9942     		cmp	r1, r3
 1039              		.loc 1 533 0
 1040 031e 9360     		str	r3, [r2, #8]
 1041              		.loc 1 503 0
 1042 0320 40F2B180 		bls	.L97
 1043              		.loc 1 513 0
 1044 0324 039D     		ldr	r5, [sp, #12]
 1045              	.LVL128:
 1046 0326 DBF83C40 		ldr	r4, [fp, #60]
 1047              		.loc 1 508 0
 1048 032a 308A     		ldrh	r0, [r6, #16]
 1049              		.loc 1 513 0
 1050 032c 6719     		adds	r7, r4, r5
 1051              		.loc 1 507 0
 1052 032e CD1A     		subs	r5, r1, r3
 1053              	.LVL129:
 1054              		.loc 1 513 0
 1055 0330 D7F81869 		ldr	r6, [r7, #2328]
 1056 0334 8542     		cmp	r5, r0
 1057 0336 28BF     		it	cs
 1058 0338 0546     		movcs	r5, r0
 1059              	.LVL130:
 1060 033a B1B2     		uxth	r1, r6
 1061 033c B5EB810F 		cmp	r5, r1, lsl #2
 1062 0340 BED9     		bls	.L74
 1063              	.L73:
 1064              	.LBB137:
 1065              	.LBB138:
 1066              		.loc 1 514 0
 1067 0342 0022     		movs	r2, #0
 1068              	.LVL131:
 1069              	.L71:
 1070              	.LBE138:
 1071              	.LBE137:
 1072              	.LBE126:
 1073              	.LBE125:
 1074              	.LBB151:
 1075              		.loc 1 724 0
 1076 0344 2023     		movs	r3, #32
 1077              	.LVL132:
 1078              	@ 724 "../../os/hal/platforms/STM32/OTGv1/usb_lld.c" 1
ARM GAS  /tmp/cc3IGbAH.s 			page 20


 1079 0346 83F31188 		msr     BASEPRI, r3
 1080              	@ 0 "" 2
 1081              	.LVL133:
 1082              		.thumb
 1083              	.LBE151:
 1084              		.loc 1 725 0
 1085 034a DAF80840 		ldr	r4, [sl, #8]
 1086 034e 44F00100 		orr	r0, r4, #1
 1087 0352 CAF80800 		str	r0, [sl, #8]
 1088              		.loc 1 726 0
 1089 0356 32B9     		cbnz	r2, .L99
 1090              		.loc 1 727 0
 1091 0358 DAF83458 		ldr	r5, [sl, #2100]
 1092 035c 049F     		ldr	r7, [sp, #16]
 1093 035e 47EA0506 		orr	r6, r7, r5
 1094 0362 CAF83468 		str	r6, [sl, #2100]
 1095              	.L99:
 1096              	.LBB152:
 1097              		.loc 1 728 0
 1098 0366 0023     		movs	r3, #0
 1099              	.LVL134:
 1100              	@ 728 "../../os/hal/platforms/STM32/OTGv1/usb_lld.c" 1
 1101 0368 83F31188 		msr     BASEPRI, r3
 1102              	@ 0 "" 2
 1103              	.LVL135:
 1104              		.thumb
 1105 036c C3E6     		b	.L69
 1106              	.LVL136:
 1107              	.L230:
 1108              	.LBE152:
 1109              	.LBB153:
 1110              	.LBB150:
 1111              		.loc 1 522 0
 1112 036e 019B     		ldr	r3, [sp, #4]
 1113 0370 E118     		adds	r1, r4, r3
 1114 0372 D468     		ldr	r4, [r2, #12]
 1115              	.LVL137:
 1116              	.LBB149:
 1117              	.LBB148:
 1118              		.loc 1 287 0
 1119 0374 002D     		cmp	r5, #0
 1120 0376 35D0     		beq	.L85
 1121 0378 2069     		ldr	r0, [r4, #16]
 1122 037a 2A46     		mov	r2, r5
 1123 037c AE46     		mov	lr, r5
 1124              	.LVL138:
 1125              	.L92:
 1126              	.LBB139:
 1127              		.loc 1 291 0
 1128 037e 9708     		lsrs	r7, r2, #2
 1129              	.LVL139:
 1130 0380 4BD0     		beq	.L79
 1131              	.LBB140:
 1132              		.loc 1 293 0
 1133 0382 A569     		ldr	r5, [r4, #24]
 1134              	.LVL140:
 1135 0384 461B     		subs	r6, r0, r5
ARM GAS  /tmp/cc3IGbAH.s 			page 21


 1136 0386 48BF     		it	mi
 1137 0388 0336     		addmi	r6, r6, #3
 1138 038a B310     		asrs	r3, r6, #2
 1139              		.loc 1 295 0
 1140 038c 9F42     		cmp	r7, r3
 1141 038e 38BF     		it	cc
 1142 0390 3B46     		movcc	r3, r7
 1143              	.LVL141:
 1144 0392 4FEA830C 		lsl	ip, r3, #2
 1145 0396 CCEB0202 		rsb	r2, ip, r2
 1146              	.LVL142:
 1147              	.LBB141:
 1148              	.LBB142:
 1149              		.loc 1 246 0
 1150 039a DBB1     		cbz	r3, .L81
 1151              		.loc 1 679 0
 1152 039c 2E46     		mov	r6, r5
 1153 039e 5F1E     		subs	r7, r3, #1
 1154              	.LVL143:
 1155              		.loc 1 249 0
 1156 03a0 56F8049B 		ldr	r9, [r6], #4
 1157              		.loc 1 246 0
 1158 03a4 3B46     		mov	r3, r7
 1159              	.LVL144:
 1160              		.loc 1 249 0
 1161 03a6 C1F80090 		str	r9, [r1, #0]
 1162              	.LVL145:
 1163 03aa 07F00107 		and	r7, r7, #1
 1164 03ae 0436     		adds	r6, r6, #4
 1165              		.loc 1 246 0
 1166 03b0 7BB1     		cbz	r3, .L208
 1167 03b2 2FB1     		cbz	r7, .L82
 1168              		.loc 1 249 0
 1169 03b4 56F8047C 		ldr	r7, [r6, #-4]
 1170 03b8 0436     		adds	r6, r6, #4
 1171              		.loc 1 246 0
 1172 03ba 013B     		subs	r3, r3, #1
 1173              	.LVL146:
 1174              		.loc 1 249 0
 1175 03bc 0F60     		str	r7, [r1, #0]
 1176              	.LVL147:
 1177              		.loc 1 246 0
 1178 03be 08D0     		beq	.L208
 1179              	.LVL148:
 1180              	.L82:
 1181              		.loc 1 249 0
 1182 03c0 56F8047C 		ldr	r7, [r6, #-4]
 1183 03c4 0F60     		str	r7, [r1, #0]
 1184 03c6 56F8047B 		ldr	r7, [r6], #4
 1185 03ca 0436     		adds	r6, r6, #4
 1186              		.loc 1 246 0
 1187 03cc 023B     		subs	r3, r3, #2
 1188              		.loc 1 249 0
 1189 03ce 0F60     		str	r7, [r1, #0]
 1190              		.loc 1 246 0
 1191 03d0 F6D1     		bne	.L82
 1192              	.L208:
ARM GAS  /tmp/cc3IGbAH.s 			page 22


 1193 03d2 6544     		add	r5, r5, ip
 1194              	.LVL149:
 1195              	.L81:
 1196              	.LBE142:
 1197              	.LBE141:
 1198              		.loc 1 297 0
 1199 03d4 A842     		cmp	r0, r5
 1200              		.loc 1 296 0
 1201 03d6 A561     		str	r5, [r4, #24]
 1202              		.loc 1 297 0
 1203 03d8 1DD8     		bhi	.L83
 1204              		.loc 1 298 0
 1205 03da E668     		ldr	r6, [r4, #12]
 1206 03dc A661     		str	r6, [r4, #24]
 1207              	.LBE140:
 1208              	.LBE139:
 1209              		.loc 1 287 0
 1210 03de 002A     		cmp	r2, #0
 1211 03e0 CDD1     		bne	.L92
 1212              	.LVL150:
 1213              	.L218:
 1214 03e2 7546     		mov	r5, lr
 1215              	.LVL151:
 1216              	.L85:
 1217              	.LBB143:
 1218              		.loc 1 322 0
 1219 03e4 2023     		movs	r3, #32
 1220              	.LVL152:
 1221              	@ 322 "../../os/hal/platforms/STM32/OTGv1/usb_lld.c" 1
 1222 03e6 83F31188 		msr     BASEPRI, r3
 1223              	@ 0 "" 2
 1224              	.LVL153:
 1225              		.thumb
 1226              	.LBE143:
 1227              		.loc 1 323 0
 1228 03ea A168     		ldr	r1, [r4, #8]
 1229              	.LVL154:
 1230              		.loc 1 324 0
 1231 03ec 2068     		ldr	r0, [r4, #0]
 1232              		.loc 1 323 0
 1233 03ee 4F19     		adds	r7, r1, r5
 1234              		.loc 1 324 0
 1235 03f0 A042     		cmp	r0, r4
 1236              		.loc 1 323 0
 1237 03f2 A760     		str	r7, [r4, #8]
 1238              		.loc 1 324 0
 1239 03f4 09D0     		beq	.L78
 1240              	.L140:
 1241              	.LVL155:
 1242              	.LBB144:
 1243              	.LBB145:
 1244              		.loc 2 55 0
 1245 03f6 0368     		ldr	r3, [r0, #0]
 1246              	.LVL156:
 1247 03f8 2360     		str	r3, [r4, #0]
 1248 03fa 5C60     		str	r4, [r3, #4]
 1249              	.LBE145:
ARM GAS  /tmp/cc3IGbAH.s 			page 23


 1250              	.LBE144:
 1251              		.loc 1 325 0
 1252 03fc FFF7FEFF 		bl	chSchReadyI
 1253              	.LVL157:
 1254 0400 C0F82480 		str	r8, [r0, #36]
 1255              		.loc 1 324 0
 1256 0404 2068     		ldr	r0, [r4, #0]
 1257 0406 A042     		cmp	r0, r4
 1258 0408 F5D1     		bne	.L140
 1259              	.LVL158:
 1260              	.L78:
 1261              		.loc 1 326 0
 1262 040a FFF7FEFF 		bl	chSchRescheduleS
 1263              	.LVL159:
 1264              	.LBB146:
 1265              		.loc 1 327 0
 1266 040e 0023     		movs	r3, #0
 1267              	@ 327 "../../os/hal/platforms/STM32/OTGv1/usb_lld.c" 1
 1268 0410 83F31188 		msr     BASEPRI, r3
 1269              	@ 0 "" 2
 1270              	.LVL160:
 1271              		.thumb
 1272 0414 7BE7     		b	.L93
 1273              	.LVL161:
 1274              	.L83:
 1275              	.LBE146:
 1276              	.LBB147:
 1277              		.loc 1 305 0
 1278 0416 002A     		cmp	r2, #0
 1279 0418 E3D0     		beq	.L218
 1280              	.LVL162:
 1281              	.L79:
 1282              		.loc 1 312 0
 1283 041a A669     		ldr	r6, [r4, #24]
 1284 041c 16F8013B 		ldrb	r3, [r6], #1	@ zero_extendqisi2
 1285              	.LVL163:
 1286              		.loc 1 313 0
 1287 0420 8642     		cmp	r6, r0
 1288              		.loc 1 312 0
 1289 0422 A661     		str	r6, [r4, #24]
 1290              		.loc 1 314 0
 1291 0424 24BF     		itt	cs
 1292 0426 E668     		ldrcs	r6, [r4, #12]
 1293 0428 A661     		strcs	r6, [r4, #24]
 1294              		.loc 1 311 0
 1295 042a 012A     		cmp	r2, #1
 1296 042c 27D0     		beq	.L87
 1297              		.loc 1 312 0
 1298 042e A769     		ldr	r7, [r4, #24]
 1299 0430 17F8015B 		ldrb	r5, [r7], #1	@ zero_extendqisi2
 1300              		.loc 1 313 0
 1301 0434 B842     		cmp	r0, r7
 1302              		.loc 1 312 0
 1303 0436 A761     		str	r7, [r4, #24]
 1304              		.loc 1 314 0
 1305 0438 9CBF     		itt	ls
 1306 043a E768     		ldrls	r7, [r4, #12]
ARM GAS  /tmp/cc3IGbAH.s 			page 24


 1307 043c A761     		strls	r7, [r4, #24]
 1308              		.loc 1 311 0
 1309 043e 022A     		cmp	r2, #2
 1310              		.loc 1 312 0
 1311 0440 43EA0523 		orr	r3, r3, r5, lsl #8
 1312              	.LVL164:
 1313              		.loc 1 311 0
 1314 0444 1BD0     		beq	.L87
 1315              		.loc 1 312 0
 1316 0446 A769     		ldr	r7, [r4, #24]
 1317 0448 17F8016B 		ldrb	r6, [r7], #1	@ zero_extendqisi2
 1318              		.loc 1 313 0
 1319 044c B842     		cmp	r0, r7
 1320              		.loc 1 312 0
 1321 044e A761     		str	r7, [r4, #24]
 1322              		.loc 1 314 0
 1323 0450 9CBF     		itt	ls
 1324 0452 E768     		ldrls	r7, [r4, #12]
 1325 0454 A761     		strls	r7, [r4, #24]
 1326              		.loc 1 311 0
 1327 0456 032A     		cmp	r2, #3
 1328              		.loc 1 312 0
 1329 0458 43EA0643 		orr	r3, r3, r6, lsl #16
 1330              	.LVL165:
 1331              		.loc 1 311 0
 1332 045c 0FD0     		beq	.L87
 1333              		.loc 1 312 0
 1334 045e A569     		ldr	r5, [r4, #24]
 1335 0460 15F8017B 		ldrb	r7, [r5], #1	@ zero_extendqisi2
 1336              		.loc 1 313 0
 1337 0464 8542     		cmp	r5, r0
 1338              		.loc 1 312 0
 1339 0466 A561     		str	r5, [r4, #24]
 1340              		.loc 1 314 0
 1341 0468 24BF     		itt	cs
 1342 046a E568     		ldrcs	r5, [r4, #12]
 1343 046c A561     		strcs	r5, [r4, #24]
 1344              		.loc 1 311 0
 1345 046e 043A     		subs	r2, r2, #4
 1346              	.LVL166:
 1347              		.loc 1 312 0
 1348 0470 43EA0763 		orr	r3, r3, r7, lsl #24
 1349              	.LVL167:
 1350              		.loc 1 311 0
 1351 0474 03D0     		beq	.L87
 1352              	.LVL168:
 1353              	.L91:
 1354              		.loc 1 318 0
 1355 0476 0B60     		str	r3, [r1, #0]
 1356              	.LVL169:
 1357              	.LBE147:
 1358              		.loc 1 287 0
 1359 0478 002A     		cmp	r2, #0
 1360 047a 80D1     		bne	.L92
 1361 047c B1E7     		b	.L218
 1362              	.LVL170:
 1363              	.L87:
ARM GAS  /tmp/cc3IGbAH.s 			page 25


 1364 047e 0022     		movs	r2, #0
 1365 0480 F9E7     		b	.L91
 1366              	.LVL171:
 1367              	.L229:
 1368 0482 631C     		adds	r3, r4, #1
 1369 0484 0593     		str	r3, [sp, #20]
 1370              	.LVL172:
 1371              	.L97:
 1372              		.loc 1 504 0
 1373 0486 0122     		movs	r2, #1
 1374 0488 5CE7     		b	.L71
 1375              	.LBE148:
 1376              	.LBE149:
 1377              	.LBE150:
 1378              	.LBE153:
 1379              	.LBE121:
 1380              	.LBE154:
 1381              		.cfi_endproc
 1382              	.LFE136:
 1383              		.size	usb_lld_pump, .-usb_lld_pump
 1384 048a 00BFAFF3 		.section	.text.otg_epin_handler,"ax",%progbits
 1384      0080
 1385              		.align	2
 1386              		.p2align 4,,15
 1387              		.thumb
 1388              		.thumb_func
 1389              		.type	otg_epin_handler, %function
 1390              	otg_epin_handler:
 1391              	.LFB133:
 1392              		.loc 1 548 0
 1393              		.cfi_startproc
 1394              		@ args = 0, pretend = 0, frame = 0
 1395              		@ frame_needed = 0, uses_anonymous_args = 0
 1396              	.LVL173:
 1397 0000 F8B5     		push	{r3, r4, r5, r6, r7, lr}
 1398              	.LCFI4:
 1399              		.cfi_def_cfa_offset 24
 1400              		.cfi_offset 3, -24
 1401              		.cfi_offset 4, -20
 1402              		.cfi_offset 5, -16
 1403              		.cfi_offset 6, -12
 1404              		.cfi_offset 7, -8
 1405              		.cfi_offset 14, -4
 1406              		.loc 1 549 0
 1407 0002 C46B     		ldr	r4, [r0, #60]
 1408              	.LVL174:
 1409              		.loc 1 550 0
 1410 0004 04EB4113 		add	r3, r4, r1, lsl #5
 1411              		.loc 1 552 0
 1412 0008 4FF0FF32 		mov	r2, #-1
 1413              		.loc 1 550 0
 1414 000c D3F80869 		ldr	r6, [r3, #2312]
 1415              	.LVL175:
 1416              		.loc 1 552 0
 1417 0010 C3F80829 		str	r2, [r3, #2312]
 1418              		.loc 1 557 0
 1419 0014 F307     		lsls	r3, r6, #31
ARM GAS  /tmp/cc3IGbAH.s 			page 26


 1420              		.loc 1 548 0
 1421 0016 0546     		mov	r5, r0
 1422 0018 0F46     		mov	r7, r1
 1423              		.loc 1 557 0
 1424 001a 03D5     		bpl	.L234
 1425              		.loc 1 557 0 is_stmt 0 discriminator 1
 1426 001c D4F81038 		ldr	r3, [r4, #2064]
 1427 0020 DA07     		lsls	r2, r3, #31
 1428 0022 1FD4     		bmi	.L252
 1429              	.LVL176:
 1430              	.L234:
 1431              		.loc 1 561 0 is_stmt 1
 1432 0024 3306     		lsls	r3, r6, #24
 1433 0026 06D5     		bpl	.L233
 1434              		.loc 1 562 0 discriminator 1
 1435 0028 0121     		movs	r1, #1
 1436 002a D4F83408 		ldr	r0, [r4, #2100]
 1437 002e 01FA07F7 		lsl	r7, r1, r7
 1438              		.loc 1 561 0 discriminator 1
 1439 0032 0742     		tst	r7, r0
 1440 0034 00D1     		bne	.L253
 1441              	.L233:
 1442 0036 F8BD     		pop	{r3, r4, r5, r6, r7, pc}
 1443              	.L253:
 1444              	.LBB159:
 1445              		.loc 1 564 0
 1446 0038 2023     		movs	r3, #32
 1447              	.LVL177:
 1448              	@ 564 "../../os/hal/platforms/STM32/OTGv1/usb_lld.c" 1
 1449 003a 83F31188 		msr     BASEPRI, r3
 1450              	@ 0 "" 2
 1451              	.LVL178:
 1452              		.thumb
 1453              	.LBE159:
 1454              		.loc 1 565 0
 1455 003e AB6C     		ldr	r3, [r5, #72]
 1456              	.LVL179:
 1457              		.loc 1 566 0
 1458 0040 D4F83428 		ldr	r2, [r4, #2100]
 1459              	.LBB160:
 1460              	.LBB161:
 1461              		.loc 1 126 0
 1462 0044 286D     		ldr	r0, [r5, #80]
 1463              	.LBE161:
 1464              	.LBE160:
 1465              		.loc 1 565 0
 1466 0046 3B43     		orrs	r3, r3, r7
 1467              		.loc 1 566 0
 1468 0048 22EA0707 		bic	r7, r2, r7
 1469              		.loc 1 565 0
 1470 004c AB64     		str	r3, [r5, #72]
 1471              		.loc 1 566 0
 1472 004e C4F83478 		str	r7, [r4, #2100]
 1473              	.LVL180:
 1474              	.LBB163:
 1475              	.LBB162:
 1476              		.loc 1 126 0
ARM GAS  /tmp/cc3IGbAH.s 			page 27


 1477 0052 18B1     		cbz	r0, .L236
 1478              		.loc 1 127 0
 1479 0054 FFF7FEFF 		bl	chSchReadyI
 1480              	.LVL181:
 1481              		.loc 1 128 0
 1482 0058 0020     		movs	r0, #0
 1483 005a 2865     		str	r0, [r5, #80]
 1484              	.L236:
 1485              	.LBE162:
 1486              	.LBE163:
 1487              	.LBB164:
 1488              		.loc 1 568 0
 1489 005c 0023     		movs	r3, #0
 1490              	.LVL182:
 1491              	@ 568 "../../os/hal/platforms/STM32/OTGv1/usb_lld.c" 1
 1492 005e 83F31188 		msr     BASEPRI, r3
 1493              	@ 0 "" 2
 1494              	.LVL183:
 1495              		.thumb
 1496 0062 F8BD     		pop	{r3, r4, r5, r6, r7, pc}
 1497              	.LVL184:
 1498              	.L252:
 1499              	.LBE164:
 1500              		.loc 1 559 0
 1501 0064 0A1D     		adds	r2, r1, #4
 1502 0066 B0F80CE0 		ldrh	lr, [r0, #12]
 1503 006a 50F82230 		ldr	r3, [r0, r2, lsl #2]
 1504 006e 0122     		movs	r2, #1
 1505 0070 02FA01F2 		lsl	r2, r2, r1
 1506 0074 2EEA0202 		bic	r2, lr, r2
 1507 0078 8281     		strh	r2, [r0, #12]	@ movhi
 1508 007a 9B68     		ldr	r3, [r3, #8]
 1509 007c 9847     		blx	r3
 1510              	.LVL185:
 1511 007e D1E7     		b	.L234
 1512              		.cfi_endproc
 1513              	.LFE133:
 1514              		.size	otg_epin_handler, .-otg_epin_handler
 1515              		.section	.text.Vector14C,"ax",%progbits
 1516              		.align	2
 1517              		.p2align 4,,15
 1518              		.global	Vector14C
 1519              		.thumb
 1520              		.thumb_func
 1521              		.type	Vector14C, %function
 1522              	Vector14C:
 1523              	.LFB137:
 1524              		.loc 1 746 0
 1525              		.cfi_startproc
 1526              		@ args = 0, pretend = 0, frame = 0
 1527              		@ frame_needed = 0, uses_anonymous_args = 0
 1528              	.LVL186:
 1529 0000 70B5     		push	{r4, r5, r6, lr}
 1530              	.LCFI5:
 1531              		.cfi_def_cfa_offset 16
 1532              		.cfi_offset 4, -16
 1533              		.cfi_offset 5, -12
ARM GAS  /tmp/cc3IGbAH.s 			page 28


 1534              		.cfi_offset 6, -8
 1535              		.cfi_offset 14, -4
 1536              	.LBB171:
 1537              	.LBB172:
 1538              		.loc 1 607 0
 1539 0002 3E4E     		ldr	r6, .L326
 1540 0004 F56B     		ldr	r5, [r6, #60]
 1541              	.LVL187:
 1542              		.loc 1 610 0
 1543 0006 6B69     		ldr	r3, [r5, #20]
 1544 0008 AC69     		ldr	r4, [r5, #24]
 1545 000a 1C40     		ands	r4, r4, r3
 1546              	.LVL188:
 1547              		.loc 1 614 0
 1548 000c E104     		lsls	r1, r4, #19
 1549              		.loc 1 611 0
 1550 000e 6C61     		str	r4, [r5, #20]
 1551              		.loc 1 614 0
 1552 0010 2BD4     		bmi	.L316
 1553              	.L256:
 1554              		.loc 1 620 0
 1555 0012 A204     		lsls	r2, r4, #18
 1556              		.loc 1 621 0
 1557 0014 48BF     		it	mi
 1558 0016 D5F80838 		ldrmi	r3, [r5, #2056]
 1559              		.loc 1 625 0
 1560 001a 2307     		lsls	r3, r4, #28
 1561 001c 04D5     		bpl	.L259
 1562              		.loc 1 626 0
 1563 001e 7068     		ldr	r0, [r6, #4]
 1564 0020 C168     		ldr	r1, [r0, #12]
 1565 0022 09B1     		cbz	r1, .L259
 1566 0024 3548     		ldr	r0, .L326
 1567 0026 8847     		blx	r1
 1568              	.LVL189:
 1569              	.L259:
 1570              		.loc 1 630 0
 1571 0028 E006     		lsls	r0, r4, #27
 1572 002a 29D4     		bmi	.L317
 1573              	.LVL190:
 1574              	.L260:
 1575              		.loc 1 641 0
 1576 002c 6103     		lsls	r1, r4, #13
 1577              		.loc 1 640 0
 1578 002e D5F81858 		ldr	r5, [r5, #2072]
 1579              	.LVL191:
 1580              		.loc 1 641 0
 1581 0032 07D5     		bpl	.L263
 1582              		.loc 1 642 0
 1583 0034 EA07     		lsls	r2, r5, #31
 1584 0036 49D4     		bmi	.L318
 1585              		.loc 1 644 0
 1586 0038 AB07     		lsls	r3, r5, #30
 1587              	.LVL192:
 1588 003a 4DD4     		bmi	.L319
 1589              	.L265:
 1590              		.loc 1 646 0
ARM GAS  /tmp/cc3IGbAH.s 			page 29


 1591 003c 6807     		lsls	r0, r5, #29
 1592 003e 51D4     		bmi	.L320
 1593              	.L266:
 1594              		.loc 1 648 0
 1595 0040 2907     		lsls	r1, r5, #28
 1596 0042 55D4     		bmi	.L321
 1597              	.LVL193:
 1598              	.L263:
 1599              		.loc 1 657 0
 1600 0044 2203     		lsls	r2, r4, #12
 1601 0046 07D5     		bpl	.L269
 1602              		.loc 1 658 0
 1603 0048 EB03     		lsls	r3, r5, #15
 1604              	.LVL194:
 1605 004a 32D4     		bmi	.L322
 1606              		.loc 1 660 0
 1607 004c A803     		lsls	r0, r5, #14
 1608 004e 36D4     		bmi	.L323
 1609              	.L271:
 1610              		.loc 1 662 0
 1611 0050 6903     		lsls	r1, r5, #13
 1612 0052 27D4     		bmi	.L324
 1613              	.L272:
 1614              		.loc 1 664 0
 1615 0054 2A03     		lsls	r2, r5, #12
 1616 0056 03D4     		bmi	.L325
 1617              	.LVL195:
 1618              	.L269:
 1619              	.LBE172:
 1620              	.LBE171:
 1621              		.loc 1 753 0
 1622 0058 BDE87040 		pop	{r4, r5, r6, lr}
 1623              		.loc 1 752 0
 1624 005c FFF7FEBF 		b	_port_irq_epilogue
 1625              	.LVL196:
 1626              	.L325:
 1627              	.LBB180:
 1628              	.LBB179:
 1629              		.loc 1 665 0
 1630 0060 2648     		ldr	r0, .L326
 1631 0062 0321     		movs	r1, #3
 1632 0064 FFF7FEFF 		bl	otg_epout_handler
 1633              	.LVL197:
 1634 0068 F6E7     		b	.L269
 1635              	.LVL198:
 1636              	.L316:
 1637              		.loc 1 615 0
 1638 006a 3046     		mov	r0, r6
 1639 006c FFF7FEFF 		bl	_usb_reset
 1640              	.LVL199:
 1641              		.loc 1 616 0
 1642 0070 7368     		ldr	r3, [r6, #4]
 1643 0072 1B68     		ldr	r3, [r3, #0]
 1644 0074 002B     		cmp	r3, #0
 1645 0076 CCD0     		beq	.L256
 1646 0078 3046     		mov	r0, r6
 1647 007a 0021     		movs	r1, #0
ARM GAS  /tmp/cc3IGbAH.s 			page 30


 1648 007c 9847     		blx	r3
 1649              	.LVL200:
 1650 007e C8E7     		b	.L256
 1651              	.L317:
 1652              	.LBB173:
 1653              		.loc 1 633 0
 1654 0080 2023     		movs	r3, #32
 1655              	.LVL201:
 1656              	@ 633 "../../os/hal/platforms/STM32/OTGv1/usb_lld.c" 1
 1657 0082 83F31188 		msr     BASEPRI, r3
 1658              	@ 0 "" 2
 1659              	.LVL202:
 1660              		.thumb
 1661              	.LBE173:
 1662              		.loc 1 634 0
 1663 0086 AA69     		ldr	r2, [r5, #24]
 1664              	.LBB174:
 1665              	.LBB175:
 1666              		.loc 1 126 0
 1667 0088 306D     		ldr	r0, [r6, #80]
 1668              	.LBE175:
 1669              	.LBE174:
 1670              		.loc 1 634 0
 1671 008a 22F01003 		bic	r3, r2, #16
 1672              	.LVL203:
 1673 008e AB61     		str	r3, [r5, #24]
 1674              	.LVL204:
 1675              	.LBB177:
 1676              	.LBB176:
 1677              		.loc 1 126 0
 1678 0090 20B1     		cbz	r0, .L261
 1679              		.loc 1 127 0
 1680 0092 FFF7FEFF 		bl	chSchReadyI
 1681              	.LVL205:
 1682              		.loc 1 128 0
 1683 0096 1949     		ldr	r1, .L326
 1684 0098 0020     		movs	r0, #0
 1685 009a 0865     		str	r0, [r1, #80]
 1686              	.L261:
 1687              	.LBE176:
 1688              	.LBE177:
 1689              	.LBB178:
 1690              		.loc 1 636 0
 1691 009c 0023     		movs	r3, #0
 1692              	@ 636 "../../os/hal/platforms/STM32/OTGv1/usb_lld.c" 1
 1693 009e 83F31188 		msr     BASEPRI, r3
 1694              	@ 0 "" 2
 1695              	.LVL206:
 1696              		.thumb
 1697 00a2 C3E7     		b	.L260
 1698              	.LVL207:
 1699              	.L324:
 1700              	.LBE178:
 1701              		.loc 1 663 0
 1702 00a4 0221     		movs	r1, #2
 1703 00a6 1548     		ldr	r0, .L326
 1704 00a8 FFF7FEFF 		bl	otg_epout_handler
ARM GAS  /tmp/cc3IGbAH.s 			page 31


 1705              	.LVL208:
 1706              		.loc 1 664 0
 1707 00ac 2A03     		lsls	r2, r5, #12
 1708 00ae D3D5     		bpl	.L269
 1709 00b0 D6E7     		b	.L325
 1710              	.L322:
 1711              		.loc 1 659 0
 1712 00b2 1248     		ldr	r0, .L326
 1713 00b4 0021     		movs	r1, #0
 1714 00b6 FFF7FEFF 		bl	otg_epout_handler
 1715              	.LVL209:
 1716              		.loc 1 660 0
 1717 00ba A803     		lsls	r0, r5, #14
 1718 00bc C8D5     		bpl	.L271
 1719              	.L323:
 1720              		.loc 1 661 0
 1721 00be 0121     		movs	r1, #1
 1722 00c0 0E48     		ldr	r0, .L326
 1723 00c2 FFF7FEFF 		bl	otg_epout_handler
 1724              	.LVL210:
 1725              		.loc 1 662 0
 1726 00c6 6903     		lsls	r1, r5, #13
 1727 00c8 C4D5     		bpl	.L272
 1728 00ca EBE7     		b	.L324
 1729              	.LVL211:
 1730              	.L318:
 1731              		.loc 1 643 0
 1732 00cc 0021     		movs	r1, #0
 1733 00ce 0B48     		ldr	r0, .L326
 1734 00d0 FFF7FEFF 		bl	otg_epin_handler
 1735              	.LVL212:
 1736              		.loc 1 644 0
 1737 00d4 AB07     		lsls	r3, r5, #30
 1738 00d6 B1D5     		bpl	.L265
 1739              	.L319:
 1740              		.loc 1 645 0
 1741 00d8 0848     		ldr	r0, .L326
 1742 00da 0121     		movs	r1, #1
 1743 00dc FFF7FEFF 		bl	otg_epin_handler
 1744              	.LVL213:
 1745              		.loc 1 646 0
 1746 00e0 6807     		lsls	r0, r5, #29
 1747 00e2 ADD5     		bpl	.L266
 1748              	.L320:
 1749              		.loc 1 647 0
 1750 00e4 0221     		movs	r1, #2
 1751 00e6 0548     		ldr	r0, .L326
 1752 00e8 FFF7FEFF 		bl	otg_epin_handler
 1753              	.LVL214:
 1754              		.loc 1 648 0
 1755 00ec 2907     		lsls	r1, r5, #28
 1756 00ee A9D5     		bpl	.L263
 1757              	.L321:
 1758              		.loc 1 649 0
 1759 00f0 0248     		ldr	r0, .L326
 1760 00f2 0321     		movs	r1, #3
 1761 00f4 FFF7FEFF 		bl	otg_epin_handler
ARM GAS  /tmp/cc3IGbAH.s 			page 32


 1762              	.LVL215:
 1763 00f8 A4E7     		b	.L263
 1764              	.L327:
 1765 00fa 00BF     		.align	2
 1766              	.L326:
 1767 00fc 00000000 		.word	.LANCHOR0
 1768              	.LBE179:
 1769              	.LBE180:
 1770              		.cfi_endproc
 1771              	.LFE137:
 1772              		.size	Vector14C, .-Vector14C
 1773              		.section	.text.usb_lld_init,"ax",%progbits
 1774              		.align	2
 1775              		.p2align 4,,15
 1776              		.global	usb_lld_init
 1777              		.thumb
 1778              		.thumb_func
 1779              		.type	usb_lld_init, %function
 1780              	usb_lld_init:
 1781              	.LFB138:
 1782              		.loc 1 784 0
 1783              		.cfi_startproc
 1784              		@ args = 0, pretend = 0, frame = 0
 1785              		@ frame_needed = 0, uses_anonymous_args = 0
 1786 0000 10B5     		push	{r4, lr}
 1787              	.LCFI6:
 1788              		.cfi_def_cfa_offset 8
 1789              		.cfi_offset 4, -8
 1790              		.cfi_offset 14, -4
 1791              		.loc 1 788 0
 1792 0002 40F20004 		movw	r4, #:lower16:.LANCHOR0
 1793 0006 C0F20004 		movt	r4, #:upper16:.LANCHOR0
 1794 000a 2046     		mov	r0, r4
 1795 000c FFF7FEFF 		bl	usbObjectInit
 1796              	.LVL216:
 1797              		.loc 1 792 0
 1798 0010 40F20001 		movw	r1, #:lower16:.LANCHOR1
 1799              		.loc 1 789 0
 1800 0014 0023     		movs	r3, #0
 1801              		.loc 1 791 0
 1802 0016 4FF0A040 		mov	r0, #1342177280
 1803              		.loc 1 792 0
 1804 001a C0F20001 		movt	r1, #:upper16:.LANCHOR1
 1805              		.loc 1 789 0
 1806 001e E364     		str	r3, [r4, #76]
 1807              		.loc 1 790 0
 1808 0020 2365     		str	r3, [r4, #80]
 1809              		.loc 1 791 0
 1810 0022 E063     		str	r0, [r4, #60]
 1811              		.loc 1 792 0
 1812 0024 2164     		str	r1, [r4, #64]
 1813 0026 10BD     		pop	{r4, pc}
 1814              		.cfi_endproc
 1815              	.LFE138:
 1816              		.size	usb_lld_init, .-usb_lld_init
 1817 0028 AFF30080 		.section	.text.usb_lld_start,"ax",%progbits
 1817      AFF30080 
ARM GAS  /tmp/cc3IGbAH.s 			page 33


 1818              		.align	2
 1819              		.p2align 4,,15
 1820              		.global	usb_lld_start
 1821              		.thumb
 1822              		.thumb_func
 1823              		.type	usb_lld_start, %function
 1824              	usb_lld_start:
 1825              	.LFB139:
 1826              		.loc 1 842 0
 1827              		.cfi_startproc
 1828              		@ args = 0, pretend = 0, frame = 0
 1829              		@ frame_needed = 0, uses_anonymous_args = 0
 1830              	.LVL217:
 1831 0000 70B5     		push	{r4, r5, r6, lr}
 1832              	.LCFI7:
 1833              		.cfi_def_cfa_offset 16
 1834              		.cfi_offset 4, -16
 1835              		.cfi_offset 5, -12
 1836              		.cfi_offset 6, -8
 1837              		.cfi_offset 14, -4
 1838              		.loc 1 845 0
 1839 0002 0378     		ldrb	r3, [r0, #0]	@ zero_extendqisi2
 1840              		.loc 1 843 0
 1841 0004 C56B     		ldr	r5, [r0, #60]
 1842              	.LVL218:
 1843              		.loc 1 845 0
 1844 0006 012B     		cmp	r3, #1
 1845              		.loc 1 842 0
 1846 0008 82B0     		sub	sp, sp, #8
 1847              	.LCFI8:
 1848              		.cfi_def_cfa_offset 24
 1849              		.loc 1 842 0
 1850 000a 0646     		mov	r6, r0
 1851              		.loc 1 845 0
 1852 000c 01D0     		beq	.L339
 1853              	.LVL219:
 1854              	.L329:
 1855              		.loc 1 919 0
 1856 000e 02B0     		add	sp, sp, #8
 1857 0010 70BD     		pop	{r4, r5, r6, pc}
 1858              	.LVL220:
 1859              	.L339:
 1860              		.loc 1 848 0
 1861 0012 3048     		ldr	r0, .L343
 1862              	.LVL221:
 1863 0014 8642     		cmp	r6, r0
 1864 0016 49D0     		beq	.L340
 1865              	.L331:
 1866              		.loc 1 873 0
 1867 0018 F16C     		ldr	r1, [r6, #76]
 1868              		.loc 1 872 0
 1869 001a 0024     		movs	r4, #0
 1870 001c B464     		str	r4, [r6, #72]
 1871              		.loc 1 873 0
 1872 001e 0029     		cmp	r1, #0
 1873 0020 38D0     		beq	.L341
 1874              	.L332:
ARM GAS  /tmp/cc3IGbAH.s 			page 34


 1875              		.loc 1 883 0
 1876 0022 4FF4A250 		mov	r0, #5184
 1877              	.LBB183:
 1878              	.LBB184:
 1879              		.loc 1 133 0
 1880 0026 F46B     		ldr	r4, [r6, #60]
 1881              	.LBE184:
 1882              	.LBE183:
 1883              		.loc 1 883 0
 1884 0028 C4F20000 		movt	r0, 16384
 1885              		.loc 1 886 0
 1886 002c 0323     		movs	r3, #3
 1887              		.loc 1 883 0
 1888 002e E860     		str	r0, [r5, #12]
 1889              		.loc 1 886 0
 1890 0030 C0F22023 		movt	r3, 544
 1891              		.loc 1 889 0
 1892 0034 0022     		movs	r2, #0
 1893              		.loc 1 892 0
 1894 0036 4FF45021 		mov	r1, #851968
 1895              	.LBB187:
 1896              	.LBB185:
 1897              		.loc 1 136 0
 1898 003a 0120     		movs	r0, #1
 1899              	.LBE185:
 1900              	.LBE187:
 1901              		.loc 1 886 0
 1902 003c C5F80038 		str	r3, [r5, #2048]
 1903              		.loc 1 889 0
 1904 0040 C5F8002E 		str	r2, [r5, #3584]
 1905              		.loc 1 892 0
 1906 0044 A963     		str	r1, [r5, #56]
 1907              	.LVL222:
 1908              	.LBB188:
 1909              	.LBB186:
 1910              		.loc 1 136 0
 1911 0046 2061     		str	r0, [r4, #16]
 1912              	.L333:
 1913              		.loc 1 137 0
 1914 0048 2369     		ldr	r3, [r4, #16]
 1915 004a D807     		lsls	r0, r3, #31
 1916 004c FCD4     		bmi	.L333
 1917              		.loc 1 139 0
 1918 004e 0C20     		movs	r0, #12
 1919 0050 FFF7FEFF 		bl	halPolledDelay
 1920              	.LVL223:
 1921              	.L334:
 1922              		.loc 1 141 0
 1923 0054 2269     		ldr	r2, [r4, #16]
 1924 0056 002A     		cmp	r2, #0
 1925 0058 FCDA     		bge	.L334
 1926              	.LBE186:
 1927              	.LBE188:
 1928              		.loc 1 898 0
 1929 005a 0024     		movs	r4, #0
 1930              	.LVL224:
 1931              		.loc 1 901 0
ARM GAS  /tmp/cc3IGbAH.s 			page 35


 1932 005c 3046     		mov	r0, r6
 1933              		.loc 1 898 0
 1934 005e AC60     		str	r4, [r5, #8]
 1935              		.loc 1 901 0
 1936 0060 FFF7FEFF 		bl	otg_disable_ep
 1937              	.LVL225:
 1938              		.loc 1 908 0
 1939 0064 7168     		ldr	r1, [r6, #4]
 1940              		.loc 1 905 0
 1941 0066 C5F81048 		str	r4, [r5, #2064]
 1942              		.loc 1 908 0
 1943 006a C868     		ldr	r0, [r1, #12]
 1944              		.loc 1 906 0
 1945 006c C5F81448 		str	r4, [r5, #2068]
 1946              		.loc 1 907 0
 1947 0070 C5F81C48 		str	r4, [r5, #2076]
 1948              		.loc 1 908 0
 1949 0074 50B1     		cbz	r0, .L342
 1950              		.loc 1 912 0
 1951 0076 43F20803 		movw	r3, #12296
 1952 007a AB61     		str	r3, [r5, #24]
 1953              	.L336:
 1954              		.loc 1 914 0
 1955 007c 4FF0FF31 		mov	r1, #-1
 1956 0080 6961     		str	r1, [r5, #20]
 1957              		.loc 1 917 0
 1958 0082 A868     		ldr	r0, [r5, #8]
 1959 0084 40F00103 		orr	r3, r0, #1
 1960 0088 AB60     		str	r3, [r5, #8]
 1961 008a C0E7     		b	.L329
 1962              	.L342:
 1963              		.loc 1 909 0
 1964 008c 4FF44052 		mov	r2, #12288
 1965 0090 AA61     		str	r2, [r5, #24]
 1966 0092 F3E7     		b	.L336
 1967              	.LVL226:
 1968              	.L341:
 1969              		.loc 1 874 0
 1970 0094 0096     		str	r6, [sp, #0]
 1971 0096 06F15800 		add	r0, r6, #88
 1972 009a 4FF49871 		mov	r1, #304
 1973 009e 0222     		movs	r2, #2
 1974 00a0 0D4B     		ldr	r3, .L343+4
 1975 00a2 FFF7FEFF 		bl	chThdCreateI
 1976              	.LVL227:
 1977 00a6 3065     		str	r0, [r6, #80]
 1978 00a8 F064     		str	r0, [r6, #76]
 1979 00aa BAE7     		b	.L332
 1980              	.L340:
 1981              		.loc 1 850 0
 1982 00ac 4FF46051 		mov	r1, #14336
 1983 00b0 C4F20201 		movt	r1, 16386
 1984 00b4 4A6B     		ldr	r2, [r1, #52]
 1985 00b6 42F08004 		orr	r4, r2, #128
 1986 00ba 4C63     		str	r4, [r1, #52]
 1987              		.loc 1 851 0
 1988 00bc 4B69     		ldr	r3, [r1, #20]
ARM GAS  /tmp/cc3IGbAH.s 			page 36


 1989 00be 0022     		movs	r2, #0
 1990 00c0 43F08000 		orr	r0, r3, #128
 1991 00c4 4861     		str	r0, [r1, #20]
 1992 00c6 4A61     		str	r2, [r1, #20]
 1993              		.loc 1 854 0
 1994 00c8 4320     		movs	r0, #67
 1995 00ca E021     		movs	r1, #224
 1996 00cc FFF7FEFF 		bl	nvicEnableVector
 1997              	.LVL228:
 1998 00d0 A2E7     		b	.L331
 1999              	.L344:
 2000 00d2 00BF     		.align	2
 2001              	.L343:
 2002 00d4 00000000 		.word	.LANCHOR0
 2003 00d8 00000000 		.word	usb_lld_pump
 2004              		.cfi_endproc
 2005              	.LFE139:
 2006              		.size	usb_lld_start, .-usb_lld_start
 2007 00dc AFF30080 		.section	.text.usb_lld_stop,"ax",%progbits
 2008              		.align	2
 2009              		.p2align 4,,15
 2010              		.global	usb_lld_stop
 2011              		.thumb
 2012              		.thumb_func
 2013              		.type	usb_lld_stop, %function
 2014              	usb_lld_stop:
 2015              	.LFB140:
 2016              		.loc 1 928 0
 2017              		.cfi_startproc
 2018              		@ args = 0, pretend = 0, frame = 0
 2019              		@ frame_needed = 0, uses_anonymous_args = 0
 2020              		@ link register save eliminated.
 2021              	.LVL229:
 2022              		.loc 1 932 0
 2023 0000 0378     		ldrb	r3, [r0, #0]	@ zero_extendqisi2
 2024              		.loc 1 929 0
 2025 0002 C26B     		ldr	r2, [r0, #60]
 2026              	.LVL230:
 2027              		.loc 1 932 0
 2028 0004 012B     		cmp	r3, #1
 2029 0006 05D0     		beq	.L345
 2030              		.loc 1 934 0
 2031 0008 0021     		movs	r1, #0
 2032 000a 8164     		str	r1, [r0, #72]
 2033              		.loc 1 936 0
 2034 000c C2F81C18 		str	r1, [r2, #2076]
 2035              		.loc 1 937 0
 2036 0010 9160     		str	r1, [r2, #8]
 2037              		.loc 1 938 0
 2038 0012 9163     		str	r1, [r2, #56]
 2039              	.L345:
 2040 0014 7047     		bx	lr
 2041              		.cfi_endproc
 2042              	.LFE140:
 2043              		.size	usb_lld_stop, .-usb_lld_stop
 2044 0016 00BFAFF3 		.section	.text.usb_lld_reset,"ax",%progbits
 2044      0080AFF3 
ARM GAS  /tmp/cc3IGbAH.s 			page 37


 2044      0080
 2045              		.align	2
 2046              		.p2align 4,,15
 2047              		.global	usb_lld_reset
 2048              		.thumb
 2049              		.thumb_func
 2050              		.type	usb_lld_reset, %function
 2051              	usb_lld_reset:
 2052              	.LFB141:
 2053              		.loc 1 963 0
 2054              		.cfi_startproc
 2055              		@ args = 0, pretend = 0, frame = 0
 2056              		@ frame_needed = 0, uses_anonymous_args = 0
 2057              	.LVL231:
 2058 0000 2DE9F84F 		push	{r3, r4, r5, r6, r7, r8, r9, sl, fp, lr}
 2059              	.LCFI9:
 2060              		.cfi_def_cfa_offset 40
 2061              		.cfi_offset 3, -40
 2062              		.cfi_offset 4, -36
 2063              		.cfi_offset 5, -32
 2064              		.cfi_offset 6, -28
 2065              		.cfi_offset 7, -24
 2066              		.cfi_offset 8, -20
 2067              		.cfi_offset 9, -16
 2068              		.cfi_offset 10, -12
 2069              		.cfi_offset 11, -8
 2070              		.cfi_offset 14, -4
 2071              		.loc 1 963 0
 2072 0004 8046     		mov	r8, r0
 2073              		.loc 1 968 0
 2074 0006 0021     		movs	r1, #0
 2075              		.loc 1 965 0
 2076 0008 C46B     		ldr	r4, [r0, #60]
 2077              	.LVL232:
 2078              		.loc 1 968 0
 2079 000a FFF7FEFF 		bl	otg_txfifo_flush
 2080              	.LVL233:
 2081 000e D8F840B0 		ldr	fp, [r8, #64]
 2082 0012 DBF808A0 		ldr	sl, [fp, #8]
 2083              		.loc 1 972 0
 2084 0016 4FF00061 		mov	r1, #134217728
 2085              		.loc 1 974 0
 2086 001a FF22     		movs	r2, #255
 2087              		.loc 1 972 0
 2088 001c C4F80019 		str	r1, [r4, #2304]
 2089 0020 0AF00106 		and	r6, sl, #1
 2090              		.loc 1 973 0
 2091 0024 C4F8001B 		str	r1, [r4, #2816]
 2092              		.loc 1 971 0
 2093 0028 0123     		movs	r3, #1
 2094              		.loc 1 974 0
 2095 002a C4F80829 		str	r2, [r4, #2312]
 2096              		.loc 1 975 0
 2097 002e C4F8082B 		str	r2, [r4, #2824]
 2098              		.loc 1 971 0
 2099 0032 BAF1000F 		cmp	sl, #0
 2100 0036 33D0     		beq	.L361
ARM GAS  /tmp/cc3IGbAH.s 			page 38


 2101 0038 66B1     		cbz	r6, .L351
 2102 003a 0223     		movs	r3, #2
 2103 003c 5345     		cmp	r3, sl
 2104              		.loc 1 972 0
 2105 003e C4F82019 		str	r1, [r4, #2336]
 2106 0042 04F51267 		add	r7, r4, #2336
 2107              		.loc 1 973 0
 2108 0046 C4F8201B 		str	r1, [r4, #2848]
 2109              		.loc 1 974 0
 2110 004a C4F82829 		str	r2, [r4, #2344]
 2111              		.loc 1 975 0
 2112 004e C4F8282B 		str	r2, [r4, #2856]
 2113              		.loc 1 971 0
 2114 0052 25D8     		bhi	.L361
 2115              	.L351:
 2116              		.loc 1 971 0 is_stmt 0 discriminator 2
 2117 0054 5F1C     		adds	r7, r3, #1
 2118              		.loc 1 972 0 is_stmt 1 discriminator 2
 2119 0056 03F14809 		add	r9, r3, #72
 2120              		.loc 1 973 0 discriminator 2
 2121 005a 03F15800 		add	r0, r3, #88
 2122              		.loc 1 972 0 discriminator 2
 2123 005e 03F1490C 		add	ip, r3, #73
 2124              		.loc 1 973 0 discriminator 2
 2125 0062 03F1590E 		add	lr, r3, #89
 2126              		.loc 1 974 0 discriminator 2
 2127 0066 04EB4316 		add	r6, r4, r3, lsl #5
 2128 006a 04EB4715 		add	r5, r4, r7, lsl #5
 2129              		.loc 1 973 0 discriminator 2
 2130 006e 4001     		lsls	r0, r0, #5
 2131              		.loc 1 972 0 discriminator 2
 2132 0070 4FEA4919 		lsl	r9, r9, #5
 2133 0074 4FEA4C1C 		lsl	ip, ip, #5
 2134              		.loc 1 973 0 discriminator 2
 2135 0078 4FEA4E1E 		lsl	lr, lr, #5
 2136              		.loc 1 971 0 discriminator 2
 2137 007c 0233     		adds	r3, r3, #2
 2138 007e 5345     		cmp	r3, sl
 2139              		.loc 1 972 0 discriminator 2
 2140 0080 44F80910 		str	r1, [r4, r9]
 2141              		.loc 1 973 0 discriminator 2
 2142 0084 2150     		str	r1, [r4, r0]
 2143              		.loc 1 974 0 discriminator 2
 2144 0086 C6F80829 		str	r2, [r6, #2312]
 2145              		.loc 1 975 0 discriminator 2
 2146 008a C6F8082B 		str	r2, [r6, #2824]
 2147              		.loc 1 972 0 discriminator 2
 2148 008e 44F80C10 		str	r1, [r4, ip]
 2149              		.loc 1 973 0 discriminator 2
 2150 0092 44F80E10 		str	r1, [r4, lr]
 2151              		.loc 1 974 0 discriminator 2
 2152 0096 C5F80829 		str	r2, [r5, #2312]
 2153              		.loc 1 975 0 discriminator 2
 2154 009a C5F8082B 		str	r2, [r5, #2824]
 2155              		.loc 1 971 0 discriminator 2
 2156 009e D9D9     		bls	.L351
 2157              	.L361:
ARM GAS  /tmp/cc3IGbAH.s 			page 39


 2158              	.LBB195:
 2159              	.LBB196:
 2160              		.loc 1 211 0
 2161 00a0 DBF80030 		ldr	r3, [fp, #0]
 2162              	.LBE196:
 2163              	.LBE195:
 2164              	.LBB198:
 2165              	.LBB199:
 2166              		.loc 1 183 0
 2167 00a4 D8F83C20 		ldr	r2, [r8, #60]
 2168              	.LBE199:
 2169              	.LBE198:
 2170              		.loc 1 979 0
 2171 00a8 4FF0FF31 		mov	r1, #-1
 2172              		.loc 1 980 0
 2173 00ac 4FF00116 		mov	r6, #65537
 2174              	.LBB202:
 2175              	.LBB200:
 2176              		.loc 1 185 0
 2177 00b0 1025     		movs	r5, #16
 2178              	.LBE200:
 2179              	.LBE202:
 2180              		.loc 1 979 0
 2181 00b2 C4F81818 		str	r1, [r4, #2072]
 2182              		.loc 1 980 0
 2183 00b6 C4F81C68 		str	r6, [r4, #2076]
 2184              	.LVL234:
 2185              	.LBB203:
 2186              	.LBB197:
 2187              		.loc 1 211 0
 2188 00ba C8F84430 		str	r3, [r8, #68]
 2189              	.LBE197:
 2190              	.LBE203:
 2191              		.loc 1 986 0
 2192 00be 6362     		str	r3, [r4, #36]
 2193              	.LVL235:
 2194              	.LBB204:
 2195              	.LBB201:
 2196              		.loc 1 185 0
 2197 00c0 1561     		str	r5, [r2, #16]
 2198              	.L352:
 2199              		.loc 1 186 0
 2200 00c2 1069     		ldr	r0, [r2, #16]
 2201 00c4 10F01005 		ands	r5, r0, #16
 2202 00c8 FBD1     		bne	.L352
 2203              		.loc 1 189 0
 2204 00ca 0C20     		movs	r0, #12
 2205 00cc FFF7FEFF 		bl	halPolledDelay
 2206              	.LVL236:
 2207              	.LBE201:
 2208              	.LBE204:
 2209              		.loc 1 990 0
 2210 00d0 D4F80038 		ldr	r3, [r4, #2048]
 2211              	.LBB205:
 2212              	.LBB206:
 2213              		.loc 1 225 0
 2214 00d4 D8F84410 		ldr	r1, [r8, #68]
ARM GAS  /tmp/cc3IGbAH.s 			page 40


 2215              	.LBE206:
 2216              	.LBE205:
 2217              		.loc 1 990 0
 2218 00d8 23F4FE62 		bic	r2, r3, #2032
 2219 00dc C4F80028 		str	r2, [r4, #2048]
 2220              		.loc 1 993 0
 2221 00e0 A669     		ldr	r6, [r4, #24]
 2222 00e2 46F44020 		orr	r0, r6, #786432
 2223              		.loc 1 994 0
 2224 00e6 0922     		movs	r2, #9
 2225              		.loc 1 993 0
 2226 00e8 40F01006 		orr	r6, r0, #16
 2227 00ec A661     		str	r6, [r4, #24]
 2228              		.loc 1 1000 0
 2229 00ee 48F24003 		movw	r3, #32832
 2230              		.loc 1 994 0
 2231 00f2 C4F81028 		str	r2, [r4, #2064]
 2232              		.loc 1 995 0
 2233 00f6 C4F81428 		str	r2, [r4, #2068]
 2234              		.loc 1 998 0
 2235 00fa 0B4A     		ldr	r2, .L362
 2236              		.loc 1 1000 0
 2237 00fc C1F20003 		movt	r3, 4096
 2238              	.LBB209:
 2239              	.LBB207:
 2240              		.loc 1 226 0
 2241 0100 01F11000 		add	r0, r1, #16
 2242              	.LBE207:
 2243              	.LBE209:
 2244              		.loc 1 1005 0
 2245 0104 41F48011 		orr	r1, r1, #1048576
 2246              		.loc 1 998 0
 2247 0108 C8F81020 		str	r2, [r8, #16]
 2248              		.loc 1 999 0
 2249 010c C4F8105B 		str	r5, [r4, #2832]
 2250              		.loc 1 1000 0
 2251 0110 C4F8003B 		str	r3, [r4, #2816]
 2252              		.loc 1 1002 0
 2253 0114 C4F81059 		str	r5, [r4, #2320]
 2254              		.loc 1 1003 0
 2255 0118 C4F80039 		str	r3, [r4, #2304]
 2256              	.LVL237:
 2257              	.LBB210:
 2258              	.LBB208:
 2259              		.loc 1 226 0
 2260 011c C8F84400 		str	r0, [r8, #68]
 2261              	.LBE208:
 2262              	.LBE210:
 2263              		.loc 1 1005 0
 2264 0120 A162     		str	r1, [r4, #40]
 2265 0122 BDE8F88F 		pop	{r3, r4, r5, r6, r7, r8, r9, sl, fp, pc}
 2266              	.L363:
 2267 0126 00BF     		.align	2
 2268              	.L362:
 2269 0128 00000000 		.word	.LANCHOR2
 2270              		.cfi_endproc
 2271              	.LFE141:
ARM GAS  /tmp/cc3IGbAH.s 			page 41


 2272              		.size	usb_lld_reset, .-usb_lld_reset
 2273 012c AFF30080 		.section	.text.usb_lld_set_address,"ax",%progbits
 2274              		.align	2
 2275              		.p2align 4,,15
 2276              		.global	usb_lld_set_address
 2277              		.thumb
 2278              		.thumb_func
 2279              		.type	usb_lld_set_address, %function
 2280              	usb_lld_set_address:
 2281              	.LFB142:
 2282              		.loc 1 1017 0
 2283              		.cfi_startproc
 2284              		@ args = 0, pretend = 0, frame = 0
 2285              		@ frame_needed = 0, uses_anonymous_args = 0
 2286              		@ link register save eliminated.
 2287              	.LVL238:
 2288              		.loc 1 1018 0
 2289 0000 C36B     		ldr	r3, [r0, #60]
 2290              	.LVL239:
 2291              		.loc 1 1020 0
 2292 0002 90F83A10 		ldrb	r1, [r0, #58]	@ zero_extendqisi2
 2293 0006 D3F80028 		ldr	r2, [r3, #2048]
 2294 000a 22F4FE60 		bic	r0, r2, #2032
 2295              	.LVL240:
 2296 000e 40EA0111 		orr	r1, r0, r1, lsl #4
 2297 0012 C3F80018 		str	r1, [r3, #2048]
 2298 0016 7047     		bx	lr
 2299              		.cfi_endproc
 2300              	.LFE142:
 2301              		.size	usb_lld_set_address, .-usb_lld_set_address
 2302 0018 AFF30080 		.section	.text.usb_lld_init_endpoint,"ax",%progbits
 2302      AFF30080 
 2303              		.align	2
 2304              		.p2align 4,,15
 2305              		.global	usb_lld_init_endpoint
 2306              		.thumb
 2307              		.thumb_func
 2308              		.type	usb_lld_init_endpoint, %function
 2309              	usb_lld_init_endpoint:
 2310              	.LFB143:
 2311              		.loc 1 1031 0
 2312              		.cfi_startproc
 2313              		@ args = 0, pretend = 0, frame = 0
 2314              		@ frame_needed = 0, uses_anonymous_args = 0
 2315              	.LVL241:
 2316 0000 2DE9F041 		push	{r4, r5, r6, r7, r8, lr}
 2317              	.LCFI10:
 2318              		.cfi_def_cfa_offset 24
 2319              		.cfi_offset 4, -24
 2320              		.cfi_offset 5, -20
 2321              		.cfi_offset 6, -16
 2322              		.cfi_offset 7, -12
 2323              		.cfi_offset 8, -8
 2324              		.cfi_offset 14, -4
 2325              		.loc 1 1036 0
 2326 0004 0F1D     		adds	r7, r1, #4
 2327              		.loc 1 1031 0
ARM GAS  /tmp/cc3IGbAH.s 			page 42


 2328 0006 0646     		mov	r6, r0
 2329              		.loc 1 1036 0
 2330 0008 50F82730 		ldr	r3, [r0, r7, lsl #2]
 2331              		.loc 1 1033 0
 2332 000c C46B     		ldr	r4, [r0, #60]
 2333              	.LVL242:
 2334              		.loc 1 1036 0
 2335 000e 1A68     		ldr	r2, [r3, #0]
 2336 0010 02F00300 		and	r0, r2, #3
 2337              	.LVL243:
 2338 0014 0228     		cmp	r0, #2
 2339              		.loc 1 1031 0
 2340 0016 0D46     		mov	r5, r1
 2341              		.loc 1 1044 0
 2342 0018 4FF40048 		mov	r8, #32768
 2343              		.loc 1 1036 0
 2344 001c 53D0     		beq	.L368
 2345 001e 0328     		cmp	r0, #3
 2346 0020 54D0     		beq	.L369
 2347              		.loc 1 1038 0
 2348 0022 4146     		mov	r1, r8
 2349              	.LVL244:
 2350 0024 C1F20001 		movt	r1, 4096
 2351 0028 C1F20408 		movt	r8, 4100
 2352 002c 0128     		cmp	r0, #1
 2353 002e 18BF     		it	ne
 2354 0030 8846     		movne	r8, r1
 2355              	.L367:
 2356              	.LVL245:
 2357              		.loc 1 1054 0
 2358 0032 6A01     		lsls	r2, r5, #5
 2359 0034 A018     		adds	r0, r4, r2
 2360 0036 0021     		movs	r1, #0
 2361 0038 C0F8101B 		str	r1, [r0, #2832]
 2362              		.loc 1 1055 0
 2363 003c D868     		ldr	r0, [r3, #12]
 2364 003e 0028     		cmp	r0, #0
 2365 0040 47D0     		beq	.L370
 2366              		.loc 1 1056 0
 2367 0042 588A     		ldrh	r0, [r3, #18]
 2368 0044 05F15801 		add	r1, r5, #88
 2369 0048 4901     		lsls	r1, r1, #5
 2370 004a 48EA0000 		orr	r0, r8, r0
 2371 004e 6050     		str	r0, [r4, r1]
 2372              		.loc 1 1057 0
 2373 0050 4FF0010C 		mov	ip, #1
 2374 0054 D4F81C08 		ldr	r0, [r4, #2076]
 2375 0058 05F11001 		add	r1, r5, #16
 2376 005c 0CFA01F1 		lsl	r1, ip, r1
 2377 0060 0143     		orrs	r1, r1, r0
 2378 0062 C4F81C18 		str	r1, [r4, #2076]
 2379              	.L371:
 2380              		.loc 1 1065 0
 2381 0066 A218     		adds	r2, r4, r2
 2382              		.loc 1 1066 0
 2383 0068 9968     		ldr	r1, [r3, #8]
 2384              		.loc 1 1065 0
ARM GAS  /tmp/cc3IGbAH.s 			page 43


 2385 006a 0020     		movs	r0, #0
 2386 006c C2F81009 		str	r0, [r2, #2320]
 2387              		.loc 1 1066 0
 2388 0070 0029     		cmp	r1, #0
 2389 0072 41D0     		beq	.L372
 2390              		.loc 1 1069 0
 2391 0074 9A8B     		ldrh	r2, [r3, #28]
 2392              		.loc 1 1068 0
 2393 0076 198A     		ldrh	r1, [r3, #16]
 2394 0078 8B08     		lsrs	r3, r1, #2
 2395              	.LVL246:
 2396              		.loc 1 1069 0
 2397 007a 012A     		cmp	r2, #1
 2398              		.loc 1 1070 0
 2399 007c 88BF     		it	hi
 2400 007e 5343     		mulhi	r3, r2, r3
 2401              	.LVL247:
 2402              		.loc 1 1071 0
 2403 0080 05F13F00 		add	r0, r5, #63
 2404              	.LBB211:
 2405              	.LBB212:
 2406              		.loc 1 225 0
 2407 0084 726C     		ldr	r2, [r6, #68]
 2408              	.LVL248:
 2409              	.LBE212:
 2410              	.LBE211:
 2411              		.loc 1 1071 0
 2412 0086 04EB8001 		add	r1, r4, r0, lsl #2
 2413              	.LBB215:
 2414              	.LBB213:
 2415              		.loc 1 226 0
 2416 008a 9818     		adds	r0, r3, r2
 2417              	.LBE213:
 2418              	.LBE215:
 2419              		.loc 1 1071 0
 2420 008c 42EA0343 		orr	r3, r2, r3, lsl #16
 2421              	.LVL249:
 2422              	.LBB216:
 2423              	.LBB214:
 2424              		.loc 1 226 0
 2425 0090 7064     		str	r0, [r6, #68]
 2426              	.LBE214:
 2427              	.LBE216:
 2428              		.loc 1 1071 0
 2429 0092 4B60     		str	r3, [r1, #4]
 2430              		.loc 1 1073 0
 2431 0094 3046     		mov	r0, r6
 2432 0096 2946     		mov	r1, r5
 2433 0098 FFF7FEFF 		bl	otg_txfifo_flush
 2434              	.LVL250:
 2435              		.loc 1 1077 0
 2436 009c 56F82720 		ldr	r2, [r6, r7, lsl #2]
 2437              		.loc 1 1076 0
 2438 00a0 118A     		ldrh	r1, [r2, #16]
 2439              		.loc 1 1075 0
 2440 00a2 05F14800 		add	r0, r5, #72
 2441 00a6 41EA8552 		orr	r2, r1, r5, lsl #22
ARM GAS  /tmp/cc3IGbAH.s 			page 44


 2442 00aa 4301     		lsls	r3, r0, #5
 2443              		.loc 1 1076 0
 2444 00ac 42EA0801 		orr	r1, r2, r8
 2445              		.loc 1 1075 0
 2446 00b0 E150     		str	r1, [r4, r3]
 2447              		.loc 1 1078 0
 2448 00b2 0122     		movs	r2, #1
 2449 00b4 D4F81C08 		ldr	r0, [r4, #2076]
 2450 00b8 02FA05F5 		lsl	r5, r2, r5
 2451 00bc 0543     		orrs	r5, r5, r0
 2452 00be C4F81C58 		str	r5, [r4, #2076]
 2453 00c2 BDE8F081 		pop	{r4, r5, r6, r7, r8, pc}
 2454              	.LVL251:
 2455              	.L368:
 2456              		.loc 1 1044 0
 2457 00c6 C1F20808 		movt	r8, 4104
 2458              	.LVL252:
 2459              		.loc 1 1045 0
 2460 00ca B2E7     		b	.L367
 2461              	.L369:
 2462              	.LVL253:
 2463              		.loc 1 1047 0
 2464 00cc C1F20C08 		movt	r8, 4108
 2465              	.LVL254:
 2466              		.loc 1 1048 0
 2467 00d0 AFE7     		b	.L367
 2468              	.LVL255:
 2469              	.L370:
 2470              		.loc 1 1060 0
 2471 00d2 05F15801 		add	r1, r5, #88
 2472 00d6 4901     		lsls	r1, r1, #5
 2473              		.loc 1 1061 0
 2474 00d8 05F1100E 		add	lr, r5, #16
 2475              		.loc 1 1060 0
 2476 00dc 6058     		ldr	r0, [r4, r1]
 2477 00de 20F40040 		bic	r0, r0, #32768
 2478 00e2 6050     		str	r0, [r4, r1]
 2479              		.loc 1 1061 0
 2480 00e4 0121     		movs	r1, #1
 2481 00e6 D4F81C08 		ldr	r0, [r4, #2076]
 2482 00ea 01FA0EF1 		lsl	r1, r1, lr
 2483 00ee 20EA0100 		bic	r0, r0, r1
 2484 00f2 C4F81C08 		str	r0, [r4, #2076]
 2485 00f6 B6E7     		b	.L371
 2486              	.L372:
 2487              		.loc 1 1081 0
 2488 00f8 05F13F03 		add	r3, r5, #63
 2489 00fc 04EB8302 		add	r2, r4, r3, lsl #2
 2490 0100 4FF48061 		mov	r1, #1024
 2491 0104 C0F20021 		movt	r1, 512
 2492 0108 5160     		str	r1, [r2, #4]
 2493              		.loc 1 1082 0
 2494 010a 3046     		mov	r0, r6
 2495 010c 2946     		mov	r1, r5
 2496 010e FFF7FEFF 		bl	otg_txfifo_flush
 2497              	.LVL256:
 2498              		.loc 1 1083 0
ARM GAS  /tmp/cc3IGbAH.s 			page 45


 2499 0112 05F14800 		add	r0, r5, #72
 2500 0116 4301     		lsls	r3, r0, #5
 2501 0118 E258     		ldr	r2, [r4, r3]
 2502 011a 22F40041 		bic	r1, r2, #32768
 2503 011e E150     		str	r1, [r4, r3]
 2504              		.loc 1 1084 0
 2505 0120 0123     		movs	r3, #1
 2506 0122 D4F81C08 		ldr	r0, [r4, #2076]
 2507 0126 03FA05F5 		lsl	r5, r3, r5
 2508 012a 20EA0505 		bic	r5, r0, r5
 2509 012e C4F81C58 		str	r5, [r4, #2076]
 2510 0132 BDE8F081 		pop	{r4, r5, r6, r7, r8, pc}
 2511              		.cfi_endproc
 2512              	.LFE143:
 2513              		.size	usb_lld_init_endpoint, .-usb_lld_init_endpoint
 2514 0136 00BFAFF3 		.section	.text.usb_lld_disable_endpoints,"ax",%progbits
 2514      0080AFF3 
 2514      0080
 2515              		.align	2
 2516              		.p2align 4,,15
 2517              		.global	usb_lld_disable_endpoints
 2518              		.thumb
 2519              		.thumb_func
 2520              		.type	usb_lld_disable_endpoints, %function
 2521              	usb_lld_disable_endpoints:
 2522              	.LFB144:
 2523              		.loc 1 1095 0
 2524              		.cfi_startproc
 2525              		@ args = 0, pretend = 0, frame = 0
 2526              		@ frame_needed = 0, uses_anonymous_args = 0
 2527              		@ link register save eliminated.
 2528              	.LVL257:
 2529              	.LBB217:
 2530              	.LBB218:
 2531              		.loc 1 211 0
 2532 0000 026C     		ldr	r2, [r0, #64]
 2533 0002 1168     		ldr	r1, [r2, #0]
 2534 0004 4164     		str	r1, [r0, #68]
 2535              	.LBE218:
 2536              	.LBE217:
 2537              		.loc 1 1102 0
 2538              		.loc 1 1101 0
 2539 0006 FFF7FEBF 		b	otg_disable_ep
 2540              	.LVL258:
 2541              		.cfi_endproc
 2542              	.LFE144:
 2543              		.size	usb_lld_disable_endpoints, .-usb_lld_disable_endpoints
 2544 000a 00BFAFF3 		.section	.text.usb_lld_get_status_out,"ax",%progbits
 2544      0080
 2545              		.align	2
 2546              		.p2align 4,,15
 2547              		.global	usb_lld_get_status_out
 2548              		.thumb
 2549              		.thumb_func
 2550              		.type	usb_lld_get_status_out, %function
 2551              	usb_lld_get_status_out:
 2552              	.LFB145:
ARM GAS  /tmp/cc3IGbAH.s 			page 46


 2553              		.loc 1 1116 0
 2554              		.cfi_startproc
 2555              		@ args = 0, pretend = 0, frame = 0
 2556              		@ frame_needed = 0, uses_anonymous_args = 0
 2557              		@ link register save eliminated.
 2558              	.LVL259:
 2559              		.loc 1 1121 0
 2560 0000 5831     		adds	r1, r1, #88
 2561              	.LVL260:
 2562 0002 C36B     		ldr	r3, [r0, #60]
 2563 0004 4901     		lsls	r1, r1, #5
 2564 0006 5A58     		ldr	r2, [r3, r1]
 2565              	.LVL261:
 2566              		.loc 1 1122 0
 2567 0008 12F40040 		ands	r0, r2, #32768
 2568              	.LVL262:
 2569 000c 04D0     		beq	.L378
 2570              		.loc 1 1124 0
 2571 000e 12F4001F 		tst	r2, #2097152
 2572              		.loc 1 1125 0
 2573 0012 0CBF     		ite	eq
 2574 0014 0220     		moveq	r0, #2
 2575 0016 0120     		movne	r0, #1
 2576              	.L378:
 2577              		.loc 1 1127 0
 2578 0018 7047     		bx	lr
 2579              		.cfi_endproc
 2580              	.LFE145:
 2581              		.size	usb_lld_get_status_out, .-usb_lld_get_status_out
 2582 001a 00BFAFF3 		.section	.text.usb_lld_get_status_in,"ax",%progbits
 2582      0080
 2583              		.align	2
 2584              		.p2align 4,,15
 2585              		.global	usb_lld_get_status_in
 2586              		.thumb
 2587              		.thumb_func
 2588              		.type	usb_lld_get_status_in, %function
 2589              	usb_lld_get_status_in:
 2590              	.LFB146:
 2591              		.loc 1 1141 0
 2592              		.cfi_startproc
 2593              		@ args = 0, pretend = 0, frame = 0
 2594              		@ frame_needed = 0, uses_anonymous_args = 0
 2595              		@ link register save eliminated.
 2596              	.LVL263:
 2597              		.loc 1 1146 0
 2598 0000 4831     		adds	r1, r1, #72
 2599              	.LVL264:
 2600 0002 C36B     		ldr	r3, [r0, #60]
 2601 0004 4901     		lsls	r1, r1, #5
 2602 0006 5A58     		ldr	r2, [r3, r1]
 2603              	.LVL265:
 2604              		.loc 1 1147 0
 2605 0008 12F40040 		ands	r0, r2, #32768
 2606              	.LVL266:
 2607 000c 04D0     		beq	.L382
 2608              		.loc 1 1149 0
ARM GAS  /tmp/cc3IGbAH.s 			page 47


 2609 000e 12F4001F 		tst	r2, #2097152
 2610              		.loc 1 1150 0
 2611 0012 0CBF     		ite	eq
 2612 0014 0220     		moveq	r0, #2
 2613 0016 0120     		movne	r0, #1
 2614              	.L382:
 2615              		.loc 1 1152 0
 2616 0018 7047     		bx	lr
 2617              		.cfi_endproc
 2618              	.LFE146:
 2619              		.size	usb_lld_get_status_in, .-usb_lld_get_status_in
 2620 001a 00BFAFF3 		.section	.text.usb_lld_read_setup,"ax",%progbits
 2620      0080
 2621              		.align	2
 2622              		.p2align 4,,15
 2623              		.global	usb_lld_read_setup
 2624              		.thumb
 2625              		.thumb_func
 2626              		.type	usb_lld_read_setup, %function
 2627              	usb_lld_read_setup:
 2628              	.LFB147:
 2629              		.loc 1 1168 0
 2630              		.cfi_startproc
 2631              		@ args = 0, pretend = 0, frame = 0
 2632              		@ frame_needed = 0, uses_anonymous_args = 0
 2633              		@ link register save eliminated.
 2634              	.LVL267:
 2635              		.loc 1 1170 0
 2636 0000 0431     		adds	r1, r1, #4
 2637              	.LVL268:
 2638 0002 50F82130 		ldr	r3, [r0, r1, lsl #2]
 2639 0006 186A     		ldr	r0, [r3, #32]
 2640              	.LVL269:
 2641 0008 0168     		ldr	r1, [r0, #0]	@ unaligned
 2642 000a 4368     		ldr	r3, [r0, #4]	@ unaligned
 2643 000c 1160     		str	r1, [r2, #0]	@ unaligned
 2644 000e 5360     		str	r3, [r2, #4]	@ unaligned
 2645 0010 7047     		bx	lr
 2646              		.cfi_endproc
 2647              	.LFE147:
 2648              		.size	usb_lld_read_setup, .-usb_lld_read_setup
 2649 0012 00BFAFF3 		.section	.text.usb_lld_prepare_receive,"ax",%progbits
 2649      0080AFF3 
 2649      0080AFF3 
 2649      0080
 2650              		.align	2
 2651              		.p2align 4,,15
 2652              		.global	usb_lld_prepare_receive
 2653              		.thumb
 2654              		.thumb_func
 2655              		.type	usb_lld_prepare_receive, %function
 2656              	usb_lld_prepare_receive:
 2657              	.LFB148:
 2658              		.loc 1 1181 0
 2659              		.cfi_startproc
 2660              		@ args = 0, pretend = 0, frame = 0
 2661              		@ frame_needed = 0, uses_anonymous_args = 0
ARM GAS  /tmp/cc3IGbAH.s 			page 48


 2662              		@ link register save eliminated.
 2663              	.LVL270:
 2664              		.loc 1 1183 0
 2665 0000 0B1D     		adds	r3, r1, #4
 2666              		.loc 1 1181 0
 2667 0002 10B4     		push	{r4}
 2668              	.LCFI11:
 2669              		.cfi_def_cfa_offset 4
 2670              		.cfi_offset 4, -4
 2671              		.loc 1 1188 0
 2672 0004 C46B     		ldr	r4, [r0, #60]
 2673              		.loc 1 1183 0
 2674 0006 50F82300 		ldr	r0, [r0, r3, lsl #2]
 2675              	.LVL271:
 2676              		.loc 1 1186 0
 2677 000a 8269     		ldr	r2, [r0, #24]
 2678 000c 438A     		ldrh	r3, [r0, #18]
 2679              	.LVL272:
 2680 000e 5068     		ldr	r0, [r2, #4]
 2681              	.LVL273:
 2682 0010 421E     		subs	r2, r0, #1
 2683              	.LVL274:
 2684 0012 D018     		adds	r0, r2, r3
 2685              		.loc 1 1188 0
 2686 0014 04EB4111 		add	r1, r4, r1, lsl #5
 2687              	.LVL275:
 2688 0018 43F0C042 		orr	r2, r3, #1610612736
 2689              		.loc 1 1186 0
 2690 001c B0FBF3F3 		udiv	r3, r0, r3
 2691              		.loc 1 1188 0
 2692 0020 42EAC340 		orr	r0, r2, r3, lsl #19
 2693 0024 C1F8100B 		str	r0, [r1, #2832]
 2694              		.loc 1 1191 0
 2695 0028 10BC     		pop	{r4}
 2696 002a 7047     		bx	lr
 2697              		.cfi_endproc
 2698              	.LFE148:
 2699              		.size	usb_lld_prepare_receive, .-usb_lld_prepare_receive
 2700 002c AFF30080 		.section	.text.usb_lld_prepare_transmit,"ax",%progbits
 2701              		.align	2
 2702              		.p2align 4,,15
 2703              		.global	usb_lld_prepare_transmit
 2704              		.thumb
 2705              		.thumb_func
 2706              		.type	usb_lld_prepare_transmit, %function
 2707              	usb_lld_prepare_transmit:
 2708              	.LFB149:
 2709              		.loc 1 1201 0
 2710              		.cfi_startproc
 2711              		@ args = 0, pretend = 0, frame = 0
 2712              		@ frame_needed = 0, uses_anonymous_args = 0
 2713              		@ link register save eliminated.
 2714              	.LVL276:
 2715              		.loc 1 1202 0
 2716 0000 0B1D     		adds	r3, r1, #4
 2717              		.loc 1 1201 0
 2718 0002 10B4     		push	{r4}
ARM GAS  /tmp/cc3IGbAH.s 			page 49


 2719              	.LCFI12:
 2720              		.cfi_def_cfa_offset 4
 2721              		.cfi_offset 4, -4
 2722              		.loc 1 1202 0
 2723 0004 50F82320 		ldr	r2, [r0, r3, lsl #2]
 2724              	.LVL277:
 2725              		.loc 1 1205 0
 2726 0008 5369     		ldr	r3, [r2, #20]
 2727 000a 5B68     		ldr	r3, [r3, #4]
 2728 000c 6BB1     		cbz	r3, .L390
 2729              	.LBB219:
 2730              		.loc 1 1211 0
 2731 000e 128A     		ldrh	r2, [r2, #16]
 2732              	.LVL278:
 2733              		.loc 1 1213 0
 2734 0010 C06B     		ldr	r0, [r0, #60]
 2735              	.LVL279:
 2736              		.loc 1 1211 0
 2737 0012 5C1E     		subs	r4, r3, #1
 2738 0014 A418     		adds	r4, r4, r2
 2739 0016 B4FBF2F2 		udiv	r2, r4, r2
 2740              	.LVL280:
 2741              		.loc 1 1213 0
 2742 001a 00EB4111 		add	r1, r0, r1, lsl #5
 2743              	.LVL281:
 2744 001e 43EAC243 		orr	r3, r3, r2, lsl #19
 2745 0022 C1F81039 		str	r3, [r1, #2320]
 2746              	.L387:
 2747              	.LBE219:
 2748              		.loc 1 1217 0
 2749 0026 10BC     		pop	{r4}
 2750 0028 7047     		bx	lr
 2751              	.LVL282:
 2752              	.L390:
 2753              		.loc 1 1207 0
 2754 002a C06B     		ldr	r0, [r0, #60]
 2755              	.LVL283:
 2756 002c 00EB4112 		add	r2, r0, r1, lsl #5
 2757              	.LVL284:
 2758 0030 4FF40021 		mov	r1, #524288
 2759              	.LVL285:
 2760 0034 C2F81019 		str	r1, [r2, #2320]
 2761 0038 F5E7     		b	.L387
 2762              		.cfi_endproc
 2763              	.LFE149:
 2764              		.size	usb_lld_prepare_transmit, .-usb_lld_prepare_transmit
 2765 003a 00BFAFF3 		.section	.text.usb_lld_start_out,"ax",%progbits
 2765      0080
 2766              		.align	2
 2767              		.p2align 4,,15
 2768              		.global	usb_lld_start_out
 2769              		.thumb
 2770              		.thumb_func
 2771              		.type	usb_lld_start_out, %function
 2772              	usb_lld_start_out:
 2773              	.LFB150:
 2774              		.loc 1 1227 0
ARM GAS  /tmp/cc3IGbAH.s 			page 50


 2775              		.cfi_startproc
 2776              		@ args = 0, pretend = 0, frame = 0
 2777              		@ frame_needed = 0, uses_anonymous_args = 0
 2778              		@ link register save eliminated.
 2779              	.LVL286:
 2780              		.loc 1 1229 0
 2781 0000 5831     		adds	r1, r1, #88
 2782              	.LVL287:
 2783 0002 C36B     		ldr	r3, [r0, #60]
 2784 0004 4901     		lsls	r1, r1, #5
 2785 0006 5A58     		ldr	r2, [r3, r1]
 2786 0008 42F08060 		orr	r0, r2, #67108864
 2787              	.LVL288:
 2788 000c 5850     		str	r0, [r3, r1]
 2789 000e 7047     		bx	lr
 2790              		.cfi_endproc
 2791              	.LFE150:
 2792              		.size	usb_lld_start_out, .-usb_lld_start_out
 2793              		.section	.text.usb_lld_start_in,"ax",%progbits
 2794              		.align	2
 2795              		.p2align 4,,15
 2796              		.global	usb_lld_start_in
 2797              		.thumb
 2798              		.thumb_func
 2799              		.type	usb_lld_start_in, %function
 2800              	usb_lld_start_in:
 2801              	.LFB151:
 2802              		.loc 1 1240 0
 2803              		.cfi_startproc
 2804              		@ args = 0, pretend = 0, frame = 0
 2805              		@ frame_needed = 0, uses_anonymous_args = 0
 2806              		@ link register save eliminated.
 2807              	.LVL289:
 2808              		.loc 1 1242 0
 2809 0000 01F14802 		add	r2, r1, #72
 2810 0004 C36B     		ldr	r3, [r0, #60]
 2811 0006 5201     		lsls	r2, r2, #5
 2812 0008 9858     		ldr	r0, [r3, r2]
 2813              	.LVL290:
 2814 000a 40F00440 		orr	r0, r0, #-2080374784
 2815 000e 9850     		str	r0, [r3, r2]
 2816              		.loc 1 1243 0
 2817 0010 0120     		movs	r0, #1
 2818 0012 D3F83428 		ldr	r2, [r3, #2100]
 2819 0016 00FA01F1 		lsl	r1, r0, r1
 2820              	.LVL291:
 2821 001a 1143     		orrs	r1, r1, r2
 2822 001c C3F83418 		str	r1, [r3, #2100]
 2823 0020 7047     		bx	lr
 2824              		.cfi_endproc
 2825              	.LFE151:
 2826              		.size	usb_lld_start_in, .-usb_lld_start_in
 2827 0022 00BFAFF3 		.section	.text.usb_lld_stall_out,"ax",%progbits
 2827      0080AFF3 
 2827      0080AFF3 
 2827      0080
 2828              		.align	2
ARM GAS  /tmp/cc3IGbAH.s 			page 51


 2829              		.p2align 4,,15
 2830              		.global	usb_lld_stall_out
 2831              		.thumb
 2832              		.thumb_func
 2833              		.type	usb_lld_stall_out, %function
 2834              	usb_lld_stall_out:
 2835              	.LFB152:
 2836              		.loc 1 1254 0
 2837              		.cfi_startproc
 2838              		@ args = 0, pretend = 0, frame = 0
 2839              		@ frame_needed = 0, uses_anonymous_args = 0
 2840              		@ link register save eliminated.
 2841              	.LVL292:
 2842              		.loc 1 1256 0
 2843 0000 5831     		adds	r1, r1, #88
 2844              	.LVL293:
 2845 0002 C36B     		ldr	r3, [r0, #60]
 2846 0004 4901     		lsls	r1, r1, #5
 2847 0006 5A58     		ldr	r2, [r3, r1]
 2848 0008 42F40010 		orr	r0, r2, #2097152
 2849              	.LVL294:
 2850 000c 5850     		str	r0, [r3, r1]
 2851 000e 7047     		bx	lr
 2852              		.cfi_endproc
 2853              	.LFE152:
 2854              		.size	usb_lld_stall_out, .-usb_lld_stall_out
 2855              		.section	.text.usb_lld_stall_in,"ax",%progbits
 2856              		.align	2
 2857              		.p2align 4,,15
 2858              		.global	usb_lld_stall_in
 2859              		.thumb
 2860              		.thumb_func
 2861              		.type	usb_lld_stall_in, %function
 2862              	usb_lld_stall_in:
 2863              	.LFB153:
 2864              		.loc 1 1267 0
 2865              		.cfi_startproc
 2866              		@ args = 0, pretend = 0, frame = 0
 2867              		@ frame_needed = 0, uses_anonymous_args = 0
 2868              		@ link register save eliminated.
 2869              	.LVL295:
 2870              		.loc 1 1269 0
 2871 0000 4831     		adds	r1, r1, #72
 2872              	.LVL296:
 2873 0002 C36B     		ldr	r3, [r0, #60]
 2874 0004 4901     		lsls	r1, r1, #5
 2875 0006 5A58     		ldr	r2, [r3, r1]
 2876 0008 42F40010 		orr	r0, r2, #2097152
 2877              	.LVL297:
 2878 000c 5850     		str	r0, [r3, r1]
 2879 000e 7047     		bx	lr
 2880              		.cfi_endproc
 2881              	.LFE153:
 2882              		.size	usb_lld_stall_in, .-usb_lld_stall_in
 2883              		.section	.text.usb_lld_clear_out,"ax",%progbits
 2884              		.align	2
 2885              		.p2align 4,,15
ARM GAS  /tmp/cc3IGbAH.s 			page 52


 2886              		.global	usb_lld_clear_out
 2887              		.thumb
 2888              		.thumb_func
 2889              		.type	usb_lld_clear_out, %function
 2890              	usb_lld_clear_out:
 2891              	.LFB154:
 2892              		.loc 1 1280 0
 2893              		.cfi_startproc
 2894              		@ args = 0, pretend = 0, frame = 0
 2895              		@ frame_needed = 0, uses_anonymous_args = 0
 2896              		@ link register save eliminated.
 2897              	.LVL298:
 2898              		.loc 1 1282 0
 2899 0000 5831     		adds	r1, r1, #88
 2900              	.LVL299:
 2901 0002 C36B     		ldr	r3, [r0, #60]
 2902 0004 4901     		lsls	r1, r1, #5
 2903 0006 5A58     		ldr	r2, [r3, r1]
 2904 0008 22F40010 		bic	r0, r2, #2097152
 2905              	.LVL300:
 2906 000c 5850     		str	r0, [r3, r1]
 2907 000e 7047     		bx	lr
 2908              		.cfi_endproc
 2909              	.LFE154:
 2910              		.size	usb_lld_clear_out, .-usb_lld_clear_out
 2911              		.section	.text.usb_lld_clear_in,"ax",%progbits
 2912              		.align	2
 2913              		.p2align 4,,15
 2914              		.global	usb_lld_clear_in
 2915              		.thumb
 2916              		.thumb_func
 2917              		.type	usb_lld_clear_in, %function
 2918              	usb_lld_clear_in:
 2919              	.LFB155:
 2920              		.loc 1 1293 0
 2921              		.cfi_startproc
 2922              		@ args = 0, pretend = 0, frame = 0
 2923              		@ frame_needed = 0, uses_anonymous_args = 0
 2924              		@ link register save eliminated.
 2925              	.LVL301:
 2926              		.loc 1 1295 0
 2927 0000 4831     		adds	r1, r1, #72
 2928              	.LVL302:
 2929 0002 C36B     		ldr	r3, [r0, #60]
 2930 0004 4901     		lsls	r1, r1, #5
 2931 0006 5A58     		ldr	r2, [r3, r1]
 2932 0008 22F40010 		bic	r0, r2, #2097152
 2933              	.LVL303:
 2934 000c 5850     		str	r0, [r3, r1]
 2935 000e 7047     		bx	lr
 2936              		.cfi_endproc
 2937              	.LFE155:
 2938              		.size	usb_lld_clear_in, .-usb_lld_clear_in
 2939              		.global	USBD1
 2940              		.section	.rodata.fsparams,"a",%progbits
 2941              		.align	2
 2942              		.set	.LANCHOR1,. + 0
ARM GAS  /tmp/cc3IGbAH.s 			page 53


 2943              		.type	fsparams, %object
 2944              		.size	fsparams, 12
 2945              	fsparams:
 2946 0000 80000000 		.word	128
 2947 0004 80010000 		.word	384
 2948 0008 03000000 		.word	3
 2949              		.section	.bss.USBD1,"aw",%nobits
 2950              		.align	3
 2951              		.set	.LANCHOR0,. + 0
 2952              		.type	USBD1, %object
 2953              		.size	USBD1, 392
 2954              	USBD1:
 2955 0000 00000000 		.space	392
 2955      00000000 
 2955      00000000 
 2955      00000000 
 2955      00000000 
 2956              		.section	.rodata.str1.4,"aMS",%progbits,1
 2957              		.align	2
 2958              	.LC0:
 2959 0000 7573625F 		.ascii	"usb_lld_pump\000"
 2959      6C6C645F 
 2959      70756D70 
 2959      00
 2960 000d 000000   		.section	.rodata.ep0config,"a",%progbits
 2961              		.align	2
 2962              		.set	.LANCHOR2,. + 0
 2963              		.type	ep0config, %object
 2964              		.size	ep0config, 36
 2965              	ep0config:
 2966 0000 00000000 		.word	0
 2967 0004 00000000 		.word	_usb_ep0setup
 2968 0008 00000000 		.word	_usb_ep0in
 2969 000c 00000000 		.word	_usb_ep0out
 2970 0010 4000     		.short	64
 2971 0012 4000     		.short	64
 2972 0014 00000000 		.word	ep0_state
 2973 0018 00000000 		.word	ep0_state
 2974 001c 0100     		.short	1
 2975 001e 0000     		.space	2
 2976 0020 00000000 		.word	ep0setup_buffer
 2977              		.section	.bss.ep0_state,"aw",%nobits
 2978              		.align	2
 2979              		.type	ep0_state, %object
 2980              		.size	ep0_state, 16
 2981              	ep0_state:
 2982 0000 00000000 		.space	16
 2982      00000000 
 2982      00000000 
 2982      00000000 
 2983              		.section	.bss.ep0setup_buffer,"aw",%nobits
 2984              		.align	2
 2985              		.type	ep0setup_buffer, %object
 2986              		.size	ep0setup_buffer, 8
 2987              	ep0setup_buffer:
 2988 0000 00000000 		.space	8
 2988      00000000 
ARM GAS  /tmp/cc3IGbAH.s 			page 54


 2989              		.text
 2990              	.Letext0:
 2991              		.file 3 "/usr/bin/../lib/gcc/arm-none-eabi/4.7.4/include/stddef.h"
 2992              		.file 4 "/usr/bin/../lib/gcc/arm-none-eabi/4.7.4/../../../../arm-none-eabi/include/stdint.h"
 2993              		.file 5 "../../os/ports/GCC/ARMCMx/chtypes.h"
 2994              		.file 6 "../../os/kernel/include/chlists.h"
 2995              		.file 7 "../../os/kernel/include/chthreads.h"
 2996              		.file 8 "../../os/ports/GCC/ARMCMx/chcore_v7m.h"
 2997              		.file 9 "../../os/kernel/include/chschd.h"
 2998              		.file 10 "../../os/kernel/include/chmtx.h"
 2999              		.file 11 "../../os/kernel/include/chqueues.h"
 3000              		.file 12 "../../os/hal/platforms/STM32F4xx/stm32f4xx.h"
 3001              		.file 13 "../../os/hal/platforms/STM32F4xx/hal_lld.h"
 3002              		.file 14 "../../os/hal/include/usb.h"
 3003              		.file 15 "../../os/hal/platforms/STM32/OTGv1/usb_lld.h"
 3004              		.file 16 "../../os/hal/platforms/STM32/OTGv1/stm32_otg.h"
 3005              		.file 17 "../../os/ports/common/ARMCMx/CMSIS/include/core_cm4.h"
 3006              		.file 18 "../../os/hal/include/hal.h"
 3007              		.file 19 "../../os/ports/common/ARMCMx/nvic.h"
 3008              		.section	.debug_info,"",%progbits
 3009              	.Ldebug_info0:
 3010 0000 80290000 		.4byte	0x2980
 3011 0004 0200     		.2byte	0x2
 3012 0006 00000000 		.4byte	.Ldebug_abbrev0
 3013 000a 04       		.byte	0x4
 3014 000b 01       		.uleb128 0x1
 3015 000c 8C010000 		.4byte	.LASF429
 3016 0010 01       		.byte	0x1
 3017 0011 86100000 		.4byte	.LASF430
 3018 0015 DD080000 		.4byte	.LASF431
 3019 0019 58030000 		.4byte	.Ldebug_ranges0+0x358
 3020 001d 00000000 		.4byte	0
 3021 0021 00000000 		.4byte	0
 3022 0025 00000000 		.4byte	.Ldebug_line0
 3023 0029 02       		.uleb128 0x2
 3024 002a 04       		.byte	0x4
 3025 002b 07       		.byte	0x7
 3026 002c 480B0000 		.4byte	.LASF0
 3027 0030 02       		.uleb128 0x2
 3028 0031 01       		.byte	0x1
 3029 0032 06       		.byte	0x6
 3030 0033 AC030000 		.4byte	.LASF1
 3031 0037 02       		.uleb128 0x2
 3032 0038 01       		.byte	0x1
 3033 0039 08       		.byte	0x8
 3034 003a 59040000 		.4byte	.LASF2
 3035 003e 02       		.uleb128 0x2
 3036 003f 02       		.byte	0x2
 3037 0040 05       		.byte	0x5
 3038 0041 E30F0000 		.4byte	.LASF3
 3039 0045 02       		.uleb128 0x2
 3040 0046 02       		.byte	0x2
 3041 0047 07       		.byte	0x7
 3042 0048 50120000 		.4byte	.LASF4
 3043 004c 03       		.uleb128 0x3
 3044 004d 04       		.byte	0x4
 3045 004e 05       		.byte	0x5
ARM GAS  /tmp/cc3IGbAH.s 			page 55


 3046 004f 696E7400 		.ascii	"int\000"
 3047 0053 02       		.uleb128 0x2
 3048 0054 08       		.byte	0x8
 3049 0055 05       		.byte	0x5
 3050 0056 2D0A0000 		.4byte	.LASF5
 3051 005a 02       		.uleb128 0x2
 3052 005b 08       		.byte	0x8
 3053 005c 07       		.byte	0x7
 3054 005d 9B0D0000 		.4byte	.LASF6
 3055 0061 02       		.uleb128 0x2
 3056 0062 04       		.byte	0x4
 3057 0063 05       		.byte	0x5
 3058 0064 9F020000 		.4byte	.LASF7
 3059 0068 02       		.uleb128 0x2
 3060 0069 04       		.byte	0x4
 3061 006a 07       		.byte	0x7
 3062 006b 1A000000 		.4byte	.LASF8
 3063 006f 04       		.uleb128 0x4
 3064 0070 04       		.byte	0x4
 3065 0071 02       		.uleb128 0x2
 3066 0072 04       		.byte	0x4
 3067 0073 07       		.byte	0x7
 3068 0074 28080000 		.4byte	.LASF9
 3069 0078 02       		.uleb128 0x2
 3070 0079 01       		.byte	0x1
 3071 007a 08       		.byte	0x8
 3072 007b 60050000 		.4byte	.LASF10
 3073 007f 05       		.uleb128 0x5
 3074 0080 04       		.byte	0x4
 3075 0081 85000000 		.4byte	0x85
 3076 0085 06       		.uleb128 0x6
 3077 0086 78000000 		.4byte	0x78
 3078 008a 07       		.uleb128 0x7
 3079 008b 00000000 		.4byte	.LASF11
 3080 008f 03       		.byte	0x3
 3081 0090 D5       		.byte	0xd5
 3082 0091 29000000 		.4byte	0x29
 3083 0095 07       		.uleb128 0x7
 3084 0096 C2030000 		.4byte	.LASF12
 3085 009a 04       		.byte	0x4
 3086 009b 2A       		.byte	0x2a
 3087 009c 37000000 		.4byte	0x37
 3088 00a0 07       		.uleb128 0x7
 3089 00a1 DD0D0000 		.4byte	.LASF13
 3090 00a5 04       		.byte	0x4
 3091 00a6 36       		.byte	0x36
 3092 00a7 45000000 		.4byte	0x45
 3093 00ab 07       		.uleb128 0x7
 3094 00ac 57000000 		.4byte	.LASF14
 3095 00b0 04       		.byte	0x4
 3096 00b1 4F       		.byte	0x4f
 3097 00b2 61000000 		.4byte	0x61
 3098 00b6 07       		.uleb128 0x7
 3099 00b7 DC110000 		.4byte	.LASF15
 3100 00bb 04       		.byte	0x4
 3101 00bc 50       		.byte	0x50
 3102 00bd 71000000 		.4byte	0x71
ARM GAS  /tmp/cc3IGbAH.s 			page 56


 3103 00c1 07       		.uleb128 0x7
 3104 00c2 FA0F0000 		.4byte	.LASF16
 3105 00c6 04       		.byte	0x4
 3106 00c7 78       		.byte	0x78
 3107 00c8 5A000000 		.4byte	0x5a
 3108 00cc 07       		.uleb128 0x7
 3109 00cd D8100000 		.4byte	.LASF17
 3110 00d1 05       		.byte	0x5
 3111 00d2 27       		.byte	0x27
 3112 00d3 AB000000 		.4byte	0xab
 3113 00d7 07       		.uleb128 0x7
 3114 00d8 2A0F0000 		.4byte	.LASF18
 3115 00dc 05       		.byte	0x5
 3116 00dd 28       		.byte	0x28
 3117 00de 95000000 		.4byte	0x95
 3118 00e2 07       		.uleb128 0x7
 3119 00e3 D0020000 		.4byte	.LASF19
 3120 00e7 05       		.byte	0x5
 3121 00e8 29       		.byte	0x29
 3122 00e9 95000000 		.4byte	0x95
 3123 00ed 07       		.uleb128 0x7
 3124 00ee 7B110000 		.4byte	.LASF20
 3125 00f2 05       		.byte	0x5
 3126 00f3 2A       		.byte	0x2a
 3127 00f4 95000000 		.4byte	0x95
 3128 00f8 07       		.uleb128 0x7
 3129 00f9 380E0000 		.4byte	.LASF21
 3130 00fd 05       		.byte	0x5
 3131 00fe 2B       		.byte	0x2b
 3132 00ff 95000000 		.4byte	0x95
 3133 0103 07       		.uleb128 0x7
 3134 0104 3E000000 		.4byte	.LASF22
 3135 0108 05       		.byte	0x5
 3136 0109 2C       		.byte	0x2c
 3137 010a B6000000 		.4byte	0xb6
 3138 010e 07       		.uleb128 0x7
 3139 010f F30D0000 		.4byte	.LASF23
 3140 0113 05       		.byte	0x5
 3141 0114 2D       		.byte	0x2d
 3142 0115 AB000000 		.4byte	0xab
 3143 0119 07       		.uleb128 0x7
 3144 011a 03040000 		.4byte	.LASF24
 3145 011e 05       		.byte	0x5
 3146 011f 2F       		.byte	0x2f
 3147 0120 B6000000 		.4byte	0xb6
 3148 0124 07       		.uleb128 0x7
 3149 0125 23000000 		.4byte	.LASF25
 3150 0129 05       		.byte	0x5
 3151 012a 31       		.byte	0x31
 3152 012b B6000000 		.4byte	0xb6
 3153 012f 07       		.uleb128 0x7
 3154 0130 0D110000 		.4byte	.LASF26
 3155 0134 06       		.byte	0x6
 3156 0135 23       		.byte	0x23
 3157 0136 3A010000 		.4byte	0x13a
 3158 013a 08       		.uleb128 0x8
 3159 013b 0D110000 		.4byte	.LASF26
ARM GAS  /tmp/cc3IGbAH.s 			page 57


 3160 013f 48       		.byte	0x48
 3161 0140 07       		.byte	0x7
 3162 0141 57       		.byte	0x57
 3163 0142 5F020000 		.4byte	0x25f
 3164 0146 09       		.uleb128 0x9
 3165 0147 A8020000 		.4byte	.LASF27
 3166 014b 07       		.byte	0x7
 3167 014c 58       		.byte	0x58
 3168 014d 84020000 		.4byte	0x284
 3169 0151 02       		.byte	0x2
 3170 0152 23       		.byte	0x23
 3171 0153 00       		.uleb128 0
 3172 0154 09       		.uleb128 0x9
 3173 0155 B7020000 		.4byte	.LASF28
 3174 0159 07       		.byte	0x7
 3175 015a 5A       		.byte	0x5a
 3176 015b 84020000 		.4byte	0x284
 3177 015f 02       		.byte	0x2
 3178 0160 23       		.byte	0x23
 3179 0161 04       		.uleb128 0x4
 3180 0162 09       		.uleb128 0x9
 3181 0163 78050000 		.4byte	.LASF29
 3182 0167 07       		.byte	0x7
 3183 0168 5C       		.byte	0x5c
 3184 0169 03010000 		.4byte	0x103
 3185 016d 02       		.byte	0x2
 3186 016e 23       		.byte	0x23
 3187 016f 08       		.uleb128 0x8
 3188 0170 09       		.uleb128 0x9
 3189 0171 38000000 		.4byte	.LASF30
 3190 0175 07       		.byte	0x7
 3191 0176 5D       		.byte	0x5d
 3192 0177 5B030000 		.4byte	0x35b
 3193 017b 02       		.byte	0x2
 3194 017c 23       		.byte	0x23
 3195 017d 0C       		.uleb128 0xc
 3196 017e 09       		.uleb128 0x9
 3197 017f 92020000 		.4byte	.LASF31
 3198 0183 07       		.byte	0x7
 3199 0184 5F       		.byte	0x5f
 3200 0185 84020000 		.4byte	0x284
 3201 0189 02       		.byte	0x2
 3202 018a 23       		.byte	0x23
 3203 018b 10       		.uleb128 0x10
 3204 018c 09       		.uleb128 0x9
 3205 018d D50D0000 		.4byte	.LASF32
 3206 0191 07       		.byte	0x7
 3207 0192 60       		.byte	0x60
 3208 0193 84020000 		.4byte	0x284
 3209 0197 02       		.byte	0x2
 3210 0198 23       		.byte	0x23
 3211 0199 14       		.uleb128 0x14
 3212 019a 09       		.uleb128 0x9
 3213 019b 55130000 		.4byte	.LASF33
 3214 019f 07       		.byte	0x7
 3215 01a0 67       		.byte	0x67
 3216 01a1 7F000000 		.4byte	0x7f
ARM GAS  /tmp/cc3IGbAH.s 			page 58


 3217 01a5 02       		.byte	0x2
 3218 01a6 23       		.byte	0x23
 3219 01a7 18       		.uleb128 0x18
 3220 01a8 09       		.uleb128 0x9
 3221 01a9 EB130000 		.4byte	.LASF34
 3222 01ad 07       		.byte	0x7
 3223 01ae 72       		.byte	0x72
 3224 01af E2000000 		.4byte	0xe2
 3225 01b3 02       		.byte	0x2
 3226 01b4 23       		.byte	0x23
 3227 01b5 1C       		.uleb128 0x1c
 3228 01b6 09       		.uleb128 0x9
 3229 01b7 310B0000 		.4byte	.LASF35
 3230 01bb 07       		.byte	0x7
 3231 01bc 76       		.byte	0x76
 3232 01bd D7000000 		.4byte	0xd7
 3233 01c1 02       		.byte	0x2
 3234 01c2 23       		.byte	0x23
 3235 01c3 1D       		.uleb128 0x1d
 3236 01c4 09       		.uleb128 0x9
 3237 01c5 C00B0000 		.4byte	.LASF36
 3238 01c9 07       		.byte	0x7
 3239 01ca 7B       		.byte	0x7b
 3240 01cb ED000000 		.4byte	0xed
 3241 01cf 02       		.byte	0x2
 3242 01d0 23       		.byte	0x23
 3243 01d1 1E       		.uleb128 0x1e
 3244 01d2 09       		.uleb128 0x9
 3245 01d3 B8030000 		.4byte	.LASF37
 3246 01d7 07       		.byte	0x7
 3247 01d8 81       		.byte	0x81
 3248 01d9 F8000000 		.4byte	0xf8
 3249 01dd 02       		.byte	0x2
 3250 01de 23       		.byte	0x23
 3251 01df 1F       		.uleb128 0x1f
 3252 01e0 09       		.uleb128 0x9
 3253 01e1 950C0000 		.4byte	.LASF38
 3254 01e5 07       		.byte	0x7
 3255 01e6 88       		.byte	0x88
 3256 01e7 83030000 		.4byte	0x383
 3257 01eb 02       		.byte	0x2
 3258 01ec 23       		.byte	0x23
 3259 01ed 20       		.uleb128 0x20
 3260 01ee 0A       		.uleb128 0xa
 3261 01ef 705F7500 		.ascii	"p_u\000"
 3262 01f3 07       		.byte	0x7
 3263 01f4 AD       		.byte	0xad
 3264 01f5 38040000 		.4byte	0x438
 3265 01f9 02       		.byte	0x2
 3266 01fa 23       		.byte	0x23
 3267 01fb 24       		.uleb128 0x24
 3268 01fc 09       		.uleb128 0x9
 3269 01fd 160B0000 		.4byte	.LASF39
 3270 0201 07       		.byte	0x7
 3271 0202 B2       		.byte	0xb2
 3272 0203 AC020000 		.4byte	0x2ac
 3273 0207 02       		.byte	0x2
ARM GAS  /tmp/cc3IGbAH.s 			page 59


 3274 0208 23       		.byte	0x23
 3275 0209 28       		.uleb128 0x28
 3276 020a 09       		.uleb128 0x9
 3277 020b 46000000 		.4byte	.LASF40
 3278 020f 07       		.byte	0x7
 3279 0210 B8       		.byte	0xb8
 3280 0211 8A020000 		.4byte	0x28a
 3281 0215 02       		.byte	0x2
 3282 0216 23       		.byte	0x23
 3283 0217 2C       		.uleb128 0x2c
 3284 0218 09       		.uleb128 0x9
 3285 0219 C8130000 		.4byte	.LASF41
 3286 021d 07       		.byte	0x7
 3287 021e BC       		.byte	0xbc
 3288 021f 0E010000 		.4byte	0x10e
 3289 0223 02       		.byte	0x2
 3290 0224 23       		.byte	0x23
 3291 0225 34       		.uleb128 0x34
 3292 0226 09       		.uleb128 0x9
 3293 0227 E1060000 		.4byte	.LASF42
 3294 022b 07       		.byte	0x7
 3295 022c C2       		.byte	0xc2
 3296 022d 19010000 		.4byte	0x119
 3297 0231 02       		.byte	0x2
 3298 0232 23       		.byte	0x23
 3299 0233 38       		.uleb128 0x38
 3300 0234 09       		.uleb128 0x9
 3301 0235 E5020000 		.4byte	.LASF43
 3302 0239 07       		.byte	0x7
 3303 023a C9       		.byte	0xc9
 3304 023b 6D040000 		.4byte	0x46d
 3305 023f 02       		.byte	0x2
 3306 0240 23       		.byte	0x23
 3307 0241 3C       		.uleb128 0x3c
 3308 0242 09       		.uleb128 0x9
 3309 0243 FB0C0000 		.4byte	.LASF44
 3310 0247 07       		.byte	0x7
 3311 0248 CD       		.byte	0xcd
 3312 0249 03010000 		.4byte	0x103
 3313 024d 02       		.byte	0x2
 3314 024e 23       		.byte	0x23
 3315 024f 40       		.uleb128 0x40
 3316 0250 09       		.uleb128 0x9
 3317 0251 8E0B0000 		.4byte	.LASF45
 3318 0255 07       		.byte	0x7
 3319 0256 D3       		.byte	0xd3
 3320 0257 6F000000 		.4byte	0x6f
 3321 025b 02       		.byte	0x2
 3322 025c 23       		.byte	0x23
 3323 025d 44       		.uleb128 0x44
 3324 025e 00       		.byte	0
 3325 025f 0B       		.uleb128 0xb
 3326 0260 08       		.byte	0x8
 3327 0261 06       		.byte	0x6
 3328 0262 5A       		.byte	0x5a
 3329 0263 84020000 		.4byte	0x284
 3330 0267 09       		.uleb128 0x9
ARM GAS  /tmp/cc3IGbAH.s 			page 60


 3331 0268 A8020000 		.4byte	.LASF27
 3332 026c 06       		.byte	0x6
 3333 026d 5B       		.byte	0x5b
 3334 026e 84020000 		.4byte	0x284
 3335 0272 02       		.byte	0x2
 3336 0273 23       		.byte	0x23
 3337 0274 00       		.uleb128 0
 3338 0275 09       		.uleb128 0x9
 3339 0276 B7020000 		.4byte	.LASF28
 3340 027a 06       		.byte	0x6
 3341 027b 5D       		.byte	0x5d
 3342 027c 84020000 		.4byte	0x284
 3343 0280 02       		.byte	0x2
 3344 0281 23       		.byte	0x23
 3345 0282 04       		.uleb128 0x4
 3346 0283 00       		.byte	0
 3347 0284 05       		.uleb128 0x5
 3348 0285 04       		.byte	0x4
 3349 0286 2F010000 		.4byte	0x12f
 3350 028a 07       		.uleb128 0x7
 3351 028b FB110000 		.4byte	.LASF46
 3352 028f 06       		.byte	0x6
 3353 0290 5F       		.byte	0x5f
 3354 0291 5F020000 		.4byte	0x25f
 3355 0295 0B       		.uleb128 0xb
 3356 0296 04       		.byte	0x4
 3357 0297 06       		.byte	0x6
 3358 0298 64       		.byte	0x64
 3359 0299 AC020000 		.4byte	0x2ac
 3360 029d 09       		.uleb128 0x9
 3361 029e A8020000 		.4byte	.LASF27
 3362 02a2 06       		.byte	0x6
 3363 02a3 66       		.byte	0x66
 3364 02a4 84020000 		.4byte	0x284
 3365 02a8 02       		.byte	0x2
 3366 02a9 23       		.byte	0x23
 3367 02aa 00       		.uleb128 0
 3368 02ab 00       		.byte	0
 3369 02ac 07       		.uleb128 0x7
 3370 02ad 050C0000 		.4byte	.LASF47
 3371 02b1 06       		.byte	0x6
 3372 02b2 69       		.byte	0x69
 3373 02b3 95020000 		.4byte	0x295
 3374 02b7 07       		.uleb128 0x7
 3375 02b8 31030000 		.4byte	.LASF48
 3376 02bc 08       		.byte	0x8
 3377 02bd DE       		.byte	0xde
 3378 02be 6F000000 		.4byte	0x6f
 3379 02c2 07       		.uleb128 0x7
 3380 02c3 E5050000 		.4byte	.LASF49
 3381 02c7 08       		.byte	0x8
 3382 02c8 E4       		.byte	0xe4
 3383 02c9 C1000000 		.4byte	0xc1
 3384 02cd 0C       		.uleb128 0xc
 3385 02ce DA060000 		.4byte	.LASF50
 3386 02d2 24       		.byte	0x24
 3387 02d3 08       		.byte	0x8
ARM GAS  /tmp/cc3IGbAH.s 			page 61


 3388 02d4 0501     		.2byte	0x105
 3389 02d6 5B030000 		.4byte	0x35b
 3390 02da 0D       		.uleb128 0xd
 3391 02db 723400   		.ascii	"r4\000"
 3392 02de 08       		.byte	0x8
 3393 02df 1801     		.2byte	0x118
 3394 02e1 B7020000 		.4byte	0x2b7
 3395 02e5 02       		.byte	0x2
 3396 02e6 23       		.byte	0x23
 3397 02e7 00       		.uleb128 0
 3398 02e8 0D       		.uleb128 0xd
 3399 02e9 723500   		.ascii	"r5\000"
 3400 02ec 08       		.byte	0x8
 3401 02ed 1901     		.2byte	0x119
 3402 02ef B7020000 		.4byte	0x2b7
 3403 02f3 02       		.byte	0x2
 3404 02f4 23       		.byte	0x23
 3405 02f5 04       		.uleb128 0x4
 3406 02f6 0D       		.uleb128 0xd
 3407 02f7 723600   		.ascii	"r6\000"
 3408 02fa 08       		.byte	0x8
 3409 02fb 1A01     		.2byte	0x11a
 3410 02fd B7020000 		.4byte	0x2b7
 3411 0301 02       		.byte	0x2
 3412 0302 23       		.byte	0x23
 3413 0303 08       		.uleb128 0x8
 3414 0304 0D       		.uleb128 0xd
 3415 0305 723700   		.ascii	"r7\000"
 3416 0308 08       		.byte	0x8
 3417 0309 1B01     		.2byte	0x11b
 3418 030b B7020000 		.4byte	0x2b7
 3419 030f 02       		.byte	0x2
 3420 0310 23       		.byte	0x23
 3421 0311 0C       		.uleb128 0xc
 3422 0312 0D       		.uleb128 0xd
 3423 0313 723800   		.ascii	"r8\000"
 3424 0316 08       		.byte	0x8
 3425 0317 1C01     		.2byte	0x11c
 3426 0319 B7020000 		.4byte	0x2b7
 3427 031d 02       		.byte	0x2
 3428 031e 23       		.byte	0x23
 3429 031f 10       		.uleb128 0x10
 3430 0320 0D       		.uleb128 0xd
 3431 0321 723900   		.ascii	"r9\000"
 3432 0324 08       		.byte	0x8
 3433 0325 1D01     		.2byte	0x11d
 3434 0327 B7020000 		.4byte	0x2b7
 3435 032b 02       		.byte	0x2
 3436 032c 23       		.byte	0x23
 3437 032d 14       		.uleb128 0x14
 3438 032e 0D       		.uleb128 0xd
 3439 032f 72313000 		.ascii	"r10\000"
 3440 0333 08       		.byte	0x8
 3441 0334 1E01     		.2byte	0x11e
 3442 0336 B7020000 		.4byte	0x2b7
 3443 033a 02       		.byte	0x2
 3444 033b 23       		.byte	0x23
ARM GAS  /tmp/cc3IGbAH.s 			page 62


 3445 033c 18       		.uleb128 0x18
 3446 033d 0D       		.uleb128 0xd
 3447 033e 72313100 		.ascii	"r11\000"
 3448 0342 08       		.byte	0x8
 3449 0343 1F01     		.2byte	0x11f
 3450 0345 B7020000 		.4byte	0x2b7
 3451 0349 02       		.byte	0x2
 3452 034a 23       		.byte	0x23
 3453 034b 1C       		.uleb128 0x1c
 3454 034c 0D       		.uleb128 0xd
 3455 034d 6C7200   		.ascii	"lr\000"
 3456 0350 08       		.byte	0x8
 3457 0351 2001     		.2byte	0x120
 3458 0353 B7020000 		.4byte	0x2b7
 3459 0357 02       		.byte	0x2
 3460 0358 23       		.byte	0x23
 3461 0359 20       		.uleb128 0x20
 3462 035a 00       		.byte	0
 3463 035b 0C       		.uleb128 0xc
 3464 035c 0F040000 		.4byte	.LASF51
 3465 0360 04       		.byte	0x4
 3466 0361 08       		.byte	0x8
 3467 0362 2A01     		.2byte	0x12a
 3468 0364 78030000 		.4byte	0x378
 3469 0368 0D       		.uleb128 0xd
 3470 0369 72313300 		.ascii	"r13\000"
 3471 036d 08       		.byte	0x8
 3472 036e 2B01     		.2byte	0x12b
 3473 0370 78030000 		.4byte	0x378
 3474 0374 02       		.byte	0x2
 3475 0375 23       		.byte	0x23
 3476 0376 00       		.uleb128 0
 3477 0377 00       		.byte	0
 3478 0378 05       		.uleb128 0x5
 3479 0379 04       		.byte	0x4
 3480 037a CD020000 		.4byte	0x2cd
 3481 037e 0E       		.uleb128 0xe
 3482 037f B6000000 		.4byte	0xb6
 3483 0383 0E       		.uleb128 0xe
 3484 0384 24010000 		.4byte	0x124
 3485 0388 0B       		.uleb128 0xb
 3486 0389 1C       		.byte	0x1c
 3487 038a 09       		.byte	0x9
 3488 038b 57       		.byte	0x57
 3489 038c E5030000 		.4byte	0x3e5
 3490 0390 09       		.uleb128 0x9
 3491 0391 E40E0000 		.4byte	.LASF52
 3492 0395 09       		.byte	0x9
 3493 0396 58       		.byte	0x58
 3494 0397 8A020000 		.4byte	0x28a
 3495 039b 02       		.byte	0x2
 3496 039c 23       		.byte	0x23
 3497 039d 00       		.uleb128 0
 3498 039e 09       		.uleb128 0x9
 3499 039f 6D100000 		.4byte	.LASF53
 3500 03a3 09       		.byte	0x9
 3501 03a4 59       		.byte	0x59
ARM GAS  /tmp/cc3IGbAH.s 			page 63


 3502 03a5 03010000 		.4byte	0x103
 3503 03a9 02       		.byte	0x2
 3504 03aa 23       		.byte	0x23
 3505 03ab 08       		.uleb128 0x8
 3506 03ac 09       		.uleb128 0x9
 3507 03ad 51000000 		.4byte	.LASF54
 3508 03b1 09       		.byte	0x9
 3509 03b2 5B       		.byte	0x5b
 3510 03b3 5B030000 		.4byte	0x35b
 3511 03b7 02       		.byte	0x2
 3512 03b8 23       		.byte	0x23
 3513 03b9 0C       		.uleb128 0xc
 3514 03ba 09       		.uleb128 0x9
 3515 03bb A6040000 		.4byte	.LASF55
 3516 03bf 09       		.byte	0x9
 3517 03c0 5E       		.byte	0x5e
 3518 03c1 84020000 		.4byte	0x284
 3519 03c5 02       		.byte	0x2
 3520 03c6 23       		.byte	0x23
 3521 03c7 10       		.uleb128 0x10
 3522 03c8 09       		.uleb128 0x9
 3523 03c9 AC0F0000 		.4byte	.LASF56
 3524 03cd 09       		.byte	0x9
 3525 03ce 5F       		.byte	0x5f
 3526 03cf 84020000 		.4byte	0x284
 3527 03d3 02       		.byte	0x2
 3528 03d4 23       		.byte	0x23
 3529 03d5 14       		.uleb128 0x14
 3530 03d6 09       		.uleb128 0x9
 3531 03d7 620E0000 		.4byte	.LASF57
 3532 03db 09       		.byte	0x9
 3533 03dc 62       		.byte	0x62
 3534 03dd 84020000 		.4byte	0x284
 3535 03e1 02       		.byte	0x2
 3536 03e2 23       		.byte	0x23
 3537 03e3 18       		.uleb128 0x18
 3538 03e4 00       		.byte	0
 3539 03e5 07       		.uleb128 0x7
 3540 03e6 32130000 		.4byte	.LASF58
 3541 03ea 09       		.byte	0x9
 3542 03eb 64       		.byte	0x64
 3543 03ec 88030000 		.4byte	0x388
 3544 03f0 08       		.uleb128 0x8
 3545 03f1 1D0A0000 		.4byte	.LASF59
 3546 03f5 10       		.byte	0x10
 3547 03f6 0A       		.byte	0xa
 3548 03f7 25       		.byte	0x25
 3549 03f8 27040000 		.4byte	0x427
 3550 03fc 09       		.uleb128 0x9
 3551 03fd 690A0000 		.4byte	.LASF60
 3552 0401 0A       		.byte	0xa
 3553 0402 26       		.byte	0x26
 3554 0403 8A020000 		.4byte	0x28a
 3555 0407 02       		.byte	0x2
 3556 0408 23       		.byte	0x23
 3557 0409 00       		.uleb128 0
 3558 040a 09       		.uleb128 0x9
ARM GAS  /tmp/cc3IGbAH.s 			page 64


 3559 040b FC010000 		.4byte	.LASF61
 3560 040f 0A       		.byte	0xa
 3561 0410 28       		.byte	0x28
 3562 0411 84020000 		.4byte	0x284
 3563 0415 02       		.byte	0x2
 3564 0416 23       		.byte	0x23
 3565 0417 08       		.uleb128 0x8
 3566 0418 09       		.uleb128 0x9
 3567 0419 61130000 		.4byte	.LASF62
 3568 041d 0A       		.byte	0xa
 3569 041e 2A       		.byte	0x2a
 3570 041f 27040000 		.4byte	0x427
 3571 0423 02       		.byte	0x2
 3572 0424 23       		.byte	0x23
 3573 0425 0C       		.uleb128 0xc
 3574 0426 00       		.byte	0
 3575 0427 05       		.uleb128 0x5
 3576 0428 04       		.byte	0x4
 3577 0429 F0030000 		.4byte	0x3f0
 3578 042d 07       		.uleb128 0x7
 3579 042e 1D0A0000 		.4byte	.LASF59
 3580 0432 0A       		.byte	0xa
 3581 0433 2C       		.byte	0x2c
 3582 0434 F0030000 		.4byte	0x3f0
 3583 0438 0F       		.uleb128 0xf
 3584 0439 04       		.byte	0x4
 3585 043a 07       		.byte	0x7
 3586 043b 8F       		.byte	0x8f
 3587 043c 6D040000 		.4byte	0x46d
 3588 0440 10       		.uleb128 0x10
 3589 0441 3E120000 		.4byte	.LASF63
 3590 0445 07       		.byte	0x7
 3591 0446 96       		.byte	0x96
 3592 0447 0E010000 		.4byte	0x10e
 3593 044b 10       		.uleb128 0x10
 3594 044c 04020000 		.4byte	.LASF64
 3595 0450 07       		.byte	0x7
 3596 0451 9D       		.byte	0x9d
 3597 0452 0E010000 		.4byte	0x10e
 3598 0456 10       		.uleb128 0x10
 3599 0457 A5050000 		.4byte	.LASF65
 3600 045b 07       		.byte	0x7
 3601 045c A4       		.byte	0xa4
 3602 045d 6F000000 		.4byte	0x6f
 3603 0461 10       		.uleb128 0x10
 3604 0462 32020000 		.4byte	.LASF66
 3605 0466 07       		.byte	0x7
 3606 0467 AB       		.byte	0xab
 3607 0468 19010000 		.4byte	0x119
 3608 046c 00       		.byte	0
 3609 046d 05       		.uleb128 0x5
 3610 046e 04       		.byte	0x4
 3611 046f 2D040000 		.4byte	0x42d
 3612 0473 07       		.uleb128 0x7
 3613 0474 DB0A0000 		.4byte	.LASF67
 3614 0478 07       		.byte	0x7
 3615 0479 DE       		.byte	0xde
ARM GAS  /tmp/cc3IGbAH.s 			page 65


 3616 047a 7E040000 		.4byte	0x47e
 3617 047e 05       		.uleb128 0x5
 3618 047f 04       		.byte	0x4
 3619 0480 84040000 		.4byte	0x484
 3620 0484 11       		.uleb128 0x11
 3621 0485 01       		.byte	0x1
 3622 0486 0E010000 		.4byte	0x10e
 3623 048a 94040000 		.4byte	0x494
 3624 048e 12       		.uleb128 0x12
 3625 048f 6F000000 		.4byte	0x6f
 3626 0493 00       		.byte	0
 3627 0494 07       		.uleb128 0x7
 3628 0495 91050000 		.4byte	.LASF68
 3629 0499 0B       		.byte	0xb
 3630 049a 30       		.byte	0x30
 3631 049b 9F040000 		.4byte	0x49f
 3632 049f 08       		.uleb128 0x8
 3633 04a0 91050000 		.4byte	.LASF68
 3634 04a4 24       		.byte	0x24
 3635 04a5 0B       		.byte	0xb
 3636 04a6 3E       		.byte	0x3e
 3637 04a7 1C050000 		.4byte	0x51c
 3638 04ab 09       		.uleb128 0x9
 3639 04ac 0F0F0000 		.4byte	.LASF69
 3640 04b0 0B       		.byte	0xb
 3641 04b1 3F       		.byte	0x3f
 3642 04b2 8A020000 		.4byte	0x28a
 3643 04b6 02       		.byte	0x2
 3644 04b7 23       		.byte	0x23
 3645 04b8 00       		.uleb128 0
 3646 04b9 09       		.uleb128 0x9
 3647 04ba C1070000 		.4byte	.LASF70
 3648 04be 0B       		.byte	0xb
 3649 04bf 40       		.byte	0x40
 3650 04c0 8A000000 		.4byte	0x8a
 3651 04c4 02       		.byte	0x2
 3652 04c5 23       		.byte	0x23
 3653 04c6 08       		.uleb128 0x8
 3654 04c7 09       		.uleb128 0x9
 3655 04c8 65020000 		.4byte	.LASF71
 3656 04cc 0B       		.byte	0xb
 3657 04cd 41       		.byte	0x41
 3658 04ce 3F050000 		.4byte	0x53f
 3659 04d2 02       		.byte	0x2
 3660 04d3 23       		.byte	0x23
 3661 04d4 0C       		.uleb128 0xc
 3662 04d5 09       		.uleb128 0x9
 3663 04d6 2C020000 		.4byte	.LASF72
 3664 04da 0B       		.byte	0xb
 3665 04db 42       		.byte	0x42
 3666 04dc 3F050000 		.4byte	0x53f
 3667 04e0 02       		.byte	0x2
 3668 04e1 23       		.byte	0x23
 3669 04e2 10       		.uleb128 0x10
 3670 04e3 09       		.uleb128 0x9
 3671 04e4 CE080000 		.4byte	.LASF73
 3672 04e8 0B       		.byte	0xb
ARM GAS  /tmp/cc3IGbAH.s 			page 66


 3673 04e9 44       		.byte	0x44
 3674 04ea 3F050000 		.4byte	0x53f
 3675 04ee 02       		.byte	0x2
 3676 04ef 23       		.byte	0x23
 3677 04f0 14       		.uleb128 0x14
 3678 04f1 09       		.uleb128 0x9
 3679 04f2 AF020000 		.4byte	.LASF74
 3680 04f6 0B       		.byte	0xb
 3681 04f7 45       		.byte	0x45
 3682 04f8 3F050000 		.4byte	0x53f
 3683 04fc 02       		.byte	0x2
 3684 04fd 23       		.byte	0x23
 3685 04fe 18       		.uleb128 0x18
 3686 04ff 09       		.uleb128 0x9
 3687 0500 89020000 		.4byte	.LASF75
 3688 0504 0B       		.byte	0xb
 3689 0505 46       		.byte	0x46
 3690 0506 1C050000 		.4byte	0x51c
 3691 050a 02       		.byte	0x2
 3692 050b 23       		.byte	0x23
 3693 050c 1C       		.uleb128 0x1c
 3694 050d 09       		.uleb128 0x9
 3695 050e 83040000 		.4byte	.LASF76
 3696 0512 0B       		.byte	0xb
 3697 0513 47       		.byte	0x47
 3698 0514 6F000000 		.4byte	0x6f
 3699 0518 02       		.byte	0x2
 3700 0519 23       		.byte	0x23
 3701 051a 20       		.uleb128 0x20
 3702 051b 00       		.byte	0
 3703 051c 07       		.uleb128 0x7
 3704 051d 0C0B0000 		.4byte	.LASF77
 3705 0521 0B       		.byte	0xb
 3706 0522 33       		.byte	0x33
 3707 0523 27050000 		.4byte	0x527
 3708 0527 05       		.uleb128 0x5
 3709 0528 04       		.byte	0x4
 3710 0529 2D050000 		.4byte	0x52d
 3711 052d 13       		.uleb128 0x13
 3712 052e 01       		.byte	0x1
 3713 052f 39050000 		.4byte	0x539
 3714 0533 12       		.uleb128 0x12
 3715 0534 39050000 		.4byte	0x539
 3716 0538 00       		.byte	0
 3717 0539 05       		.uleb128 0x5
 3718 053a 04       		.byte	0x4
 3719 053b 94040000 		.4byte	0x494
 3720 053f 05       		.uleb128 0x5
 3721 0540 04       		.byte	0x4
 3722 0541 95000000 		.4byte	0x95
 3723 0545 07       		.uleb128 0x7
 3724 0546 90120000 		.4byte	.LASF78
 3725 054a 0B       		.byte	0xb
 3726 054b 7B       		.byte	0x7b
 3727 054c 94040000 		.4byte	0x494
 3728 0550 07       		.uleb128 0x7
 3729 0551 F0050000 		.4byte	.LASF79
ARM GAS  /tmp/cc3IGbAH.s 			page 67


 3730 0555 0B       		.byte	0xb
 3731 0556 EE       		.byte	0xee
 3732 0557 94040000 		.4byte	0x494
 3733 055b 05       		.uleb128 0x5
 3734 055c 04       		.byte	0x4
 3735 055d 61050000 		.4byte	0x561
 3736 0561 06       		.uleb128 0x6
 3737 0562 95000000 		.4byte	0x95
 3738 0566 14       		.uleb128 0x14
 3739 0567 B40C0000 		.4byte	.LASF432
 3740 056b 01       		.byte	0x1
 3741 056c 0C       		.byte	0xc
 3742 056d 8C       		.byte	0x8c
 3743 056e A1070000 		.4byte	0x7a1
 3744 0572 15       		.uleb128 0x15
 3745 0573 F8070000 		.4byte	.LASF80
 3746 0577 72       		.sleb128 -14
 3747 0578 15       		.uleb128 0x15
 3748 0579 3A080000 		.4byte	.LASF81
 3749 057d 74       		.sleb128 -12
 3750 057e 15       		.uleb128 0x15
 3751 057f 81090000 		.4byte	.LASF82
 3752 0583 75       		.sleb128 -11
 3753 0584 15       		.uleb128 0x15
 3754 0585 2A050000 		.4byte	.LASF83
 3755 0589 76       		.sleb128 -10
 3756 058a 15       		.uleb128 0x15
 3757 058b 9B0A0000 		.4byte	.LASF84
 3758 058f 7B       		.sleb128 -5
 3759 0590 15       		.uleb128 0x15
 3760 0591 7A0F0000 		.4byte	.LASF85
 3761 0595 7C       		.sleb128 -4
 3762 0596 15       		.uleb128 0x15
 3763 0597 A6120000 		.4byte	.LASF86
 3764 059b 7E       		.sleb128 -2
 3765 059c 15       		.uleb128 0x15
 3766 059d 93030000 		.4byte	.LASF87
 3767 05a1 7F       		.sleb128 -1
 3768 05a2 15       		.uleb128 0x15
 3769 05a3 1E080000 		.4byte	.LASF88
 3770 05a7 00       		.sleb128 0
 3771 05a8 15       		.uleb128 0x15
 3772 05a9 EC0E0000 		.4byte	.LASF89
 3773 05ad 01       		.sleb128 1
 3774 05ae 15       		.uleb128 0x15
 3775 05af 65080000 		.4byte	.LASF90
 3776 05b3 02       		.sleb128 2
 3777 05b4 15       		.uleb128 0x15
 3778 05b5 9E110000 		.4byte	.LASF91
 3779 05b9 03       		.sleb128 3
 3780 05ba 15       		.uleb128 0x15
 3781 05bb 16010000 		.4byte	.LASF92
 3782 05bf 04       		.sleb128 4
 3783 05c0 15       		.uleb128 0x15
 3784 05c1 03100000 		.4byte	.LASF93
 3785 05c5 05       		.sleb128 5
 3786 05c6 15       		.uleb128 0x15
ARM GAS  /tmp/cc3IGbAH.s 			page 68


 3787 05c7 190F0000 		.4byte	.LASF94
 3788 05cb 06       		.sleb128 6
 3789 05cc 15       		.uleb128 0x15
 3790 05cd 4B070000 		.4byte	.LASF95
 3791 05d1 07       		.sleb128 7
 3792 05d2 15       		.uleb128 0x15
 3793 05d3 6C0E0000 		.4byte	.LASF96
 3794 05d7 08       		.sleb128 8
 3795 05d8 15       		.uleb128 0x15
 3796 05d9 9B120000 		.4byte	.LASF97
 3797 05dd 09       		.sleb128 9
 3798 05de 15       		.uleb128 0x15
 3799 05df 45120000 		.4byte	.LASF98
 3800 05e3 0A       		.sleb128 10
 3801 05e4 15       		.uleb128 0x15
 3802 05e5 190D0000 		.4byte	.LASF99
 3803 05e9 0B       		.sleb128 11
 3804 05ea 15       		.uleb128 0x15
 3805 05eb 3F0C0000 		.4byte	.LASF100
 3806 05ef 0C       		.sleb128 12
 3807 05f0 15       		.uleb128 0x15
 3808 05f1 28040000 		.4byte	.LASF101
 3809 05f5 0D       		.sleb128 13
 3810 05f6 15       		.uleb128 0x15
 3811 05f7 74100000 		.4byte	.LASF102
 3812 05fb 0E       		.sleb128 14
 3813 05fc 15       		.uleb128 0x15
 3814 05fd 320F0000 		.4byte	.LASF103
 3815 0601 0F       		.sleb128 15
 3816 0602 15       		.uleb128 0x15
 3817 0603 7D070000 		.4byte	.LASF104
 3818 0607 10       		.sleb128 16
 3819 0608 15       		.uleb128 0x15
 3820 0609 B90C0000 		.4byte	.LASF105
 3821 060d 11       		.sleb128 17
 3822 060e 15       		.uleb128 0x15
 3823 060f 8B0E0000 		.4byte	.LASF106
 3824 0613 12       		.sleb128 18
 3825 0614 15       		.uleb128 0x15
 3826 0615 56070000 		.4byte	.LASF107
 3827 0619 13       		.sleb128 19
 3828 061a 15       		.uleb128 0x15
 3829 061b AC050000 		.4byte	.LASF108
 3830 061f 14       		.sleb128 20
 3831 0620 15       		.uleb128 0x15
 3832 0621 ED110000 		.4byte	.LASF109
 3833 0625 15       		.sleb128 21
 3834 0626 15       		.uleb128 0x15
 3835 0627 7E080000 		.4byte	.LASF110
 3836 062b 16       		.sleb128 22
 3837 062c 15       		.uleb128 0x15
 3838 062d 1A120000 		.4byte	.LASF111
 3839 0631 17       		.sleb128 23
 3840 0632 15       		.uleb128 0x15
 3841 0633 BD090000 		.4byte	.LASF112
 3842 0637 18       		.sleb128 24
 3843 0638 15       		.uleb128 0x15
ARM GAS  /tmp/cc3IGbAH.s 			page 69


 3844 0639 1C110000 		.4byte	.LASF113
 3845 063d 19       		.sleb128 25
 3846 063e 15       		.uleb128 0x15
 3847 063f EF020000 		.4byte	.LASF114
 3848 0643 1A       		.sleb128 26
 3849 0644 15       		.uleb128 0x15
 3850 0645 30070000 		.4byte	.LASF115
 3851 0649 1B       		.sleb128 27
 3852 064a 15       		.uleb128 0x15
 3853 064b 6C010000 		.4byte	.LASF116
 3854 064f 1C       		.sleb128 28
 3855 0650 15       		.uleb128 0x15
 3856 0651 190E0000 		.4byte	.LASF117
 3857 0655 1D       		.sleb128 29
 3858 0656 15       		.uleb128 0x15
 3859 0657 15060000 		.4byte	.LASF118
 3860 065b 1E       		.sleb128 30
 3861 065c 15       		.uleb128 0x15
 3862 065d 9B060000 		.4byte	.LASF119
 3863 0661 1F       		.sleb128 31
 3864 0662 15       		.uleb128 0x15
 3865 0663 99040000 		.4byte	.LASF120
 3866 0667 20       		.sleb128 32
 3867 0668 15       		.uleb128 0x15
 3868 0669 960B0000 		.4byte	.LASF121
 3869 066d 21       		.sleb128 33
 3870 066e 15       		.uleb128 0x15
 3871 066f 33090000 		.4byte	.LASF122
 3872 0673 22       		.sleb128 34
 3873 0674 15       		.uleb128 0x15
 3874 0675 770A0000 		.4byte	.LASF123
 3875 0679 23       		.sleb128 35
 3876 067a 15       		.uleb128 0x15
 3877 067b 530A0000 		.4byte	.LASF124
 3878 067f 24       		.sleb128 36
 3879 0680 15       		.uleb128 0x15
 3880 0681 230E0000 		.4byte	.LASF125
 3881 0685 25       		.sleb128 37
 3882 0686 15       		.uleb128 0x15
 3883 0687 26060000 		.4byte	.LASF126
 3884 068b 26       		.sleb128 38
 3885 068c 15       		.uleb128 0x15
 3886 068d A0030000 		.4byte	.LASF127
 3887 0691 27       		.sleb128 39
 3888 0692 15       		.uleb128 0x15
 3889 0693 8C0D0000 		.4byte	.LASF128
 3890 0697 28       		.sleb128 40
 3891 0698 15       		.uleb128 0x15
 3892 0699 340D0000 		.4byte	.LASF129
 3893 069d 29       		.sleb128 41
 3894 069e 15       		.uleb128 0x15
 3895 069f 200B0000 		.4byte	.LASF130
 3896 06a3 2A       		.sleb128 42
 3897 06a4 15       		.uleb128 0x15
 3898 06a5 39020000 		.4byte	.LASF131
 3899 06a9 2B       		.sleb128 43
 3900 06aa 15       		.uleb128 0x15
ARM GAS  /tmp/cc3IGbAH.s 			page 70


 3901 06ab 07000000 		.4byte	.LASF132
 3902 06af 2C       		.sleb128 44
 3903 06b0 15       		.uleb128 0x15
 3904 06b1 97070000 		.4byte	.LASF133
 3905 06b5 2D       		.sleb128 45
 3906 06b6 15       		.uleb128 0x15
 3907 06b7 68120000 		.4byte	.LASF134
 3908 06bb 2E       		.sleb128 46
 3909 06bc 15       		.uleb128 0x15
 3910 06bd CA120000 		.4byte	.LASF135
 3911 06c1 2F       		.sleb128 47
 3912 06c2 15       		.uleb128 0x15
 3913 06c3 0C080000 		.4byte	.LASF136
 3914 06c7 30       		.sleb128 48
 3915 06c8 15       		.uleb128 0x15
 3916 06c9 75120000 		.4byte	.LASF137
 3917 06cd 31       		.sleb128 49
 3918 06ce 15       		.uleb128 0x15
 3919 06cf 16050000 		.4byte	.LASF138
 3920 06d3 32       		.sleb128 50
 3921 06d4 15       		.uleb128 0x15
 3922 06d5 0C010000 		.4byte	.LASF139
 3923 06d9 33       		.sleb128 51
 3924 06da 15       		.uleb128 0x15
 3925 06db E30A0000 		.4byte	.LASF140
 3926 06df 34       		.sleb128 52
 3927 06e0 15       		.uleb128 0x15
 3928 06e1 9F090000 		.4byte	.LASF141
 3929 06e5 35       		.sleb128 53
 3930 06e6 15       		.uleb128 0x15
 3931 06e7 550B0000 		.4byte	.LASF142
 3932 06eb 36       		.sleb128 54
 3933 06ec 15       		.uleb128 0x15
 3934 06ed 230A0000 		.4byte	.LASF143
 3935 06f1 37       		.sleb128 55
 3936 06f2 15       		.uleb128 0x15
 3937 06f3 A9080000 		.4byte	.LASF144
 3938 06f7 38       		.sleb128 56
 3939 06f8 15       		.uleb128 0x15
 3940 06f9 E4000000 		.4byte	.LASF145
 3941 06fd 39       		.sleb128 57
 3942 06fe 15       		.uleb128 0x15
 3943 06ff B6130000 		.4byte	.LASF146
 3944 0703 3A       		.sleb128 58
 3945 0704 15       		.uleb128 0x15
 3946 0705 630C0000 		.4byte	.LASF147
 3947 0709 3B       		.sleb128 59
 3948 070a 15       		.uleb128 0x15
 3949 070b 67040000 		.4byte	.LASF148
 3950 070f 3C       		.sleb128 60
 3951 0710 15       		.uleb128 0x15
 3952 0711 BD0F0000 		.4byte	.LASF149
 3953 0715 3D       		.sleb128 61
 3954 0716 15       		.uleb128 0x15
 3955 0717 450A0000 		.4byte	.LASF150
 3956 071b 3E       		.sleb128 62
 3957 071c 15       		.uleb128 0x15
ARM GAS  /tmp/cc3IGbAH.s 			page 71


 3958 071d 800C0000 		.4byte	.LASF151
 3959 0721 3F       		.sleb128 63
 3960 0722 15       		.uleb128 0x15
 3961 0723 D5010000 		.4byte	.LASF152
 3962 0727 C000     		.sleb128 64
 3963 0729 15       		.uleb128 0x15
 3964 072a 7D0E0000 		.4byte	.LASF153
 3965 072e C100     		.sleb128 65
 3966 0730 15       		.uleb128 0x15
 3967 0731 BD040000 		.4byte	.LASF154
 3968 0735 C200     		.sleb128 66
 3969 0737 15       		.uleb128 0x15
 3970 0738 E3070000 		.4byte	.LASF155
 3971 073c C300     		.sleb128 67
 3972 073e 15       		.uleb128 0x15
 3973 073f BE020000 		.4byte	.LASF156
 3974 0743 C400     		.sleb128 68
 3975 0745 15       		.uleb128 0x15
 3976 0746 440F0000 		.4byte	.LASF157
 3977 074a C500     		.sleb128 69
 3978 074c 15       		.uleb128 0x15
 3979 074d AF070000 		.4byte	.LASF158
 3980 0751 C600     		.sleb128 70
 3981 0753 15       		.uleb128 0x15
 3982 0754 E3010000 		.4byte	.LASF159
 3983 0758 C700     		.sleb128 71
 3984 075a 15       		.uleb128 0x15
 3985 075b 9F0F0000 		.4byte	.LASF160
 3986 075f C800     		.sleb128 72
 3987 0761 15       		.uleb128 0x15
 3988 0762 5F0D0000 		.4byte	.LASF161
 3989 0766 C900     		.sleb128 73
 3990 0768 15       		.uleb128 0x15
 3991 0769 83110000 		.4byte	.LASF162
 3992 076d CA00     		.sleb128 74
 3993 076f 15       		.uleb128 0x15
 3994 0770 B7120000 		.4byte	.LASF163
 3995 0774 CB00     		.sleb128 75
 3996 0776 15       		.uleb128 0x15
 3997 0777 1B020000 		.4byte	.LASF164
 3998 077b CC00     		.sleb128 76
 3999 077d 15       		.uleb128 0x15
 4000 077e 5D0A0000 		.4byte	.LASF165
 4001 0782 CD00     		.sleb128 77
 4002 0784 15       		.uleb128 0x15
 4003 0785 2A010000 		.4byte	.LASF166
 4004 0789 CE00     		.sleb128 78
 4005 078b 15       		.uleb128 0x15
 4006 078c 820D0000 		.4byte	.LASF167
 4007 0790 CF00     		.sleb128 79
 4008 0792 15       		.uleb128 0x15
 4009 0793 3D070000 		.4byte	.LASF168
 4010 0797 D000     		.sleb128 80
 4011 0799 15       		.uleb128 0x15
 4012 079a C90A0000 		.4byte	.LASF169
 4013 079e D100     		.sleb128 81
 4014 07a0 00       		.byte	0
ARM GAS  /tmp/cc3IGbAH.s 			page 72


 4015 07a1 16       		.uleb128 0x16
 4016 07a2 B6000000 		.4byte	0xb6
 4017 07a6 B1070000 		.4byte	0x7b1
 4018 07aa 17       		.uleb128 0x17
 4019 07ab 68000000 		.4byte	0x68
 4020 07af 01       		.byte	0x1
 4021 07b0 00       		.byte	0
 4022 07b1 16       		.uleb128 0x16
 4023 07b2 B6000000 		.4byte	0xb6
 4024 07b6 C1070000 		.4byte	0x7c1
 4025 07ba 17       		.uleb128 0x17
 4026 07bb 68000000 		.4byte	0x68
 4027 07bf 0E       		.byte	0xe
 4028 07c0 00       		.byte	0
 4029 07c1 0E       		.uleb128 0xe
 4030 07c2 AB000000 		.4byte	0xab
 4031 07c6 18       		.uleb128 0x18
 4032 07c7 88       		.byte	0x88
 4033 07c8 0C       		.byte	0xc
 4034 07c9 DB02     		.2byte	0x2db
 4035 07cb 93090000 		.4byte	0x993
 4036 07cf 0D       		.uleb128 0xd
 4037 07d0 435200   		.ascii	"CR\000"
 4038 07d3 0C       		.byte	0xc
 4039 07d4 DD02     		.2byte	0x2dd
 4040 07d6 7E030000 		.4byte	0x37e
 4041 07da 02       		.byte	0x2
 4042 07db 23       		.byte	0x23
 4043 07dc 00       		.uleb128 0
 4044 07dd 19       		.uleb128 0x19
 4045 07de 97090000 		.4byte	.LASF170
 4046 07e2 0C       		.byte	0xc
 4047 07e3 DE02     		.2byte	0x2de
 4048 07e5 7E030000 		.4byte	0x37e
 4049 07e9 02       		.byte	0x2
 4050 07ea 23       		.byte	0x23
 4051 07eb 04       		.uleb128 0x4
 4052 07ec 19       		.uleb128 0x19
 4053 07ed 10070000 		.4byte	.LASF171
 4054 07f1 0C       		.byte	0xc
 4055 07f2 DF02     		.2byte	0x2df
 4056 07f4 7E030000 		.4byte	0x37e
 4057 07f8 02       		.byte	0x2
 4058 07f9 23       		.byte	0x23
 4059 07fa 08       		.uleb128 0x8
 4060 07fb 0D       		.uleb128 0xd
 4061 07fc 43495200 		.ascii	"CIR\000"
 4062 0800 0C       		.byte	0xc
 4063 0801 E002     		.2byte	0x2e0
 4064 0803 7E030000 		.4byte	0x37e
 4065 0807 02       		.byte	0x2
 4066 0808 23       		.byte	0x23
 4067 0809 0C       		.uleb128 0xc
 4068 080a 19       		.uleb128 0x19
 4069 080b F6120000 		.4byte	.LASF172
 4070 080f 0C       		.byte	0xc
 4071 0810 E102     		.2byte	0x2e1
ARM GAS  /tmp/cc3IGbAH.s 			page 73


 4072 0812 7E030000 		.4byte	0x37e
 4073 0816 02       		.byte	0x2
 4074 0817 23       		.byte	0x23
 4075 0818 10       		.uleb128 0x10
 4076 0819 19       		.uleb128 0x19
 4077 081a B40F0000 		.4byte	.LASF173
 4078 081e 0C       		.byte	0xc
 4079 081f E202     		.2byte	0x2e2
 4080 0821 7E030000 		.4byte	0x37e
 4081 0825 02       		.byte	0x2
 4082 0826 23       		.byte	0x23
 4083 0827 14       		.uleb128 0x14
 4084 0828 19       		.uleb128 0x19
 4085 0829 EC0C0000 		.4byte	.LASF174
 4086 082d 0C       		.byte	0xc
 4087 082e E302     		.2byte	0x2e3
 4088 0830 7E030000 		.4byte	0x37e
 4089 0834 02       		.byte	0x2
 4090 0835 23       		.byte	0x23
 4091 0836 18       		.uleb128 0x18
 4092 0837 19       		.uleb128 0x19
 4093 0838 45040000 		.4byte	.LASF175
 4094 083c 0C       		.byte	0xc
 4095 083d E402     		.2byte	0x2e4
 4096 083f B6000000 		.4byte	0xb6
 4097 0843 02       		.byte	0x2
 4098 0844 23       		.byte	0x23
 4099 0845 1C       		.uleb128 0x1c
 4100 0846 19       		.uleb128 0x19
 4101 0847 2B0D0000 		.4byte	.LASF176
 4102 084b 0C       		.byte	0xc
 4103 084c E502     		.2byte	0x2e5
 4104 084e 7E030000 		.4byte	0x37e
 4105 0852 02       		.byte	0x2
 4106 0853 23       		.byte	0x23
 4107 0854 20       		.uleb128 0x20
 4108 0855 19       		.uleb128 0x19
 4109 0856 A70A0000 		.4byte	.LASF177
 4110 085a 0C       		.byte	0xc
 4111 085b E602     		.2byte	0x2e6
 4112 085d 7E030000 		.4byte	0x37e
 4113 0861 02       		.byte	0x2
 4114 0862 23       		.byte	0x23
 4115 0863 24       		.uleb128 0x24
 4116 0864 19       		.uleb128 0x19
 4117 0865 4F040000 		.4byte	.LASF178
 4118 0869 0C       		.byte	0xc
 4119 086a E702     		.2byte	0x2e7
 4120 086c A1070000 		.4byte	0x7a1
 4121 0870 02       		.byte	0x2
 4122 0871 23       		.byte	0x23
 4123 0872 28       		.uleb128 0x28
 4124 0873 19       		.uleb128 0x19
 4125 0874 560F0000 		.4byte	.LASF179
 4126 0878 0C       		.byte	0xc
 4127 0879 E802     		.2byte	0x2e8
 4128 087b 7E030000 		.4byte	0x37e
ARM GAS  /tmp/cc3IGbAH.s 			page 74


 4129 087f 02       		.byte	0x2
 4130 0880 23       		.byte	0x23
 4131 0881 30       		.uleb128 0x30
 4132 0882 19       		.uleb128 0x19
 4133 0883 89050000 		.4byte	.LASF180
 4134 0887 0C       		.byte	0xc
 4135 0888 E902     		.2byte	0x2e9
 4136 088a 7E030000 		.4byte	0x37e
 4137 088e 02       		.byte	0x2
 4138 088f 23       		.byte	0x23
 4139 0890 34       		.uleb128 0x34
 4140 0891 19       		.uleb128 0x19
 4141 0892 AE130000 		.4byte	.LASF181
 4142 0896 0C       		.byte	0xc
 4143 0897 EA02     		.2byte	0x2ea
 4144 0899 7E030000 		.4byte	0x37e
 4145 089d 02       		.byte	0x2
 4146 089e 23       		.byte	0x23
 4147 089f 38       		.uleb128 0x38
 4148 08a0 19       		.uleb128 0x19
 4149 08a1 FD040000 		.4byte	.LASF182
 4150 08a5 0C       		.byte	0xc
 4151 08a6 EB02     		.2byte	0x2eb
 4152 08a8 B6000000 		.4byte	0xb6
 4153 08ac 02       		.byte	0x2
 4154 08ad 23       		.byte	0x23
 4155 08ae 3C       		.uleb128 0x3c
 4156 08af 19       		.uleb128 0x19
 4157 08b0 430D0000 		.4byte	.LASF183
 4158 08b4 0C       		.byte	0xc
 4159 08b5 EC02     		.2byte	0x2ec
 4160 08b7 7E030000 		.4byte	0x37e
 4161 08bb 02       		.byte	0x2
 4162 08bc 23       		.byte	0x23
 4163 08bd 40       		.uleb128 0x40
 4164 08be 19       		.uleb128 0x19
 4165 08bf 78030000 		.4byte	.LASF184
 4166 08c3 0C       		.byte	0xc
 4167 08c4 ED02     		.2byte	0x2ed
 4168 08c6 7E030000 		.4byte	0x37e
 4169 08ca 02       		.byte	0x2
 4170 08cb 23       		.byte	0x23
 4171 08cc 44       		.uleb128 0x44
 4172 08cd 19       		.uleb128 0x19
 4173 08ce 07050000 		.4byte	.LASF185
 4174 08d2 0C       		.byte	0xc
 4175 08d3 EE02     		.2byte	0x2ee
 4176 08d5 A1070000 		.4byte	0x7a1
 4177 08d9 02       		.byte	0x2
 4178 08da 23       		.byte	0x23
 4179 08db 48       		.uleb128 0x48
 4180 08dc 19       		.uleb128 0x19
 4181 08dd 89030000 		.4byte	.LASF186
 4182 08e1 0C       		.byte	0xc
 4183 08e2 EF02     		.2byte	0x2ef
 4184 08e4 7E030000 		.4byte	0x37e
 4185 08e8 02       		.byte	0x2
ARM GAS  /tmp/cc3IGbAH.s 			page 75


 4186 08e9 23       		.byte	0x23
 4187 08ea 50       		.uleb128 0x50
 4188 08eb 19       		.uleb128 0x19
 4189 08ec 4D020000 		.4byte	.LASF187
 4190 08f0 0C       		.byte	0xc
 4191 08f1 F002     		.2byte	0x2f0
 4192 08f3 7E030000 		.4byte	0x37e
 4193 08f7 02       		.byte	0x2
 4194 08f8 23       		.byte	0x23
 4195 08f9 54       		.uleb128 0x54
 4196 08fa 19       		.uleb128 0x19
 4197 08fb B20E0000 		.4byte	.LASF188
 4198 08ff 0C       		.byte	0xc
 4199 0900 F102     		.2byte	0x2f1
 4200 0902 7E030000 		.4byte	0x37e
 4201 0906 02       		.byte	0x2
 4202 0907 23       		.byte	0x23
 4203 0908 58       		.uleb128 0x58
 4204 0909 19       		.uleb128 0x19
 4205 090a 79040000 		.4byte	.LASF189
 4206 090e 0C       		.byte	0xc
 4207 090f F202     		.2byte	0x2f2
 4208 0911 B6000000 		.4byte	0xb6
 4209 0915 02       		.byte	0x2
 4210 0916 23       		.byte	0x23
 4211 0917 5C       		.uleb128 0x5c
 4212 0918 19       		.uleb128 0x19
 4213 0919 350C0000 		.4byte	.LASF190
 4214 091d 0C       		.byte	0xc
 4215 091e F302     		.2byte	0x2f3
 4216 0920 7E030000 		.4byte	0x37e
 4217 0924 02       		.byte	0x2
 4218 0925 23       		.byte	0x23
 4219 0926 60       		.uleb128 0x60
 4220 0927 19       		.uleb128 0x19
 4221 0928 EE0A0000 		.4byte	.LASF191
 4222 092c 0C       		.byte	0xc
 4223 092d F402     		.2byte	0x2f4
 4224 092f 7E030000 		.4byte	0x37e
 4225 0933 02       		.byte	0x2
 4226 0934 23       		.byte	0x23
 4227 0935 64       		.uleb128 0x64
 4228 0936 19       		.uleb128 0x19
 4229 0937 20050000 		.4byte	.LASF192
 4230 093b 0C       		.byte	0xc
 4231 093c F502     		.2byte	0x2f5
 4232 093e A1070000 		.4byte	0x7a1
 4233 0942 02       		.byte	0x2
 4234 0943 23       		.byte	0x23
 4235 0944 68       		.uleb128 0x68
 4236 0945 19       		.uleb128 0x19
 4237 0946 80060000 		.4byte	.LASF193
 4238 094a 0C       		.byte	0xc
 4239 094b F602     		.2byte	0x2f6
 4240 094d 7E030000 		.4byte	0x37e
 4241 0951 02       		.byte	0x2
 4242 0952 23       		.byte	0x23
ARM GAS  /tmp/cc3IGbAH.s 			page 76


 4243 0953 70       		.uleb128 0x70
 4244 0954 0D       		.uleb128 0xd
 4245 0955 43535200 		.ascii	"CSR\000"
 4246 0959 0C       		.byte	0xc
 4247 095a F702     		.2byte	0x2f7
 4248 095c 7E030000 		.4byte	0x37e
 4249 0960 02       		.byte	0x2
 4250 0961 23       		.byte	0x23
 4251 0962 74       		.uleb128 0x74
 4252 0963 19       		.uleb128 0x19
 4253 0964 8A040000 		.4byte	.LASF194
 4254 0968 0C       		.byte	0xc
 4255 0969 F802     		.2byte	0x2f8
 4256 096b A1070000 		.4byte	0x7a1
 4257 096f 02       		.byte	0x2
 4258 0970 23       		.byte	0x23
 4259 0971 78       		.uleb128 0x78
 4260 0972 19       		.uleb128 0x19
 4261 0973 710A0000 		.4byte	.LASF195
 4262 0977 0C       		.byte	0xc
 4263 0978 F902     		.2byte	0x2f9
 4264 097a 7E030000 		.4byte	0x37e
 4265 097e 03       		.byte	0x3
 4266 097f 23       		.byte	0x23
 4267 0980 8001     		.uleb128 0x80
 4268 0982 19       		.uleb128 0x19
 4269 0983 2D000000 		.4byte	.LASF196
 4270 0987 0C       		.byte	0xc
 4271 0988 FA02     		.2byte	0x2fa
 4272 098a 7E030000 		.4byte	0x37e
 4273 098e 03       		.byte	0x3
 4274 098f 23       		.byte	0x23
 4275 0990 8401     		.uleb128 0x84
 4276 0992 00       		.byte	0
 4277 0993 1A       		.uleb128 0x1a
 4278 0994 D70F0000 		.4byte	.LASF197
 4279 0998 0C       		.byte	0xc
 4280 0999 FB02     		.2byte	0x2fb
 4281 099b C6070000 		.4byte	0x7c6
 4282 099f 1A       		.uleb128 0x1a
 4283 09a0 940F0000 		.4byte	.LASF198
 4284 09a4 0D       		.byte	0xd
 4285 09a5 EB05     		.2byte	0x5eb
 4286 09a7 B6000000 		.4byte	0xb6
 4287 09ab 05       		.uleb128 0x5
 4288 09ac 04       		.byte	0x4
 4289 09ad 7E030000 		.4byte	0x37e
 4290 09b1 07       		.uleb128 0x7
 4291 09b2 2B0C0000 		.4byte	.LASF199
 4292 09b6 0E       		.byte	0xe
 4293 09b7 DC       		.byte	0xdc
 4294 09b8 BC090000 		.4byte	0x9bc
 4295 09bc 1B       		.uleb128 0x1b
 4296 09bd 2B0C0000 		.4byte	.LASF199
 4297 09c1 8801     		.2byte	0x188
 4298 09c3 0F       		.byte	0xf
 4299 09c4 6901     		.2byte	0x169
ARM GAS  /tmp/cc3IGbAH.s 			page 77


 4300 09c6 060B0000 		.4byte	0xb06
 4301 09ca 19       		.uleb128 0x19
 4302 09cb 41010000 		.4byte	.LASF200
 4303 09cf 0F       		.byte	0xf
 4304 09d0 6D01     		.2byte	0x16d
 4305 09d2 380B0000 		.4byte	0xb38
 4306 09d6 02       		.byte	0x2
 4307 09d7 23       		.byte	0x23
 4308 09d8 00       		.uleb128 0
 4309 09d9 19       		.uleb128 0x19
 4310 09da 3A010000 		.4byte	.LASF201
 4311 09de 0F       		.byte	0xf
 4312 09df 7101     		.2byte	0x171
 4313 09e1 3B150000 		.4byte	0x153b
 4314 09e5 02       		.byte	0x2
 4315 09e6 23       		.byte	0x23
 4316 09e7 04       		.uleb128 0x4
 4317 09e8 19       		.uleb128 0x19
 4318 09e9 57080000 		.4byte	.LASF202
 4319 09ed 0F       		.byte	0xf
 4320 09ee 7601     		.2byte	0x176
 4321 09f0 6F000000 		.4byte	0x6f
 4322 09f4 02       		.byte	0x2
 4323 09f5 23       		.byte	0x23
 4324 09f6 08       		.uleb128 0x8
 4325 09f7 19       		.uleb128 0x19
 4326 09f8 47060000 		.4byte	.LASF203
 4327 09fc 0F       		.byte	0xf
 4328 09fd 7A01     		.2byte	0x17a
 4329 09ff A0000000 		.4byte	0xa0
 4330 0a03 02       		.byte	0x2
 4331 0a04 23       		.byte	0x23
 4332 0a05 0C       		.uleb128 0xc
 4333 0a06 19       		.uleb128 0x19
 4334 0a07 7F050000 		.4byte	.LASF204
 4335 0a0b 0F       		.byte	0xf
 4336 0a0c 7E01     		.2byte	0x17e
 4337 0a0e A0000000 		.4byte	0xa0
 4338 0a12 02       		.byte	0x2
 4339 0a13 23       		.byte	0x23
 4340 0a14 0E       		.uleb128 0xe
 4341 0a15 0D       		.uleb128 0xd
 4342 0a16 65706300 		.ascii	"epc\000"
 4343 0a1a 0F       		.byte	0xf
 4344 0a1b 8201     		.2byte	0x182
 4345 0a1d 46150000 		.4byte	0x1546
 4346 0a21 02       		.byte	0x2
 4347 0a22 23       		.byte	0x23
 4348 0a23 10       		.uleb128 0x10
 4349 0a24 19       		.uleb128 0x19
 4350 0a25 B4040000 		.4byte	.LASF205
 4351 0a29 0F       		.byte	0xf
 4352 0a2a 8601     		.2byte	0x186
 4353 0a2c 960B0000 		.4byte	0xb96
 4354 0a30 02       		.byte	0x2
 4355 0a31 23       		.byte	0x23
 4356 0a32 20       		.uleb128 0x20
ARM GAS  /tmp/cc3IGbAH.s 			page 78


 4357 0a33 19       		.uleb128 0x19
 4358 0a34 930A0000 		.4byte	.LASF206
 4359 0a38 0F       		.byte	0xf
 4360 0a39 8A01     		.2byte	0x18a
 4361 0a3b 3F050000 		.4byte	0x53f
 4362 0a3f 02       		.byte	0x2
 4363 0a40 23       		.byte	0x23
 4364 0a41 24       		.uleb128 0x24
 4365 0a42 19       		.uleb128 0x19
 4366 0a43 65050000 		.4byte	.LASF207
 4367 0a47 0F       		.byte	0xf
 4368 0a48 8E01     		.2byte	0x18e
 4369 0a4a 8A000000 		.4byte	0x8a
 4370 0a4e 02       		.byte	0x2
 4371 0a4f 23       		.byte	0x23
 4372 0a50 28       		.uleb128 0x28
 4373 0a51 19       		.uleb128 0x19
 4374 0a52 75080000 		.4byte	.LASF208
 4375 0a56 0F       		.byte	0xf
 4376 0a57 9201     		.2byte	0x192
 4377 0a59 100C0000 		.4byte	0xc10
 4378 0a5d 02       		.byte	0x2
 4379 0a5e 23       		.byte	0x23
 4380 0a5f 2C       		.uleb128 0x2c
 4381 0a60 19       		.uleb128 0x19
 4382 0a61 D4060000 		.4byte	.LASF209
 4383 0a65 0F       		.byte	0xf
 4384 0a66 9601     		.2byte	0x196
 4385 0a68 61150000 		.4byte	0x1561
 4386 0a6c 02       		.byte	0x2
 4387 0a6d 23       		.byte	0x23
 4388 0a6e 30       		.uleb128 0x30
 4389 0a6f 19       		.uleb128 0x19
 4390 0a70 50080000 		.4byte	.LASF210
 4391 0a74 0F       		.byte	0xf
 4392 0a75 9A01     		.2byte	0x19a
 4393 0a77 A0000000 		.4byte	0xa0
 4394 0a7b 02       		.byte	0x2
 4395 0a7c 23       		.byte	0x23
 4396 0a7d 38       		.uleb128 0x38
 4397 0a7e 19       		.uleb128 0x19
 4398 0a7f 5D080000 		.4byte	.LASF211
 4399 0a83 0F       		.byte	0xf
 4400 0a84 9E01     		.2byte	0x19e
 4401 0a86 95000000 		.4byte	0x95
 4402 0a8a 02       		.byte	0x2
 4403 0a8b 23       		.byte	0x23
 4404 0a8c 3A       		.uleb128 0x3a
 4405 0a8d 19       		.uleb128 0x19
 4406 0a8e CE130000 		.4byte	.LASF212
 4407 0a92 0F       		.byte	0xf
 4408 0a93 A201     		.2byte	0x1a2
 4409 0a95 95000000 		.4byte	0x95
 4410 0a99 02       		.byte	0x2
 4411 0a9a 23       		.byte	0x23
 4412 0a9b 3B       		.uleb128 0x3b
 4413 0a9c 0D       		.uleb128 0xd
ARM GAS  /tmp/cc3IGbAH.s 			page 79


 4414 0a9d 6F746700 		.ascii	"otg\000"
 4415 0aa1 0F       		.byte	0xf
 4416 0aa2 AA01     		.2byte	0x1aa
 4417 0aa4 71150000 		.4byte	0x1571
 4418 0aa8 02       		.byte	0x2
 4419 0aa9 23       		.byte	0x23
 4420 0aaa 3C       		.uleb128 0x3c
 4421 0aab 19       		.uleb128 0x19
 4422 0aac 060D0000 		.4byte	.LASF213
 4423 0ab0 0F       		.byte	0xf
 4424 0ab1 AE01     		.2byte	0x1ae
 4425 0ab3 77150000 		.4byte	0x1577
 4426 0ab7 02       		.byte	0x2
 4427 0ab8 23       		.byte	0x23
 4428 0ab9 40       		.uleb128 0x40
 4429 0aba 19       		.uleb128 0x19
 4430 0abb 74130000 		.4byte	.LASF214
 4431 0abf 0F       		.byte	0xf
 4432 0ac0 B201     		.2byte	0x1b2
 4433 0ac2 B6000000 		.4byte	0xb6
 4434 0ac6 02       		.byte	0x2
 4435 0ac7 23       		.byte	0x23
 4436 0ac8 44       		.uleb128 0x44
 4437 0ac9 19       		.uleb128 0x19
 4438 0aca 840B0000 		.4byte	.LASF215
 4439 0ace 0F       		.byte	0xf
 4440 0acf B601     		.2byte	0x1b6
 4441 0ad1 B6000000 		.4byte	0xb6
 4442 0ad5 02       		.byte	0x2
 4443 0ad6 23       		.byte	0x23
 4444 0ad7 48       		.uleb128 0x48
 4445 0ad8 19       		.uleb128 0x19
 4446 0ad9 25090000 		.4byte	.LASF216
 4447 0add 0F       		.byte	0xf
 4448 0ade BA01     		.2byte	0x1ba
 4449 0ae0 84020000 		.4byte	0x284
 4450 0ae4 02       		.byte	0x2
 4451 0ae5 23       		.byte	0x23
 4452 0ae6 4C       		.uleb128 0x4c
 4453 0ae7 19       		.uleb128 0x19
 4454 0ae8 07030000 		.4byte	.LASF217
 4455 0aec 0F       		.byte	0xf
 4456 0aed BE01     		.2byte	0x1be
 4457 0aef 84020000 		.4byte	0x284
 4458 0af3 02       		.byte	0x2
 4459 0af4 23       		.byte	0x23
 4460 0af5 50       		.uleb128 0x50
 4461 0af6 19       		.uleb128 0x19
 4462 0af7 8C0F0000 		.4byte	.LASF218
 4463 0afb 0F       		.byte	0xf
 4464 0afc C201     		.2byte	0x1c2
 4465 0afe 82150000 		.4byte	0x1582
 4466 0b02 02       		.byte	0x2
 4467 0b03 23       		.byte	0x23
 4468 0b04 58       		.uleb128 0x58
 4469 0b05 00       		.byte	0
 4470 0b06 07       		.uleb128 0x7
ARM GAS  /tmp/cc3IGbAH.s 			page 80


 4471 0b07 E5110000 		.4byte	.LASF219
 4472 0b0b 0E       		.byte	0xe
 4473 0b0c E1       		.byte	0xe1
 4474 0b0d 95000000 		.4byte	0x95
 4475 0b11 1C       		.uleb128 0x1c
 4476 0b12 01       		.byte	0x1
 4477 0b13 0E       		.byte	0xe
 4478 0b14 E6       		.byte	0xe6
 4479 0b15 380B0000 		.4byte	0xb38
 4480 0b19 15       		.uleb128 0x15
 4481 0b1a 90060000 		.4byte	.LASF220
 4482 0b1e 00       		.sleb128 0
 4483 0b1f 15       		.uleb128 0x15
 4484 0b20 5A0C0000 		.4byte	.LASF221
 4485 0b24 01       		.sleb128 1
 4486 0b25 15       		.uleb128 0x15
 4487 0b26 3B0A0000 		.4byte	.LASF222
 4488 0b2a 02       		.sleb128 2
 4489 0b2b 15       		.uleb128 0x15
 4490 0b2c 23070000 		.4byte	.LASF223
 4491 0b30 03       		.sleb128 3
 4492 0b31 15       		.uleb128 0x15
 4493 0b32 61010000 		.4byte	.LASF224
 4494 0b36 04       		.sleb128 4
 4495 0b37 00       		.byte	0
 4496 0b38 07       		.uleb128 0x7
 4497 0b39 40090000 		.4byte	.LASF225
 4498 0b3d 0E       		.byte	0xe
 4499 0b3e EC       		.byte	0xec
 4500 0b3f 110B0000 		.4byte	0xb11
 4501 0b43 1C       		.uleb128 0x1c
 4502 0b44 01       		.byte	0x1
 4503 0b45 0E       		.byte	0xe
 4504 0b46 F1       		.byte	0xf1
 4505 0b47 5E0B0000 		.4byte	0xb5e
 4506 0b4b 15       		.uleb128 0x15
 4507 0b4c E3120000 		.4byte	.LASF226
 4508 0b50 00       		.sleb128 0
 4509 0b51 15       		.uleb128 0x15
 4510 0b52 6B070000 		.4byte	.LASF227
 4511 0b56 01       		.sleb128 1
 4512 0b57 15       		.uleb128 0x15
 4513 0b58 EA030000 		.4byte	.LASF228
 4514 0b5c 02       		.sleb128 2
 4515 0b5d 00       		.byte	0
 4516 0b5e 07       		.uleb128 0x7
 4517 0b5f 57020000 		.4byte	.LASF229
 4518 0b63 0E       		.byte	0xe
 4519 0b64 F5       		.byte	0xf5
 4520 0b65 430B0000 		.4byte	0xb43
 4521 0b69 1C       		.uleb128 0x1c
 4522 0b6a 01       		.byte	0x1
 4523 0b6b 0E       		.byte	0xe
 4524 0b6c FA       		.byte	0xfa
 4525 0b6d 960B0000 		.4byte	0xb96
 4526 0b71 15       		.uleb128 0x15
 4527 0b72 5A030000 		.4byte	.LASF230
ARM GAS  /tmp/cc3IGbAH.s 			page 81


 4528 0b76 00       		.sleb128 0
 4529 0b77 15       		.uleb128 0x15
 4530 0b78 D9000000 		.4byte	.LASF231
 4531 0b7c 01       		.sleb128 1
 4532 0b7d 15       		.uleb128 0x15
 4533 0b7e 41130000 		.4byte	.LASF232
 4534 0b82 02       		.sleb128 2
 4535 0b83 15       		.uleb128 0x15
 4536 0b84 9A130000 		.4byte	.LASF233
 4537 0b88 03       		.sleb128 3
 4538 0b89 15       		.uleb128 0x15
 4539 0b8a 1E130000 		.4byte	.LASF234
 4540 0b8e 04       		.sleb128 4
 4541 0b8f 15       		.uleb128 0x15
 4542 0b90 59090000 		.4byte	.LASF235
 4543 0b94 05       		.sleb128 5
 4544 0b95 00       		.byte	0
 4545 0b96 1A       		.uleb128 0x1a
 4546 0b97 0D020000 		.4byte	.LASF236
 4547 0b9b 0E       		.byte	0xe
 4548 0b9c 0101     		.2byte	0x101
 4549 0b9e 690B0000 		.4byte	0xb69
 4550 0ba2 1D       		.uleb128 0x1d
 4551 0ba3 01       		.byte	0x1
 4552 0ba4 0E       		.byte	0xe
 4553 0ba5 0601     		.2byte	0x106
 4554 0ba7 D00B0000 		.4byte	0xbd0
 4555 0bab 15       		.uleb128 0x15
 4556 0bac 22100000 		.4byte	.LASF237
 4557 0bb0 00       		.sleb128 0
 4558 0bb1 15       		.uleb128 0x15
 4559 0bb2 6E020000 		.4byte	.LASF238
 4560 0bb6 01       		.sleb128 1
 4561 0bb7 15       		.uleb128 0x15
 4562 0bb8 F50E0000 		.4byte	.LASF239
 4563 0bbc 02       		.sleb128 2
 4564 0bbd 15       		.uleb128 0x15
 4565 0bbe 08120000 		.4byte	.LASF240
 4566 0bc2 03       		.sleb128 3
 4567 0bc3 15       		.uleb128 0x15
 4568 0bc4 EF090000 		.4byte	.LASF241
 4569 0bc8 04       		.sleb128 4
 4570 0bc9 15       		.uleb128 0x15
 4571 0bca D8030000 		.4byte	.LASF242
 4572 0bce 05       		.sleb128 5
 4573 0bcf 00       		.byte	0
 4574 0bd0 1A       		.uleb128 0x1a
 4575 0bd1 F4060000 		.4byte	.LASF243
 4576 0bd5 0E       		.byte	0xe
 4577 0bd6 0D01     		.2byte	0x10d
 4578 0bd8 A20B0000 		.4byte	0xba2
 4579 0bdc 18       		.uleb128 0x18
 4580 0bdd 08       		.byte	0x8
 4581 0bde 0E       		.byte	0xe
 4582 0bdf 1201     		.2byte	0x112
 4583 0be1 040C0000 		.4byte	0xc04
 4584 0be5 19       		.uleb128 0x19
ARM GAS  /tmp/cc3IGbAH.s 			page 82


 4585 0be6 08070000 		.4byte	.LASF244
 4586 0bea 0E       		.byte	0xe
 4587 0beb 1601     		.2byte	0x116
 4588 0bed 8A000000 		.4byte	0x8a
 4589 0bf1 02       		.byte	0x2
 4590 0bf2 23       		.byte	0x23
 4591 0bf3 00       		.uleb128 0
 4592 0bf4 19       		.uleb128 0x19
 4593 0bf5 C3050000 		.4byte	.LASF245
 4594 0bf9 0E       		.byte	0xe
 4595 0bfa 1A01     		.2byte	0x11a
 4596 0bfc 5B050000 		.4byte	0x55b
 4597 0c00 02       		.byte	0x2
 4598 0c01 23       		.byte	0x23
 4599 0c02 04       		.uleb128 0x4
 4600 0c03 00       		.byte	0
 4601 0c04 1A       		.uleb128 0x1a
 4602 0c05 B3060000 		.4byte	.LASF246
 4603 0c09 0E       		.byte	0xe
 4604 0c0a 1B01     		.2byte	0x11b
 4605 0c0c DC0B0000 		.4byte	0xbdc
 4606 0c10 1A       		.uleb128 0x1a
 4607 0c11 FF100000 		.4byte	.LASF247
 4608 0c15 0E       		.byte	0xe
 4609 0c16 2301     		.2byte	0x123
 4610 0c18 1C0C0000 		.4byte	0xc1c
 4611 0c1c 05       		.uleb128 0x5
 4612 0c1d 04       		.byte	0x4
 4613 0c1e 220C0000 		.4byte	0xc22
 4614 0c22 13       		.uleb128 0x13
 4615 0c23 01       		.byte	0x1
 4616 0c24 2E0C0000 		.4byte	0xc2e
 4617 0c28 12       		.uleb128 0x12
 4618 0c29 2E0C0000 		.4byte	0xc2e
 4619 0c2d 00       		.byte	0
 4620 0c2e 05       		.uleb128 0x5
 4621 0c2f 04       		.byte	0x4
 4622 0c30 B1090000 		.4byte	0x9b1
 4623 0c34 1A       		.uleb128 0x1a
 4624 0c35 B00A0000 		.4byte	.LASF248
 4625 0c39 0E       		.byte	0xe
 4626 0c3a 2C01     		.2byte	0x12c
 4627 0c3c 400C0000 		.4byte	0xc40
 4628 0c40 05       		.uleb128 0x5
 4629 0c41 04       		.byte	0x4
 4630 0c42 460C0000 		.4byte	0xc46
 4631 0c46 13       		.uleb128 0x13
 4632 0c47 01       		.byte	0x1
 4633 0c48 570C0000 		.4byte	0xc57
 4634 0c4c 12       		.uleb128 0x12
 4635 0c4d 2E0C0000 		.4byte	0xc2e
 4636 0c51 12       		.uleb128 0x12
 4637 0c52 060B0000 		.4byte	0xb06
 4638 0c56 00       		.byte	0
 4639 0c57 1A       		.uleb128 0x1a
 4640 0c58 02060000 		.4byte	.LASF249
 4641 0c5c 0E       		.byte	0xe
ARM GAS  /tmp/cc3IGbAH.s 			page 83


 4642 0c5d 3501     		.2byte	0x135
 4643 0c5f 630C0000 		.4byte	0xc63
 4644 0c63 05       		.uleb128 0x5
 4645 0c64 04       		.byte	0x4
 4646 0c65 690C0000 		.4byte	0xc69
 4647 0c69 13       		.uleb128 0x13
 4648 0c6a 01       		.byte	0x1
 4649 0c6b 7A0C0000 		.4byte	0xc7a
 4650 0c6f 12       		.uleb128 0x12
 4651 0c70 2E0C0000 		.4byte	0xc2e
 4652 0c74 12       		.uleb128 0x12
 4653 0c75 D00B0000 		.4byte	0xbd0
 4654 0c79 00       		.byte	0
 4655 0c7a 1A       		.uleb128 0x1a
 4656 0c7b E7100000 		.4byte	.LASF250
 4657 0c7f 0E       		.byte	0xe
 4658 0c80 4101     		.2byte	0x141
 4659 0c82 860C0000 		.4byte	0xc86
 4660 0c86 05       		.uleb128 0x5
 4661 0c87 04       		.byte	0x4
 4662 0c88 8C0C0000 		.4byte	0xc8c
 4663 0c8c 11       		.uleb128 0x11
 4664 0c8d 01       		.byte	0x1
 4665 0c8e CC000000 		.4byte	0xcc
 4666 0c92 9C0C0000 		.4byte	0xc9c
 4667 0c96 12       		.uleb128 0x12
 4668 0c97 2E0C0000 		.4byte	0xc2e
 4669 0c9b 00       		.byte	0
 4670 0c9c 1A       		.uleb128 0x1a
 4671 0c9d 670F0000 		.4byte	.LASF251
 4672 0ca1 0E       		.byte	0xe
 4673 0ca2 4601     		.2byte	0x146
 4674 0ca4 A80C0000 		.4byte	0xca8
 4675 0ca8 05       		.uleb128 0x5
 4676 0ca9 04       		.byte	0x4
 4677 0caa AE0C0000 		.4byte	0xcae
 4678 0cae 11       		.uleb128 0x11
 4679 0caf 01       		.byte	0x1
 4680 0cb0 CD0C0000 		.4byte	0xccd
 4681 0cb4 CD0C0000 		.4byte	0xccd
 4682 0cb8 12       		.uleb128 0x12
 4683 0cb9 2E0C0000 		.4byte	0xc2e
 4684 0cbd 12       		.uleb128 0x12
 4685 0cbe 95000000 		.4byte	0x95
 4686 0cc2 12       		.uleb128 0x12
 4687 0cc3 95000000 		.4byte	0x95
 4688 0cc7 12       		.uleb128 0x12
 4689 0cc8 A0000000 		.4byte	0xa0
 4690 0ccc 00       		.byte	0
 4691 0ccd 05       		.uleb128 0x5
 4692 0cce 04       		.byte	0x4
 4693 0ccf D30C0000 		.4byte	0xcd3
 4694 0cd3 06       		.uleb128 0x6
 4695 0cd4 040C0000 		.4byte	0xc04
 4696 0cd8 0B       		.uleb128 0xb
 4697 0cd9 20       		.byte	0x20
 4698 0cda 10       		.byte	0x10
ARM GAS  /tmp/cc3IGbAH.s 			page 84


 4699 0cdb 39       		.byte	0x39
 4700 0cdc 510D0000 		.4byte	0xd51
 4701 0ce0 09       		.uleb128 0x9
 4702 0ce1 94080000 		.4byte	.LASF252
 4703 0ce5 10       		.byte	0x10
 4704 0ce6 3A       		.byte	0x3a
 4705 0ce7 7E030000 		.4byte	0x37e
 4706 0ceb 02       		.byte	0x2
 4707 0cec 23       		.byte	0x23
 4708 0ced 00       		.uleb128 0
 4709 0cee 09       		.uleb128 0x9
 4710 0cef 66000000 		.4byte	.LASF253
 4711 0cf3 10       		.byte	0x10
 4712 0cf4 3C       		.byte	0x3c
 4713 0cf5 7E030000 		.4byte	0x37e
 4714 0cf9 02       		.byte	0x2
 4715 0cfa 23       		.byte	0x23
 4716 0cfb 04       		.uleb128 0x4
 4717 0cfc 09       		.uleb128 0x9
 4718 0cfd E60D0000 		.4byte	.LASF254
 4719 0d01 10       		.byte	0x10
 4720 0d02 3D       		.byte	0x3d
 4721 0d03 7E030000 		.4byte	0x37e
 4722 0d07 02       		.byte	0x2
 4723 0d08 23       		.byte	0x23
 4724 0d09 08       		.uleb128 0x8
 4725 0d0a 09       		.uleb128 0x9
 4726 0d0b 100E0000 		.4byte	.LASF255
 4727 0d0f 10       		.byte	0x10
 4728 0d10 3E       		.byte	0x3e
 4729 0d11 7E030000 		.4byte	0x37e
 4730 0d15 02       		.byte	0x2
 4731 0d16 23       		.byte	0x23
 4732 0d17 0C       		.uleb128 0xc
 4733 0d18 09       		.uleb128 0x9
 4734 0d19 54060000 		.4byte	.LASF256
 4735 0d1d 10       		.byte	0x10
 4736 0d1e 40       		.byte	0x40
 4737 0d1f 7E030000 		.4byte	0x37e
 4738 0d23 02       		.byte	0x2
 4739 0d24 23       		.byte	0x23
 4740 0d25 10       		.uleb128 0x10
 4741 0d26 09       		.uleb128 0x9
 4742 0d27 32100000 		.4byte	.LASF257
 4743 0d2b 10       		.byte	0x10
 4744 0d2c 42       		.byte	0x42
 4745 0d2d 7E030000 		.4byte	0x37e
 4746 0d31 02       		.byte	0x2
 4747 0d32 23       		.byte	0x23
 4748 0d33 14       		.uleb128 0x14
 4749 0d34 09       		.uleb128 0x9
 4750 0d35 3A100000 		.4byte	.LASF258
 4751 0d39 10       		.byte	0x10
 4752 0d3a 43       		.byte	0x43
 4753 0d3b 7E030000 		.4byte	0x37e
 4754 0d3f 02       		.byte	0x2
 4755 0d40 23       		.byte	0x23
ARM GAS  /tmp/cc3IGbAH.s 			page 85


 4756 0d41 18       		.uleb128 0x18
 4757 0d42 09       		.uleb128 0x9
 4758 0d43 DF100000 		.4byte	.LASF259
 4759 0d47 10       		.byte	0x10
 4760 0d48 44       		.byte	0x44
 4761 0d49 7E030000 		.4byte	0x37e
 4762 0d4d 02       		.byte	0x2
 4763 0d4e 23       		.byte	0x23
 4764 0d4f 1C       		.uleb128 0x1c
 4765 0d50 00       		.byte	0
 4766 0d51 07       		.uleb128 0x7
 4767 0d52 32060000 		.4byte	.LASF260
 4768 0d56 10       		.byte	0x10
 4769 0d57 45       		.byte	0x45
 4770 0d58 D80C0000 		.4byte	0xcd8
 4771 0d5c 0B       		.uleb128 0xb
 4772 0d5d 20       		.byte	0x20
 4773 0d5e 10       		.byte	0x10
 4774 0d5f 4A       		.byte	0x4a
 4775 0d60 D50D0000 		.4byte	0xdd5
 4776 0d64 09       		.uleb128 0x9
 4777 0d65 F7100000 		.4byte	.LASF261
 4778 0d69 10       		.byte	0x10
 4779 0d6a 4B       		.byte	0x4b
 4780 0d6b 7E030000 		.4byte	0x37e
 4781 0d6f 02       		.byte	0x2
 4782 0d70 23       		.byte	0x23
 4783 0d71 00       		.uleb128 0
 4784 0d72 09       		.uleb128 0x9
 4785 0d73 5F000000 		.4byte	.LASF262
 4786 0d77 10       		.byte	0x10
 4787 0d78 4D       		.byte	0x4d
 4788 0d79 7E030000 		.4byte	0x37e
 4789 0d7d 02       		.byte	0x2
 4790 0d7e 23       		.byte	0x23
 4791 0d7f 04       		.uleb128 0x4
 4792 0d80 09       		.uleb128 0x9
 4793 0d81 64110000 		.4byte	.LASF263
 4794 0d85 10       		.byte	0x10
 4795 0d86 4E       		.byte	0x4e
 4796 0d87 7E030000 		.4byte	0x37e
 4797 0d8b 02       		.byte	0x2
 4798 0d8c 23       		.byte	0x23
 4799 0d8d 08       		.uleb128 0x8
 4800 0d8e 09       		.uleb128 0x9
 4801 0d8f 85000000 		.4byte	.LASF264
 4802 0d93 10       		.byte	0x10
 4803 0d94 50       		.byte	0x50
 4804 0d95 7E030000 		.4byte	0x37e
 4805 0d99 02       		.byte	0x2
 4806 0d9a 23       		.byte	0x23
 4807 0d9b 0C       		.uleb128 0xc
 4808 0d9c 09       		.uleb128 0x9
 4809 0d9d CB040000 		.4byte	.LASF265
 4810 0da1 10       		.byte	0x10
 4811 0da2 51       		.byte	0x51
 4812 0da3 7E030000 		.4byte	0x37e
ARM GAS  /tmp/cc3IGbAH.s 			page 86


 4813 0da7 02       		.byte	0x2
 4814 0da8 23       		.byte	0x23
 4815 0da9 10       		.uleb128 0x10
 4816 0daa 09       		.uleb128 0x9
 4817 0dab 32100000 		.4byte	.LASF257
 4818 0daf 10       		.byte	0x10
 4819 0db0 53       		.byte	0x53
 4820 0db1 7E030000 		.4byte	0x37e
 4821 0db5 02       		.byte	0x2
 4822 0db6 23       		.byte	0x23
 4823 0db7 14       		.uleb128 0x14
 4824 0db8 09       		.uleb128 0x9
 4825 0db9 42100000 		.4byte	.LASF266
 4826 0dbd 10       		.byte	0x10
 4827 0dbe 54       		.byte	0x54
 4828 0dbf 7E030000 		.4byte	0x37e
 4829 0dc3 02       		.byte	0x2
 4830 0dc4 23       		.byte	0x23
 4831 0dc5 18       		.uleb128 0x18
 4832 0dc6 09       		.uleb128 0x9
 4833 0dc7 5D100000 		.4byte	.LASF267
 4834 0dcb 10       		.byte	0x10
 4835 0dcc 56       		.byte	0x56
 4836 0dcd 7E030000 		.4byte	0x37e
 4837 0dd1 02       		.byte	0x2
 4838 0dd2 23       		.byte	0x23
 4839 0dd3 1C       		.uleb128 0x1c
 4840 0dd4 00       		.byte	0
 4841 0dd5 07       		.uleb128 0x7
 4842 0dd6 C50E0000 		.4byte	.LASF268
 4843 0dda 10       		.byte	0x10
 4844 0ddb 57       		.byte	0x57
 4845 0ddc 5C0D0000 		.4byte	0xd5c
 4846 0de0 0B       		.uleb128 0xb
 4847 0de1 20       		.byte	0x20
 4848 0de2 10       		.byte	0x10
 4849 0de3 5C       		.byte	0x5c
 4850 0de4 590E0000 		.4byte	0xe59
 4851 0de8 09       		.uleb128 0x9
 4852 0de9 8F070000 		.4byte	.LASF269
 4853 0ded 10       		.byte	0x10
 4854 0dee 5D       		.byte	0x5d
 4855 0def 7E030000 		.4byte	0x37e
 4856 0df3 02       		.byte	0x2
 4857 0df4 23       		.byte	0x23
 4858 0df5 00       		.uleb128 0
 4859 0df6 09       		.uleb128 0x9
 4860 0df7 5F000000 		.4byte	.LASF262
 4861 0dfb 10       		.byte	0x10
 4862 0dfc 5F       		.byte	0x5f
 4863 0dfd 7E030000 		.4byte	0x37e
 4864 0e01 02       		.byte	0x2
 4865 0e02 23       		.byte	0x23
 4866 0e03 04       		.uleb128 0x4
 4867 0e04 09       		.uleb128 0x9
 4868 0e05 FB030000 		.4byte	.LASF270
 4869 0e09 10       		.byte	0x10
ARM GAS  /tmp/cc3IGbAH.s 			page 87


 4870 0e0a 60       		.byte	0x60
 4871 0e0b 7E030000 		.4byte	0x37e
 4872 0e0f 02       		.byte	0x2
 4873 0e10 23       		.byte	0x23
 4874 0e11 08       		.uleb128 0x8
 4875 0e12 09       		.uleb128 0x9
 4876 0e13 85000000 		.4byte	.LASF264
 4877 0e17 10       		.byte	0x10
 4878 0e18 62       		.byte	0x62
 4879 0e19 7E030000 		.4byte	0x37e
 4880 0e1d 02       		.byte	0x2
 4881 0e1e 23       		.byte	0x23
 4882 0e1f 0C       		.uleb128 0xc
 4883 0e20 09       		.uleb128 0x9
 4884 0e21 390B0000 		.4byte	.LASF271
 4885 0e25 10       		.byte	0x10
 4886 0e26 63       		.byte	0x63
 4887 0e27 7E030000 		.4byte	0x37e
 4888 0e2b 02       		.byte	0x2
 4889 0e2c 23       		.byte	0x23
 4890 0e2d 10       		.uleb128 0x10
 4891 0e2e 09       		.uleb128 0x9
 4892 0e2f 32100000 		.4byte	.LASF257
 4893 0e33 10       		.byte	0x10
 4894 0e34 65       		.byte	0x65
 4895 0e35 7E030000 		.4byte	0x37e
 4896 0e39 02       		.byte	0x2
 4897 0e3a 23       		.byte	0x23
 4898 0e3b 14       		.uleb128 0x14
 4899 0e3c 09       		.uleb128 0x9
 4900 0e3d 3A100000 		.4byte	.LASF258
 4901 0e41 10       		.byte	0x10
 4902 0e42 66       		.byte	0x66
 4903 0e43 7E030000 		.4byte	0x37e
 4904 0e47 02       		.byte	0x2
 4905 0e48 23       		.byte	0x23
 4906 0e49 18       		.uleb128 0x18
 4907 0e4a 09       		.uleb128 0x9
 4908 0e4b 5D100000 		.4byte	.LASF267
 4909 0e4f 10       		.byte	0x10
 4910 0e50 67       		.byte	0x67
 4911 0e51 7E030000 		.4byte	0x37e
 4912 0e55 02       		.byte	0x2
 4913 0e56 23       		.byte	0x23
 4914 0e57 1C       		.uleb128 0x1c
 4915 0e58 00       		.byte	0
 4916 0e59 07       		.uleb128 0x7
 4917 0e5a 4D050000 		.4byte	.LASF272
 4918 0e5e 10       		.byte	0x10
 4919 0e5f 68       		.byte	0x68
 4920 0e60 E00D0000 		.4byte	0xde0
 4921 0e64 1E       		.uleb128 0x1e
 4922 0e65 00100100 		.4byte	0x11000
 4923 0e69 10       		.byte	0x10
 4924 0e6a 6D       		.byte	0x6d
 4925 0e6b B3110000 		.4byte	0x11b3
 4926 0e6f 09       		.uleb128 0x9
ARM GAS  /tmp/cc3IGbAH.s 			page 88


 4927 0e70 8F090000 		.4byte	.LASF273
 4928 0e74 10       		.byte	0x10
 4929 0e75 6E       		.byte	0x6e
 4930 0e76 7E030000 		.4byte	0x37e
 4931 0e7a 02       		.byte	0x2
 4932 0e7b 23       		.byte	0x23
 4933 0e7c 00       		.uleb128 0
 4934 0e7d 09       		.uleb128 0x9
 4935 0e7e 5A0E0000 		.4byte	.LASF274
 4936 0e82 10       		.byte	0x10
 4937 0e83 6F       		.byte	0x6f
 4938 0e84 7E030000 		.4byte	0x37e
 4939 0e88 02       		.byte	0x2
 4940 0e89 23       		.byte	0x23
 4941 0e8a 04       		.uleb128 0x4
 4942 0e8b 09       		.uleb128 0x9
 4943 0e8c 8C080000 		.4byte	.LASF275
 4944 0e90 10       		.byte	0x10
 4945 0e91 70       		.byte	0x70
 4946 0e92 7E030000 		.4byte	0x37e
 4947 0e96 02       		.byte	0x2
 4948 0e97 23       		.byte	0x23
 4949 0e98 08       		.uleb128 0x8
 4950 0e99 09       		.uleb128 0x9
 4951 0e9a 92130000 		.4byte	.LASF276
 4952 0e9e 10       		.byte	0x10
 4953 0e9f 71       		.byte	0x71
 4954 0ea0 7E030000 		.4byte	0x37e
 4955 0ea4 02       		.byte	0x2
 4956 0ea5 23       		.byte	0x23
 4957 0ea6 0C       		.uleb128 0xc
 4958 0ea7 09       		.uleb128 0x9
 4959 0ea8 EC060000 		.4byte	.LASF277
 4960 0eac 10       		.byte	0x10
 4961 0ead 72       		.byte	0x72
 4962 0eae 7E030000 		.4byte	0x37e
 4963 0eb2 02       		.byte	0x2
 4964 0eb3 23       		.byte	0x23
 4965 0eb4 10       		.uleb128 0x10
 4966 0eb5 09       		.uleb128 0x9
 4967 0eb6 14110000 		.4byte	.LASF278
 4968 0eba 10       		.byte	0x10
 4969 0ebb 73       		.byte	0x73
 4970 0ebc 7E030000 		.4byte	0x37e
 4971 0ec0 02       		.byte	0x2
 4972 0ec1 23       		.byte	0x23
 4973 0ec2 14       		.uleb128 0x14
 4974 0ec3 09       		.uleb128 0x9
 4975 0ec4 8D0C0000 		.4byte	.LASF279
 4976 0ec8 10       		.byte	0x10
 4977 0ec9 74       		.byte	0x74
 4978 0eca 7E030000 		.4byte	0x37e
 4979 0ece 02       		.byte	0x2
 4980 0ecf 23       		.byte	0x23
 4981 0ed0 18       		.uleb128 0x18
 4982 0ed1 09       		.uleb128 0x9
 4983 0ed2 E7090000 		.4byte	.LASF280
ARM GAS  /tmp/cc3IGbAH.s 			page 89


 4984 0ed6 10       		.byte	0x10
 4985 0ed7 75       		.byte	0x75
 4986 0ed8 7E030000 		.4byte	0x37e
 4987 0edc 02       		.byte	0x2
 4988 0edd 23       		.byte	0x23
 4989 0ede 1C       		.uleb128 0x1c
 4990 0edf 09       		.uleb128 0x9
 4991 0ee0 D6090000 		.4byte	.LASF281
 4992 0ee4 10       		.byte	0x10
 4993 0ee5 77       		.byte	0x77
 4994 0ee6 7E030000 		.4byte	0x37e
 4995 0eea 02       		.byte	0x2
 4996 0eeb 23       		.byte	0x23
 4997 0eec 20       		.uleb128 0x20
 4998 0eed 09       		.uleb128 0x9
 4999 0eee 63070000 		.4byte	.LASF282
 5000 0ef2 10       		.byte	0x10
 5001 0ef3 79       		.byte	0x79
 5002 0ef4 7E030000 		.4byte	0x37e
 5003 0ef8 02       		.byte	0x2
 5004 0ef9 23       		.byte	0x23
 5005 0efa 24       		.uleb128 0x24
 5006 0efb 09       		.uleb128 0x9
 5007 0efc 80020000 		.4byte	.LASF283
 5008 0f00 10       		.byte	0x10
 5009 0f01 7A       		.byte	0x7a
 5010 0f02 7E030000 		.4byte	0x37e
 5011 0f06 02       		.byte	0x2
 5012 0f07 23       		.byte	0x23
 5013 0f08 28       		.uleb128 0x28
 5014 0f09 09       		.uleb128 0x9
 5015 0f0a 6C110000 		.4byte	.LASF284
 5016 0f0e 10       		.byte	0x10
 5017 0f0f 7C       		.byte	0x7c
 5018 0f10 7E030000 		.4byte	0x37e
 5019 0f14 02       		.byte	0x2
 5020 0f15 23       		.byte	0x23
 5021 0f16 2C       		.uleb128 0x2c
 5022 0f17 09       		.uleb128 0x9
 5023 0f18 B5110000 		.4byte	.LASF285
 5024 0f1c 10       		.byte	0x10
 5025 0f1d 7E       		.byte	0x7e
 5026 0f1e 7E030000 		.4byte	0x37e
 5027 0f22 02       		.byte	0x2
 5028 0f23 23       		.byte	0x23
 5029 0f24 30       		.uleb128 0x30
 5030 0f25 09       		.uleb128 0x9
 5031 0f26 C6110000 		.4byte	.LASF286
 5032 0f2a 10       		.byte	0x10
 5033 0f2b 7F       		.byte	0x7f
 5034 0f2c 7E030000 		.4byte	0x37e
 5035 0f30 02       		.byte	0x2
 5036 0f31 23       		.byte	0x23
 5037 0f32 34       		.uleb128 0x34
 5038 0f33 09       		.uleb128 0x9
 5039 0f34 AE040000 		.4byte	.LASF287
 5040 0f38 10       		.byte	0x10
ARM GAS  /tmp/cc3IGbAH.s 			page 90


 5041 0f39 80       		.byte	0x80
 5042 0f3a 7E030000 		.4byte	0x37e
 5043 0f3e 02       		.byte	0x2
 5044 0f3f 23       		.byte	0x23
 5045 0f40 38       		.uleb128 0x38
 5046 0f41 0A       		.uleb128 0xa
 5047 0f42 43494400 		.ascii	"CID\000"
 5048 0f46 10       		.byte	0x10
 5049 0f47 81       		.byte	0x81
 5050 0f48 7E030000 		.4byte	0x37e
 5051 0f4c 02       		.byte	0x2
 5052 0f4d 23       		.byte	0x23
 5053 0f4e 3C       		.uleb128 0x3c
 5054 0f4f 09       		.uleb128 0x9
 5055 0f50 16130000 		.4byte	.LASF288
 5056 0f54 10       		.byte	0x10
 5057 0f55 82       		.byte	0x82
 5058 0f56 C3110000 		.4byte	0x11c3
 5059 0f5a 02       		.byte	0x2
 5060 0f5b 23       		.byte	0x23
 5061 0f5c 40       		.uleb128 0x40
 5062 0f5d 09       		.uleb128 0x9
 5063 0f5e B20D0000 		.4byte	.LASF289
 5064 0f62 10       		.byte	0x10
 5065 0f63 83       		.byte	0x83
 5066 0f64 7E030000 		.4byte	0x37e
 5067 0f68 03       		.byte	0x3
 5068 0f69 23       		.byte	0x23
 5069 0f6a 8002     		.uleb128 0x100
 5070 0f6c 09       		.uleb128 0x9
 5071 0f6d 16080000 		.4byte	.LASF290
 5072 0f71 10       		.byte	0x10
 5073 0f72 85       		.byte	0x85
 5074 0f73 C8110000 		.4byte	0x11c8
 5075 0f77 03       		.byte	0x3
 5076 0f78 23       		.byte	0x23
 5077 0f79 8402     		.uleb128 0x104
 5078 0f7b 09       		.uleb128 0x9
 5079 0f7c A5130000 		.4byte	.LASF291
 5080 0f80 10       		.byte	0x10
 5081 0f81 87       		.byte	0x87
 5082 0f82 DD110000 		.4byte	0x11dd
 5083 0f86 03       		.byte	0x3
 5084 0f87 23       		.byte	0x23
 5085 0f88 C002     		.uleb128 0x140
 5086 0f8a 09       		.uleb128 0x9
 5087 0f8b 11050000 		.4byte	.LASF292
 5088 0f8f 10       		.byte	0x10
 5089 0f90 88       		.byte	0x88
 5090 0f91 7E030000 		.4byte	0x37e
 5091 0f95 03       		.byte	0x3
 5092 0f96 23       		.byte	0x23
 5093 0f97 8008     		.uleb128 0x400
 5094 0f99 09       		.uleb128 0x9
 5095 0f9a 3C130000 		.4byte	.LASF293
 5096 0f9e 10       		.byte	0x10
 5097 0f9f 89       		.byte	0x89
ARM GAS  /tmp/cc3IGbAH.s 			page 91


 5098 0fa0 7E030000 		.4byte	0x37e
 5099 0fa4 03       		.byte	0x3
 5100 0fa5 23       		.byte	0x23
 5101 0fa6 8408     		.uleb128 0x404
 5102 0fa8 09       		.uleb128 0x9
 5103 0fa9 FC050000 		.4byte	.LASF294
 5104 0fad 10       		.byte	0x10
 5105 0fae 8A       		.byte	0x8a
 5106 0faf 7E030000 		.4byte	0x37e
 5107 0fb3 03       		.byte	0x3
 5108 0fb4 23       		.byte	0x23
 5109 0fb5 8808     		.uleb128 0x408
 5110 0fb7 09       		.uleb128 0x9
 5111 0fb8 67090000 		.4byte	.LASF295
 5112 0fbc 10       		.byte	0x10
 5113 0fbd 8C       		.byte	0x8c
 5114 0fbe 7E030000 		.4byte	0x37e
 5115 0fc2 03       		.byte	0x3
 5116 0fc3 23       		.byte	0x23
 5117 0fc4 8C08     		.uleb128 0x40c
 5118 0fc6 09       		.uleb128 0x9
 5119 0fc7 0E130000 		.4byte	.LASF296
 5120 0fcb 10       		.byte	0x10
 5121 0fcc 8D       		.byte	0x8d
 5122 0fcd 7E030000 		.4byte	0x37e
 5123 0fd1 03       		.byte	0x3
 5124 0fd2 23       		.byte	0x23
 5125 0fd3 9008     		.uleb128 0x410
 5126 0fd5 09       		.uleb128 0x9
 5127 0fd6 420B0000 		.4byte	.LASF297
 5128 0fda 10       		.byte	0x10
 5129 0fdb 8F       		.byte	0x8f
 5130 0fdc 7E030000 		.4byte	0x37e
 5131 0fe0 03       		.byte	0x3
 5132 0fe1 23       		.byte	0x23
 5133 0fe2 9408     		.uleb128 0x414
 5134 0fe4 09       		.uleb128 0x9
 5135 0fe5 510C0000 		.4byte	.LASF298
 5136 0fe9 10       		.byte	0x10
 5137 0fea 91       		.byte	0x91
 5138 0feb 7E030000 		.4byte	0x37e
 5139 0fef 03       		.byte	0x3
 5140 0ff0 23       		.byte	0x23
 5141 0ff1 9808     		.uleb128 0x418
 5142 0ff3 09       		.uleb128 0x9
 5143 0ff4 5E0F0000 		.4byte	.LASF299
 5144 0ff8 10       		.byte	0x10
 5145 0ff9 93       		.byte	0x93
 5146 0ffa F2110000 		.4byte	0x11f2
 5147 0ffe 03       		.byte	0x3
 5148 0fff 23       		.byte	0x23
 5149 1000 9C08     		.uleb128 0x41c
 5150 1002 09       		.uleb128 0x9
 5151 1003 73050000 		.4byte	.LASF300
 5152 1007 10       		.byte	0x10
 5153 1008 94       		.byte	0x94
 5154 1009 7E030000 		.4byte	0x37e
ARM GAS  /tmp/cc3IGbAH.s 			page 92


 5155 100d 03       		.byte	0x3
 5156 100e 23       		.byte	0x23
 5157 100f C008     		.uleb128 0x440
 5158 1011 09       		.uleb128 0x9
 5159 1012 110C0000 		.4byte	.LASF301
 5160 1016 10       		.byte	0x10
 5161 1017 96       		.byte	0x96
 5162 1018 07120000 		.4byte	0x1207
 5163 101c 03       		.byte	0x3
 5164 101d 23       		.byte	0x23
 5165 101e C408     		.uleb128 0x444
 5166 1020 0A       		.uleb128 0xa
 5167 1021 686300   		.ascii	"hc\000"
 5168 1024 10       		.byte	0x10
 5169 1025 97       		.byte	0x97
 5170 1026 0C120000 		.4byte	0x120c
 5171 102a 03       		.byte	0x3
 5172 102b 23       		.byte	0x23
 5173 102c 800A     		.uleb128 0x500
 5174 102e 09       		.uleb128 0x9
 5175 102f 21010000 		.4byte	.LASF302
 5176 1033 10       		.byte	0x10
 5177 1034 98       		.byte	0x98
 5178 1035 2C120000 		.4byte	0x122c
 5179 1039 03       		.byte	0x3
 5180 103a 23       		.byte	0x23
 5181 103b 800E     		.uleb128 0x700
 5182 103d 09       		.uleb128 0x9
 5183 103e 94040000 		.4byte	.LASF303
 5184 1042 10       		.byte	0x10
 5185 1043 99       		.byte	0x99
 5186 1044 7E030000 		.4byte	0x37e
 5187 1048 03       		.byte	0x3
 5188 1049 23       		.byte	0x23
 5189 104a 8010     		.uleb128 0x800
 5190 104c 09       		.uleb128 0x9
 5191 104d F90D0000 		.4byte	.LASF304
 5192 1051 10       		.byte	0x10
 5193 1052 9A       		.byte	0x9a
 5194 1053 7E030000 		.4byte	0x37e
 5195 1057 03       		.byte	0x3
 5196 1058 23       		.byte	0x23
 5197 1059 8410     		.uleb128 0x804
 5198 105b 09       		.uleb128 0x9
 5199 105c 63120000 		.4byte	.LASF305
 5200 1060 10       		.byte	0x10
 5201 1061 9B       		.byte	0x9b
 5202 1062 7E030000 		.4byte	0x37e
 5203 1066 03       		.byte	0x3
 5204 1067 23       		.byte	0x23
 5205 1068 8810     		.uleb128 0x808
 5206 106a 09       		.uleb128 0x9
 5207 106b 6A050000 		.4byte	.LASF306
 5208 106f 10       		.byte	0x10
 5209 1070 9C       		.byte	0x9c
 5210 1071 7E030000 		.4byte	0x37e
 5211 1075 03       		.byte	0x3
ARM GAS  /tmp/cc3IGbAH.s 			page 93


 5212 1076 23       		.byte	0x23
 5213 1077 8C10     		.uleb128 0x80c
 5214 1079 09       		.uleb128 0x9
 5215 107a 65100000 		.4byte	.LASF307
 5216 107e 10       		.byte	0x10
 5217 107f 9D       		.byte	0x9d
 5218 1080 7E030000 		.4byte	0x37e
 5219 1084 03       		.byte	0x3
 5220 1085 23       		.byte	0x23
 5221 1086 9010     		.uleb128 0x810
 5222 1088 09       		.uleb128 0x9
 5223 1089 70030000 		.4byte	.LASF308
 5224 108d 10       		.byte	0x10
 5225 108e 9F       		.byte	0x9f
 5226 108f 7E030000 		.4byte	0x37e
 5227 1093 03       		.byte	0x3
 5228 1094 23       		.byte	0x23
 5229 1095 9410     		.uleb128 0x814
 5230 1097 09       		.uleb128 0x9
 5231 1098 54030000 		.4byte	.LASF309
 5232 109c 10       		.byte	0x10
 5233 109d A1       		.byte	0xa1
 5234 109e 7E030000 		.4byte	0x37e
 5235 10a2 03       		.byte	0x3
 5236 10a3 23       		.byte	0x23
 5237 10a4 9810     		.uleb128 0x818
 5238 10a6 09       		.uleb128 0x9
 5239 10a7 9C0E0000 		.4byte	.LASF310
 5240 10ab 10       		.byte	0x10
 5241 10ac A3       		.byte	0xa3
 5242 10ad 7E030000 		.4byte	0x37e
 5243 10b1 03       		.byte	0x3
 5244 10b2 23       		.byte	0x23
 5245 10b3 9C10     		.uleb128 0x81c
 5246 10b5 09       		.uleb128 0x9
 5247 10b6 6E060000 		.4byte	.LASF311
 5248 10ba 10       		.byte	0x10
 5249 10bb A5       		.byte	0xa5
 5250 10bc 7E030000 		.4byte	0x37e
 5251 10c0 03       		.byte	0x3
 5252 10c1 23       		.byte	0x23
 5253 10c2 A010     		.uleb128 0x820
 5254 10c4 09       		.uleb128 0x9
 5255 10c5 77060000 		.4byte	.LASF312
 5256 10c9 10       		.byte	0x10
 5257 10ca A6       		.byte	0xa6
 5258 10cb 7E030000 		.4byte	0x37e
 5259 10cf 03       		.byte	0x3
 5260 10d0 23       		.byte	0x23
 5261 10d1 A410     		.uleb128 0x824
 5262 10d3 09       		.uleb128 0x9
 5263 10d4 BC0E0000 		.4byte	.LASF313
 5264 10d8 10       		.byte	0x10
 5265 10d9 A7       		.byte	0xa7
 5266 10da 7E030000 		.4byte	0x37e
 5267 10de 03       		.byte	0x3
 5268 10df 23       		.byte	0x23
ARM GAS  /tmp/cc3IGbAH.s 			page 94


 5269 10e0 A810     		.uleb128 0x828
 5270 10e2 09       		.uleb128 0x9
 5271 10e3 85060000 		.4byte	.LASF314
 5272 10e7 10       		.byte	0x10
 5273 10e8 A9       		.byte	0xa9
 5274 10e9 7E030000 		.4byte	0x37e
 5275 10ed 03       		.byte	0x3
 5276 10ee 23       		.byte	0x23
 5277 10ef AC10     		.uleb128 0x82c
 5278 10f1 09       		.uleb128 0x9
 5279 10f2 100D0000 		.4byte	.LASF315
 5280 10f6 10       		.byte	0x10
 5281 10f7 AB       		.byte	0xab
 5282 10f8 7E030000 		.4byte	0x37e
 5283 10fc 03       		.byte	0x3
 5284 10fd 23       		.byte	0x23
 5285 10fe B010     		.uleb128 0x830
 5286 1100 09       		.uleb128 0x9
 5287 1101 A8060000 		.4byte	.LASF316
 5288 1105 10       		.byte	0x10
 5289 1106 AC       		.byte	0xac
 5290 1107 7E030000 		.4byte	0x37e
 5291 110b 03       		.byte	0x3
 5292 110c 23       		.byte	0x23
 5293 110d B410     		.uleb128 0x834
 5294 110f 09       		.uleb128 0x9
 5295 1110 FF060000 		.4byte	.LASF317
 5296 1114 10       		.byte	0x10
 5297 1115 AE       		.byte	0xae
 5298 1116 7E030000 		.4byte	0x37e
 5299 111a 03       		.byte	0x3
 5300 111b 23       		.byte	0x23
 5301 111c B810     		.uleb128 0x838
 5302 111e 09       		.uleb128 0x9
 5303 111f D20A0000 		.4byte	.LASF318
 5304 1123 10       		.byte	0x10
 5305 1124 AF       		.byte	0xaf
 5306 1125 7E030000 		.4byte	0x37e
 5307 1129 03       		.byte	0x3
 5308 112a 23       		.byte	0x23
 5309 112b BC10     		.uleb128 0x83c
 5310 112d 09       		.uleb128 0x9
 5311 112e EF070000 		.4byte	.LASF319
 5312 1132 10       		.byte	0x10
 5313 1133 B0       		.byte	0xb0
 5314 1134 41120000 		.4byte	0x1241
 5315 1138 03       		.byte	0x3
 5316 1139 23       		.byte	0x23
 5317 113a C010     		.uleb128 0x840
 5318 113c 09       		.uleb128 0x9
 5319 113d C00A0000 		.4byte	.LASF320
 5320 1141 10       		.byte	0x10
 5321 1142 B1       		.byte	0xb1
 5322 1143 46120000 		.4byte	0x1246
 5323 1147 03       		.byte	0x3
 5324 1148 23       		.byte	0x23
 5325 1149 8011     		.uleb128 0x880
ARM GAS  /tmp/cc3IGbAH.s 			page 95


 5326 114b 09       		.uleb128 0x9
 5327 114c BD110000 		.4byte	.LASF321
 5328 1150 10       		.byte	0x10
 5329 1151 B2       		.byte	0xb2
 5330 1152 4B120000 		.4byte	0x124b
 5331 1156 03       		.byte	0x3
 5332 1157 23       		.byte	0x23
 5333 1158 C011     		.uleb128 0x8c0
 5334 115a 0A       		.uleb128 0xa
 5335 115b 696500   		.ascii	"ie\000"
 5336 115e 10       		.byte	0x10
 5337 115f B3       		.byte	0xb3
 5338 1160 50120000 		.4byte	0x1250
 5339 1164 03       		.byte	0x3
 5340 1165 23       		.byte	0x23
 5341 1166 8012     		.uleb128 0x900
 5342 1168 0A       		.uleb128 0xa
 5343 1169 6F6500   		.ascii	"oe\000"
 5344 116c 10       		.byte	0x10
 5345 116d B4       		.byte	0xb4
 5346 116e 60120000 		.4byte	0x1260
 5347 1172 03       		.byte	0x3
 5348 1173 23       		.byte	0x23
 5349 1174 8016     		.uleb128 0xb00
 5350 1176 09       		.uleb128 0x9
 5351 1177 80030000 		.4byte	.LASF322
 5352 117b 10       		.byte	0x10
 5353 117c B5       		.byte	0xb5
 5354 117d 70120000 		.4byte	0x1270
 5355 1181 03       		.byte	0x3
 5356 1182 23       		.byte	0x23
 5357 1183 801A     		.uleb128 0xd00
 5358 1185 09       		.uleb128 0x9
 5359 1186 000A0000 		.4byte	.LASF323
 5360 118a 10       		.byte	0x10
 5361 118b B6       		.byte	0xb6
 5362 118c 7E030000 		.4byte	0x37e
 5363 1190 03       		.byte	0x3
 5364 1191 23       		.byte	0x23
 5365 1192 801C     		.uleb128 0xe00
 5366 1194 09       		.uleb128 0x9
 5367 1195 AC110000 		.4byte	.LASF324
 5368 1199 10       		.byte	0x10
 5369 119a B8       		.byte	0xb8
 5370 119b 85120000 		.4byte	0x1285
 5371 119f 03       		.byte	0x3
 5372 11a0 23       		.byte	0x23
 5373 11a1 841C     		.uleb128 0xe04
 5374 11a3 09       		.uleb128 0x9
 5375 11a4 0A0F0000 		.4byte	.LASF325
 5376 11a8 10       		.byte	0x10
 5377 11a9 B9       		.byte	0xb9
 5378 11aa A1120000 		.4byte	0x12a1
 5379 11ae 03       		.byte	0x3
 5380 11af 23       		.byte	0x23
 5381 11b0 8020     		.uleb128 0x1000
 5382 11b2 00       		.byte	0
ARM GAS  /tmp/cc3IGbAH.s 			page 96


 5383 11b3 16       		.uleb128 0x16
 5384 11b4 B6000000 		.4byte	0xb6
 5385 11b8 C3110000 		.4byte	0x11c3
 5386 11bc 17       		.uleb128 0x17
 5387 11bd 68000000 		.4byte	0x68
 5388 11c1 2F       		.byte	0x2f
 5389 11c2 00       		.byte	0
 5390 11c3 0E       		.uleb128 0xe
 5391 11c4 B3110000 		.4byte	0x11b3
 5392 11c8 0E       		.uleb128 0xe
 5393 11c9 B1070000 		.4byte	0x7b1
 5394 11cd 16       		.uleb128 0x16
 5395 11ce B6000000 		.4byte	0xb6
 5396 11d2 DD110000 		.4byte	0x11dd
 5397 11d6 17       		.uleb128 0x17
 5398 11d7 68000000 		.4byte	0x68
 5399 11db AF       		.byte	0xaf
 5400 11dc 00       		.byte	0
 5401 11dd 0E       		.uleb128 0xe
 5402 11de CD110000 		.4byte	0x11cd
 5403 11e2 16       		.uleb128 0x16
 5404 11e3 B6000000 		.4byte	0xb6
 5405 11e7 F2110000 		.4byte	0x11f2
 5406 11eb 17       		.uleb128 0x17
 5407 11ec 68000000 		.4byte	0x68
 5408 11f0 08       		.byte	0x8
 5409 11f1 00       		.byte	0
 5410 11f2 0E       		.uleb128 0xe
 5411 11f3 E2110000 		.4byte	0x11e2
 5412 11f7 16       		.uleb128 0x16
 5413 11f8 B6000000 		.4byte	0xb6
 5414 11fc 07120000 		.4byte	0x1207
 5415 1200 17       		.uleb128 0x17
 5416 1201 68000000 		.4byte	0x68
 5417 1205 2E       		.byte	0x2e
 5418 1206 00       		.byte	0
 5419 1207 0E       		.uleb128 0xe
 5420 1208 F7110000 		.4byte	0x11f7
 5421 120c 16       		.uleb128 0x16
 5422 120d 510D0000 		.4byte	0xd51
 5423 1211 1C120000 		.4byte	0x121c
 5424 1215 17       		.uleb128 0x17
 5425 1216 68000000 		.4byte	0x68
 5426 121a 0F       		.byte	0xf
 5427 121b 00       		.byte	0
 5428 121c 16       		.uleb128 0x16
 5429 121d B6000000 		.4byte	0xb6
 5430 1221 2C120000 		.4byte	0x122c
 5431 1225 17       		.uleb128 0x17
 5432 1226 68000000 		.4byte	0x68
 5433 122a 3F       		.byte	0x3f
 5434 122b 00       		.byte	0
 5435 122c 0E       		.uleb128 0xe
 5436 122d 1C120000 		.4byte	0x121c
 5437 1231 16       		.uleb128 0x16
 5438 1232 B6000000 		.4byte	0xb6
 5439 1236 41120000 		.4byte	0x1241
ARM GAS  /tmp/cc3IGbAH.s 			page 97


 5440 123a 17       		.uleb128 0x17
 5441 123b 68000000 		.4byte	0x68
 5442 123f 0F       		.byte	0xf
 5443 1240 00       		.byte	0
 5444 1241 0E       		.uleb128 0xe
 5445 1242 31120000 		.4byte	0x1231
 5446 1246 0E       		.uleb128 0xe
 5447 1247 31120000 		.4byte	0x1231
 5448 124b 0E       		.uleb128 0xe
 5449 124c 31120000 		.4byte	0x1231
 5450 1250 16       		.uleb128 0x16
 5451 1251 D50D0000 		.4byte	0xdd5
 5452 1255 60120000 		.4byte	0x1260
 5453 1259 17       		.uleb128 0x17
 5454 125a 68000000 		.4byte	0x68
 5455 125e 0F       		.byte	0xf
 5456 125f 00       		.byte	0
 5457 1260 16       		.uleb128 0x16
 5458 1261 590E0000 		.4byte	0xe59
 5459 1265 70120000 		.4byte	0x1270
 5460 1269 17       		.uleb128 0x17
 5461 126a 68000000 		.4byte	0x68
 5462 126e 0F       		.byte	0xf
 5463 126f 00       		.byte	0
 5464 1270 0E       		.uleb128 0xe
 5465 1271 1C120000 		.4byte	0x121c
 5466 1275 16       		.uleb128 0x16
 5467 1276 B6000000 		.4byte	0xb6
 5468 127a 85120000 		.4byte	0x1285
 5469 127e 17       		.uleb128 0x17
 5470 127f 68000000 		.4byte	0x68
 5471 1283 7E       		.byte	0x7e
 5472 1284 00       		.byte	0
 5473 1285 0E       		.uleb128 0xe
 5474 1286 75120000 		.4byte	0x1275
 5475 128a 16       		.uleb128 0x16
 5476 128b B6000000 		.4byte	0xb6
 5477 128f A1120000 		.4byte	0x12a1
 5478 1293 17       		.uleb128 0x17
 5479 1294 68000000 		.4byte	0x68
 5480 1298 0F       		.byte	0xf
 5481 1299 1F       		.uleb128 0x1f
 5482 129a 68000000 		.4byte	0x68
 5483 129e FF03     		.2byte	0x3ff
 5484 12a0 00       		.byte	0
 5485 12a1 0E       		.uleb128 0xe
 5486 12a2 8A120000 		.4byte	0x128a
 5487 12a6 07       		.uleb128 0x7
 5488 12a7 B40B0000 		.4byte	.LASF326
 5489 12ab 10       		.byte	0x10
 5490 12ac BA       		.byte	0xba
 5491 12ad 640E0000 		.4byte	0xe64
 5492 12b1 0B       		.uleb128 0xb
 5493 12b2 0C       		.byte	0xc
 5494 12b3 0F       		.byte	0xf
 5495 12b4 C0       		.byte	0xc0
 5496 12b5 E4120000 		.4byte	0x12e4
ARM GAS  /tmp/cc3IGbAH.s 			page 98


 5497 12b9 09       		.uleb128 0x9
 5498 12ba ED0F0000 		.4byte	.LASF327
 5499 12be 0F       		.byte	0xf
 5500 12bf C1       		.byte	0xc1
 5501 12c0 B6000000 		.4byte	0xb6
 5502 12c4 02       		.byte	0x2
 5503 12c5 23       		.byte	0x23
 5504 12c6 00       		.uleb128 0
 5505 12c7 09       		.uleb128 0x9
 5506 12c8 D70E0000 		.4byte	.LASF328
 5507 12cc 0F       		.byte	0xf
 5508 12cd C2       		.byte	0xc2
 5509 12ce B6000000 		.4byte	0xb6
 5510 12d2 02       		.byte	0x2
 5511 12d3 23       		.byte	0x23
 5512 12d4 04       		.uleb128 0x4
 5513 12d5 09       		.uleb128 0x9
 5514 12d6 C0080000 		.4byte	.LASF329
 5515 12da 0F       		.byte	0xf
 5516 12db C3       		.byte	0xc3
 5517 12dc B6000000 		.4byte	0xb6
 5518 12e0 02       		.byte	0x2
 5519 12e1 23       		.byte	0x23
 5520 12e2 08       		.uleb128 0x8
 5521 12e3 00       		.byte	0
 5522 12e4 07       		.uleb128 0x7
 5523 12e5 C1060000 		.4byte	.LASF330
 5524 12e9 0F       		.byte	0xf
 5525 12ea C4       		.byte	0xc4
 5526 12eb B1120000 		.4byte	0x12b1
 5527 12ef 0B       		.uleb128 0xb
 5528 12f0 04       		.byte	0x4
 5529 12f1 0F       		.byte	0xf
 5530 12f2 D7       		.byte	0xd7
 5531 12f3 06130000 		.4byte	0x1306
 5532 12f7 09       		.uleb128 0x9
 5533 12f8 10030000 		.4byte	.LASF331
 5534 12fc 0F       		.byte	0xf
 5535 12fd DB       		.byte	0xdb
 5536 12fe 5B050000 		.4byte	0x55b
 5537 1302 02       		.byte	0x2
 5538 1303 23       		.byte	0x23
 5539 1304 00       		.uleb128 0
 5540 1305 00       		.byte	0
 5541 1306 0B       		.uleb128 0xb
 5542 1307 04       		.byte	0x4
 5543 1308 0F       		.byte	0xf
 5544 1309 DD       		.byte	0xdd
 5545 130a 1D130000 		.4byte	0x131d
 5546 130e 09       		.uleb128 0x9
 5547 130f 4A100000 		.4byte	.LASF332
 5548 1313 0F       		.byte	0xf
 5549 1314 E1       		.byte	0xe1
 5550 1315 1D130000 		.4byte	0x131d
 5551 1319 02       		.byte	0x2
 5552 131a 23       		.byte	0x23
 5553 131b 00       		.uleb128 0
ARM GAS  /tmp/cc3IGbAH.s 			page 99


 5554 131c 00       		.byte	0
 5555 131d 05       		.uleb128 0x5
 5556 131e 04       		.byte	0x4
 5557 131f 50050000 		.4byte	0x550
 5558 1323 0F       		.uleb128 0xf
 5559 1324 04       		.byte	0x4
 5560 1325 0F       		.byte	0xf
 5561 1326 D6       		.byte	0xd6
 5562 1327 42130000 		.4byte	0x1342
 5563 132b 10       		.uleb128 0x10
 5564 132c EC0D0000 		.4byte	.LASF333
 5565 1330 0F       		.byte	0xf
 5566 1331 DC       		.byte	0xdc
 5567 1332 EF120000 		.4byte	0x12ef
 5568 1336 10       		.uleb128 0x10
 5569 1337 770E0000 		.4byte	.LASF334
 5570 133b 0F       		.byte	0xf
 5571 133c E2       		.byte	0xe2
 5572 133d 06130000 		.4byte	0x1306
 5573 1341 00       		.byte	0
 5574 1342 0B       		.uleb128 0xb
 5575 1343 10       		.byte	0x10
 5576 1344 0F       		.byte	0xf
 5577 1345 C9       		.byte	0xc9
 5578 1346 83130000 		.4byte	0x1383
 5579 134a 09       		.uleb128 0x9
 5580 134b 89130000 		.4byte	.LASF335
 5581 134f 0F       		.byte	0xf
 5582 1350 CD       		.byte	0xcd
 5583 1351 CC000000 		.4byte	0xcc
 5584 1355 02       		.byte	0x2
 5585 1356 23       		.byte	0x23
 5586 1357 00       		.uleb128 0
 5587 1358 09       		.uleb128 0x9
 5588 1359 D6080000 		.4byte	.LASF336
 5589 135d 0F       		.byte	0xf
 5590 135e D1       		.byte	0xd1
 5591 135f 8A000000 		.4byte	0x8a
 5592 1363 02       		.byte	0x2
 5593 1364 23       		.byte	0x23
 5594 1365 04       		.uleb128 0x4
 5595 1366 09       		.uleb128 0x9
 5596 1367 F50C0000 		.4byte	.LASF337
 5597 136b 0F       		.byte	0xf
 5598 136c D5       		.byte	0xd5
 5599 136d 8A000000 		.4byte	0x8a
 5600 1371 02       		.byte	0x2
 5601 1372 23       		.byte	0x23
 5602 1373 08       		.uleb128 0x8
 5603 1374 09       		.uleb128 0x9
 5604 1375 0C100000 		.4byte	.LASF338
 5605 1379 0F       		.byte	0xf
 5606 137a E3       		.byte	0xe3
 5607 137b 23130000 		.4byte	0x1323
 5608 137f 02       		.byte	0x2
 5609 1380 23       		.byte	0x23
 5610 1381 0C       		.uleb128 0xc
ARM GAS  /tmp/cc3IGbAH.s 			page 100


 5611 1382 00       		.byte	0
 5612 1383 07       		.uleb128 0x7
 5613 1384 5B060000 		.4byte	.LASF339
 5614 1388 0F       		.byte	0xf
 5615 1389 E4       		.byte	0xe4
 5616 138a 42130000 		.4byte	0x1342
 5617 138e 0B       		.uleb128 0xb
 5618 138f 04       		.byte	0x4
 5619 1390 0F       		.byte	0xf
 5620 1391 F7       		.byte	0xf7
 5621 1392 A5130000 		.4byte	0x13a5
 5622 1396 09       		.uleb128 0x9
 5623 1397 D0090000 		.4byte	.LASF340
 5624 139b 0F       		.byte	0xf
 5625 139c FB       		.byte	0xfb
 5626 139d 3F050000 		.4byte	0x53f
 5627 13a1 02       		.byte	0x2
 5628 13a2 23       		.byte	0x23
 5629 13a3 00       		.uleb128 0
 5630 13a4 00       		.byte	0
 5631 13a5 0B       		.uleb128 0xb
 5632 13a6 04       		.byte	0x4
 5633 13a7 0F       		.byte	0xf
 5634 13a8 FD       		.byte	0xfd
 5635 13a9 BD130000 		.4byte	0x13bd
 5636 13ad 19       		.uleb128 0x19
 5637 13ae 940E0000 		.4byte	.LASF341
 5638 13b2 0F       		.byte	0xf
 5639 13b3 0101     		.2byte	0x101
 5640 13b5 BD130000 		.4byte	0x13bd
 5641 13b9 02       		.byte	0x2
 5642 13ba 23       		.byte	0x23
 5643 13bb 00       		.uleb128 0
 5644 13bc 00       		.byte	0
 5645 13bd 05       		.uleb128 0x5
 5646 13be 04       		.byte	0x4
 5647 13bf 45050000 		.4byte	0x545
 5648 13c3 0F       		.uleb128 0xf
 5649 13c4 04       		.byte	0x4
 5650 13c5 0F       		.byte	0xf
 5651 13c6 F6       		.byte	0xf6
 5652 13c7 E3130000 		.4byte	0x13e3
 5653 13cb 10       		.uleb128 0x10
 5654 13cc EC0D0000 		.4byte	.LASF333
 5655 13d0 0F       		.byte	0xf
 5656 13d1 FC       		.byte	0xfc
 5657 13d2 8E130000 		.4byte	0x138e
 5658 13d6 20       		.uleb128 0x20
 5659 13d7 770E0000 		.4byte	.LASF334
 5660 13db 0F       		.byte	0xf
 5661 13dc 0201     		.2byte	0x102
 5662 13de A5130000 		.4byte	0x13a5
 5663 13e2 00       		.byte	0
 5664 13e3 0B       		.uleb128 0xb
 5665 13e4 10       		.byte	0x10
 5666 13e5 0F       		.byte	0xf
 5667 13e6 E9       		.byte	0xe9
ARM GAS  /tmp/cc3IGbAH.s 			page 101


 5668 13e7 25140000 		.4byte	0x1425
 5669 13eb 09       		.uleb128 0x9
 5670 13ec 2F0E0000 		.4byte	.LASF342
 5671 13f0 0F       		.byte	0xf
 5672 13f1 ED       		.byte	0xed
 5673 13f2 CC000000 		.4byte	0xcc
 5674 13f6 02       		.byte	0x2
 5675 13f7 23       		.byte	0x23
 5676 13f8 00       		.uleb128 0
 5677 13f9 09       		.uleb128 0x9
 5678 13fa 17040000 		.4byte	.LASF343
 5679 13fe 0F       		.byte	0xf
 5680 13ff F1       		.byte	0xf1
 5681 1400 8A000000 		.4byte	0x8a
 5682 1404 02       		.byte	0x2
 5683 1405 23       		.byte	0x23
 5684 1406 04       		.uleb128 0x4
 5685 1407 09       		.uleb128 0x9
 5686 1408 2D090000 		.4byte	.LASF344
 5687 140c 0F       		.byte	0xf
 5688 140d F5       		.byte	0xf5
 5689 140e 8A000000 		.4byte	0x8a
 5690 1412 02       		.byte	0x2
 5691 1413 23       		.byte	0x23
 5692 1414 08       		.uleb128 0x8
 5693 1415 19       		.uleb128 0x19
 5694 1416 0C100000 		.4byte	.LASF338
 5695 141a 0F       		.byte	0xf
 5696 141b 0301     		.2byte	0x103
 5697 141d C3130000 		.4byte	0x13c3
 5698 1421 02       		.byte	0x2
 5699 1422 23       		.byte	0x23
 5700 1423 0C       		.uleb128 0xc
 5701 1424 00       		.byte	0
 5702 1425 1A       		.uleb128 0x1a
 5703 1426 4B0D0000 		.4byte	.LASF345
 5704 142a 0F       		.byte	0xf
 5705 142b 0401     		.2byte	0x104
 5706 142d E3130000 		.4byte	0x13e3
 5707 1431 18       		.uleb128 0x18
 5708 1432 24       		.byte	0x24
 5709 1433 0F       		.byte	0xf
 5710 1434 0A01     		.2byte	0x10a
 5711 1436 D1140000 		.4byte	0x14d1
 5712 143a 19       		.uleb128 0x19
 5713 143b 47010000 		.4byte	.LASF346
 5714 143f 0F       		.byte	0xf
 5715 1440 0E01     		.2byte	0x10e
 5716 1442 B6000000 		.4byte	0xb6
 5717 1446 02       		.byte	0x2
 5718 1447 23       		.byte	0x23
 5719 1448 00       		.uleb128 0
 5720 1449 19       		.uleb128 0x19
 5721 144a BA050000 		.4byte	.LASF347
 5722 144e 0F       		.byte	0xf
 5723 144f 1901     		.2byte	0x119
 5724 1451 340C0000 		.4byte	0xc34
ARM GAS  /tmp/cc3IGbAH.s 			page 102


 5725 1455 02       		.byte	0x2
 5726 1456 23       		.byte	0x23
 5727 1457 04       		.uleb128 0x4
 5728 1458 19       		.uleb128 0x19
 5729 1459 DF050000 		.4byte	.LASF348
 5730 145d 0F       		.byte	0xf
 5731 145e 1F01     		.2byte	0x11f
 5732 1460 340C0000 		.4byte	0xc34
 5733 1464 02       		.byte	0x2
 5734 1465 23       		.byte	0x23
 5735 1466 08       		.uleb128 0x8
 5736 1467 19       		.uleb128 0x19
 5737 1468 240C0000 		.4byte	.LASF349
 5738 146c 0F       		.byte	0xf
 5739 146d 2501     		.2byte	0x125
 5740 146f 340C0000 		.4byte	0xc34
 5741 1473 02       		.byte	0x2
 5742 1474 23       		.byte	0x23
 5743 1475 0C       		.uleb128 0xc
 5744 1476 19       		.uleb128 0x19
 5745 1477 750C0000 		.4byte	.LASF350
 5746 147b 0F       		.byte	0xf
 5747 147c 2B01     		.2byte	0x12b
 5748 147e A0000000 		.4byte	0xa0
 5749 1482 02       		.byte	0x2
 5750 1483 23       		.byte	0x23
 5751 1484 10       		.uleb128 0x10
 5752 1485 19       		.uleb128 0x19
 5753 1486 D9020000 		.4byte	.LASF351
 5754 148a 0F       		.byte	0xf
 5755 148b 3101     		.2byte	0x131
 5756 148d A0000000 		.4byte	0xa0
 5757 1491 02       		.byte	0x2
 5758 1492 23       		.byte	0x23
 5759 1493 12       		.uleb128 0x12
 5760 1494 19       		.uleb128 0x19
 5761 1495 DE090000 		.4byte	.LASF352
 5762 1499 0F       		.byte	0xf
 5763 149a 3601     		.2byte	0x136
 5764 149c D1140000 		.4byte	0x14d1
 5765 14a0 02       		.byte	0x2
 5766 14a1 23       		.byte	0x23
 5767 14a2 14       		.uleb128 0x14
 5768 14a3 19       		.uleb128 0x19
 5769 14a4 9C0C0000 		.4byte	.LASF353
 5770 14a8 0F       		.byte	0xf
 5771 14a9 3B01     		.2byte	0x13b
 5772 14ab D7140000 		.4byte	0x14d7
 5773 14af 02       		.byte	0x2
 5774 14b0 23       		.byte	0x23
 5775 14b1 18       		.uleb128 0x18
 5776 14b2 19       		.uleb128 0x19
 5777 14b3 9B080000 		.4byte	.LASF354
 5778 14b7 0F       		.byte	0xf
 5779 14b8 4201     		.2byte	0x142
 5780 14ba A0000000 		.4byte	0xa0
 5781 14be 02       		.byte	0x2
ARM GAS  /tmp/cc3IGbAH.s 			page 103


 5782 14bf 23       		.byte	0x23
 5783 14c0 1C       		.uleb128 0x1c
 5784 14c1 19       		.uleb128 0x19
 5785 14c2 E80B0000 		.4byte	.LASF355
 5786 14c6 0F       		.byte	0xf
 5787 14c7 4801     		.2byte	0x148
 5788 14c9 3F050000 		.4byte	0x53f
 5789 14cd 02       		.byte	0x2
 5790 14ce 23       		.byte	0x23
 5791 14cf 20       		.uleb128 0x20
 5792 14d0 00       		.byte	0
 5793 14d1 05       		.uleb128 0x5
 5794 14d2 04       		.byte	0x4
 5795 14d3 83130000 		.4byte	0x1383
 5796 14d7 05       		.uleb128 0x5
 5797 14d8 04       		.byte	0x4
 5798 14d9 25140000 		.4byte	0x1425
 5799 14dd 1A       		.uleb128 0x1a
 5800 14de FE0D0000 		.4byte	.LASF356
 5801 14e2 0F       		.byte	0xf
 5802 14e3 4901     		.2byte	0x149
 5803 14e5 31140000 		.4byte	0x1431
 5804 14e9 18       		.uleb128 0x18
 5805 14ea 10       		.byte	0x10
 5806 14eb 0F       		.byte	0xf
 5807 14ec 4E01     		.2byte	0x14e
 5808 14ee 2F150000 		.4byte	0x152f
 5809 14f2 19       		.uleb128 0x19
 5810 14f3 140A0000 		.4byte	.LASF357
 5811 14f7 0F       		.byte	0xf
 5812 14f8 5301     		.2byte	0x153
 5813 14fa 570C0000 		.4byte	0xc57
 5814 14fe 02       		.byte	0x2
 5815 14ff 23       		.byte	0x23
 5816 1500 00       		.uleb128 0
 5817 1501 19       		.uleb128 0x19
 5818 1502 810A0000 		.4byte	.LASF358
 5819 1506 0F       		.byte	0xf
 5820 1507 5801     		.2byte	0x158
 5821 1509 9C0C0000 		.4byte	0xc9c
 5822 150d 02       		.byte	0x2
 5823 150e 23       		.byte	0x23
 5824 150f 04       		.uleb128 0x4
 5825 1510 19       		.uleb128 0x19
 5826 1511 D4040000 		.4byte	.LASF359
 5827 1515 0F       		.byte	0xf
 5828 1516 5E01     		.2byte	0x15e
 5829 1518 7A0C0000 		.4byte	0xc7a
 5830 151c 02       		.byte	0x2
 5831 151d 23       		.byte	0x23
 5832 151e 08       		.uleb128 0x8
 5833 151f 19       		.uleb128 0x19
 5834 1520 97110000 		.4byte	.LASF360
 5835 1524 0F       		.byte	0xf
 5836 1525 6201     		.2byte	0x162
 5837 1527 100C0000 		.4byte	0xc10
 5838 152b 02       		.byte	0x2
ARM GAS  /tmp/cc3IGbAH.s 			page 104


 5839 152c 23       		.byte	0x23
 5840 152d 0C       		.uleb128 0xc
 5841 152e 00       		.byte	0
 5842 152f 1A       		.uleb128 0x1a
 5843 1530 700B0000 		.4byte	.LASF361
 5844 1534 0F       		.byte	0xf
 5845 1535 6401     		.2byte	0x164
 5846 1537 E9140000 		.4byte	0x14e9
 5847 153b 05       		.uleb128 0x5
 5848 153c 04       		.byte	0x4
 5849 153d 41150000 		.4byte	0x1541
 5850 1541 06       		.uleb128 0x6
 5851 1542 2F150000 		.4byte	0x152f
 5852 1546 16       		.uleb128 0x16
 5853 1547 56150000 		.4byte	0x1556
 5854 154b 56150000 		.4byte	0x1556
 5855 154f 17       		.uleb128 0x17
 5856 1550 68000000 		.4byte	0x68
 5857 1554 03       		.byte	0x3
 5858 1555 00       		.byte	0
 5859 1556 05       		.uleb128 0x5
 5860 1557 04       		.byte	0x4
 5861 1558 5C150000 		.4byte	0x155c
 5862 155c 06       		.uleb128 0x6
 5863 155d DD140000 		.4byte	0x14dd
 5864 1561 16       		.uleb128 0x16
 5865 1562 95000000 		.4byte	0x95
 5866 1566 71150000 		.4byte	0x1571
 5867 156a 17       		.uleb128 0x17
 5868 156b 68000000 		.4byte	0x68
 5869 156f 07       		.byte	0x7
 5870 1570 00       		.byte	0
 5871 1571 05       		.uleb128 0x5
 5872 1572 04       		.byte	0x4
 5873 1573 A6120000 		.4byte	0x12a6
 5874 1577 05       		.uleb128 0x5
 5875 1578 04       		.byte	0x4
 5876 1579 7D150000 		.4byte	0x157d
 5877 157d 06       		.uleb128 0x6
 5878 157e E4120000 		.4byte	0x12e4
 5879 1582 16       		.uleb128 0x16
 5880 1583 C2020000 		.4byte	0x2c2
 5881 1587 92150000 		.4byte	0x1592
 5882 158b 17       		.uleb128 0x17
 5883 158c 68000000 		.4byte	0x68
 5884 1590 25       		.byte	0x25
 5885 1591 00       		.byte	0
 5886 1592 0F       		.uleb128 0xf
 5887 1593 10       		.byte	0x10
 5888 1594 01       		.byte	0x1
 5889 1595 41       		.byte	0x41
 5890 1596 B0150000 		.4byte	0x15b0
 5891 159a 21       		.uleb128 0x21
 5892 159b 696E00   		.ascii	"in\000"
 5893 159e 01       		.byte	0x1
 5894 159f 45       		.byte	0x45
 5895 15a0 83130000 		.4byte	0x1383
ARM GAS  /tmp/cc3IGbAH.s 			page 105


 5896 15a4 21       		.uleb128 0x21
 5897 15a5 6F757400 		.ascii	"out\000"
 5898 15a9 01       		.byte	0x1
 5899 15aa 49       		.byte	0x49
 5900 15ab 25140000 		.4byte	0x1425
 5901 15af 00       		.byte	0
 5902 15b0 22       		.uleb128 0x22
 5903 15b1 080A0000 		.4byte	.LASF363
 5904 15b5 01       		.byte	0x1
 5905 15b6 F4       		.byte	0xf4
 5906 15b7 01       		.byte	0x1
 5907 15b8 3F050000 		.4byte	0x53f
 5908 15bc 01       		.byte	0x1
 5909 15bd E1150000 		.4byte	0x15e1
 5910 15c1 23       		.uleb128 0x23
 5911 15c2 F6000000 		.4byte	.LASF362
 5912 15c6 01       		.byte	0x1
 5913 15c7 F4       		.byte	0xf4
 5914 15c8 AB090000 		.4byte	0x9ab
 5915 15cc 24       		.uleb128 0x24
 5916 15cd 62756600 		.ascii	"buf\000"
 5917 15d1 01       		.byte	0x1
 5918 15d2 F4       		.byte	0xf4
 5919 15d3 3F050000 		.4byte	0x53f
 5920 15d7 24       		.uleb128 0x24
 5921 15d8 6E00     		.ascii	"n\000"
 5922 15da 01       		.byte	0x1
 5923 15db F4       		.byte	0xf4
 5924 15dc 8A000000 		.4byte	0x8a
 5925 15e0 00       		.byte	0
 5926 15e1 25       		.uleb128 0x25
 5927 15e2 52100000 		.4byte	.LASF364
 5928 15e6 01       		.byte	0x1
 5929 15e7 5601     		.2byte	0x156
 5930 15e9 01       		.byte	0x1
 5931 15ea 3F050000 		.4byte	0x53f
 5932 15ee 01       		.byte	0x1
 5933 15ef 22160000 		.4byte	0x1622
 5934 15f3 26       		.uleb128 0x26
 5935 15f4 F6000000 		.4byte	.LASF362
 5936 15f8 01       		.byte	0x1
 5937 15f9 5601     		.2byte	0x156
 5938 15fb AB090000 		.4byte	0x9ab
 5939 15ff 27       		.uleb128 0x27
 5940 1600 62756600 		.ascii	"buf\000"
 5941 1604 01       		.byte	0x1
 5942 1605 5601     		.2byte	0x156
 5943 1607 3F050000 		.4byte	0x53f
 5944 160b 27       		.uleb128 0x27
 5945 160c 6E00     		.ascii	"n\000"
 5946 160e 01       		.byte	0x1
 5947 160f 5601     		.2byte	0x156
 5948 1611 8A000000 		.4byte	0x8a
 5949 1615 28       		.uleb128 0x28
 5950 1616 29       		.uleb128 0x29
 5951 1617 7700     		.ascii	"w\000"
 5952 1619 01       		.byte	0x1
ARM GAS  /tmp/cc3IGbAH.s 			page 106


 5953 161a 5901     		.2byte	0x159
 5954 161c B6000000 		.4byte	0xb6
 5955 1620 00       		.byte	0
 5956 1621 00       		.byte	0
 5957 1622 22       		.uleb128 0x22
 5958 1623 68130000 		.4byte	.LASF365
 5959 1627 02       		.byte	0x2
 5960 1628 34       		.byte	0x34
 5961 1629 01       		.byte	0x1
 5962 162a 84020000 		.4byte	0x284
 5963 162e 03       		.byte	0x3
 5964 162f 49160000 		.4byte	0x1649
 5965 1633 24       		.uleb128 0x24
 5966 1634 74717000 		.ascii	"tqp\000"
 5967 1638 02       		.byte	0x2
 5968 1639 34       		.byte	0x34
 5969 163a 49160000 		.4byte	0x1649
 5970 163e 2A       		.uleb128 0x2a
 5971 163f 747000   		.ascii	"tp\000"
 5972 1642 02       		.byte	0x2
 5973 1643 35       		.byte	0x35
 5974 1644 84020000 		.4byte	0x284
 5975 1648 00       		.byte	0
 5976 1649 05       		.uleb128 0x5
 5977 164a 04       		.byte	0x4
 5978 164b 8A020000 		.4byte	0x28a
 5979 164f 2B       		.uleb128 0x2b
 5980 1650 6D000000 		.4byte	.LASF366
 5981 1654 01       		.byte	0x1
 5982 1655 6D01     		.2byte	0x16d
 5983 1657 01       		.byte	0x1
 5984 1658 01       		.byte	0x1
 5985 1659 98160000 		.4byte	0x1698
 5986 165d 26       		.uleb128 0x26
 5987 165e F6000000 		.4byte	.LASF362
 5988 1662 01       		.byte	0x1
 5989 1663 6D01     		.2byte	0x16d
 5990 1665 AB090000 		.4byte	0x9ab
 5991 1669 27       		.uleb128 0x27
 5992 166a 62756600 		.ascii	"buf\000"
 5993 166e 01       		.byte	0x1
 5994 166f 6E01     		.2byte	0x16e
 5995 1671 3F050000 		.4byte	0x53f
 5996 1675 27       		.uleb128 0x27
 5997 1676 6E00     		.ascii	"n\000"
 5998 1678 01       		.byte	0x1
 5999 1679 6F01     		.2byte	0x16f
 6000 167b 8A000000 		.4byte	0x8a
 6001 167f 27       		.uleb128 0x27
 6002 1680 6D617800 		.ascii	"max\000"
 6003 1684 01       		.byte	0x1
 6004 1685 7001     		.2byte	0x170
 6005 1687 8A000000 		.4byte	0x8a
 6006 168b 28       		.uleb128 0x28
 6007 168c 29       		.uleb128 0x29
 6008 168d 7700     		.ascii	"w\000"
 6009 168f 01       		.byte	0x1
ARM GAS  /tmp/cc3IGbAH.s 			page 107


 6010 1690 7501     		.2byte	0x175
 6011 1692 B6000000 		.4byte	0xb6
 6012 1696 00       		.byte	0
 6013 1697 00       		.byte	0
 6014 1698 2B       		.uleb128 0x2b
 6015 1699 16030000 		.4byte	.LASF367
 6016 169d 01       		.byte	0x1
 6017 169e 0901     		.2byte	0x109
 6018 16a0 01       		.byte	0x1
 6019 16a1 01       		.byte	0x1
 6020 16a2 C9160000 		.4byte	0x16c9
 6021 16a6 26       		.uleb128 0x26
 6022 16a7 F6000000 		.4byte	.LASF362
 6023 16ab 01       		.byte	0x1
 6024 16ac 0901     		.2byte	0x109
 6025 16ae AB090000 		.4byte	0x9ab
 6026 16b2 27       		.uleb128 0x27
 6027 16b3 62756600 		.ascii	"buf\000"
 6028 16b7 01       		.byte	0x1
 6029 16b8 0A01     		.2byte	0x10a
 6030 16ba 5B050000 		.4byte	0x55b
 6031 16be 27       		.uleb128 0x27
 6032 16bf 6E00     		.ascii	"n\000"
 6033 16c1 01       		.byte	0x1
 6034 16c2 0B01     		.2byte	0x10b
 6035 16c4 8A000000 		.4byte	0x8a
 6036 16c8 00       		.byte	0
 6037 16c9 2C       		.uleb128 0x2c
 6038 16ca CE110000 		.4byte	.LASF368
 6039 16ce 01       		.byte	0x1
 6040 16cf D1       		.byte	0xd1
 6041 16d0 01       		.byte	0x1
 6042 16d1 01       		.byte	0x1
 6043 16d2 E2160000 		.4byte	0x16e2
 6044 16d6 23       		.uleb128 0x23
 6045 16d7 BB080000 		.4byte	.LASF369
 6046 16db 01       		.byte	0x1
 6047 16dc D1       		.byte	0xd1
 6048 16dd 2E0C0000 		.4byte	0xc2e
 6049 16e1 00       		.byte	0
 6050 16e2 22       		.uleb128 0x22
 6051 16e3 7B130000 		.4byte	.LASF370
 6052 16e7 01       		.byte	0x1
 6053 16e8 DE       		.byte	0xde
 6054 16e9 01       		.byte	0x1
 6055 16ea B6000000 		.4byte	0xb6
 6056 16ee 01       		.byte	0x1
 6057 16ef 15170000 		.4byte	0x1715
 6058 16f3 23       		.uleb128 0x23
 6059 16f4 BB080000 		.4byte	.LASF369
 6060 16f8 01       		.byte	0x1
 6061 16f9 DE       		.byte	0xde
 6062 16fa 2E0C0000 		.4byte	0xc2e
 6063 16fe 23       		.uleb128 0x23
 6064 16ff 7D0D0000 		.4byte	.LASF371
 6065 1703 01       		.byte	0x1
 6066 1704 DE       		.byte	0xde
ARM GAS  /tmp/cc3IGbAH.s 			page 108


 6067 1705 8A000000 		.4byte	0x8a
 6068 1709 2D       		.uleb128 0x2d
 6069 170a 5C130000 		.4byte	.LASF372
 6070 170e 01       		.byte	0x1
 6071 170f DF       		.byte	0xdf
 6072 1710 B6000000 		.4byte	0xb6
 6073 1714 00       		.byte	0
 6074 1715 2B       		.uleb128 0x2b
 6075 1716 CB070000 		.4byte	.LASF373
 6076 171a 01       		.byte	0x1
 6077 171b 5E02     		.2byte	0x25e
 6078 171d 01       		.byte	0x1
 6079 171e 01       		.byte	0x1
 6080 171f 74170000 		.4byte	0x1774
 6081 1723 26       		.uleb128 0x26
 6082 1724 BB080000 		.4byte	.LASF369
 6083 1728 01       		.byte	0x1
 6084 1729 5E02     		.2byte	0x25e
 6085 172b 2E0C0000 		.4byte	0xc2e
 6086 172f 2E       		.uleb128 0x2e
 6087 1730 B2120000 		.4byte	.LASF374
 6088 1734 01       		.byte	0x1
 6089 1735 5F02     		.2byte	0x25f
 6090 1737 71150000 		.4byte	0x1571
 6091 173b 29       		.uleb128 0x29
 6092 173c 73747300 		.ascii	"sts\000"
 6093 1740 01       		.byte	0x1
 6094 1741 6002     		.2byte	0x260
 6095 1743 B6000000 		.4byte	0xb6
 6096 1747 29       		.uleb128 0x29
 6097 1748 73726300 		.ascii	"src\000"
 6098 174c 01       		.byte	0x1
 6099 174d 6002     		.2byte	0x260
 6100 174f B6000000 		.4byte	0xb6
 6101 1753 2F       		.uleb128 0x2f
 6102 1754 65170000 		.4byte	0x1765
 6103 1758 29       		.uleb128 0x29
 6104 1759 746D7000 		.ascii	"tmp\000"
 6105 175d 01       		.byte	0x1
 6106 175e 7902     		.2byte	0x279
 6107 1760 B6000000 		.4byte	0xb6
 6108 1764 00       		.byte	0
 6109 1765 28       		.uleb128 0x28
 6110 1766 29       		.uleb128 0x29
 6111 1767 746D7000 		.ascii	"tmp\000"
 6112 176b 01       		.byte	0x1
 6113 176c 7C02     		.2byte	0x27c
 6114 176e B6000000 		.4byte	0xb6
 6115 1772 00       		.byte	0
 6116 1773 00       		.byte	0
 6117 1774 30       		.uleb128 0x30
 6118 1775 FF120000 		.4byte	.LASF375
 6119 1779 01       		.byte	0x1
 6120 177a 91       		.byte	0x91
 6121 177b 01       		.byte	0x1
 6122 177c 00000000 		.4byte	.LFB120
 6123 1780 82000000 		.4byte	.LFE120
ARM GAS  /tmp/cc3IGbAH.s 			page 109


 6124 1784 00000000 		.4byte	.LLST0
 6125 1788 01       		.byte	0x1
 6126 1789 B7170000 		.4byte	0x17b7
 6127 178d 31       		.uleb128 0x31
 6128 178e BB080000 		.4byte	.LASF369
 6129 1792 01       		.byte	0x1
 6130 1793 91       		.byte	0x91
 6131 1794 2E0C0000 		.4byte	0xc2e
 6132 1798 20000000 		.4byte	.LLST1
 6133 179c 32       		.uleb128 0x32
 6134 179d B2120000 		.4byte	.LASF374
 6135 17a1 01       		.byte	0x1
 6136 17a2 92       		.byte	0x92
 6137 17a3 71150000 		.4byte	0x1571
 6138 17a7 01       		.byte	0x1
 6139 17a8 53       		.byte	0x53
 6140 17a9 33       		.uleb128 0x33
 6141 17aa 6900     		.ascii	"i\000"
 6142 17ac 01       		.byte	0x1
 6143 17ad 93       		.byte	0x93
 6144 17ae 29000000 		.4byte	0x29
 6145 17b2 41000000 		.4byte	.LLST2
 6146 17b6 00       		.byte	0
 6147 17b7 34       		.uleb128 0x34
 6148 17b8 CD050000 		.4byte	.LASF376
 6149 17bc 01       		.byte	0x1
 6150 17bd 4402     		.2byte	0x244
 6151 17bf 01       		.byte	0x1
 6152 17c0 00000000 		.4byte	.LFB134
 6153 17c4 5C000000 		.4byte	.LFE134
 6154 17c8 6B000000 		.4byte	.LLST3
 6155 17cc 01       		.byte	0x1
 6156 17cd 35180000 		.4byte	0x1835
 6157 17d1 35       		.uleb128 0x35
 6158 17d2 BB080000 		.4byte	.LASF369
 6159 17d6 01       		.byte	0x1
 6160 17d7 4402     		.2byte	0x244
 6161 17d9 2E0C0000 		.4byte	0xc2e
 6162 17dd 8B000000 		.4byte	.LLST4
 6163 17e1 36       		.uleb128 0x36
 6164 17e2 657000   		.ascii	"ep\000"
 6165 17e5 01       		.byte	0x1
 6166 17e6 4402     		.2byte	0x244
 6167 17e8 060B0000 		.4byte	0xb06
 6168 17ec BF000000 		.4byte	.LLST5
 6169 17f0 37       		.uleb128 0x37
 6170 17f1 B2120000 		.4byte	.LASF374
 6171 17f5 01       		.byte	0x1
 6172 17f6 4502     		.2byte	0x245
 6173 17f8 71150000 		.4byte	0x1571
 6174 17fc 01       		.byte	0x1
 6175 17fd 54       		.byte	0x54
 6176 17fe 37       		.uleb128 0x37
 6177 17ff 0F060000 		.4byte	.LASF377
 6178 1803 01       		.byte	0x1
 6179 1804 4602     		.2byte	0x246
 6180 1806 B6000000 		.4byte	0xb6
ARM GAS  /tmp/cc3IGbAH.s 			page 110


 6181 180a 01       		.byte	0x1
 6182 180b 56       		.byte	0x56
 6183 180c 38       		.uleb128 0x38
 6184 180d 4E000000 		.4byte	.LVL11
 6185 1811 22180000 		.4byte	0x1822
 6186 1815 39       		.uleb128 0x39
 6187 1816 01       		.byte	0x1
 6188 1817 51       		.byte	0x51
 6189 1818 02       		.byte	0x2
 6190 1819 77       		.byte	0x77
 6191 181a 00       		.sleb128 0
 6192 181b 39       		.uleb128 0x39
 6193 181c 01       		.byte	0x1
 6194 181d 50       		.byte	0x50
 6195 181e 02       		.byte	0x2
 6196 181f 75       		.byte	0x75
 6197 1820 00       		.sleb128 0
 6198 1821 00       		.byte	0
 6199 1822 3A       		.uleb128 0x3a
 6200 1823 5A000000 		.4byte	.LVL13
 6201 1827 39       		.uleb128 0x39
 6202 1828 01       		.byte	0x1
 6203 1829 51       		.byte	0x51
 6204 182a 02       		.byte	0x2
 6205 182b 77       		.byte	0x77
 6206 182c 00       		.sleb128 0
 6207 182d 39       		.uleb128 0x39
 6208 182e 01       		.byte	0x1
 6209 182f 50       		.byte	0x50
 6210 1830 02       		.byte	0x2
 6211 1831 75       		.byte	0x75
 6212 1832 00       		.sleb128 0
 6213 1833 00       		.byte	0
 6214 1834 00       		.byte	0
 6215 1835 3B       		.uleb128 0x3b
 6216 1836 C60F0000 		.4byte	.LASF378
 6217 183a 01       		.byte	0x1
 6218 183b C0       		.byte	0xc0
 6219 183c 01       		.byte	0x1
 6220 183d 00000000 		.4byte	.LFB122
 6221 1841 16000000 		.4byte	.LFE122
 6222 1845 02       		.byte	0x2
 6223 1846 7D       		.byte	0x7d
 6224 1847 00       		.sleb128 0
 6225 1848 01       		.byte	0x1
 6226 1849 8B180000 		.4byte	0x188b
 6227 184d 31       		.uleb128 0x31
 6228 184e BB080000 		.4byte	.LASF369
 6229 1852 01       		.byte	0x1
 6230 1853 C0       		.byte	0xc0
 6231 1854 2E0C0000 		.4byte	0xc2e
 6232 1858 F9000000 		.4byte	.LLST6
 6233 185c 31       		.uleb128 0x31
 6234 185d 9A020000 		.4byte	.LASF379
 6235 1861 01       		.byte	0x1
 6236 1862 C0       		.byte	0xc0
 6237 1863 B6000000 		.4byte	0xb6
ARM GAS  /tmp/cc3IGbAH.s 			page 111


 6238 1867 1A010000 		.4byte	.LLST7
 6239 186b 3C       		.uleb128 0x3c
 6240 186c B2120000 		.4byte	.LASF374
 6241 1870 01       		.byte	0x1
 6242 1871 C1       		.byte	0xc1
 6243 1872 71150000 		.4byte	0x1571
 6244 1876 3B010000 		.4byte	.LLST8
 6245 187a 3D       		.uleb128 0x3d
 6246 187b 16000000 		.4byte	.LVL18
 6247 187f 01       		.byte	0x1
 6248 1880 C1280000 		.4byte	0x28c1
 6249 1884 39       		.uleb128 0x39
 6250 1885 01       		.byte	0x1
 6251 1886 50       		.byte	0x50
 6252 1887 01       		.byte	0x1
 6253 1888 3C       		.byte	0x3c
 6254 1889 00       		.byte	0
 6255 188a 00       		.byte	0
 6256 188b 2B       		.uleb128 0x2b
 6257 188c EA040000 		.4byte	.LASF380
 6258 1890 01       		.byte	0x1
 6259 1891 C101     		.2byte	0x1c1
 6260 1893 01       		.byte	0x1
 6261 1894 01       		.byte	0x1
 6262 1895 C9180000 		.4byte	0x18c9
 6263 1899 26       		.uleb128 0x26
 6264 189a BB080000 		.4byte	.LASF369
 6265 189e 01       		.byte	0x1
 6266 189f C101     		.2byte	0x1c1
 6267 18a1 2E0C0000 		.4byte	0xc2e
 6268 18a5 29       		.uleb128 0x29
 6269 18a6 73747300 		.ascii	"sts\000"
 6270 18aa 01       		.byte	0x1
 6271 18ab C201     		.2byte	0x1c2
 6272 18ad B6000000 		.4byte	0xb6
 6273 18b1 29       		.uleb128 0x29
 6274 18b2 636E7400 		.ascii	"cnt\000"
 6275 18b6 01       		.byte	0x1
 6276 18b7 C201     		.2byte	0x1c2
 6277 18b9 B6000000 		.4byte	0xb6
 6278 18bd 29       		.uleb128 0x29
 6279 18be 657000   		.ascii	"ep\000"
 6280 18c1 01       		.byte	0x1
 6281 18c2 C201     		.2byte	0x1c2
 6282 18c4 B6000000 		.4byte	0xb6
 6283 18c8 00       		.byte	0
 6284 18c9 2B       		.uleb128 0x2b
 6285 18ca 3C110000 		.4byte	.LASF381
 6286 18ce 01       		.byte	0x1
 6287 18cf 8A01     		.2byte	0x18a
 6288 18d1 01       		.byte	0x1
 6289 18d2 01       		.byte	0x1
 6290 18d3 65190000 		.4byte	0x1965
 6291 18d7 26       		.uleb128 0x26
 6292 18d8 F6000000 		.4byte	.LASF362
 6293 18dc 01       		.byte	0x1
 6294 18dd 8A01     		.2byte	0x18a
ARM GAS  /tmp/cc3IGbAH.s 			page 112


 6295 18df AB090000 		.4byte	0x9ab
 6296 18e3 27       		.uleb128 0x27
 6297 18e4 69717000 		.ascii	"iqp\000"
 6298 18e8 01       		.byte	0x1
 6299 18e9 8B01     		.2byte	0x18b
 6300 18eb BD130000 		.4byte	0x13bd
 6301 18ef 27       		.uleb128 0x27
 6302 18f0 6E00     		.ascii	"n\000"
 6303 18f2 01       		.byte	0x1
 6304 18f3 8C01     		.2byte	0x18c
 6305 18f5 8A000000 		.4byte	0x8a
 6306 18f9 2E       		.uleb128 0x2e
 6307 18fa 38120000 		.4byte	.LASF382
 6308 18fe 01       		.byte	0x1
 6309 18ff 8D01     		.2byte	0x18d
 6310 1901 8A000000 		.4byte	0x8a
 6311 1905 2F       		.uleb128 0x2f
 6312 1906 44190000 		.4byte	0x1944
 6313 190a 29       		.uleb128 0x29
 6314 190b 7700     		.ascii	"w\000"
 6315 190d 01       		.byte	0x1
 6316 190e 9101     		.2byte	0x191
 6317 1910 B6000000 		.4byte	0xb6
 6318 1914 29       		.uleb128 0x29
 6319 1915 6900     		.ascii	"i\000"
 6320 1917 01       		.byte	0x1
 6321 1918 9101     		.2byte	0x191
 6322 191a B6000000 		.4byte	0xb6
 6323 191e 29       		.uleb128 0x29
 6324 191f 6E7700   		.ascii	"nw\000"
 6325 1922 01       		.byte	0x1
 6326 1923 9201     		.2byte	0x192
 6327 1925 8A000000 		.4byte	0x8a
 6328 1929 28       		.uleb128 0x28
 6329 192a 2E       		.uleb128 0x2e
 6330 192b 1F060000 		.4byte	.LASF383
 6331 192f 01       		.byte	0x1
 6332 1930 9501     		.2byte	0x195
 6333 1932 8A000000 		.4byte	0x8a
 6334 1936 2E       		.uleb128 0x2e
 6335 1937 DC120000 		.4byte	.LASF384
 6336 193b 01       		.byte	0x1
 6337 193c 9601     		.2byte	0x196
 6338 193e B6000000 		.4byte	0xb6
 6339 1942 00       		.byte	0
 6340 1943 00       		.byte	0
 6341 1944 2F       		.uleb128 0x2f
 6342 1945 56190000 		.4byte	0x1956
 6343 1949 29       		.uleb128 0x29
 6344 194a 746D7000 		.ascii	"tmp\000"
 6345 194e 01       		.byte	0x1
 6346 194f B201     		.2byte	0x1b2
 6347 1951 B6000000 		.4byte	0xb6
 6348 1955 00       		.byte	0
 6349 1956 28       		.uleb128 0x28
 6350 1957 29       		.uleb128 0x29
 6351 1958 746D7000 		.ascii	"tmp\000"
ARM GAS  /tmp/cc3IGbAH.s 			page 113


 6352 195c 01       		.byte	0x1
 6353 195d B701     		.2byte	0x1b7
 6354 195f B6000000 		.4byte	0xb6
 6355 1963 00       		.byte	0
 6356 1964 00       		.byte	0
 6357 1965 25       		.uleb128 0x25
 6358 1966 AA090000 		.4byte	.LASF385
 6359 196a 01       		.byte	0x1
 6360 196b F001     		.2byte	0x1f0
 6361 196d 01       		.byte	0x1
 6362 196e CC000000 		.4byte	0xcc
 6363 1972 01       		.byte	0x1
 6364 1973 9B190000 		.4byte	0x199b
 6365 1977 26       		.uleb128 0x26
 6366 1978 BB080000 		.4byte	.LASF369
 6367 197c 01       		.byte	0x1
 6368 197d F001     		.2byte	0x1f0
 6369 197f 2E0C0000 		.4byte	0xc2e
 6370 1983 27       		.uleb128 0x27
 6371 1984 657000   		.ascii	"ep\000"
 6372 1987 01       		.byte	0x1
 6373 1988 F001     		.2byte	0x1f0
 6374 198a 060B0000 		.4byte	0xb06
 6375 198e 28       		.uleb128 0x28
 6376 198f 29       		.uleb128 0x29
 6377 1990 6E00     		.ascii	"n\000"
 6378 1992 01       		.byte	0x1
 6379 1993 F401     		.2byte	0x1f4
 6380 1995 B6000000 		.4byte	0xb6
 6381 1999 00       		.byte	0
 6382 199a 00       		.byte	0
 6383 199b 2B       		.uleb128 0x2b
 6384 199c 3A030000 		.4byte	.LASF386
 6385 19a0 01       		.byte	0x1
 6386 19a1 1901     		.2byte	0x119
 6387 19a3 01       		.byte	0x1
 6388 19a4 01       		.byte	0x1
 6389 19a5 371A0000 		.4byte	0x1a37
 6390 19a9 26       		.uleb128 0x26
 6391 19aa F6000000 		.4byte	.LASF362
 6392 19ae 01       		.byte	0x1
 6393 19af 1901     		.2byte	0x119
 6394 19b1 AB090000 		.4byte	0x9ab
 6395 19b5 27       		.uleb128 0x27
 6396 19b6 6F717000 		.ascii	"oqp\000"
 6397 19ba 01       		.byte	0x1
 6398 19bb 1A01     		.2byte	0x11a
 6399 19bd 1D130000 		.4byte	0x131d
 6400 19c1 27       		.uleb128 0x27
 6401 19c2 6E00     		.ascii	"n\000"
 6402 19c4 01       		.byte	0x1
 6403 19c5 1B01     		.2byte	0x11b
 6404 19c7 8A000000 		.4byte	0x8a
 6405 19cb 2E       		.uleb128 0x2e
 6406 19cc 38120000 		.4byte	.LASF382
 6407 19d0 01       		.byte	0x1
 6408 19d1 1C01     		.2byte	0x11c
ARM GAS  /tmp/cc3IGbAH.s 			page 114


 6409 19d3 8A000000 		.4byte	0x8a
 6410 19d7 2F       		.uleb128 0x2f
 6411 19d8 161A0000 		.4byte	0x1a16
 6412 19dc 29       		.uleb128 0x29
 6413 19dd 7700     		.ascii	"w\000"
 6414 19df 01       		.byte	0x1
 6415 19e0 2001     		.2byte	0x120
 6416 19e2 B6000000 		.4byte	0xb6
 6417 19e6 29       		.uleb128 0x29
 6418 19e7 6900     		.ascii	"i\000"
 6419 19e9 01       		.byte	0x1
 6420 19ea 2001     		.2byte	0x120
 6421 19ec B6000000 		.4byte	0xb6
 6422 19f0 29       		.uleb128 0x29
 6423 19f1 6E7700   		.ascii	"nw\000"
 6424 19f4 01       		.byte	0x1
 6425 19f5 2101     		.2byte	0x121
 6426 19f7 8A000000 		.4byte	0x8a
 6427 19fb 28       		.uleb128 0x28
 6428 19fc 2E       		.uleb128 0x2e
 6429 19fd 1F060000 		.4byte	.LASF383
 6430 1a01 01       		.byte	0x1
 6431 1a02 2401     		.2byte	0x124
 6432 1a04 8A000000 		.4byte	0x8a
 6433 1a08 2E       		.uleb128 0x2e
 6434 1a09 DC120000 		.4byte	.LASF384
 6435 1a0d 01       		.byte	0x1
 6436 1a0e 2501     		.2byte	0x125
 6437 1a10 B6000000 		.4byte	0xb6
 6438 1a14 00       		.byte	0
 6439 1a15 00       		.byte	0
 6440 1a16 2F       		.uleb128 0x2f
 6441 1a17 281A0000 		.4byte	0x1a28
 6442 1a1b 29       		.uleb128 0x29
 6443 1a1c 746D7000 		.ascii	"tmp\000"
 6444 1a20 01       		.byte	0x1
 6445 1a21 4201     		.2byte	0x142
 6446 1a23 B6000000 		.4byte	0xb6
 6447 1a27 00       		.byte	0
 6448 1a28 28       		.uleb128 0x28
 6449 1a29 29       		.uleb128 0x29
 6450 1a2a 746D7000 		.ascii	"tmp\000"
 6451 1a2e 01       		.byte	0x1
 6452 1a2f 4701     		.2byte	0x147
 6453 1a31 B6000000 		.4byte	0xb6
 6454 1a35 00       		.byte	0
 6455 1a36 00       		.byte	0
 6456 1a37 3E       		.uleb128 0x3e
 6457 1a38 DF0C0000 		.4byte	.LASF433
 6458 1a3c 01       		.byte	0x1
 6459 1a3d A702     		.2byte	0x2a7
 6460 1a3f 01       		.byte	0x1
 6461 1a40 0E010000 		.4byte	0x10e
 6462 1a44 00000000 		.4byte	.LFB136
 6463 1a48 8A040000 		.4byte	.LFE136
 6464 1a4c 4E010000 		.4byte	.LLST9
 6465 1a50 01       		.byte	0x1
ARM GAS  /tmp/cc3IGbAH.s 			page 115


 6466 1a51 F91E0000 		.4byte	0x1ef9
 6467 1a55 36       		.uleb128 0x36
 6468 1a56 7000     		.ascii	"p\000"
 6469 1a58 01       		.byte	0x1
 6470 1a59 A702     		.2byte	0x2a7
 6471 1a5b 6F000000 		.4byte	0x6f
 6472 1a5f 7B010000 		.4byte	.LLST10
 6473 1a63 3F       		.uleb128 0x3f
 6474 1a64 BB080000 		.4byte	.LASF369
 6475 1a68 01       		.byte	0x1
 6476 1a69 A802     		.2byte	0x2a8
 6477 1a6b 2E0C0000 		.4byte	0xc2e
 6478 1a6f 99010000 		.4byte	.LLST11
 6479 1a73 37       		.uleb128 0x37
 6480 1a74 B2120000 		.4byte	.LASF374
 6481 1a78 01       		.byte	0x1
 6482 1a79 A902     		.2byte	0x2a9
 6483 1a7b 71150000 		.4byte	0x1571
 6484 1a7f 01       		.byte	0x1
 6485 1a80 5A       		.byte	0x5a
 6486 1a81 40       		.uleb128 0x40
 6487 1a82 00000000 		.4byte	.Ldebug_ranges0+0
 6488 1a86 9B1A0000 		.4byte	0x1a9b
 6489 1a8a 41       		.uleb128 0x41
 6490 1a8b 746D7000 		.ascii	"tmp\000"
 6491 1a8f 01       		.byte	0x1
 6492 1a90 AC02     		.2byte	0x2ac
 6493 1a92 B6000000 		.4byte	0xb6
 6494 1a96 B7010000 		.4byte	.LLST12
 6495 1a9a 00       		.byte	0
 6496 1a9b 42       		.uleb128 0x42
 6497 1a9c 18000000 		.4byte	.Ldebug_ranges0+0x18
 6498 1aa0 41       		.uleb128 0x41
 6499 1aa1 657000   		.ascii	"ep\000"
 6500 1aa4 01       		.byte	0x1
 6501 1aa5 AE02     		.2byte	0x2ae
 6502 1aa7 060B0000 		.4byte	0xb06
 6503 1aab CA010000 		.4byte	.LLST13
 6504 1aaf 3F       		.uleb128 0x3f
 6505 1ab0 9E050000 		.4byte	.LASF387
 6506 1ab4 01       		.byte	0x1
 6507 1ab5 AF02     		.2byte	0x2af
 6508 1ab7 B6000000 		.4byte	0xb6
 6509 1abb E9010000 		.4byte	.LLST14
 6510 1abf 40       		.uleb128 0x40
 6511 1ac0 30000000 		.4byte	.Ldebug_ranges0+0x30
 6512 1ac4 D91A0000 		.4byte	0x1ad9
 6513 1ac8 41       		.uleb128 0x41
 6514 1ac9 746D7000 		.ascii	"tmp\000"
 6515 1acd 01       		.byte	0x1
 6516 1ace B802     		.2byte	0x2b8
 6517 1ad0 B6000000 		.4byte	0xb6
 6518 1ad4 1F020000 		.4byte	.LLST15
 6519 1ad8 00       		.byte	0
 6520 1ad9 43       		.uleb128 0x43
 6521 1ada 8B180000 		.4byte	0x188b
 6522 1ade 6C000000 		.4byte	.LBB90
ARM GAS  /tmp/cc3IGbAH.s 			page 116


 6523 1ae2 48000000 		.4byte	.Ldebug_ranges0+0x48
 6524 1ae6 01       		.byte	0x1
 6525 1ae7 BF02     		.2byte	0x2bf
 6526 1ae9 991C0000 		.4byte	0x1c99
 6527 1aed 44       		.uleb128 0x44
 6528 1aee 99180000 		.4byte	0x1899
 6529 1af2 48020000 		.4byte	.LLST16
 6530 1af6 42       		.uleb128 0x42
 6531 1af7 60000000 		.4byte	.Ldebug_ranges0+0x60
 6532 1afb 45       		.uleb128 0x45
 6533 1afc A5180000 		.4byte	0x18a5
 6534 1b00 66020000 		.4byte	.LLST17
 6535 1b04 45       		.uleb128 0x45
 6536 1b05 B1180000 		.4byte	0x18b1
 6537 1b09 84020000 		.4byte	.LLST18
 6538 1b0d 45       		.uleb128 0x45
 6539 1b0e BD180000 		.4byte	0x18bd
 6540 1b12 B5020000 		.4byte	.LLST19
 6541 1b16 43       		.uleb128 0x43
 6542 1b17 4F160000 		.4byte	0x164f
 6543 1b1b 90000000 		.4byte	.LBB92
 6544 1b1f 78000000 		.4byte	.Ldebug_ranges0+0x78
 6545 1b23 01       		.byte	0x1
 6546 1b24 CB01     		.2byte	0x1cb
 6547 1b26 5E1B0000 		.4byte	0x1b5e
 6548 1b2a 44       		.uleb128 0x44
 6549 1b2b 7F160000 		.4byte	0x167f
 6550 1b2f FE020000 		.4byte	.LLST20
 6551 1b33 44       		.uleb128 0x44
 6552 1b34 75160000 		.4byte	0x1675
 6553 1b38 34030000 		.4byte	.LLST21
 6554 1b3c 44       		.uleb128 0x44
 6555 1b3d 69160000 		.4byte	0x1669
 6556 1b41 61030000 		.4byte	.LLST22
 6557 1b45 44       		.uleb128 0x44
 6558 1b46 5D160000 		.4byte	0x165d
 6559 1b4a 74030000 		.4byte	.LLST23
 6560 1b4e 42       		.uleb128 0x42
 6561 1b4f 90000000 		.4byte	.Ldebug_ranges0+0x90
 6562 1b53 45       		.uleb128 0x45
 6563 1b54 8C160000 		.4byte	0x168c
 6564 1b58 A6030000 		.4byte	.LLST24
 6565 1b5c 00       		.byte	0
 6566 1b5d 00       		.byte	0
 6567 1b5e 43       		.uleb128 0x43
 6568 1b5f 4F160000 		.4byte	0x164f
 6569 1b63 24010000 		.4byte	.LBB101
 6570 1b67 C0000000 		.4byte	.Ldebug_ranges0+0xc0
 6571 1b6b 01       		.byte	0x1
 6572 1b6c D801     		.2byte	0x1d8
 6573 1b6e A61B0000 		.4byte	0x1ba6
 6574 1b72 44       		.uleb128 0x44
 6575 1b73 7F160000 		.4byte	0x167f
 6576 1b77 C5030000 		.4byte	.LLST25
 6577 1b7b 44       		.uleb128 0x44
 6578 1b7c 75160000 		.4byte	0x1675
 6579 1b80 0B040000 		.4byte	.LLST26
ARM GAS  /tmp/cc3IGbAH.s 			page 117


 6580 1b84 44       		.uleb128 0x44
 6581 1b85 69160000 		.4byte	0x1669
 6582 1b89 54040000 		.4byte	.LLST27
 6583 1b8d 44       		.uleb128 0x44
 6584 1b8e 5D160000 		.4byte	0x165d
 6585 1b92 67040000 		.4byte	.LLST28
 6586 1b96 42       		.uleb128 0x42
 6587 1b97 D8000000 		.4byte	.Ldebug_ranges0+0xd8
 6588 1b9b 45       		.uleb128 0x45
 6589 1b9c 8C160000 		.4byte	0x168c
 6590 1ba0 99040000 		.4byte	.LLST29
 6591 1ba4 00       		.byte	0
 6592 1ba5 00       		.byte	0
 6593 1ba6 46       		.uleb128 0x46
 6594 1ba7 C9180000 		.4byte	0x18c9
 6595 1bab 9E010000 		.4byte	.LBB108
 6596 1baf 5C020000 		.4byte	.LBE108
 6597 1bb3 01       		.byte	0x1
 6598 1bb4 D301     		.2byte	0x1d3
 6599 1bb6 44       		.uleb128 0x44
 6600 1bb7 EF180000 		.4byte	0x18ef
 6601 1bbb AC040000 		.4byte	.LLST30
 6602 1bbf 44       		.uleb128 0x44
 6603 1bc0 E3180000 		.4byte	0x18e3
 6604 1bc4 BF040000 		.4byte	.LLST31
 6605 1bc8 44       		.uleb128 0x44
 6606 1bc9 D7180000 		.4byte	0x18d7
 6607 1bcd D2040000 		.4byte	.LLST32
 6608 1bd1 47       		.uleb128 0x47
 6609 1bd2 9E010000 		.4byte	.LBB109
 6610 1bd6 5C020000 		.4byte	.LBE109
 6611 1bda 45       		.uleb128 0x45
 6612 1bdb F9180000 		.4byte	0x18f9
 6613 1bdf F6040000 		.4byte	.LLST33
 6614 1be3 48       		.uleb128 0x48
 6615 1be4 A6010000 		.4byte	.LBB110
 6616 1be8 24020000 		.4byte	.LBE110
 6617 1bec 241C0000 		.4byte	0x1c24
 6618 1bf0 45       		.uleb128 0x45
 6619 1bf1 0A190000 		.4byte	0x190a
 6620 1bf5 53050000 		.4byte	.LLST34
 6621 1bf9 45       		.uleb128 0x45
 6622 1bfa 14190000 		.4byte	0x1914
 6623 1bfe 66050000 		.4byte	.LLST35
 6624 1c02 45       		.uleb128 0x45
 6625 1c03 1E190000 		.4byte	0x191e
 6626 1c07 9E050000 		.4byte	.LLST36
 6627 1c0b 42       		.uleb128 0x42
 6628 1c0c F8000000 		.4byte	.Ldebug_ranges0+0xf8
 6629 1c10 45       		.uleb128 0x45
 6630 1c11 2A190000 		.4byte	0x192a
 6631 1c15 C4050000 		.4byte	.LLST37
 6632 1c19 45       		.uleb128 0x45
 6633 1c1a 36190000 		.4byte	0x1936
 6634 1c1e C4050000 		.4byte	.LLST37
 6635 1c22 00       		.byte	0
 6636 1c23 00       		.byte	0
ARM GAS  /tmp/cc3IGbAH.s 			page 118


 6637 1c24 48       		.uleb128 0x48
 6638 1c25 24020000 		.4byte	.LBB114
 6639 1c29 2A020000 		.4byte	.LBE114
 6640 1c2d 3B1C0000 		.4byte	0x1c3b
 6641 1c31 45       		.uleb128 0x45
 6642 1c32 49190000 		.4byte	0x1949
 6643 1c36 D8050000 		.4byte	.LLST39
 6644 1c3a 00       		.byte	0
 6645 1c3b 49       		.uleb128 0x49
 6646 1c3c 22160000 		.4byte	0x1622
 6647 1c40 36020000 		.4byte	.LBB115
 6648 1c44 3C020000 		.4byte	.LBE115
 6649 1c48 01       		.byte	0x1
 6650 1c49 B501     		.2byte	0x1b5
 6651 1c4b 6C1C0000 		.4byte	0x1c6c
 6652 1c4f 44       		.uleb128 0x44
 6653 1c50 33160000 		.4byte	0x1633
 6654 1c54 F6050000 		.4byte	.LLST40
 6655 1c58 47       		.uleb128 0x47
 6656 1c59 36020000 		.4byte	.LBB116
 6657 1c5d 3C020000 		.4byte	.LBE116
 6658 1c61 45       		.uleb128 0x45
 6659 1c62 3E160000 		.4byte	0x163e
 6660 1c66 09060000 		.4byte	.LLST41
 6661 1c6a 00       		.byte	0
 6662 1c6b 00       		.byte	0
 6663 1c6c 48       		.uleb128 0x48
 6664 1c6d 4E020000 		.4byte	.LBB117
 6665 1c71 5C020000 		.4byte	.LBE117
 6666 1c75 831C0000 		.4byte	0x1c83
 6667 1c79 45       		.uleb128 0x45
 6668 1c7a 57190000 		.4byte	0x1957
 6669 1c7e 1C060000 		.4byte	.LLST42
 6670 1c82 00       		.byte	0
 6671 1c83 4A       		.uleb128 0x4a
 6672 1c84 40020000 		.4byte	.LVL104
 6673 1c88 D5280000 		.4byte	0x28d5
 6674 1c8c 4A       		.uleb128 0x4a
 6675 1c8d 4E020000 		.4byte	.LVL106
 6676 1c91 ED280000 		.4byte	0x28ed
 6677 1c95 00       		.byte	0
 6678 1c96 00       		.byte	0
 6679 1c97 00       		.byte	0
 6680 1c98 00       		.byte	0
 6681 1c99 48       		.uleb128 0x48
 6682 1c9a 04010000 		.4byte	.LBB119
 6683 1c9e 0A010000 		.4byte	.LBE119
 6684 1ca2 B71C0000 		.4byte	0x1cb7
 6685 1ca6 41       		.uleb128 0x41
 6686 1ca7 746D7000 		.ascii	"tmp\000"
 6687 1cab 01       		.byte	0x1
 6688 1cac DB02     		.2byte	0x2db
 6689 1cae B6000000 		.4byte	0xb6
 6690 1cb2 5B060000 		.4byte	.LLST43
 6691 1cb6 00       		.byte	0
 6692 1cb7 48       		.uleb128 0x48
 6693 1cb8 5C020000 		.4byte	.LBB121
ARM GAS  /tmp/cc3IGbAH.s 			page 119


 6694 1cbc 8A040000 		.4byte	.LBE121
 6695 1cc0 E81E0000 		.4byte	0x1ee8
 6696 1cc4 37       		.uleb128 0x37
 6697 1cc5 54090000 		.4byte	.LASF388
 6698 1cc9 01       		.byte	0x1
 6699 1cca C402     		.2byte	0x2c4
 6700 1ccc CC000000 		.4byte	0xcc
 6701 1cd0 01       		.byte	0x1
 6702 1cd1 52       		.byte	0x52
 6703 1cd2 48       		.uleb128 0x48
 6704 1cd3 5C020000 		.4byte	.LBB122
 6705 1cd7 62020000 		.4byte	.LBE122
 6706 1cdb F01C0000 		.4byte	0x1cf0
 6707 1cdf 41       		.uleb128 0x41
 6708 1ce0 746D7000 		.ascii	"tmp\000"
 6709 1ce4 01       		.byte	0x1
 6710 1ce5 C602     		.2byte	0x2c6
 6711 1ce7 B6000000 		.4byte	0xb6
 6712 1ceb 79060000 		.4byte	.LLST44
 6713 1cef 00       		.byte	0
 6714 1cf0 40       		.uleb128 0x40
 6715 1cf1 18010000 		.4byte	.Ldebug_ranges0+0x118
 6716 1cf5 0A1D0000 		.4byte	0x1d0a
 6717 1cf9 41       		.uleb128 0x41
 6718 1cfa 746D7000 		.ascii	"tmp\000"
 6719 1cfe 01       		.byte	0x1
 6720 1cff D002     		.2byte	0x2d0
 6721 1d01 B6000000 		.4byte	0xb6
 6722 1d05 8C060000 		.4byte	.LLST45
 6723 1d09 00       		.byte	0
 6724 1d0a 43       		.uleb128 0x43
 6725 1d0b 65190000 		.4byte	0x1965
 6726 1d0f 82020000 		.4byte	.LBB125
 6727 1d13 30010000 		.4byte	.Ldebug_ranges0+0x130
 6728 1d17 01       		.byte	0x1
 6729 1d18 D202     		.2byte	0x2d2
 6730 1d1a AF1E0000 		.4byte	0x1eaf
 6731 1d1e 44       		.uleb128 0x44
 6732 1d1f 83190000 		.4byte	0x1983
 6733 1d23 9F060000 		.4byte	.LLST46
 6734 1d27 4B       		.uleb128 0x4b
 6735 1d28 77190000 		.4byte	0x1977
 6736 1d2c 01       		.byte	0x1
 6737 1d2d 5B       		.byte	0x5b
 6738 1d2e 42       		.uleb128 0x42
 6739 1d2f 48010000 		.4byte	.Ldebug_ranges0+0x148
 6740 1d33 45       		.uleb128 0x45
 6741 1d34 8F190000 		.4byte	0x198f
 6742 1d38 FA060000 		.4byte	.LLST47
 6743 1d3c 43       		.uleb128 0x43
 6744 1d3d 98160000 		.4byte	0x1698
 6745 1d41 C6020000 		.4byte	.LBB127
 6746 1d45 60010000 		.4byte	.Ldebug_ranges0+0x160
 6747 1d49 01       		.byte	0x1
 6748 1d4a 1002     		.2byte	0x210
 6749 1d4c 981D0000 		.4byte	0x1d98
 6750 1d50 44       		.uleb128 0x44
ARM GAS  /tmp/cc3IGbAH.s 			page 120


 6751 1d51 BE160000 		.4byte	0x16be
 6752 1d55 4F070000 		.4byte	.LLST48
 6753 1d59 44       		.uleb128 0x44
 6754 1d5a B2160000 		.4byte	0x16b2
 6755 1d5e 62070000 		.4byte	.LLST49
 6756 1d62 44       		.uleb128 0x44
 6757 1d63 A6160000 		.4byte	0x16a6
 6758 1d67 81070000 		.4byte	.LLST50
 6759 1d6b 4C       		.uleb128 0x4c
 6760 1d6c B0150000 		.4byte	0x15b0
 6761 1d70 CC020000 		.4byte	.LBB129
 6762 1d74 80010000 		.4byte	.Ldebug_ranges0+0x180
 6763 1d78 01       		.byte	0x1
 6764 1d79 0D01     		.2byte	0x10d
 6765 1d7b 44       		.uleb128 0x44
 6766 1d7c D7150000 		.4byte	0x15d7
 6767 1d80 94070000 		.4byte	.LLST51
 6768 1d84 44       		.uleb128 0x44
 6769 1d85 CC150000 		.4byte	0x15cc
 6770 1d89 C1070000 		.4byte	.LLST52
 6771 1d8d 44       		.uleb128 0x44
 6772 1d8e C1150000 		.4byte	0x15c1
 6773 1d92 81070000 		.4byte	.LLST50
 6774 1d96 00       		.byte	0
 6775 1d97 00       		.byte	0
 6776 1d98 4C       		.uleb128 0x4c
 6777 1d99 9B190000 		.4byte	0x199b
 6778 1d9d 42030000 		.4byte	.LBB137
 6779 1da1 98010000 		.4byte	.Ldebug_ranges0+0x198
 6780 1da5 01       		.byte	0x1
 6781 1da6 0A02     		.2byte	0x20a
 6782 1da8 44       		.uleb128 0x44
 6783 1da9 C1190000 		.4byte	0x19c1
 6784 1dad E0070000 		.4byte	.LLST54
 6785 1db1 44       		.uleb128 0x44
 6786 1db2 B5190000 		.4byte	0x19b5
 6787 1db6 14080000 		.4byte	.LLST55
 6788 1dba 44       		.uleb128 0x44
 6789 1dbb A9190000 		.4byte	0x19a9
 6790 1dbf 27080000 		.4byte	.LLST56
 6791 1dc3 42       		.uleb128 0x42
 6792 1dc4 B0010000 		.4byte	.Ldebug_ranges0+0x1b0
 6793 1dc8 45       		.uleb128 0x45
 6794 1dc9 CB190000 		.4byte	0x19cb
 6795 1dcd 45080000 		.4byte	.LLST57
 6796 1dd1 40       		.uleb128 0x40
 6797 1dd2 C8010000 		.4byte	.Ldebug_ranges0+0x1c8
 6798 1dd6 3A1E0000 		.4byte	0x1e3a
 6799 1dda 45       		.uleb128 0x45
 6800 1ddb DC190000 		.4byte	0x19dc
 6801 1ddf AD080000 		.4byte	.LLST58
 6802 1de3 45       		.uleb128 0x45
 6803 1de4 E6190000 		.4byte	0x19e6
 6804 1de8 CC080000 		.4byte	.LLST59
 6805 1dec 45       		.uleb128 0x45
 6806 1ded F0190000 		.4byte	0x19f0
 6807 1df1 10090000 		.4byte	.LLST60
ARM GAS  /tmp/cc3IGbAH.s 			page 121


 6808 1df5 47       		.uleb128 0x47
 6809 1df6 82030000 		.4byte	.LBB140
 6810 1dfa DE030000 		.4byte	.LBE140
 6811 1dfe 45       		.uleb128 0x45
 6812 1dff FC190000 		.4byte	0x19fc
 6813 1e03 32090000 		.4byte	.LLST61
 6814 1e07 45       		.uleb128 0x45
 6815 1e08 081A0000 		.4byte	0x1a08
 6816 1e0c 5F090000 		.4byte	.LLST62
 6817 1e10 46       		.uleb128 0x46
 6818 1e11 B0150000 		.4byte	0x15b0
 6819 1e15 9A030000 		.4byte	.LBB141
 6820 1e19 D4030000 		.4byte	.LBE141
 6821 1e1d 01       		.byte	0x1
 6822 1e1e 2801     		.2byte	0x128
 6823 1e20 44       		.uleb128 0x44
 6824 1e21 CC150000 		.4byte	0x15cc
 6825 1e25 9F090000 		.4byte	.LLST63
 6826 1e29 44       		.uleb128 0x44
 6827 1e2a D7150000 		.4byte	0x15d7
 6828 1e2e B2090000 		.4byte	.LLST64
 6829 1e32 4D       		.uleb128 0x4d
 6830 1e33 C1150000 		.4byte	0x15c1
 6831 1e37 00       		.byte	0
 6832 1e38 00       		.byte	0
 6833 1e39 00       		.byte	0
 6834 1e3a 48       		.uleb128 0x48
 6835 1e3b E4030000 		.4byte	.LBB143
 6836 1e3f EA030000 		.4byte	.LBE143
 6837 1e43 511E0000 		.4byte	0x1e51
 6838 1e47 45       		.uleb128 0x45
 6839 1e48 1B1A0000 		.4byte	0x1a1b
 6840 1e4c DF090000 		.4byte	.LLST65
 6841 1e50 00       		.byte	0
 6842 1e51 49       		.uleb128 0x49
 6843 1e52 22160000 		.4byte	0x1622
 6844 1e56 F6030000 		.4byte	.LBB144
 6845 1e5a FC030000 		.4byte	.LBE144
 6846 1e5e 01       		.byte	0x1
 6847 1e5f 4501     		.2byte	0x145
 6848 1e61 821E0000 		.4byte	0x1e82
 6849 1e65 44       		.uleb128 0x44
 6850 1e66 33160000 		.4byte	0x1633
 6851 1e6a FD090000 		.4byte	.LLST66
 6852 1e6e 47       		.uleb128 0x47
 6853 1e6f F6030000 		.4byte	.LBB145
 6854 1e73 FC030000 		.4byte	.LBE145
 6855 1e77 45       		.uleb128 0x45
 6856 1e78 3E160000 		.4byte	0x163e
 6857 1e7c 100A0000 		.4byte	.LLST67
 6858 1e80 00       		.byte	0
 6859 1e81 00       		.byte	0
 6860 1e82 48       		.uleb128 0x48
 6861 1e83 0E040000 		.4byte	.LBB146
 6862 1e87 16040000 		.4byte	.LBE146
 6863 1e8b 991E0000 		.4byte	0x1e99
 6864 1e8f 45       		.uleb128 0x45
ARM GAS  /tmp/cc3IGbAH.s 			page 122


 6865 1e90 291A0000 		.4byte	0x1a29
 6866 1e94 230A0000 		.4byte	.LLST68
 6867 1e98 00       		.byte	0
 6868 1e99 4A       		.uleb128 0x4a
 6869 1e9a 00040000 		.4byte	.LVL157
 6870 1e9e D5280000 		.4byte	0x28d5
 6871 1ea2 4A       		.uleb128 0x4a
 6872 1ea3 0E040000 		.4byte	.LVL159
 6873 1ea7 ED280000 		.4byte	0x28ed
 6874 1eab 00       		.byte	0
 6875 1eac 00       		.byte	0
 6876 1ead 00       		.byte	0
 6877 1eae 00       		.byte	0
 6878 1eaf 48       		.uleb128 0x48
 6879 1eb0 44030000 		.4byte	.LBB151
 6880 1eb4 4A030000 		.4byte	.LBE151
 6881 1eb8 CD1E0000 		.4byte	0x1ecd
 6882 1ebc 41       		.uleb128 0x41
 6883 1ebd 746D7000 		.ascii	"tmp\000"
 6884 1ec1 01       		.byte	0x1
 6885 1ec2 D402     		.2byte	0x2d4
 6886 1ec4 B6000000 		.4byte	0xb6
 6887 1ec8 410A0000 		.4byte	.LLST69
 6888 1ecc 00       		.byte	0
 6889 1ecd 47       		.uleb128 0x47
 6890 1ece 66030000 		.4byte	.LBB152
 6891 1ed2 6E030000 		.4byte	.LBE152
 6892 1ed6 41       		.uleb128 0x41
 6893 1ed7 746D7000 		.ascii	"tmp\000"
 6894 1edb 01       		.byte	0x1
 6895 1edc D802     		.2byte	0x2d8
 6896 1ede B6000000 		.4byte	0xb6
 6897 1ee2 540A0000 		.4byte	.LLST70
 6898 1ee6 00       		.byte	0
 6899 1ee7 00       		.byte	0
 6900 1ee8 4E       		.uleb128 0x4e
 6901 1ee9 5A000000 		.4byte	.LVL26
 6902 1eed F7280000 		.4byte	0x28f7
 6903 1ef1 39       		.uleb128 0x39
 6904 1ef2 01       		.byte	0x1
 6905 1ef3 50       		.byte	0x50
 6906 1ef4 01       		.byte	0x1
 6907 1ef5 32       		.byte	0x32
 6908 1ef6 00       		.byte	0
 6909 1ef7 00       		.byte	0
 6910 1ef8 00       		.byte	0
 6911 1ef9 2C       		.uleb128 0x2c
 6912 1efa F80A0000 		.4byte	.LASF389
 6913 1efe 01       		.byte	0x1
 6914 1eff 7C       		.byte	0x7c
 6915 1f00 01       		.byte	0x1
 6916 1f01 01       		.byte	0x1
 6917 1f02 121F0000 		.4byte	0x1f12
 6918 1f06 23       		.uleb128 0x23
 6919 1f07 BB080000 		.4byte	.LASF369
 6920 1f0b 01       		.byte	0x1
 6921 1f0c 7C       		.byte	0x7c
ARM GAS  /tmp/cc3IGbAH.s 			page 123


 6922 1f0d 2E0C0000 		.4byte	0xc2e
 6923 1f11 00       		.byte	0
 6924 1f12 34       		.uleb128 0x34
 6925 1f13 27120000 		.4byte	.LASF390
 6926 1f17 01       		.byte	0x1
 6927 1f18 2402     		.2byte	0x224
 6928 1f1a 01       		.byte	0x1
 6929 1f1b 00000000 		.4byte	.LFB133
 6930 1f1f 80000000 		.4byte	.LFE133
 6931 1f23 720A0000 		.4byte	.LLST71
 6932 1f27 01       		.byte	0x1
 6933 1f28 DD1F0000 		.4byte	0x1fdd
 6934 1f2c 35       		.uleb128 0x35
 6935 1f2d BB080000 		.4byte	.LASF369
 6936 1f31 01       		.byte	0x1
 6937 1f32 2402     		.2byte	0x224
 6938 1f34 2E0C0000 		.4byte	0xc2e
 6939 1f38 920A0000 		.4byte	.LLST72
 6940 1f3c 36       		.uleb128 0x36
 6941 1f3d 657000   		.ascii	"ep\000"
 6942 1f40 01       		.byte	0x1
 6943 1f41 2402     		.2byte	0x224
 6944 1f43 060B0000 		.4byte	0xb06
 6945 1f47 C60A0000 		.4byte	.LLST73
 6946 1f4b 37       		.uleb128 0x37
 6947 1f4c B2120000 		.4byte	.LASF374
 6948 1f50 01       		.byte	0x1
 6949 1f51 2502     		.2byte	0x225
 6950 1f53 71150000 		.4byte	0x1571
 6951 1f57 01       		.byte	0x1
 6952 1f58 54       		.byte	0x54
 6953 1f59 37       		.uleb128 0x37
 6954 1f5a 0F060000 		.4byte	.LASF377
 6955 1f5e 01       		.byte	0x1
 6956 1f5f 2602     		.2byte	0x226
 6957 1f61 B6000000 		.4byte	0xb6
 6958 1f65 01       		.byte	0x1
 6959 1f66 56       		.byte	0x56
 6960 1f67 48       		.uleb128 0x48
 6961 1f68 38000000 		.4byte	.LBB159
 6962 1f6c 3E000000 		.4byte	.LBE159
 6963 1f70 851F0000 		.4byte	0x1f85
 6964 1f74 41       		.uleb128 0x41
 6965 1f75 746D7000 		.ascii	"tmp\000"
 6966 1f79 01       		.byte	0x1
 6967 1f7a 3402     		.2byte	0x234
 6968 1f7c B6000000 		.4byte	0xb6
 6969 1f80 000B0000 		.4byte	.LLST74
 6970 1f84 00       		.byte	0
 6971 1f85 43       		.uleb128 0x43
 6972 1f86 F91E0000 		.4byte	0x1ef9
 6973 1f8a 44000000 		.4byte	.LBB160
 6974 1f8e E0010000 		.4byte	.Ldebug_ranges0+0x1e0
 6975 1f92 01       		.byte	0x1
 6976 1f93 3702     		.2byte	0x237
 6977 1f95 AC1F0000 		.4byte	0x1fac
 6978 1f99 44       		.uleb128 0x44
ARM GAS  /tmp/cc3IGbAH.s 			page 124


 6979 1f9a 061F0000 		.4byte	0x1f06
 6980 1f9e 130B0000 		.4byte	.LLST75
 6981 1fa2 4A       		.uleb128 0x4a
 6982 1fa3 58000000 		.4byte	.LVL181
 6983 1fa7 D5280000 		.4byte	0x28d5
 6984 1fab 00       		.byte	0
 6985 1fac 48       		.uleb128 0x48
 6986 1fad 5C000000 		.4byte	.LBB164
 6987 1fb1 64000000 		.4byte	.LBE164
 6988 1fb5 CA1F0000 		.4byte	0x1fca
 6989 1fb9 41       		.uleb128 0x41
 6990 1fba 746D7000 		.ascii	"tmp\000"
 6991 1fbe 01       		.byte	0x1
 6992 1fbf 3802     		.2byte	0x238
 6993 1fc1 B6000000 		.4byte	0xb6
 6994 1fc5 260B0000 		.4byte	.LLST76
 6995 1fc9 00       		.byte	0
 6996 1fca 3A       		.uleb128 0x3a
 6997 1fcb 7E000000 		.4byte	.LVL185
 6998 1fcf 39       		.uleb128 0x39
 6999 1fd0 01       		.byte	0x1
 7000 1fd1 51       		.byte	0x51
 7001 1fd2 02       		.byte	0x2
 7002 1fd3 77       		.byte	0x77
 7003 1fd4 00       		.sleb128 0
 7004 1fd5 39       		.uleb128 0x39
 7005 1fd6 01       		.byte	0x1
 7006 1fd7 50       		.byte	0x50
 7007 1fd8 02       		.byte	0x2
 7008 1fd9 75       		.byte	0x75
 7009 1fda 00       		.sleb128 0
 7010 1fdb 00       		.byte	0
 7011 1fdc 00       		.byte	0
 7012 1fdd 4F       		.uleb128 0x4f
 7013 1fde 01       		.byte	0x1
 7014 1fdf 7A0B0000 		.4byte	.LASF391
 7015 1fe3 01       		.byte	0x1
 7016 1fe4 EA02     		.2byte	0x2ea
 7017 1fe6 01       		.byte	0x1
 7018 1fe7 00000000 		.4byte	.LFB137
 7019 1feb 00010000 		.4byte	.LFE137
 7020 1fef 390B0000 		.4byte	.LLST77
 7021 1ff3 01       		.byte	0x1
 7022 1ff4 95210000 		.4byte	0x2195
 7023 1ff8 43       		.uleb128 0x43
 7024 1ff9 15170000 		.4byte	0x1715
 7025 1ffd 02000000 		.4byte	.LBB171
 7026 2001 F8010000 		.4byte	.Ldebug_ranges0+0x1f8
 7027 2005 01       		.byte	0x1
 7028 2006 EE02     		.2byte	0x2ee
 7029 2008 8A210000 		.4byte	0x218a
 7030 200c 42       		.uleb128 0x42
 7031 200d 10020000 		.4byte	.Ldebug_ranges0+0x210
 7032 2011 45       		.uleb128 0x45
 7033 2012 2F170000 		.4byte	0x172f
 7034 2016 590B0000 		.4byte	.LLST78
 7035 201a 50       		.uleb128 0x50
ARM GAS  /tmp/cc3IGbAH.s 			page 125


 7036 201b 3B170000 		.4byte	0x173b
 7037 201f 01       		.byte	0x1
 7038 2020 54       		.byte	0x54
 7039 2021 45       		.uleb128 0x45
 7040 2022 47170000 		.4byte	0x1747
 7041 2026 770B0000 		.4byte	.LLST79
 7042 202a 4B       		.uleb128 0x4b
 7043 202b 23170000 		.4byte	0x1723
 7044 202f 06       		.byte	0x6
 7045 2030 03       		.byte	0x3
 7046 2031 00000000 		.4byte	USBD1
 7047 2035 9F       		.byte	0x9f
 7048 2036 48       		.uleb128 0x48
 7049 2037 80000000 		.4byte	.LBB173
 7050 203b 86000000 		.4byte	.LBE173
 7051 203f 4D200000 		.4byte	0x204d
 7052 2043 45       		.uleb128 0x45
 7053 2044 58170000 		.4byte	0x1758
 7054 2048 950B0000 		.4byte	.LLST80
 7055 204c 00       		.byte	0
 7056 204d 43       		.uleb128 0x43
 7057 204e F91E0000 		.4byte	0x1ef9
 7058 2052 88000000 		.4byte	.LBB174
 7059 2056 28020000 		.4byte	.Ldebug_ranges0+0x228
 7060 205a 01       		.byte	0x1
 7061 205b 7B02     		.2byte	0x27b
 7062 205d 74200000 		.4byte	0x2074
 7063 2061 44       		.uleb128 0x44
 7064 2062 061F0000 		.4byte	0x1f06
 7065 2066 A80B0000 		.4byte	.LLST81
 7066 206a 4A       		.uleb128 0x4a
 7067 206b 96000000 		.4byte	.LVL205
 7068 206f D5280000 		.4byte	0x28d5
 7069 2073 00       		.byte	0
 7070 2074 48       		.uleb128 0x48
 7071 2075 9C000000 		.4byte	.LBB178
 7072 2079 A4000000 		.4byte	.LBE178
 7073 207d 8B200000 		.4byte	0x208b
 7074 2081 45       		.uleb128 0x45
 7075 2082 66170000 		.4byte	0x1766
 7076 2086 C00B0000 		.4byte	.LLST82
 7077 208a 00       		.byte	0
 7078 208b 38       		.uleb128 0x38
 7079 208c 28000000 		.4byte	.LVL189
 7080 2090 9B200000 		.4byte	0x209b
 7081 2094 39       		.uleb128 0x39
 7082 2095 01       		.byte	0x1
 7083 2096 50       		.byte	0x50
 7084 2097 02       		.byte	0x2
 7085 2098 76       		.byte	0x76
 7086 2099 00       		.sleb128 0
 7087 209a 00       		.byte	0
 7088 209b 51       		.uleb128 0x51
 7089 209c 68000000 		.4byte	.LVL197
 7090 20a0 B7170000 		.4byte	0x17b7
 7091 20a4 B4200000 		.4byte	0x20b4
 7092 20a8 39       		.uleb128 0x39
ARM GAS  /tmp/cc3IGbAH.s 			page 126


 7093 20a9 01       		.byte	0x1
 7094 20aa 51       		.byte	0x51
 7095 20ab 01       		.byte	0x1
 7096 20ac 33       		.byte	0x33
 7097 20ad 39       		.uleb128 0x39
 7098 20ae 01       		.byte	0x1
 7099 20af 50       		.byte	0x50
 7100 20b0 02       		.byte	0x2
 7101 20b1 76       		.byte	0x76
 7102 20b2 00       		.sleb128 0
 7103 20b3 00       		.byte	0
 7104 20b4 51       		.uleb128 0x51
 7105 20b5 70000000 		.4byte	.LVL199
 7106 20b9 0B290000 		.4byte	0x290b
 7107 20bd C8200000 		.4byte	0x20c8
 7108 20c1 39       		.uleb128 0x39
 7109 20c2 01       		.byte	0x1
 7110 20c3 50       		.byte	0x50
 7111 20c4 02       		.byte	0x2
 7112 20c5 76       		.byte	0x76
 7113 20c6 00       		.sleb128 0
 7114 20c7 00       		.byte	0
 7115 20c8 38       		.uleb128 0x38
 7116 20c9 7E000000 		.4byte	.LVL200
 7117 20cd DD200000 		.4byte	0x20dd
 7118 20d1 39       		.uleb128 0x39
 7119 20d2 01       		.byte	0x1
 7120 20d3 51       		.byte	0x51
 7121 20d4 01       		.byte	0x1
 7122 20d5 30       		.byte	0x30
 7123 20d6 39       		.uleb128 0x39
 7124 20d7 01       		.byte	0x1
 7125 20d8 50       		.byte	0x50
 7126 20d9 02       		.byte	0x2
 7127 20da 76       		.byte	0x76
 7128 20db 00       		.sleb128 0
 7129 20dc 00       		.byte	0
 7130 20dd 51       		.uleb128 0x51
 7131 20de AC000000 		.4byte	.LVL208
 7132 20e2 B7170000 		.4byte	0x17b7
 7133 20e6 F6200000 		.4byte	0x20f6
 7134 20ea 39       		.uleb128 0x39
 7135 20eb 01       		.byte	0x1
 7136 20ec 51       		.byte	0x51
 7137 20ed 01       		.byte	0x1
 7138 20ee 32       		.byte	0x32
 7139 20ef 39       		.uleb128 0x39
 7140 20f0 01       		.byte	0x1
 7141 20f1 50       		.byte	0x50
 7142 20f2 02       		.byte	0x2
 7143 20f3 76       		.byte	0x76
 7144 20f4 00       		.sleb128 0
 7145 20f5 00       		.byte	0
 7146 20f6 51       		.uleb128 0x51
 7147 20f7 BA000000 		.4byte	.LVL209
 7148 20fb B7170000 		.4byte	0x17b7
 7149 20ff 0F210000 		.4byte	0x210f
ARM GAS  /tmp/cc3IGbAH.s 			page 127


 7150 2103 39       		.uleb128 0x39
 7151 2104 01       		.byte	0x1
 7152 2105 51       		.byte	0x51
 7153 2106 01       		.byte	0x1
 7154 2107 30       		.byte	0x30
 7155 2108 39       		.uleb128 0x39
 7156 2109 01       		.byte	0x1
 7157 210a 50       		.byte	0x50
 7158 210b 02       		.byte	0x2
 7159 210c 76       		.byte	0x76
 7160 210d 00       		.sleb128 0
 7161 210e 00       		.byte	0
 7162 210f 51       		.uleb128 0x51
 7163 2110 C6000000 		.4byte	.LVL210
 7164 2114 B7170000 		.4byte	0x17b7
 7165 2118 28210000 		.4byte	0x2128
 7166 211c 39       		.uleb128 0x39
 7167 211d 01       		.byte	0x1
 7168 211e 51       		.byte	0x51
 7169 211f 01       		.byte	0x1
 7170 2120 31       		.byte	0x31
 7171 2121 39       		.uleb128 0x39
 7172 2122 01       		.byte	0x1
 7173 2123 50       		.byte	0x50
 7174 2124 02       		.byte	0x2
 7175 2125 76       		.byte	0x76
 7176 2126 00       		.sleb128 0
 7177 2127 00       		.byte	0
 7178 2128 51       		.uleb128 0x51
 7179 2129 D4000000 		.4byte	.LVL212
 7180 212d 121F0000 		.4byte	0x1f12
 7181 2131 41210000 		.4byte	0x2141
 7182 2135 39       		.uleb128 0x39
 7183 2136 01       		.byte	0x1
 7184 2137 51       		.byte	0x51
 7185 2138 01       		.byte	0x1
 7186 2139 30       		.byte	0x30
 7187 213a 39       		.uleb128 0x39
 7188 213b 01       		.byte	0x1
 7189 213c 50       		.byte	0x50
 7190 213d 02       		.byte	0x2
 7191 213e 76       		.byte	0x76
 7192 213f 00       		.sleb128 0
 7193 2140 00       		.byte	0
 7194 2141 51       		.uleb128 0x51
 7195 2142 E0000000 		.4byte	.LVL213
 7196 2146 121F0000 		.4byte	0x1f12
 7197 214a 5A210000 		.4byte	0x215a
 7198 214e 39       		.uleb128 0x39
 7199 214f 01       		.byte	0x1
 7200 2150 51       		.byte	0x51
 7201 2151 01       		.byte	0x1
 7202 2152 31       		.byte	0x31
 7203 2153 39       		.uleb128 0x39
 7204 2154 01       		.byte	0x1
 7205 2155 50       		.byte	0x50
 7206 2156 02       		.byte	0x2
ARM GAS  /tmp/cc3IGbAH.s 			page 128


 7207 2157 76       		.byte	0x76
 7208 2158 00       		.sleb128 0
 7209 2159 00       		.byte	0
 7210 215a 51       		.uleb128 0x51
 7211 215b EC000000 		.4byte	.LVL214
 7212 215f 121F0000 		.4byte	0x1f12
 7213 2163 73210000 		.4byte	0x2173
 7214 2167 39       		.uleb128 0x39
 7215 2168 01       		.byte	0x1
 7216 2169 51       		.byte	0x51
 7217 216a 01       		.byte	0x1
 7218 216b 32       		.byte	0x32
 7219 216c 39       		.uleb128 0x39
 7220 216d 01       		.byte	0x1
 7221 216e 50       		.byte	0x50
 7222 216f 02       		.byte	0x2
 7223 2170 76       		.byte	0x76
 7224 2171 00       		.sleb128 0
 7225 2172 00       		.byte	0
 7226 2173 4E       		.uleb128 0x4e
 7227 2174 F8000000 		.4byte	.LVL215
 7228 2178 121F0000 		.4byte	0x1f12
 7229 217c 39       		.uleb128 0x39
 7230 217d 01       		.byte	0x1
 7231 217e 51       		.byte	0x51
 7232 217f 01       		.byte	0x1
 7233 2180 33       		.byte	0x33
 7234 2181 39       		.uleb128 0x39
 7235 2182 01       		.byte	0x1
 7236 2183 50       		.byte	0x50
 7237 2184 02       		.byte	0x2
 7238 2185 76       		.byte	0x76
 7239 2186 00       		.sleb128 0
 7240 2187 00       		.byte	0
 7241 2188 00       		.byte	0
 7242 2189 00       		.byte	0
 7243 218a 52       		.uleb128 0x52
 7244 218b 60000000 		.4byte	.LVL196
 7245 218f 01       		.byte	0x1
 7246 2190 20290000 		.4byte	0x2920
 7247 2194 00       		.byte	0
 7248 2195 4F       		.uleb128 0x4f
 7249 2196 01       		.byte	0x1
 7250 2197 630B0000 		.4byte	.LASF392
 7251 219b 01       		.byte	0x1
 7252 219c 1003     		.2byte	0x310
 7253 219e 01       		.byte	0x1
 7254 219f 00000000 		.4byte	.LFB138
 7255 21a3 28000000 		.4byte	.LFE138
 7256 21a7 FF0B0000 		.4byte	.LLST83
 7257 21ab 01       		.byte	0x1
 7258 21ac C1210000 		.4byte	0x21c1
 7259 21b0 4E       		.uleb128 0x4e
 7260 21b1 10000000 		.4byte	.LVL216
 7261 21b5 2B290000 		.4byte	0x292b
 7262 21b9 39       		.uleb128 0x39
 7263 21ba 01       		.byte	0x1
ARM GAS  /tmp/cc3IGbAH.s 			page 129


 7264 21bb 50       		.byte	0x50
 7265 21bc 02       		.byte	0x2
 7266 21bd 74       		.byte	0x74
 7267 21be 00       		.sleb128 0
 7268 21bf 00       		.byte	0
 7269 21c0 00       		.byte	0
 7270 21c1 2C       		.uleb128 0x2c
 7271 21c2 DC130000 		.4byte	.LASF393
 7272 21c6 01       		.byte	0x1
 7273 21c7 84       		.byte	0x84
 7274 21c8 01       		.byte	0x1
 7275 21c9 01       		.byte	0x1
 7276 21ca E5210000 		.4byte	0x21e5
 7277 21ce 23       		.uleb128 0x23
 7278 21cf BB080000 		.4byte	.LASF369
 7279 21d3 01       		.byte	0x1
 7280 21d4 84       		.byte	0x84
 7281 21d5 2E0C0000 		.4byte	0xc2e
 7282 21d9 2D       		.uleb128 0x2d
 7283 21da B2120000 		.4byte	.LASF374
 7284 21de 01       		.byte	0x1
 7285 21df 85       		.byte	0x85
 7286 21e0 71150000 		.4byte	0x1571
 7287 21e4 00       		.byte	0
 7288 21e5 4F       		.uleb128 0x4f
 7289 21e6 01       		.byte	0x1
 7290 21e7 CA100000 		.4byte	.LASF394
 7291 21eb 01       		.byte	0x1
 7292 21ec 4A03     		.2byte	0x34a
 7293 21ee 01       		.byte	0x1
 7294 21ef 00000000 		.4byte	.LFB139
 7295 21f3 DC000000 		.4byte	.LFE139
 7296 21f7 1F0C0000 		.4byte	.LLST84
 7297 21fb 01       		.byte	0x1
 7298 21fc B6220000 		.4byte	0x22b6
 7299 2200 35       		.uleb128 0x35
 7300 2201 BB080000 		.4byte	.LASF369
 7301 2205 01       		.byte	0x1
 7302 2206 4A03     		.2byte	0x34a
 7303 2208 2E0C0000 		.4byte	0xc2e
 7304 220c 4B0C0000 		.4byte	.LLST85
 7305 2210 37       		.uleb128 0x37
 7306 2211 B2120000 		.4byte	.LASF374
 7307 2215 01       		.byte	0x1
 7308 2216 4B03     		.2byte	0x34b
 7309 2218 71150000 		.4byte	0x1571
 7310 221c 01       		.byte	0x1
 7311 221d 55       		.byte	0x55
 7312 221e 43       		.uleb128 0x43
 7313 221f C1210000 		.4byte	0x21c1
 7314 2223 26000000 		.4byte	.LBB183
 7315 2227 40020000 		.4byte	.Ldebug_ranges0+0x240
 7316 222b 01       		.byte	0x1
 7317 222c 7F03     		.2byte	0x37f
 7318 222e 5A220000 		.4byte	0x225a
 7319 2232 44       		.uleb128 0x44
 7320 2233 CE210000 		.4byte	0x21ce
ARM GAS  /tmp/cc3IGbAH.s 			page 130


 7321 2237 7F0C0000 		.4byte	.LLST86
 7322 223b 42       		.uleb128 0x42
 7323 223c 60020000 		.4byte	.Ldebug_ranges0+0x260
 7324 2240 45       		.uleb128 0x45
 7325 2241 D9210000 		.4byte	0x21d9
 7326 2245 920C0000 		.4byte	.LLST87
 7327 2249 4E       		.uleb128 0x4e
 7328 224a 54000000 		.4byte	.LVL223
 7329 224e C1280000 		.4byte	0x28c1
 7330 2252 39       		.uleb128 0x39
 7331 2253 01       		.byte	0x1
 7332 2254 50       		.byte	0x50
 7333 2255 01       		.byte	0x1
 7334 2256 3C       		.byte	0x3c
 7335 2257 00       		.byte	0
 7336 2258 00       		.byte	0
 7337 2259 00       		.byte	0
 7338 225a 51       		.uleb128 0x51
 7339 225b 64000000 		.4byte	.LVL225
 7340 225f 74170000 		.4byte	0x1774
 7341 2263 6E220000 		.4byte	0x226e
 7342 2267 39       		.uleb128 0x39
 7343 2268 01       		.byte	0x1
 7344 2269 50       		.byte	0x50
 7345 226a 02       		.byte	0x2
 7346 226b 76       		.byte	0x76
 7347 226c 00       		.sleb128 0
 7348 226d 00       		.byte	0
 7349 226e 51       		.uleb128 0x51
 7350 226f A6000000 		.4byte	.LVL227
 7351 2273 40290000 		.4byte	0x2940
 7352 2277 9F220000 		.4byte	0x229f
 7353 227b 39       		.uleb128 0x39
 7354 227c 01       		.byte	0x1
 7355 227d 53       		.byte	0x53
 7356 227e 05       		.byte	0x5
 7357 227f 03       		.byte	0x3
 7358 2280 00000000 		.4byte	usb_lld_pump
 7359 2284 39       		.uleb128 0x39
 7360 2285 01       		.byte	0x1
 7361 2286 52       		.byte	0x52
 7362 2287 01       		.byte	0x1
 7363 2288 32       		.byte	0x32
 7364 2289 39       		.uleb128 0x39
 7365 228a 01       		.byte	0x1
 7366 228b 51       		.byte	0x51
 7367 228c 03       		.byte	0x3
 7368 228d 0A       		.byte	0xa
 7369 228e 3001     		.2byte	0x130
 7370 2290 39       		.uleb128 0x39
 7371 2291 01       		.byte	0x1
 7372 2292 50       		.byte	0x50
 7373 2293 03       		.byte	0x3
 7374 2294 76       		.byte	0x76
 7375 2295 D800     		.sleb128 88
 7376 2297 39       		.uleb128 0x39
 7377 2298 02       		.byte	0x2
ARM GAS  /tmp/cc3IGbAH.s 			page 131


 7378 2299 7D       		.byte	0x7d
 7379 229a 00       		.sleb128 0
 7380 229b 02       		.byte	0x2
 7381 229c 76       		.byte	0x76
 7382 229d 00       		.sleb128 0
 7383 229e 00       		.byte	0
 7384 229f 4E       		.uleb128 0x4e
 7385 22a0 D0000000 		.4byte	.LVL228
 7386 22a4 6D290000 		.4byte	0x296d
 7387 22a8 39       		.uleb128 0x39
 7388 22a9 01       		.byte	0x1
 7389 22aa 51       		.byte	0x51
 7390 22ab 02       		.byte	0x2
 7391 22ac 08       		.byte	0x8
 7392 22ad E0       		.byte	0xe0
 7393 22ae 39       		.uleb128 0x39
 7394 22af 01       		.byte	0x1
 7395 22b0 50       		.byte	0x50
 7396 22b1 02       		.byte	0x2
 7397 22b2 08       		.byte	0x8
 7398 22b3 43       		.byte	0x43
 7399 22b4 00       		.byte	0
 7400 22b5 00       		.byte	0
 7401 22b6 53       		.uleb128 0x53
 7402 22b7 01       		.byte	0x1
 7403 22b8 EF010000 		.4byte	.LASF395
 7404 22bc 01       		.byte	0x1
 7405 22bd A003     		.2byte	0x3a0
 7406 22bf 01       		.byte	0x1
 7407 22c0 00000000 		.4byte	.LFB140
 7408 22c4 16000000 		.4byte	.LFE140
 7409 22c8 02       		.byte	0x2
 7410 22c9 7D       		.byte	0x7d
 7411 22ca 00       		.sleb128 0
 7412 22cb 01       		.byte	0x1
 7413 22cc ED220000 		.4byte	0x22ed
 7414 22d0 54       		.uleb128 0x54
 7415 22d1 BB080000 		.4byte	.LASF369
 7416 22d5 01       		.byte	0x1
 7417 22d6 A003     		.2byte	0x3a0
 7418 22d8 2E0C0000 		.4byte	0xc2e
 7419 22dc 01       		.byte	0x1
 7420 22dd 50       		.byte	0x50
 7421 22de 37       		.uleb128 0x37
 7422 22df B2120000 		.4byte	.LASF374
 7423 22e3 01       		.byte	0x1
 7424 22e4 A103     		.2byte	0x3a1
 7425 22e6 71150000 		.4byte	0x1571
 7426 22ea 01       		.byte	0x1
 7427 22eb 52       		.byte	0x52
 7428 22ec 00       		.byte	0
 7429 22ed 2C       		.uleb128 0x2c
 7430 22ee 7F120000 		.4byte	.LASF396
 7431 22f2 01       		.byte	0x1
 7432 22f3 B6       		.byte	0xb6
 7433 22f4 01       		.byte	0x1
 7434 22f5 01       		.byte	0x1
ARM GAS  /tmp/cc3IGbAH.s 			page 132


 7435 22f6 11230000 		.4byte	0x2311
 7436 22fa 23       		.uleb128 0x23
 7437 22fb BB080000 		.4byte	.LASF369
 7438 22ff 01       		.byte	0x1
 7439 2300 B6       		.byte	0xb6
 7440 2301 2E0C0000 		.4byte	0xc2e
 7441 2305 2D       		.uleb128 0x2d
 7442 2306 B2120000 		.4byte	.LASF374
 7443 230a 01       		.byte	0x1
 7444 230b B7       		.byte	0xb7
 7445 230c 71150000 		.4byte	0x1571
 7446 2310 00       		.byte	0
 7447 2311 4F       		.uleb128 0x4f
 7448 2312 01       		.byte	0x1
 7449 2313 A60C0000 		.4byte	.LASF397
 7450 2317 01       		.byte	0x1
 7451 2318 C303     		.2byte	0x3c3
 7452 231a 01       		.byte	0x1
 7453 231b 00000000 		.4byte	.LFB141
 7454 231f 2C010000 		.4byte	.LFE141
 7455 2323 A50C0000 		.4byte	.LLST88
 7456 2327 01       		.byte	0x1
 7457 2328 F1230000 		.4byte	0x23f1
 7458 232c 35       		.uleb128 0x35
 7459 232d BB080000 		.4byte	.LASF369
 7460 2331 01       		.byte	0x1
 7461 2332 C303     		.2byte	0x3c3
 7462 2334 2E0C0000 		.4byte	0xc2e
 7463 2338 C50C0000 		.4byte	.LLST89
 7464 233c 29       		.uleb128 0x29
 7465 233d 6900     		.ascii	"i\000"
 7466 233f 01       		.byte	0x1
 7467 2340 C403     		.2byte	0x3c4
 7468 2342 29000000 		.4byte	0x29
 7469 2346 37       		.uleb128 0x37
 7470 2347 B2120000 		.4byte	.LASF374
 7471 234b 01       		.byte	0x1
 7472 234c C503     		.2byte	0x3c5
 7473 234e 71150000 		.4byte	0x1571
 7474 2352 01       		.byte	0x1
 7475 2353 54       		.byte	0x54
 7476 2354 43       		.uleb128 0x43
 7477 2355 C9160000 		.4byte	0x16c9
 7478 2359 A0000000 		.4byte	.LBB195
 7479 235d 80020000 		.4byte	.Ldebug_ranges0+0x280
 7480 2361 01       		.byte	0x1
 7481 2362 D703     		.2byte	0x3d7
 7482 2364 70230000 		.4byte	0x2370
 7483 2368 4B       		.uleb128 0x4b
 7484 2369 D6160000 		.4byte	0x16d6
 7485 236d 01       		.byte	0x1
 7486 236e 58       		.byte	0x58
 7487 236f 00       		.byte	0
 7488 2370 43       		.uleb128 0x43
 7489 2371 ED220000 		.4byte	0x22ed
 7490 2375 A4000000 		.4byte	.LBB198
 7491 2379 98020000 		.4byte	.Ldebug_ranges0+0x298
ARM GAS  /tmp/cc3IGbAH.s 			page 133


 7492 237d 01       		.byte	0x1
 7493 237e DB03     		.2byte	0x3db
 7494 2380 AA230000 		.4byte	0x23aa
 7495 2384 4B       		.uleb128 0x4b
 7496 2385 FA220000 		.4byte	0x22fa
 7497 2389 01       		.byte	0x1
 7498 238a 58       		.byte	0x58
 7499 238b 42       		.uleb128 0x42
 7500 238c B8020000 		.4byte	.Ldebug_ranges0+0x2b8
 7501 2390 45       		.uleb128 0x45
 7502 2391 05230000 		.4byte	0x2305
 7503 2395 E30C0000 		.4byte	.LLST90
 7504 2399 4E       		.uleb128 0x4e
 7505 239a D0000000 		.4byte	.LVL236
 7506 239e C1280000 		.4byte	0x28c1
 7507 23a2 39       		.uleb128 0x39
 7508 23a3 01       		.byte	0x1
 7509 23a4 50       		.byte	0x50
 7510 23a5 01       		.byte	0x1
 7511 23a6 3C       		.byte	0x3c
 7512 23a7 00       		.byte	0
 7513 23a8 00       		.byte	0
 7514 23a9 00       		.byte	0
 7515 23aa 43       		.uleb128 0x43
 7516 23ab E2160000 		.4byte	0x16e2
 7517 23af D4000000 		.4byte	.LBB205
 7518 23b3 D8020000 		.4byte	.Ldebug_ranges0+0x2d8
 7519 23b7 01       		.byte	0x1
 7520 23b8 EE03     		.2byte	0x3ee
 7521 23ba DB230000 		.4byte	0x23db
 7522 23be 55       		.uleb128 0x55
 7523 23bf FE160000 		.4byte	0x16fe
 7524 23c3 10       		.byte	0x10
 7525 23c4 4B       		.uleb128 0x4b
 7526 23c5 F3160000 		.4byte	0x16f3
 7527 23c9 01       		.byte	0x1
 7528 23ca 58       		.byte	0x58
 7529 23cb 42       		.uleb128 0x42
 7530 23cc F8020000 		.4byte	.Ldebug_ranges0+0x2f8
 7531 23d0 50       		.uleb128 0x50
 7532 23d1 09170000 		.4byte	0x1709
 7533 23d5 03       		.byte	0x3
 7534 23d6 78       		.byte	0x78
 7535 23d7 C400     		.sleb128 68
 7536 23d9 00       		.byte	0
 7537 23da 00       		.byte	0
 7538 23db 4E       		.uleb128 0x4e
 7539 23dc 0E000000 		.4byte	.LVL233
 7540 23e0 35180000 		.4byte	0x1835
 7541 23e4 39       		.uleb128 0x39
 7542 23e5 01       		.byte	0x1
 7543 23e6 51       		.byte	0x51
 7544 23e7 01       		.byte	0x1
 7545 23e8 30       		.byte	0x30
 7546 23e9 39       		.uleb128 0x39
 7547 23ea 01       		.byte	0x1
 7548 23eb 50       		.byte	0x50
ARM GAS  /tmp/cc3IGbAH.s 			page 134


 7549 23ec 02       		.byte	0x2
 7550 23ed 78       		.byte	0x78
 7551 23ee 00       		.sleb128 0
 7552 23ef 00       		.byte	0
 7553 23f0 00       		.byte	0
 7554 23f1 53       		.uleb128 0x53
 7555 23f2 01       		.byte	0x1
 7556 23f3 CB0C0000 		.4byte	.LASF398
 7557 23f7 01       		.byte	0x1
 7558 23f8 F903     		.2byte	0x3f9
 7559 23fa 01       		.byte	0x1
 7560 23fb 00000000 		.4byte	.LFB142
 7561 23ff 18000000 		.4byte	.LFE142
 7562 2403 02       		.byte	0x2
 7563 2404 7D       		.byte	0x7d
 7564 2405 00       		.sleb128 0
 7565 2406 01       		.byte	0x1
 7566 2407 2A240000 		.4byte	0x242a
 7567 240b 35       		.uleb128 0x35
 7568 240c BB080000 		.4byte	.LASF369
 7569 2410 01       		.byte	0x1
 7570 2411 F903     		.2byte	0x3f9
 7571 2413 2E0C0000 		.4byte	0xc2e
 7572 2417 F60C0000 		.4byte	.LLST91
 7573 241b 37       		.uleb128 0x37
 7574 241c B2120000 		.4byte	.LASF374
 7575 2420 01       		.byte	0x1
 7576 2421 FA03     		.2byte	0x3fa
 7577 2423 71150000 		.4byte	0x1571
 7578 2427 01       		.byte	0x1
 7579 2428 53       		.byte	0x53
 7580 2429 00       		.byte	0
 7581 242a 4F       		.uleb128 0x4f
 7582 242b 01       		.byte	0x1
 7583 242c 76010000 		.4byte	.LASF399
 7584 2430 01       		.byte	0x1
 7585 2431 0704     		.2byte	0x407
 7586 2433 01       		.byte	0x1
 7587 2434 00000000 		.4byte	.LFB143
 7588 2438 36010000 		.4byte	.LFE143
 7589 243c 170D0000 		.4byte	.LLST92
 7590 2440 01       		.byte	0x1
 7591 2441 F9240000 		.4byte	0x24f9
 7592 2445 35       		.uleb128 0x35
 7593 2446 BB080000 		.4byte	.LASF369
 7594 244a 01       		.byte	0x1
 7595 244b 0704     		.2byte	0x407
 7596 244d 2E0C0000 		.4byte	0xc2e
 7597 2451 370D0000 		.4byte	.LLST93
 7598 2455 36       		.uleb128 0x36
 7599 2456 657000   		.ascii	"ep\000"
 7600 2459 01       		.byte	0x1
 7601 245a 0704     		.2byte	0x407
 7602 245c 060B0000 		.4byte	0xb06
 7603 2460 550D0000 		.4byte	.LLST94
 7604 2464 41       		.uleb128 0x41
 7605 2465 63746C00 		.ascii	"ctl\000"
ARM GAS  /tmp/cc3IGbAH.s 			page 135


 7606 2469 01       		.byte	0x1
 7607 246a 0804     		.2byte	0x408
 7608 246c B6000000 		.4byte	0xb6
 7609 2470 8F0D0000 		.4byte	.LLST95
 7610 2474 3F       		.uleb128 0x3f
 7611 2475 34010000 		.4byte	.LASF400
 7612 2479 01       		.byte	0x1
 7613 247a 0804     		.2byte	0x408
 7614 247c B6000000 		.4byte	0xb6
 7615 2480 CD0D0000 		.4byte	.LLST96
 7616 2484 37       		.uleb128 0x37
 7617 2485 B2120000 		.4byte	.LASF374
 7618 2489 01       		.byte	0x1
 7619 248a 0904     		.2byte	0x409
 7620 248c 71150000 		.4byte	0x1571
 7621 2490 01       		.byte	0x1
 7622 2491 54       		.byte	0x54
 7623 2492 43       		.uleb128 0x43
 7624 2493 E2160000 		.4byte	0x16e2
 7625 2497 84000000 		.4byte	.LBB211
 7626 249b 18030000 		.4byte	.Ldebug_ranges0+0x318
 7627 249f 01       		.byte	0x1
 7628 24a0 3004     		.2byte	0x430
 7629 24a2 C8240000 		.4byte	0x24c8
 7630 24a6 44       		.uleb128 0x44
 7631 24a7 FE160000 		.4byte	0x16fe
 7632 24ab E00D0000 		.4byte	.LLST97
 7633 24af 44       		.uleb128 0x44
 7634 24b0 F3160000 		.4byte	0x16f3
 7635 24b4 F30D0000 		.4byte	.LLST98
 7636 24b8 42       		.uleb128 0x42
 7637 24b9 38030000 		.4byte	.Ldebug_ranges0+0x338
 7638 24bd 45       		.uleb128 0x45
 7639 24be 09170000 		.4byte	0x1709
 7640 24c2 060E0000 		.4byte	.LLST99
 7641 24c6 00       		.byte	0
 7642 24c7 00       		.byte	0
 7643 24c8 51       		.uleb128 0x51
 7644 24c9 9C000000 		.4byte	.LVL250
 7645 24cd 35180000 		.4byte	0x1835
 7646 24d1 E2240000 		.4byte	0x24e2
 7647 24d5 39       		.uleb128 0x39
 7648 24d6 01       		.byte	0x1
 7649 24d7 51       		.byte	0x51
 7650 24d8 02       		.byte	0x2
 7651 24d9 75       		.byte	0x75
 7652 24da 00       		.sleb128 0
 7653 24db 39       		.uleb128 0x39
 7654 24dc 01       		.byte	0x1
 7655 24dd 50       		.byte	0x50
 7656 24de 02       		.byte	0x2
 7657 24df 76       		.byte	0x76
 7658 24e0 00       		.sleb128 0
 7659 24e1 00       		.byte	0
 7660 24e2 4E       		.uleb128 0x4e
 7661 24e3 12010000 		.4byte	.LVL256
 7662 24e7 35180000 		.4byte	0x1835
ARM GAS  /tmp/cc3IGbAH.s 			page 136


 7663 24eb 39       		.uleb128 0x39
 7664 24ec 01       		.byte	0x1
 7665 24ed 51       		.byte	0x51
 7666 24ee 02       		.byte	0x2
 7667 24ef 75       		.byte	0x75
 7668 24f0 00       		.sleb128 0
 7669 24f1 39       		.uleb128 0x39
 7670 24f2 01       		.byte	0x1
 7671 24f3 50       		.byte	0x50
 7672 24f4 02       		.byte	0x2
 7673 24f5 76       		.byte	0x76
 7674 24f6 00       		.sleb128 0
 7675 24f7 00       		.byte	0
 7676 24f8 00       		.byte	0
 7677 24f9 53       		.uleb128 0x53
 7678 24fa 01       		.byte	0x1
 7679 24fb BB0D0000 		.4byte	.LASF401
 7680 24ff 01       		.byte	0x1
 7681 2500 4704     		.2byte	0x447
 7682 2502 01       		.byte	0x1
 7683 2503 00000000 		.4byte	.LFB144
 7684 2507 0A000000 		.4byte	.LFE144
 7685 250b 02       		.byte	0x2
 7686 250c 7D       		.byte	0x7d
 7687 250d 00       		.sleb128 0
 7688 250e 01       		.byte	0x1
 7689 250f 54250000 		.4byte	0x2554
 7690 2513 35       		.uleb128 0x35
 7691 2514 BB080000 		.4byte	.LASF369
 7692 2518 01       		.byte	0x1
 7693 2519 4704     		.2byte	0x447
 7694 251b 2E0C0000 		.4byte	0xc2e
 7695 251f 190E0000 		.4byte	.LLST100
 7696 2523 49       		.uleb128 0x49
 7697 2524 C9160000 		.4byte	0x16c9
 7698 2528 00000000 		.4byte	.LBB217
 7699 252c 06000000 		.4byte	.LBE217
 7700 2530 01       		.byte	0x1
 7701 2531 4A04     		.2byte	0x44a
 7702 2533 41250000 		.4byte	0x2541
 7703 2537 44       		.uleb128 0x44
 7704 2538 D6160000 		.4byte	0x16d6
 7705 253c 190E0000 		.4byte	.LLST100
 7706 2540 00       		.byte	0
 7707 2541 3D       		.uleb128 0x3d
 7708 2542 0A000000 		.4byte	.LVL258
 7709 2546 01       		.byte	0x1
 7710 2547 74170000 		.4byte	0x1774
 7711 254b 39       		.uleb128 0x39
 7712 254c 01       		.byte	0x1
 7713 254d 50       		.byte	0x50
 7714 254e 03       		.byte	0x3
 7715 254f F3       		.byte	0xf3
 7716 2550 01       		.uleb128 0x1
 7717 2551 50       		.byte	0x50
 7718 2552 00       		.byte	0
 7719 2553 00       		.byte	0
ARM GAS  /tmp/cc3IGbAH.s 			page 137


 7720 2554 56       		.uleb128 0x56
 7721 2555 01       		.byte	0x1
 7722 2556 B3100000 		.4byte	.LASF402
 7723 255a 01       		.byte	0x1
 7724 255b 5C04     		.2byte	0x45c
 7725 255d 01       		.byte	0x1
 7726 255e 5E0B0000 		.4byte	0xb5e
 7727 2562 00000000 		.4byte	.LFB145
 7728 2566 1A000000 		.4byte	.LFE145
 7729 256a 02       		.byte	0x2
 7730 256b 7D       		.byte	0x7d
 7731 256c 00       		.sleb128 0
 7732 256d 01       		.byte	0x1
 7733 256e A0250000 		.4byte	0x25a0
 7734 2572 35       		.uleb128 0x35
 7735 2573 BB080000 		.4byte	.LASF369
 7736 2577 01       		.byte	0x1
 7737 2578 5C04     		.2byte	0x45c
 7738 257a 2E0C0000 		.4byte	0xc2e
 7739 257e 3A0E0000 		.4byte	.LLST102
 7740 2582 36       		.uleb128 0x36
 7741 2583 657000   		.ascii	"ep\000"
 7742 2586 01       		.byte	0x1
 7743 2587 5C04     		.2byte	0x45c
 7744 2589 060B0000 		.4byte	0xb06
 7745 258d 5B0E0000 		.4byte	.LLST103
 7746 2591 57       		.uleb128 0x57
 7747 2592 63746C00 		.ascii	"ctl\000"
 7748 2596 01       		.byte	0x1
 7749 2597 5D04     		.2byte	0x45d
 7750 2599 B6000000 		.4byte	0xb6
 7751 259d 01       		.byte	0x1
 7752 259e 52       		.byte	0x52
 7753 259f 00       		.byte	0
 7754 25a0 56       		.uleb128 0x56
 7755 25a1 01       		.byte	0x1
 7756 25a2 C3000000 		.4byte	.LASF403
 7757 25a6 01       		.byte	0x1
 7758 25a7 7504     		.2byte	0x475
 7759 25a9 01       		.byte	0x1
 7760 25aa 5E0B0000 		.4byte	0xb5e
 7761 25ae 00000000 		.4byte	.LFB146
 7762 25b2 1A000000 		.4byte	.LFE146
 7763 25b6 02       		.byte	0x2
 7764 25b7 7D       		.byte	0x7d
 7765 25b8 00       		.sleb128 0
 7766 25b9 01       		.byte	0x1
 7767 25ba EC250000 		.4byte	0x25ec
 7768 25be 35       		.uleb128 0x35
 7769 25bf BB080000 		.4byte	.LASF369
 7770 25c3 01       		.byte	0x1
 7771 25c4 7504     		.2byte	0x475
 7772 25c6 2E0C0000 		.4byte	0xc2e
 7773 25ca 7C0E0000 		.4byte	.LLST104
 7774 25ce 36       		.uleb128 0x36
 7775 25cf 657000   		.ascii	"ep\000"
 7776 25d2 01       		.byte	0x1
ARM GAS  /tmp/cc3IGbAH.s 			page 138


 7777 25d3 7504     		.2byte	0x475
 7778 25d5 060B0000 		.4byte	0xb06
 7779 25d9 9D0E0000 		.4byte	.LLST105
 7780 25dd 57       		.uleb128 0x57
 7781 25de 63746C00 		.ascii	"ctl\000"
 7782 25e2 01       		.byte	0x1
 7783 25e3 7604     		.2byte	0x476
 7784 25e5 B6000000 		.4byte	0xb6
 7785 25e9 01       		.byte	0x1
 7786 25ea 52       		.byte	0x52
 7787 25eb 00       		.byte	0
 7788 25ec 53       		.uleb128 0x53
 7789 25ed 01       		.byte	0x1
 7790 25ee 3A050000 		.4byte	.LASF404
 7791 25f2 01       		.byte	0x1
 7792 25f3 9004     		.2byte	0x490
 7793 25f5 01       		.byte	0x1
 7794 25f6 00000000 		.4byte	.LFB147
 7795 25fa 12000000 		.4byte	.LFE147
 7796 25fe 02       		.byte	0x2
 7797 25ff 7D       		.byte	0x7d
 7798 2600 00       		.sleb128 0
 7799 2601 01       		.byte	0x1
 7800 2602 34260000 		.4byte	0x2634
 7801 2606 35       		.uleb128 0x35
 7802 2607 BB080000 		.4byte	.LASF369
 7803 260b 01       		.byte	0x1
 7804 260c 9004     		.2byte	0x490
 7805 260e 2E0C0000 		.4byte	0xc2e
 7806 2612 BE0E0000 		.4byte	.LLST106
 7807 2616 36       		.uleb128 0x36
 7808 2617 657000   		.ascii	"ep\000"
 7809 261a 01       		.byte	0x1
 7810 261b 9004     		.2byte	0x490
 7811 261d 060B0000 		.4byte	0xb06
 7812 2621 DF0E0000 		.4byte	.LLST107
 7813 2625 58       		.uleb128 0x58
 7814 2626 62756600 		.ascii	"buf\000"
 7815 262a 01       		.byte	0x1
 7816 262b 9004     		.2byte	0x490
 7817 262d 3F050000 		.4byte	0x53f
 7818 2631 01       		.byte	0x1
 7819 2632 52       		.byte	0x52
 7820 2633 00       		.byte	0
 7821 2634 4F       		.uleb128 0x4f
 7822 2635 01       		.byte	0x1
 7823 2636 420E0000 		.4byte	.LASF405
 7824 263a 01       		.byte	0x1
 7825 263b 9D04     		.2byte	0x49d
 7826 263d 01       		.byte	0x1
 7827 263e 00000000 		.4byte	.LFB148
 7828 2642 2C000000 		.4byte	.LFE148
 7829 2646 000F0000 		.4byte	.LLST108
 7830 264a 01       		.byte	0x1
 7831 264b 8F260000 		.4byte	0x268f
 7832 264f 35       		.uleb128 0x35
 7833 2650 BB080000 		.4byte	.LASF369
ARM GAS  /tmp/cc3IGbAH.s 			page 139


 7834 2654 01       		.byte	0x1
 7835 2655 9D04     		.2byte	0x49d
 7836 2657 2E0C0000 		.4byte	0xc2e
 7837 265b 200F0000 		.4byte	.LLST109
 7838 265f 36       		.uleb128 0x36
 7839 2660 657000   		.ascii	"ep\000"
 7840 2663 01       		.byte	0x1
 7841 2664 9D04     		.2byte	0x49d
 7842 2666 060B0000 		.4byte	0xb06
 7843 266a 410F0000 		.4byte	.LLST110
 7844 266e 3F       		.uleb128 0x3f
 7845 266f E5040000 		.4byte	.LASF406
 7846 2673 01       		.byte	0x1
 7847 2674 9E04     		.2byte	0x49e
 7848 2676 B6000000 		.4byte	0xb6
 7849 267a 620F0000 		.4byte	.LLST111
 7850 267e 41       		.uleb128 0x41
 7851 267f 6F737000 		.ascii	"osp\000"
 7852 2683 01       		.byte	0x1
 7853 2684 9F04     		.2byte	0x49f
 7854 2686 D7140000 		.4byte	0x14d7
 7855 268a B10F0000 		.4byte	.LLST112
 7856 268e 00       		.byte	0
 7857 268f 4F       		.uleb128 0x4f
 7858 2690 01       		.byte	0x1
 7859 2691 8C000000 		.4byte	.LASF407
 7860 2695 01       		.byte	0x1
 7861 2696 B104     		.2byte	0x4b1
 7862 2698 01       		.byte	0x1
 7863 2699 00000000 		.4byte	.LFB149
 7864 269d 3A000000 		.4byte	.LFE149
 7865 26a1 E50F0000 		.4byte	.LLST113
 7866 26a5 01       		.byte	0x1
 7867 26a6 F4260000 		.4byte	0x26f4
 7868 26aa 35       		.uleb128 0x35
 7869 26ab BB080000 		.4byte	.LASF369
 7870 26af 01       		.byte	0x1
 7871 26b0 B104     		.2byte	0x4b1
 7872 26b2 2E0C0000 		.4byte	0xc2e
 7873 26b6 05100000 		.4byte	.LLST114
 7874 26ba 36       		.uleb128 0x36
 7875 26bb 657000   		.ascii	"ep\000"
 7876 26be 01       		.byte	0x1
 7877 26bf B104     		.2byte	0x4b1
 7878 26c1 060B0000 		.4byte	0xb06
 7879 26c5 3F100000 		.4byte	.LLST115
 7880 26c9 41       		.uleb128 0x41
 7881 26ca 69737000 		.ascii	"isp\000"
 7882 26ce 01       		.byte	0x1
 7883 26cf B204     		.2byte	0x4b2
 7884 26d1 D1140000 		.4byte	0x14d1
 7885 26d5 79100000 		.4byte	.LLST116
 7886 26d9 47       		.uleb128 0x47
 7887 26da 0E000000 		.4byte	.LBB219
 7888 26de 26000000 		.4byte	.LBE219
 7889 26e2 3F       		.uleb128 0x3f
 7890 26e3 E5040000 		.4byte	.LASF406
ARM GAS  /tmp/cc3IGbAH.s 			page 140


 7891 26e7 01       		.byte	0x1
 7892 26e8 BB04     		.2byte	0x4bb
 7893 26ea B6000000 		.4byte	0xb6
 7894 26ee D7100000 		.4byte	.LLST117
 7895 26f2 00       		.byte	0
 7896 26f3 00       		.byte	0
 7897 26f4 53       		.uleb128 0x53
 7898 26f5 01       		.byte	0x1
 7899 26f6 C70B0000 		.4byte	.LASF408
 7900 26fa 01       		.byte	0x1
 7901 26fb CB04     		.2byte	0x4cb
 7902 26fd 01       		.byte	0x1
 7903 26fe 00000000 		.4byte	.LFB150
 7904 2702 10000000 		.4byte	.LFE150
 7905 2706 02       		.byte	0x2
 7906 2707 7D       		.byte	0x7d
 7907 2708 00       		.sleb128 0
 7908 2709 01       		.byte	0x1
 7909 270a 2E270000 		.4byte	0x272e
 7910 270e 35       		.uleb128 0x35
 7911 270f BB080000 		.4byte	.LASF369
 7912 2713 01       		.byte	0x1
 7913 2714 CB04     		.2byte	0x4cb
 7914 2716 2E0C0000 		.4byte	0xc2e
 7915 271a 33110000 		.4byte	.LLST118
 7916 271e 36       		.uleb128 0x36
 7917 271f 657000   		.ascii	"ep\000"
 7918 2722 01       		.byte	0x1
 7919 2723 CB04     		.2byte	0x4cb
 7920 2725 060B0000 		.4byte	0xb06
 7921 2729 54110000 		.4byte	.LLST119
 7922 272d 00       		.byte	0
 7923 272e 53       		.uleb128 0x53
 7924 272f 01       		.byte	0x1
 7925 2730 6C0D0000 		.4byte	.LASF409
 7926 2734 01       		.byte	0x1
 7927 2735 D804     		.2byte	0x4d8
 7928 2737 01       		.byte	0x1
 7929 2738 00000000 		.4byte	.LFB151
 7930 273c 22000000 		.4byte	.LFE151
 7931 2740 02       		.byte	0x2
 7932 2741 7D       		.byte	0x7d
 7933 2742 00       		.sleb128 0
 7934 2743 01       		.byte	0x1
 7935 2744 68270000 		.4byte	0x2768
 7936 2748 35       		.uleb128 0x35
 7937 2749 BB080000 		.4byte	.LASF369
 7938 274d 01       		.byte	0x1
 7939 274e D804     		.2byte	0x4d8
 7940 2750 2E0C0000 		.4byte	0xc2e
 7941 2754 75110000 		.4byte	.LLST120
 7942 2758 36       		.uleb128 0x36
 7943 2759 657000   		.ascii	"ep\000"
 7944 275c 01       		.byte	0x1
 7945 275d D804     		.2byte	0x4d8
 7946 275f 060B0000 		.4byte	0xb06
 7947 2763 96110000 		.4byte	.LLST121
ARM GAS  /tmp/cc3IGbAH.s 			page 141


 7948 2767 00       		.byte	0
 7949 2768 53       		.uleb128 0x53
 7950 2769 01       		.byte	0x1
 7951 276a 4F010000 		.4byte	.LASF410
 7952 276e 01       		.byte	0x1
 7953 276f E604     		.2byte	0x4e6
 7954 2771 01       		.byte	0x1
 7955 2772 00000000 		.4byte	.LFB152
 7956 2776 10000000 		.4byte	.LFE152
 7957 277a 02       		.byte	0x2
 7958 277b 7D       		.byte	0x7d
 7959 277c 00       		.sleb128 0
 7960 277d 01       		.byte	0x1
 7961 277e A2270000 		.4byte	0x27a2
 7962 2782 35       		.uleb128 0x35
 7963 2783 BB080000 		.4byte	.LASF369
 7964 2787 01       		.byte	0x1
 7965 2788 E604     		.2byte	0x4e6
 7966 278a 2E0C0000 		.4byte	0xc2e
 7967 278e B7110000 		.4byte	.LLST122
 7968 2792 36       		.uleb128 0x36
 7969 2793 657000   		.ascii	"ep\000"
 7970 2796 01       		.byte	0x1
 7971 2797 E604     		.2byte	0x4e6
 7972 2799 060B0000 		.4byte	0xb06
 7973 279d D8110000 		.4byte	.LLST123
 7974 27a1 00       		.byte	0
 7975 27a2 53       		.uleb128 0x53
 7976 27a3 01       		.byte	0x1
 7977 27a4 A30B0000 		.4byte	.LASF411
 7978 27a8 01       		.byte	0x1
 7979 27a9 F304     		.2byte	0x4f3
 7980 27ab 01       		.byte	0x1
 7981 27ac 00000000 		.4byte	.LFB153
 7982 27b0 10000000 		.4byte	.LFE153
 7983 27b4 02       		.byte	0x2
 7984 27b5 7D       		.byte	0x7d
 7985 27b6 00       		.sleb128 0
 7986 27b7 01       		.byte	0x1
 7987 27b8 DC270000 		.4byte	0x27dc
 7988 27bc 35       		.uleb128 0x35
 7989 27bd BB080000 		.4byte	.LASF369
 7990 27c1 01       		.byte	0x1
 7991 27c2 F304     		.2byte	0x4f3
 7992 27c4 2E0C0000 		.4byte	0xc2e
 7993 27c8 F9110000 		.4byte	.LLST124
 7994 27cc 36       		.uleb128 0x36
 7995 27cd 657000   		.ascii	"ep\000"
 7996 27d0 01       		.byte	0x1
 7997 27d1 F304     		.2byte	0x4f3
 7998 27d3 060B0000 		.4byte	0xb06
 7999 27d7 1A120000 		.4byte	.LLST125
 8000 27db 00       		.byte	0
 8001 27dc 53       		.uleb128 0x53
 8002 27dd 01       		.byte	0x1
 8003 27de B1000000 		.4byte	.LASF412
 8004 27e2 01       		.byte	0x1
ARM GAS  /tmp/cc3IGbAH.s 			page 142


 8005 27e3 0005     		.2byte	0x500
 8006 27e5 01       		.byte	0x1
 8007 27e6 00000000 		.4byte	.LFB154
 8008 27ea 10000000 		.4byte	.LFE154
 8009 27ee 02       		.byte	0x2
 8010 27ef 7D       		.byte	0x7d
 8011 27f0 00       		.sleb128 0
 8012 27f1 01       		.byte	0x1
 8013 27f2 16280000 		.4byte	0x2816
 8014 27f6 35       		.uleb128 0x35
 8015 27f7 BB080000 		.4byte	.LASF369
 8016 27fb 01       		.byte	0x1
 8017 27fc 0005     		.2byte	0x500
 8018 27fe 2E0C0000 		.4byte	0xc2e
 8019 2802 3B120000 		.4byte	.LLST126
 8020 2806 36       		.uleb128 0x36
 8021 2807 657000   		.ascii	"ep\000"
 8022 280a 01       		.byte	0x1
 8023 280b 0005     		.2byte	0x500
 8024 280d 060B0000 		.4byte	0xb06
 8025 2811 5C120000 		.4byte	.LLST127
 8026 2815 00       		.byte	0
 8027 2816 53       		.uleb128 0x53
 8028 2817 01       		.byte	0x1
 8029 2818 53110000 		.4byte	.LASF413
 8030 281c 01       		.byte	0x1
 8031 281d 0D05     		.2byte	0x50d
 8032 281f 01       		.byte	0x1
 8033 2820 00000000 		.4byte	.LFB155
 8034 2824 10000000 		.4byte	.LFE155
 8035 2828 02       		.byte	0x2
 8036 2829 7D       		.byte	0x7d
 8037 282a 00       		.sleb128 0
 8038 282b 01       		.byte	0x1
 8039 282c 50280000 		.4byte	0x2850
 8040 2830 35       		.uleb128 0x35
 8041 2831 BB080000 		.4byte	.LASF369
 8042 2835 01       		.byte	0x1
 8043 2836 0D05     		.2byte	0x50d
 8044 2838 2E0C0000 		.4byte	0xc2e
 8045 283c 7D120000 		.4byte	.LLST128
 8046 2840 36       		.uleb128 0x36
 8047 2841 657000   		.ascii	"ep\000"
 8048 2844 01       		.byte	0x1
 8049 2845 0D05     		.2byte	0x50d
 8050 2847 060B0000 		.4byte	0xb06
 8051 284b 9E120000 		.4byte	.LLST129
 8052 284f 00       		.byte	0
 8053 2850 32       		.uleb128 0x32
 8054 2851 1E040000 		.4byte	.LASF414
 8055 2855 01       		.byte	0x1
 8056 2856 4A       		.byte	0x4a
 8057 2857 92150000 		.4byte	0x1592
 8058 285b 05       		.byte	0x5
 8059 285c 03       		.byte	0x3
 8060 285d 00000000 		.4byte	ep0_state
 8061 2861 32       		.uleb128 0x32
ARM GAS  /tmp/cc3IGbAH.s 			page 143


 8062 2862 FC000000 		.4byte	.LASF415
 8063 2866 01       		.byte	0x1
 8064 2867 4F       		.byte	0x4f
 8065 2868 61150000 		.4byte	0x1561
 8066 286c 05       		.byte	0x5
 8067 286d 03       		.byte	0x3
 8068 286e 00000000 		.4byte	ep0setup_buffer
 8069 2872 32       		.uleb128 0x32
 8070 2873 1A0C0000 		.4byte	.LASF416
 8071 2877 01       		.byte	0x1
 8072 2878 54       		.byte	0x54
 8073 2879 5C150000 		.4byte	0x155c
 8074 287d 05       		.byte	0x5
 8075 287e 03       		.byte	0x3
 8076 287f 00000000 		.4byte	ep0config
 8077 2883 32       		.uleb128 0x32
 8078 2884 4B090000 		.4byte	.LASF417
 8079 2888 01       		.byte	0x1
 8080 2889 62       		.byte	0x62
 8081 288a 7D150000 		.4byte	0x157d
 8082 288e 05       		.byte	0x5
 8083 288f 03       		.byte	0x3
 8084 2890 00000000 		.4byte	fsparams
 8085 2894 59       		.uleb128 0x59
 8086 2895 240F0000 		.4byte	.LASF418
 8087 2899 09       		.byte	0x9
 8088 289a 68       		.byte	0x68
 8089 289b E5030000 		.4byte	0x3e5
 8090 289f 01       		.byte	0x1
 8091 28a0 01       		.byte	0x1
 8092 28a1 5A       		.uleb128 0x5a
 8093 28a2 2F110000 		.4byte	.LASF419
 8094 28a6 11       		.byte	0x11
 8095 28a7 9806     		.2byte	0x698
 8096 28a9 C1070000 		.4byte	0x7c1
 8097 28ad 01       		.byte	0x1
 8098 28ae 01       		.byte	0x1
 8099 28af 5B       		.uleb128 0x5b
 8100 28b0 75110000 		.4byte	.LASF420
 8101 28b4 01       		.byte	0x1
 8102 28b5 30       		.byte	0x30
 8103 28b6 B1090000 		.4byte	0x9b1
 8104 28ba 01       		.byte	0x1
 8105 28bb 05       		.byte	0x5
 8106 28bc 03       		.byte	0x3
 8107 28bd 00000000 		.4byte	USBD1
 8108 28c1 5C       		.uleb128 0x5c
 8109 28c2 01       		.byte	0x1
 8110 28c3 D90B0000 		.4byte	.LASF421
 8111 28c7 12       		.byte	0x12
 8112 28c8 CC       		.byte	0xcc
 8113 28c9 01       		.byte	0x1
 8114 28ca 01       		.byte	0x1
 8115 28cb D5280000 		.4byte	0x28d5
 8116 28cf 12       		.uleb128 0x12
 8117 28d0 9F090000 		.4byte	0x99f
 8118 28d4 00       		.byte	0
ARM GAS  /tmp/cc3IGbAH.s 			page 144


 8119 28d5 5D       		.uleb128 0x5d
 8120 28d6 01       		.byte	0x1
 8121 28d7 A5000000 		.4byte	.LASF427
 8122 28db 09       		.byte	0x9
 8123 28dc 89       		.byte	0x89
 8124 28dd 01       		.byte	0x1
 8125 28de 84020000 		.4byte	0x284
 8126 28e2 01       		.byte	0x1
 8127 28e3 ED280000 		.4byte	0x28ed
 8128 28e7 12       		.uleb128 0x12
 8129 28e8 84020000 		.4byte	0x284
 8130 28ec 00       		.byte	0
 8131 28ed 5E       		.uleb128 0x5e
 8132 28ee 01       		.byte	0x1
 8133 28ef 11100000 		.4byte	.LASF424
 8134 28f3 09       		.byte	0x9
 8135 28f4 95       		.byte	0x95
 8136 28f5 01       		.byte	0x1
 8137 28f6 01       		.byte	0x1
 8138 28f7 5C       		.uleb128 0x5c
 8139 28f8 01       		.byte	0x1
 8140 28f9 15070000 		.4byte	.LASF422
 8141 28fd 09       		.byte	0x9
 8142 28fe 8C       		.byte	0x8c
 8143 28ff 01       		.byte	0x1
 8144 2900 01       		.byte	0x1
 8145 2901 0B290000 		.4byte	0x290b
 8146 2905 12       		.uleb128 0x12
 8147 2906 E2000000 		.4byte	0xe2
 8148 290a 00       		.byte	0
 8149 290b 5F       		.uleb128 0x5f
 8150 290c 01       		.byte	0x1
 8151 290d 3A040000 		.4byte	.LASF423
 8152 2911 0E       		.byte	0xe
 8153 2912 2F02     		.2byte	0x22f
 8154 2914 01       		.byte	0x1
 8155 2915 01       		.byte	0x1
 8156 2916 20290000 		.4byte	0x2920
 8157 291a 12       		.uleb128 0x12
 8158 291b 2E0C0000 		.4byte	0xc2e
 8159 291f 00       		.byte	0
 8160 2920 60       		.uleb128 0x60
 8161 2921 01       		.byte	0x1
 8162 2922 F20B0000 		.4byte	.LASF425
 8163 2926 08       		.byte	0x8
 8164 2927 FC01     		.2byte	0x1fc
 8165 2929 01       		.byte	0x1
 8166 292a 01       		.byte	0x1
 8167 292b 5F       		.uleb128 0x5f
 8168 292c 01       		.byte	0x1
 8169 292d CA030000 		.4byte	.LASF426
 8170 2931 0E       		.byte	0xe
 8171 2932 1C02     		.2byte	0x21c
 8172 2934 01       		.byte	0x1
 8173 2935 01       		.byte	0x1
 8174 2936 40290000 		.4byte	0x2940
 8175 293a 12       		.uleb128 0x12
ARM GAS  /tmp/cc3IGbAH.s 			page 145


 8176 293b 2E0C0000 		.4byte	0xc2e
 8177 293f 00       		.byte	0
 8178 2940 61       		.uleb128 0x61
 8179 2941 01       		.byte	0x1
 8180 2942 A50E0000 		.4byte	.LASF428
 8181 2946 07       		.byte	0x7
 8182 2947 6701     		.2byte	0x167
 8183 2949 01       		.byte	0x1
 8184 294a 84020000 		.4byte	0x284
 8185 294e 01       		.byte	0x1
 8186 294f 6D290000 		.4byte	0x296d
 8187 2953 12       		.uleb128 0x12
 8188 2954 6F000000 		.4byte	0x6f
 8189 2958 12       		.uleb128 0x12
 8190 2959 8A000000 		.4byte	0x8a
 8191 295d 12       		.uleb128 0x12
 8192 295e 03010000 		.4byte	0x103
 8193 2962 12       		.uleb128 0x12
 8194 2963 73040000 		.4byte	0x473
 8195 2967 12       		.uleb128 0x12
 8196 2968 6F000000 		.4byte	0x6f
 8197 296c 00       		.byte	0
 8198 296d 62       		.uleb128 0x62
 8199 296e 01       		.byte	0x1
 8200 296f 70090000 		.4byte	.LASF434
 8201 2973 13       		.byte	0x13
 8202 2974 1C01     		.2byte	0x11c
 8203 2976 01       		.byte	0x1
 8204 2977 01       		.byte	0x1
 8205 2978 12       		.uleb128 0x12
 8206 2979 B6000000 		.4byte	0xb6
 8207 297d 12       		.uleb128 0x12
 8208 297e B6000000 		.4byte	0xb6
 8209 2982 00       		.byte	0
 8210 2983 00       		.byte	0
 8211              		.section	.debug_abbrev,"",%progbits
 8212              	.Ldebug_abbrev0:
 8213 0000 01       		.uleb128 0x1
 8214 0001 11       		.uleb128 0x11
 8215 0002 01       		.byte	0x1
 8216 0003 25       		.uleb128 0x25
 8217 0004 0E       		.uleb128 0xe
 8218 0005 13       		.uleb128 0x13
 8219 0006 0B       		.uleb128 0xb
 8220 0007 03       		.uleb128 0x3
 8221 0008 0E       		.uleb128 0xe
 8222 0009 1B       		.uleb128 0x1b
 8223 000a 0E       		.uleb128 0xe
 8224 000b 55       		.uleb128 0x55
 8225 000c 06       		.uleb128 0x6
 8226 000d 11       		.uleb128 0x11
 8227 000e 01       		.uleb128 0x1
 8228 000f 52       		.uleb128 0x52
 8229 0010 01       		.uleb128 0x1
 8230 0011 10       		.uleb128 0x10
 8231 0012 06       		.uleb128 0x6
 8232 0013 00       		.byte	0
ARM GAS  /tmp/cc3IGbAH.s 			page 146


 8233 0014 00       		.byte	0
 8234 0015 02       		.uleb128 0x2
 8235 0016 24       		.uleb128 0x24
 8236 0017 00       		.byte	0
 8237 0018 0B       		.uleb128 0xb
 8238 0019 0B       		.uleb128 0xb
 8239 001a 3E       		.uleb128 0x3e
 8240 001b 0B       		.uleb128 0xb
 8241 001c 03       		.uleb128 0x3
 8242 001d 0E       		.uleb128 0xe
 8243 001e 00       		.byte	0
 8244 001f 00       		.byte	0
 8245 0020 03       		.uleb128 0x3
 8246 0021 24       		.uleb128 0x24
 8247 0022 00       		.byte	0
 8248 0023 0B       		.uleb128 0xb
 8249 0024 0B       		.uleb128 0xb
 8250 0025 3E       		.uleb128 0x3e
 8251 0026 0B       		.uleb128 0xb
 8252 0027 03       		.uleb128 0x3
 8253 0028 08       		.uleb128 0x8
 8254 0029 00       		.byte	0
 8255 002a 00       		.byte	0
 8256 002b 04       		.uleb128 0x4
 8257 002c 0F       		.uleb128 0xf
 8258 002d 00       		.byte	0
 8259 002e 0B       		.uleb128 0xb
 8260 002f 0B       		.uleb128 0xb
 8261 0030 00       		.byte	0
 8262 0031 00       		.byte	0
 8263 0032 05       		.uleb128 0x5
 8264 0033 0F       		.uleb128 0xf
 8265 0034 00       		.byte	0
 8266 0035 0B       		.uleb128 0xb
 8267 0036 0B       		.uleb128 0xb
 8268 0037 49       		.uleb128 0x49
 8269 0038 13       		.uleb128 0x13
 8270 0039 00       		.byte	0
 8271 003a 00       		.byte	0
 8272 003b 06       		.uleb128 0x6
 8273 003c 26       		.uleb128 0x26
 8274 003d 00       		.byte	0
 8275 003e 49       		.uleb128 0x49
 8276 003f 13       		.uleb128 0x13
 8277 0040 00       		.byte	0
 8278 0041 00       		.byte	0
 8279 0042 07       		.uleb128 0x7
 8280 0043 16       		.uleb128 0x16
 8281 0044 00       		.byte	0
 8282 0045 03       		.uleb128 0x3
 8283 0046 0E       		.uleb128 0xe
 8284 0047 3A       		.uleb128 0x3a
 8285 0048 0B       		.uleb128 0xb
 8286 0049 3B       		.uleb128 0x3b
 8287 004a 0B       		.uleb128 0xb
 8288 004b 49       		.uleb128 0x49
 8289 004c 13       		.uleb128 0x13
ARM GAS  /tmp/cc3IGbAH.s 			page 147


 8290 004d 00       		.byte	0
 8291 004e 00       		.byte	0
 8292 004f 08       		.uleb128 0x8
 8293 0050 13       		.uleb128 0x13
 8294 0051 01       		.byte	0x1
 8295 0052 03       		.uleb128 0x3
 8296 0053 0E       		.uleb128 0xe
 8297 0054 0B       		.uleb128 0xb
 8298 0055 0B       		.uleb128 0xb
 8299 0056 3A       		.uleb128 0x3a
 8300 0057 0B       		.uleb128 0xb
 8301 0058 3B       		.uleb128 0x3b
 8302 0059 0B       		.uleb128 0xb
 8303 005a 01       		.uleb128 0x1
 8304 005b 13       		.uleb128 0x13
 8305 005c 00       		.byte	0
 8306 005d 00       		.byte	0
 8307 005e 09       		.uleb128 0x9
 8308 005f 0D       		.uleb128 0xd
 8309 0060 00       		.byte	0
 8310 0061 03       		.uleb128 0x3
 8311 0062 0E       		.uleb128 0xe
 8312 0063 3A       		.uleb128 0x3a
 8313 0064 0B       		.uleb128 0xb
 8314 0065 3B       		.uleb128 0x3b
 8315 0066 0B       		.uleb128 0xb
 8316 0067 49       		.uleb128 0x49
 8317 0068 13       		.uleb128 0x13
 8318 0069 38       		.uleb128 0x38
 8319 006a 0A       		.uleb128 0xa
 8320 006b 00       		.byte	0
 8321 006c 00       		.byte	0
 8322 006d 0A       		.uleb128 0xa
 8323 006e 0D       		.uleb128 0xd
 8324 006f 00       		.byte	0
 8325 0070 03       		.uleb128 0x3
 8326 0071 08       		.uleb128 0x8
 8327 0072 3A       		.uleb128 0x3a
 8328 0073 0B       		.uleb128 0xb
 8329 0074 3B       		.uleb128 0x3b
 8330 0075 0B       		.uleb128 0xb
 8331 0076 49       		.uleb128 0x49
 8332 0077 13       		.uleb128 0x13
 8333 0078 38       		.uleb128 0x38
 8334 0079 0A       		.uleb128 0xa
 8335 007a 00       		.byte	0
 8336 007b 00       		.byte	0
 8337 007c 0B       		.uleb128 0xb
 8338 007d 13       		.uleb128 0x13
 8339 007e 01       		.byte	0x1
 8340 007f 0B       		.uleb128 0xb
 8341 0080 0B       		.uleb128 0xb
 8342 0081 3A       		.uleb128 0x3a
 8343 0082 0B       		.uleb128 0xb
 8344 0083 3B       		.uleb128 0x3b
 8345 0084 0B       		.uleb128 0xb
 8346 0085 01       		.uleb128 0x1
ARM GAS  /tmp/cc3IGbAH.s 			page 148


 8347 0086 13       		.uleb128 0x13
 8348 0087 00       		.byte	0
 8349 0088 00       		.byte	0
 8350 0089 0C       		.uleb128 0xc
 8351 008a 13       		.uleb128 0x13
 8352 008b 01       		.byte	0x1
 8353 008c 03       		.uleb128 0x3
 8354 008d 0E       		.uleb128 0xe
 8355 008e 0B       		.uleb128 0xb
 8356 008f 0B       		.uleb128 0xb
 8357 0090 3A       		.uleb128 0x3a
 8358 0091 0B       		.uleb128 0xb
 8359 0092 3B       		.uleb128 0x3b
 8360 0093 05       		.uleb128 0x5
 8361 0094 01       		.uleb128 0x1
 8362 0095 13       		.uleb128 0x13
 8363 0096 00       		.byte	0
 8364 0097 00       		.byte	0
 8365 0098 0D       		.uleb128 0xd
 8366 0099 0D       		.uleb128 0xd
 8367 009a 00       		.byte	0
 8368 009b 03       		.uleb128 0x3
 8369 009c 08       		.uleb128 0x8
 8370 009d 3A       		.uleb128 0x3a
 8371 009e 0B       		.uleb128 0xb
 8372 009f 3B       		.uleb128 0x3b
 8373 00a0 05       		.uleb128 0x5
 8374 00a1 49       		.uleb128 0x49
 8375 00a2 13       		.uleb128 0x13
 8376 00a3 38       		.uleb128 0x38
 8377 00a4 0A       		.uleb128 0xa
 8378 00a5 00       		.byte	0
 8379 00a6 00       		.byte	0
 8380 00a7 0E       		.uleb128 0xe
 8381 00a8 35       		.uleb128 0x35
 8382 00a9 00       		.byte	0
 8383 00aa 49       		.uleb128 0x49
 8384 00ab 13       		.uleb128 0x13
 8385 00ac 00       		.byte	0
 8386 00ad 00       		.byte	0
 8387 00ae 0F       		.uleb128 0xf
 8388 00af 17       		.uleb128 0x17
 8389 00b0 01       		.byte	0x1
 8390 00b1 0B       		.uleb128 0xb
 8391 00b2 0B       		.uleb128 0xb
 8392 00b3 3A       		.uleb128 0x3a
 8393 00b4 0B       		.uleb128 0xb
 8394 00b5 3B       		.uleb128 0x3b
 8395 00b6 0B       		.uleb128 0xb
 8396 00b7 01       		.uleb128 0x1
 8397 00b8 13       		.uleb128 0x13
 8398 00b9 00       		.byte	0
 8399 00ba 00       		.byte	0
 8400 00bb 10       		.uleb128 0x10
 8401 00bc 0D       		.uleb128 0xd
 8402 00bd 00       		.byte	0
 8403 00be 03       		.uleb128 0x3
ARM GAS  /tmp/cc3IGbAH.s 			page 149


 8404 00bf 0E       		.uleb128 0xe
 8405 00c0 3A       		.uleb128 0x3a
 8406 00c1 0B       		.uleb128 0xb
 8407 00c2 3B       		.uleb128 0x3b
 8408 00c3 0B       		.uleb128 0xb
 8409 00c4 49       		.uleb128 0x49
 8410 00c5 13       		.uleb128 0x13
 8411 00c6 00       		.byte	0
 8412 00c7 00       		.byte	0
 8413 00c8 11       		.uleb128 0x11
 8414 00c9 15       		.uleb128 0x15
 8415 00ca 01       		.byte	0x1
 8416 00cb 27       		.uleb128 0x27
 8417 00cc 0C       		.uleb128 0xc
 8418 00cd 49       		.uleb128 0x49
 8419 00ce 13       		.uleb128 0x13
 8420 00cf 01       		.uleb128 0x1
 8421 00d0 13       		.uleb128 0x13
 8422 00d1 00       		.byte	0
 8423 00d2 00       		.byte	0
 8424 00d3 12       		.uleb128 0x12
 8425 00d4 05       		.uleb128 0x5
 8426 00d5 00       		.byte	0
 8427 00d6 49       		.uleb128 0x49
 8428 00d7 13       		.uleb128 0x13
 8429 00d8 00       		.byte	0
 8430 00d9 00       		.byte	0
 8431 00da 13       		.uleb128 0x13
 8432 00db 15       		.uleb128 0x15
 8433 00dc 01       		.byte	0x1
 8434 00dd 27       		.uleb128 0x27
 8435 00de 0C       		.uleb128 0xc
 8436 00df 01       		.uleb128 0x1
 8437 00e0 13       		.uleb128 0x13
 8438 00e1 00       		.byte	0
 8439 00e2 00       		.byte	0
 8440 00e3 14       		.uleb128 0x14
 8441 00e4 04       		.uleb128 0x4
 8442 00e5 01       		.byte	0x1
 8443 00e6 03       		.uleb128 0x3
 8444 00e7 0E       		.uleb128 0xe
 8445 00e8 0B       		.uleb128 0xb
 8446 00e9 0B       		.uleb128 0xb
 8447 00ea 3A       		.uleb128 0x3a
 8448 00eb 0B       		.uleb128 0xb
 8449 00ec 3B       		.uleb128 0x3b
 8450 00ed 0B       		.uleb128 0xb
 8451 00ee 01       		.uleb128 0x1
 8452 00ef 13       		.uleb128 0x13
 8453 00f0 00       		.byte	0
 8454 00f1 00       		.byte	0
 8455 00f2 15       		.uleb128 0x15
 8456 00f3 28       		.uleb128 0x28
 8457 00f4 00       		.byte	0
 8458 00f5 03       		.uleb128 0x3
 8459 00f6 0E       		.uleb128 0xe
 8460 00f7 1C       		.uleb128 0x1c
ARM GAS  /tmp/cc3IGbAH.s 			page 150


 8461 00f8 0D       		.uleb128 0xd
 8462 00f9 00       		.byte	0
 8463 00fa 00       		.byte	0
 8464 00fb 16       		.uleb128 0x16
 8465 00fc 01       		.uleb128 0x1
 8466 00fd 01       		.byte	0x1
 8467 00fe 49       		.uleb128 0x49
 8468 00ff 13       		.uleb128 0x13
 8469 0100 01       		.uleb128 0x1
 8470 0101 13       		.uleb128 0x13
 8471 0102 00       		.byte	0
 8472 0103 00       		.byte	0
 8473 0104 17       		.uleb128 0x17
 8474 0105 21       		.uleb128 0x21
 8475 0106 00       		.byte	0
 8476 0107 49       		.uleb128 0x49
 8477 0108 13       		.uleb128 0x13
 8478 0109 2F       		.uleb128 0x2f
 8479 010a 0B       		.uleb128 0xb
 8480 010b 00       		.byte	0
 8481 010c 00       		.byte	0
 8482 010d 18       		.uleb128 0x18
 8483 010e 13       		.uleb128 0x13
 8484 010f 01       		.byte	0x1
 8485 0110 0B       		.uleb128 0xb
 8486 0111 0B       		.uleb128 0xb
 8487 0112 3A       		.uleb128 0x3a
 8488 0113 0B       		.uleb128 0xb
 8489 0114 3B       		.uleb128 0x3b
 8490 0115 05       		.uleb128 0x5
 8491 0116 01       		.uleb128 0x1
 8492 0117 13       		.uleb128 0x13
 8493 0118 00       		.byte	0
 8494 0119 00       		.byte	0
 8495 011a 19       		.uleb128 0x19
 8496 011b 0D       		.uleb128 0xd
 8497 011c 00       		.byte	0
 8498 011d 03       		.uleb128 0x3
 8499 011e 0E       		.uleb128 0xe
 8500 011f 3A       		.uleb128 0x3a
 8501 0120 0B       		.uleb128 0xb
 8502 0121 3B       		.uleb128 0x3b
 8503 0122 05       		.uleb128 0x5
 8504 0123 49       		.uleb128 0x49
 8505 0124 13       		.uleb128 0x13
 8506 0125 38       		.uleb128 0x38
 8507 0126 0A       		.uleb128 0xa
 8508 0127 00       		.byte	0
 8509 0128 00       		.byte	0
 8510 0129 1A       		.uleb128 0x1a
 8511 012a 16       		.uleb128 0x16
 8512 012b 00       		.byte	0
 8513 012c 03       		.uleb128 0x3
 8514 012d 0E       		.uleb128 0xe
 8515 012e 3A       		.uleb128 0x3a
 8516 012f 0B       		.uleb128 0xb
 8517 0130 3B       		.uleb128 0x3b
ARM GAS  /tmp/cc3IGbAH.s 			page 151


 8518 0131 05       		.uleb128 0x5
 8519 0132 49       		.uleb128 0x49
 8520 0133 13       		.uleb128 0x13
 8521 0134 00       		.byte	0
 8522 0135 00       		.byte	0
 8523 0136 1B       		.uleb128 0x1b
 8524 0137 13       		.uleb128 0x13
 8525 0138 01       		.byte	0x1
 8526 0139 03       		.uleb128 0x3
 8527 013a 0E       		.uleb128 0xe
 8528 013b 0B       		.uleb128 0xb
 8529 013c 05       		.uleb128 0x5
 8530 013d 3A       		.uleb128 0x3a
 8531 013e 0B       		.uleb128 0xb
 8532 013f 3B       		.uleb128 0x3b
 8533 0140 05       		.uleb128 0x5
 8534 0141 01       		.uleb128 0x1
 8535 0142 13       		.uleb128 0x13
 8536 0143 00       		.byte	0
 8537 0144 00       		.byte	0
 8538 0145 1C       		.uleb128 0x1c
 8539 0146 04       		.uleb128 0x4
 8540 0147 01       		.byte	0x1
 8541 0148 0B       		.uleb128 0xb
 8542 0149 0B       		.uleb128 0xb
 8543 014a 3A       		.uleb128 0x3a
 8544 014b 0B       		.uleb128 0xb
 8545 014c 3B       		.uleb128 0x3b
 8546 014d 0B       		.uleb128 0xb
 8547 014e 01       		.uleb128 0x1
 8548 014f 13       		.uleb128 0x13
 8549 0150 00       		.byte	0
 8550 0151 00       		.byte	0
 8551 0152 1D       		.uleb128 0x1d
 8552 0153 04       		.uleb128 0x4
 8553 0154 01       		.byte	0x1
 8554 0155 0B       		.uleb128 0xb
 8555 0156 0B       		.uleb128 0xb
 8556 0157 3A       		.uleb128 0x3a
 8557 0158 0B       		.uleb128 0xb
 8558 0159 3B       		.uleb128 0x3b
 8559 015a 05       		.uleb128 0x5
 8560 015b 01       		.uleb128 0x1
 8561 015c 13       		.uleb128 0x13
 8562 015d 00       		.byte	0
 8563 015e 00       		.byte	0
 8564 015f 1E       		.uleb128 0x1e
 8565 0160 13       		.uleb128 0x13
 8566 0161 01       		.byte	0x1
 8567 0162 0B       		.uleb128 0xb
 8568 0163 06       		.uleb128 0x6
 8569 0164 3A       		.uleb128 0x3a
 8570 0165 0B       		.uleb128 0xb
 8571 0166 3B       		.uleb128 0x3b
 8572 0167 0B       		.uleb128 0xb
 8573 0168 01       		.uleb128 0x1
 8574 0169 13       		.uleb128 0x13
ARM GAS  /tmp/cc3IGbAH.s 			page 152


 8575 016a 00       		.byte	0
 8576 016b 00       		.byte	0
 8577 016c 1F       		.uleb128 0x1f
 8578 016d 21       		.uleb128 0x21
 8579 016e 00       		.byte	0
 8580 016f 49       		.uleb128 0x49
 8581 0170 13       		.uleb128 0x13
 8582 0171 2F       		.uleb128 0x2f
 8583 0172 05       		.uleb128 0x5
 8584 0173 00       		.byte	0
 8585 0174 00       		.byte	0
 8586 0175 20       		.uleb128 0x20
 8587 0176 0D       		.uleb128 0xd
 8588 0177 00       		.byte	0
 8589 0178 03       		.uleb128 0x3
 8590 0179 0E       		.uleb128 0xe
 8591 017a 3A       		.uleb128 0x3a
 8592 017b 0B       		.uleb128 0xb
 8593 017c 3B       		.uleb128 0x3b
 8594 017d 05       		.uleb128 0x5
 8595 017e 49       		.uleb128 0x49
 8596 017f 13       		.uleb128 0x13
 8597 0180 00       		.byte	0
 8598 0181 00       		.byte	0
 8599 0182 21       		.uleb128 0x21
 8600 0183 0D       		.uleb128 0xd
 8601 0184 00       		.byte	0
 8602 0185 03       		.uleb128 0x3
 8603 0186 08       		.uleb128 0x8
 8604 0187 3A       		.uleb128 0x3a
 8605 0188 0B       		.uleb128 0xb
 8606 0189 3B       		.uleb128 0x3b
 8607 018a 0B       		.uleb128 0xb
 8608 018b 49       		.uleb128 0x49
 8609 018c 13       		.uleb128 0x13
 8610 018d 00       		.byte	0
 8611 018e 00       		.byte	0
 8612 018f 22       		.uleb128 0x22
 8613 0190 2E       		.uleb128 0x2e
 8614 0191 01       		.byte	0x1
 8615 0192 03       		.uleb128 0x3
 8616 0193 0E       		.uleb128 0xe
 8617 0194 3A       		.uleb128 0x3a
 8618 0195 0B       		.uleb128 0xb
 8619 0196 3B       		.uleb128 0x3b
 8620 0197 0B       		.uleb128 0xb
 8621 0198 27       		.uleb128 0x27
 8622 0199 0C       		.uleb128 0xc
 8623 019a 49       		.uleb128 0x49
 8624 019b 13       		.uleb128 0x13
 8625 019c 20       		.uleb128 0x20
 8626 019d 0B       		.uleb128 0xb
 8627 019e 01       		.uleb128 0x1
 8628 019f 13       		.uleb128 0x13
 8629 01a0 00       		.byte	0
 8630 01a1 00       		.byte	0
 8631 01a2 23       		.uleb128 0x23
ARM GAS  /tmp/cc3IGbAH.s 			page 153


 8632 01a3 05       		.uleb128 0x5
 8633 01a4 00       		.byte	0
 8634 01a5 03       		.uleb128 0x3
 8635 01a6 0E       		.uleb128 0xe
 8636 01a7 3A       		.uleb128 0x3a
 8637 01a8 0B       		.uleb128 0xb
 8638 01a9 3B       		.uleb128 0x3b
 8639 01aa 0B       		.uleb128 0xb
 8640 01ab 49       		.uleb128 0x49
 8641 01ac 13       		.uleb128 0x13
 8642 01ad 00       		.byte	0
 8643 01ae 00       		.byte	0
 8644 01af 24       		.uleb128 0x24
 8645 01b0 05       		.uleb128 0x5
 8646 01b1 00       		.byte	0
 8647 01b2 03       		.uleb128 0x3
 8648 01b3 08       		.uleb128 0x8
 8649 01b4 3A       		.uleb128 0x3a
 8650 01b5 0B       		.uleb128 0xb
 8651 01b6 3B       		.uleb128 0x3b
 8652 01b7 0B       		.uleb128 0xb
 8653 01b8 49       		.uleb128 0x49
 8654 01b9 13       		.uleb128 0x13
 8655 01ba 00       		.byte	0
 8656 01bb 00       		.byte	0
 8657 01bc 25       		.uleb128 0x25
 8658 01bd 2E       		.uleb128 0x2e
 8659 01be 01       		.byte	0x1
 8660 01bf 03       		.uleb128 0x3
 8661 01c0 0E       		.uleb128 0xe
 8662 01c1 3A       		.uleb128 0x3a
 8663 01c2 0B       		.uleb128 0xb
 8664 01c3 3B       		.uleb128 0x3b
 8665 01c4 05       		.uleb128 0x5
 8666 01c5 27       		.uleb128 0x27
 8667 01c6 0C       		.uleb128 0xc
 8668 01c7 49       		.uleb128 0x49
 8669 01c8 13       		.uleb128 0x13
 8670 01c9 20       		.uleb128 0x20
 8671 01ca 0B       		.uleb128 0xb
 8672 01cb 01       		.uleb128 0x1
 8673 01cc 13       		.uleb128 0x13
 8674 01cd 00       		.byte	0
 8675 01ce 00       		.byte	0
 8676 01cf 26       		.uleb128 0x26
 8677 01d0 05       		.uleb128 0x5
 8678 01d1 00       		.byte	0
 8679 01d2 03       		.uleb128 0x3
 8680 01d3 0E       		.uleb128 0xe
 8681 01d4 3A       		.uleb128 0x3a
 8682 01d5 0B       		.uleb128 0xb
 8683 01d6 3B       		.uleb128 0x3b
 8684 01d7 05       		.uleb128 0x5
 8685 01d8 49       		.uleb128 0x49
 8686 01d9 13       		.uleb128 0x13
 8687 01da 00       		.byte	0
 8688 01db 00       		.byte	0
ARM GAS  /tmp/cc3IGbAH.s 			page 154


 8689 01dc 27       		.uleb128 0x27
 8690 01dd 05       		.uleb128 0x5
 8691 01de 00       		.byte	0
 8692 01df 03       		.uleb128 0x3
 8693 01e0 08       		.uleb128 0x8
 8694 01e1 3A       		.uleb128 0x3a
 8695 01e2 0B       		.uleb128 0xb
 8696 01e3 3B       		.uleb128 0x3b
 8697 01e4 05       		.uleb128 0x5
 8698 01e5 49       		.uleb128 0x49
 8699 01e6 13       		.uleb128 0x13
 8700 01e7 00       		.byte	0
 8701 01e8 00       		.byte	0
 8702 01e9 28       		.uleb128 0x28
 8703 01ea 0B       		.uleb128 0xb
 8704 01eb 01       		.byte	0x1
 8705 01ec 00       		.byte	0
 8706 01ed 00       		.byte	0
 8707 01ee 29       		.uleb128 0x29
 8708 01ef 34       		.uleb128 0x34
 8709 01f0 00       		.byte	0
 8710 01f1 03       		.uleb128 0x3
 8711 01f2 08       		.uleb128 0x8
 8712 01f3 3A       		.uleb128 0x3a
 8713 01f4 0B       		.uleb128 0xb
 8714 01f5 3B       		.uleb128 0x3b
 8715 01f6 05       		.uleb128 0x5
 8716 01f7 49       		.uleb128 0x49
 8717 01f8 13       		.uleb128 0x13
 8718 01f9 00       		.byte	0
 8719 01fa 00       		.byte	0
 8720 01fb 2A       		.uleb128 0x2a
 8721 01fc 34       		.uleb128 0x34
 8722 01fd 00       		.byte	0
 8723 01fe 03       		.uleb128 0x3
 8724 01ff 08       		.uleb128 0x8
 8725 0200 3A       		.uleb128 0x3a
 8726 0201 0B       		.uleb128 0xb
 8727 0202 3B       		.uleb128 0x3b
 8728 0203 0B       		.uleb128 0xb
 8729 0204 49       		.uleb128 0x49
 8730 0205 13       		.uleb128 0x13
 8731 0206 00       		.byte	0
 8732 0207 00       		.byte	0
 8733 0208 2B       		.uleb128 0x2b
 8734 0209 2E       		.uleb128 0x2e
 8735 020a 01       		.byte	0x1
 8736 020b 03       		.uleb128 0x3
 8737 020c 0E       		.uleb128 0xe
 8738 020d 3A       		.uleb128 0x3a
 8739 020e 0B       		.uleb128 0xb
 8740 020f 3B       		.uleb128 0x3b
 8741 0210 05       		.uleb128 0x5
 8742 0211 27       		.uleb128 0x27
 8743 0212 0C       		.uleb128 0xc
 8744 0213 20       		.uleb128 0x20
 8745 0214 0B       		.uleb128 0xb
ARM GAS  /tmp/cc3IGbAH.s 			page 155


 8746 0215 01       		.uleb128 0x1
 8747 0216 13       		.uleb128 0x13
 8748 0217 00       		.byte	0
 8749 0218 00       		.byte	0
 8750 0219 2C       		.uleb128 0x2c
 8751 021a 2E       		.uleb128 0x2e
 8752 021b 01       		.byte	0x1
 8753 021c 03       		.uleb128 0x3
 8754 021d 0E       		.uleb128 0xe
 8755 021e 3A       		.uleb128 0x3a
 8756 021f 0B       		.uleb128 0xb
 8757 0220 3B       		.uleb128 0x3b
 8758 0221 0B       		.uleb128 0xb
 8759 0222 27       		.uleb128 0x27
 8760 0223 0C       		.uleb128 0xc
 8761 0224 20       		.uleb128 0x20
 8762 0225 0B       		.uleb128 0xb
 8763 0226 01       		.uleb128 0x1
 8764 0227 13       		.uleb128 0x13
 8765 0228 00       		.byte	0
 8766 0229 00       		.byte	0
 8767 022a 2D       		.uleb128 0x2d
 8768 022b 34       		.uleb128 0x34
 8769 022c 00       		.byte	0
 8770 022d 03       		.uleb128 0x3
 8771 022e 0E       		.uleb128 0xe
 8772 022f 3A       		.uleb128 0x3a
 8773 0230 0B       		.uleb128 0xb
 8774 0231 3B       		.uleb128 0x3b
 8775 0232 0B       		.uleb128 0xb
 8776 0233 49       		.uleb128 0x49
 8777 0234 13       		.uleb128 0x13
 8778 0235 00       		.byte	0
 8779 0236 00       		.byte	0
 8780 0237 2E       		.uleb128 0x2e
 8781 0238 34       		.uleb128 0x34
 8782 0239 00       		.byte	0
 8783 023a 03       		.uleb128 0x3
 8784 023b 0E       		.uleb128 0xe
 8785 023c 3A       		.uleb128 0x3a
 8786 023d 0B       		.uleb128 0xb
 8787 023e 3B       		.uleb128 0x3b
 8788 023f 05       		.uleb128 0x5
 8789 0240 49       		.uleb128 0x49
 8790 0241 13       		.uleb128 0x13
 8791 0242 00       		.byte	0
 8792 0243 00       		.byte	0
 8793 0244 2F       		.uleb128 0x2f
 8794 0245 0B       		.uleb128 0xb
 8795 0246 01       		.byte	0x1
 8796 0247 01       		.uleb128 0x1
 8797 0248 13       		.uleb128 0x13
 8798 0249 00       		.byte	0
 8799 024a 00       		.byte	0
 8800 024b 30       		.uleb128 0x30
 8801 024c 2E       		.uleb128 0x2e
 8802 024d 01       		.byte	0x1
ARM GAS  /tmp/cc3IGbAH.s 			page 156


 8803 024e 03       		.uleb128 0x3
 8804 024f 0E       		.uleb128 0xe
 8805 0250 3A       		.uleb128 0x3a
 8806 0251 0B       		.uleb128 0xb
 8807 0252 3B       		.uleb128 0x3b
 8808 0253 0B       		.uleb128 0xb
 8809 0254 27       		.uleb128 0x27
 8810 0255 0C       		.uleb128 0xc
 8811 0256 11       		.uleb128 0x11
 8812 0257 01       		.uleb128 0x1
 8813 0258 12       		.uleb128 0x12
 8814 0259 01       		.uleb128 0x1
 8815 025a 40       		.uleb128 0x40
 8816 025b 06       		.uleb128 0x6
 8817 025c 9742     		.uleb128 0x2117
 8818 025e 0C       		.uleb128 0xc
 8819 025f 01       		.uleb128 0x1
 8820 0260 13       		.uleb128 0x13
 8821 0261 00       		.byte	0
 8822 0262 00       		.byte	0
 8823 0263 31       		.uleb128 0x31
 8824 0264 05       		.uleb128 0x5
 8825 0265 00       		.byte	0
 8826 0266 03       		.uleb128 0x3
 8827 0267 0E       		.uleb128 0xe
 8828 0268 3A       		.uleb128 0x3a
 8829 0269 0B       		.uleb128 0xb
 8830 026a 3B       		.uleb128 0x3b
 8831 026b 0B       		.uleb128 0xb
 8832 026c 49       		.uleb128 0x49
 8833 026d 13       		.uleb128 0x13
 8834 026e 02       		.uleb128 0x2
 8835 026f 06       		.uleb128 0x6
 8836 0270 00       		.byte	0
 8837 0271 00       		.byte	0
 8838 0272 32       		.uleb128 0x32
 8839 0273 34       		.uleb128 0x34
 8840 0274 00       		.byte	0
 8841 0275 03       		.uleb128 0x3
 8842 0276 0E       		.uleb128 0xe
 8843 0277 3A       		.uleb128 0x3a
 8844 0278 0B       		.uleb128 0xb
 8845 0279 3B       		.uleb128 0x3b
 8846 027a 0B       		.uleb128 0xb
 8847 027b 49       		.uleb128 0x49
 8848 027c 13       		.uleb128 0x13
 8849 027d 02       		.uleb128 0x2
 8850 027e 0A       		.uleb128 0xa
 8851 027f 00       		.byte	0
 8852 0280 00       		.byte	0
 8853 0281 33       		.uleb128 0x33
 8854 0282 34       		.uleb128 0x34
 8855 0283 00       		.byte	0
 8856 0284 03       		.uleb128 0x3
 8857 0285 08       		.uleb128 0x8
 8858 0286 3A       		.uleb128 0x3a
 8859 0287 0B       		.uleb128 0xb
ARM GAS  /tmp/cc3IGbAH.s 			page 157


 8860 0288 3B       		.uleb128 0x3b
 8861 0289 0B       		.uleb128 0xb
 8862 028a 49       		.uleb128 0x49
 8863 028b 13       		.uleb128 0x13
 8864 028c 02       		.uleb128 0x2
 8865 028d 06       		.uleb128 0x6
 8866 028e 00       		.byte	0
 8867 028f 00       		.byte	0
 8868 0290 34       		.uleb128 0x34
 8869 0291 2E       		.uleb128 0x2e
 8870 0292 01       		.byte	0x1
 8871 0293 03       		.uleb128 0x3
 8872 0294 0E       		.uleb128 0xe
 8873 0295 3A       		.uleb128 0x3a
 8874 0296 0B       		.uleb128 0xb
 8875 0297 3B       		.uleb128 0x3b
 8876 0298 05       		.uleb128 0x5
 8877 0299 27       		.uleb128 0x27
 8878 029a 0C       		.uleb128 0xc
 8879 029b 11       		.uleb128 0x11
 8880 029c 01       		.uleb128 0x1
 8881 029d 12       		.uleb128 0x12
 8882 029e 01       		.uleb128 0x1
 8883 029f 40       		.uleb128 0x40
 8884 02a0 06       		.uleb128 0x6
 8885 02a1 9742     		.uleb128 0x2117
 8886 02a3 0C       		.uleb128 0xc
 8887 02a4 01       		.uleb128 0x1
 8888 02a5 13       		.uleb128 0x13
 8889 02a6 00       		.byte	0
 8890 02a7 00       		.byte	0
 8891 02a8 35       		.uleb128 0x35
 8892 02a9 05       		.uleb128 0x5
 8893 02aa 00       		.byte	0
 8894 02ab 03       		.uleb128 0x3
 8895 02ac 0E       		.uleb128 0xe
 8896 02ad 3A       		.uleb128 0x3a
 8897 02ae 0B       		.uleb128 0xb
 8898 02af 3B       		.uleb128 0x3b
 8899 02b0 05       		.uleb128 0x5
 8900 02b1 49       		.uleb128 0x49
 8901 02b2 13       		.uleb128 0x13
 8902 02b3 02       		.uleb128 0x2
 8903 02b4 06       		.uleb128 0x6
 8904 02b5 00       		.byte	0
 8905 02b6 00       		.byte	0
 8906 02b7 36       		.uleb128 0x36
 8907 02b8 05       		.uleb128 0x5
 8908 02b9 00       		.byte	0
 8909 02ba 03       		.uleb128 0x3
 8910 02bb 08       		.uleb128 0x8
 8911 02bc 3A       		.uleb128 0x3a
 8912 02bd 0B       		.uleb128 0xb
 8913 02be 3B       		.uleb128 0x3b
 8914 02bf 05       		.uleb128 0x5
 8915 02c0 49       		.uleb128 0x49
 8916 02c1 13       		.uleb128 0x13
ARM GAS  /tmp/cc3IGbAH.s 			page 158


 8917 02c2 02       		.uleb128 0x2
 8918 02c3 06       		.uleb128 0x6
 8919 02c4 00       		.byte	0
 8920 02c5 00       		.byte	0
 8921 02c6 37       		.uleb128 0x37
 8922 02c7 34       		.uleb128 0x34
 8923 02c8 00       		.byte	0
 8924 02c9 03       		.uleb128 0x3
 8925 02ca 0E       		.uleb128 0xe
 8926 02cb 3A       		.uleb128 0x3a
 8927 02cc 0B       		.uleb128 0xb
 8928 02cd 3B       		.uleb128 0x3b
 8929 02ce 05       		.uleb128 0x5
 8930 02cf 49       		.uleb128 0x49
 8931 02d0 13       		.uleb128 0x13
 8932 02d1 02       		.uleb128 0x2
 8933 02d2 0A       		.uleb128 0xa
 8934 02d3 00       		.byte	0
 8935 02d4 00       		.byte	0
 8936 02d5 38       		.uleb128 0x38
 8937 02d6 898201   		.uleb128 0x4109
 8938 02d9 01       		.byte	0x1
 8939 02da 11       		.uleb128 0x11
 8940 02db 01       		.uleb128 0x1
 8941 02dc 01       		.uleb128 0x1
 8942 02dd 13       		.uleb128 0x13
 8943 02de 00       		.byte	0
 8944 02df 00       		.byte	0
 8945 02e0 39       		.uleb128 0x39
 8946 02e1 8A8201   		.uleb128 0x410a
 8947 02e4 00       		.byte	0
 8948 02e5 02       		.uleb128 0x2
 8949 02e6 0A       		.uleb128 0xa
 8950 02e7 9142     		.uleb128 0x2111
 8951 02e9 0A       		.uleb128 0xa
 8952 02ea 00       		.byte	0
 8953 02eb 00       		.byte	0
 8954 02ec 3A       		.uleb128 0x3a
 8955 02ed 898201   		.uleb128 0x4109
 8956 02f0 01       		.byte	0x1
 8957 02f1 11       		.uleb128 0x11
 8958 02f2 01       		.uleb128 0x1
 8959 02f3 00       		.byte	0
 8960 02f4 00       		.byte	0
 8961 02f5 3B       		.uleb128 0x3b
 8962 02f6 2E       		.uleb128 0x2e
 8963 02f7 01       		.byte	0x1
 8964 02f8 03       		.uleb128 0x3
 8965 02f9 0E       		.uleb128 0xe
 8966 02fa 3A       		.uleb128 0x3a
 8967 02fb 0B       		.uleb128 0xb
 8968 02fc 3B       		.uleb128 0x3b
 8969 02fd 0B       		.uleb128 0xb
 8970 02fe 27       		.uleb128 0x27
 8971 02ff 0C       		.uleb128 0xc
 8972 0300 11       		.uleb128 0x11
 8973 0301 01       		.uleb128 0x1
ARM GAS  /tmp/cc3IGbAH.s 			page 159


 8974 0302 12       		.uleb128 0x12
 8975 0303 01       		.uleb128 0x1
 8976 0304 40       		.uleb128 0x40
 8977 0305 0A       		.uleb128 0xa
 8978 0306 9742     		.uleb128 0x2117
 8979 0308 0C       		.uleb128 0xc
 8980 0309 01       		.uleb128 0x1
 8981 030a 13       		.uleb128 0x13
 8982 030b 00       		.byte	0
 8983 030c 00       		.byte	0
 8984 030d 3C       		.uleb128 0x3c
 8985 030e 34       		.uleb128 0x34
 8986 030f 00       		.byte	0
 8987 0310 03       		.uleb128 0x3
 8988 0311 0E       		.uleb128 0xe
 8989 0312 3A       		.uleb128 0x3a
 8990 0313 0B       		.uleb128 0xb
 8991 0314 3B       		.uleb128 0x3b
 8992 0315 0B       		.uleb128 0xb
 8993 0316 49       		.uleb128 0x49
 8994 0317 13       		.uleb128 0x13
 8995 0318 02       		.uleb128 0x2
 8996 0319 06       		.uleb128 0x6
 8997 031a 00       		.byte	0
 8998 031b 00       		.byte	0
 8999 031c 3D       		.uleb128 0x3d
 9000 031d 898201   		.uleb128 0x4109
 9001 0320 01       		.byte	0x1
 9002 0321 11       		.uleb128 0x11
 9003 0322 01       		.uleb128 0x1
 9004 0323 9542     		.uleb128 0x2115
 9005 0325 0C       		.uleb128 0xc
 9006 0326 31       		.uleb128 0x31
 9007 0327 13       		.uleb128 0x13
 9008 0328 00       		.byte	0
 9009 0329 00       		.byte	0
 9010 032a 3E       		.uleb128 0x3e
 9011 032b 2E       		.uleb128 0x2e
 9012 032c 01       		.byte	0x1
 9013 032d 03       		.uleb128 0x3
 9014 032e 0E       		.uleb128 0xe
 9015 032f 3A       		.uleb128 0x3a
 9016 0330 0B       		.uleb128 0xb
 9017 0331 3B       		.uleb128 0x3b
 9018 0332 05       		.uleb128 0x5
 9019 0333 27       		.uleb128 0x27
 9020 0334 0C       		.uleb128 0xc
 9021 0335 49       		.uleb128 0x49
 9022 0336 13       		.uleb128 0x13
 9023 0337 11       		.uleb128 0x11
 9024 0338 01       		.uleb128 0x1
 9025 0339 12       		.uleb128 0x12
 9026 033a 01       		.uleb128 0x1
 9027 033b 40       		.uleb128 0x40
 9028 033c 06       		.uleb128 0x6
 9029 033d 9742     		.uleb128 0x2117
 9030 033f 0C       		.uleb128 0xc
ARM GAS  /tmp/cc3IGbAH.s 			page 160


 9031 0340 01       		.uleb128 0x1
 9032 0341 13       		.uleb128 0x13
 9033 0342 00       		.byte	0
 9034 0343 00       		.byte	0
 9035 0344 3F       		.uleb128 0x3f
 9036 0345 34       		.uleb128 0x34
 9037 0346 00       		.byte	0
 9038 0347 03       		.uleb128 0x3
 9039 0348 0E       		.uleb128 0xe
 9040 0349 3A       		.uleb128 0x3a
 9041 034a 0B       		.uleb128 0xb
 9042 034b 3B       		.uleb128 0x3b
 9043 034c 05       		.uleb128 0x5
 9044 034d 49       		.uleb128 0x49
 9045 034e 13       		.uleb128 0x13
 9046 034f 02       		.uleb128 0x2
 9047 0350 06       		.uleb128 0x6
 9048 0351 00       		.byte	0
 9049 0352 00       		.byte	0
 9050 0353 40       		.uleb128 0x40
 9051 0354 0B       		.uleb128 0xb
 9052 0355 01       		.byte	0x1
 9053 0356 55       		.uleb128 0x55
 9054 0357 06       		.uleb128 0x6
 9055 0358 01       		.uleb128 0x1
 9056 0359 13       		.uleb128 0x13
 9057 035a 00       		.byte	0
 9058 035b 00       		.byte	0
 9059 035c 41       		.uleb128 0x41
 9060 035d 34       		.uleb128 0x34
 9061 035e 00       		.byte	0
 9062 035f 03       		.uleb128 0x3
 9063 0360 08       		.uleb128 0x8
 9064 0361 3A       		.uleb128 0x3a
 9065 0362 0B       		.uleb128 0xb
 9066 0363 3B       		.uleb128 0x3b
 9067 0364 05       		.uleb128 0x5
 9068 0365 49       		.uleb128 0x49
 9069 0366 13       		.uleb128 0x13
 9070 0367 02       		.uleb128 0x2
 9071 0368 06       		.uleb128 0x6
 9072 0369 00       		.byte	0
 9073 036a 00       		.byte	0
 9074 036b 42       		.uleb128 0x42
 9075 036c 0B       		.uleb128 0xb
 9076 036d 01       		.byte	0x1
 9077 036e 55       		.uleb128 0x55
 9078 036f 06       		.uleb128 0x6
 9079 0370 00       		.byte	0
 9080 0371 00       		.byte	0
 9081 0372 43       		.uleb128 0x43
 9082 0373 1D       		.uleb128 0x1d
 9083 0374 01       		.byte	0x1
 9084 0375 31       		.uleb128 0x31
 9085 0376 13       		.uleb128 0x13
 9086 0377 52       		.uleb128 0x52
 9087 0378 01       		.uleb128 0x1
ARM GAS  /tmp/cc3IGbAH.s 			page 161


 9088 0379 55       		.uleb128 0x55
 9089 037a 06       		.uleb128 0x6
 9090 037b 58       		.uleb128 0x58
 9091 037c 0B       		.uleb128 0xb
 9092 037d 59       		.uleb128 0x59
 9093 037e 05       		.uleb128 0x5
 9094 037f 01       		.uleb128 0x1
 9095 0380 13       		.uleb128 0x13
 9096 0381 00       		.byte	0
 9097 0382 00       		.byte	0
 9098 0383 44       		.uleb128 0x44
 9099 0384 05       		.uleb128 0x5
 9100 0385 00       		.byte	0
 9101 0386 31       		.uleb128 0x31
 9102 0387 13       		.uleb128 0x13
 9103 0388 02       		.uleb128 0x2
 9104 0389 06       		.uleb128 0x6
 9105 038a 00       		.byte	0
 9106 038b 00       		.byte	0
 9107 038c 45       		.uleb128 0x45
 9108 038d 34       		.uleb128 0x34
 9109 038e 00       		.byte	0
 9110 038f 31       		.uleb128 0x31
 9111 0390 13       		.uleb128 0x13
 9112 0391 02       		.uleb128 0x2
 9113 0392 06       		.uleb128 0x6
 9114 0393 00       		.byte	0
 9115 0394 00       		.byte	0
 9116 0395 46       		.uleb128 0x46
 9117 0396 1D       		.uleb128 0x1d
 9118 0397 01       		.byte	0x1
 9119 0398 31       		.uleb128 0x31
 9120 0399 13       		.uleb128 0x13
 9121 039a 11       		.uleb128 0x11
 9122 039b 01       		.uleb128 0x1
 9123 039c 12       		.uleb128 0x12
 9124 039d 01       		.uleb128 0x1
 9125 039e 58       		.uleb128 0x58
 9126 039f 0B       		.uleb128 0xb
 9127 03a0 59       		.uleb128 0x59
 9128 03a1 05       		.uleb128 0x5
 9129 03a2 00       		.byte	0
 9130 03a3 00       		.byte	0
 9131 03a4 47       		.uleb128 0x47
 9132 03a5 0B       		.uleb128 0xb
 9133 03a6 01       		.byte	0x1
 9134 03a7 11       		.uleb128 0x11
 9135 03a8 01       		.uleb128 0x1
 9136 03a9 12       		.uleb128 0x12
 9137 03aa 01       		.uleb128 0x1
 9138 03ab 00       		.byte	0
 9139 03ac 00       		.byte	0
 9140 03ad 48       		.uleb128 0x48
 9141 03ae 0B       		.uleb128 0xb
 9142 03af 01       		.byte	0x1
 9143 03b0 11       		.uleb128 0x11
 9144 03b1 01       		.uleb128 0x1
ARM GAS  /tmp/cc3IGbAH.s 			page 162


 9145 03b2 12       		.uleb128 0x12
 9146 03b3 01       		.uleb128 0x1
 9147 03b4 01       		.uleb128 0x1
 9148 03b5 13       		.uleb128 0x13
 9149 03b6 00       		.byte	0
 9150 03b7 00       		.byte	0
 9151 03b8 49       		.uleb128 0x49
 9152 03b9 1D       		.uleb128 0x1d
 9153 03ba 01       		.byte	0x1
 9154 03bb 31       		.uleb128 0x31
 9155 03bc 13       		.uleb128 0x13
 9156 03bd 11       		.uleb128 0x11
 9157 03be 01       		.uleb128 0x1
 9158 03bf 12       		.uleb128 0x12
 9159 03c0 01       		.uleb128 0x1
 9160 03c1 58       		.uleb128 0x58
 9161 03c2 0B       		.uleb128 0xb
 9162 03c3 59       		.uleb128 0x59
 9163 03c4 05       		.uleb128 0x5
 9164 03c5 01       		.uleb128 0x1
 9165 03c6 13       		.uleb128 0x13
 9166 03c7 00       		.byte	0
 9167 03c8 00       		.byte	0
 9168 03c9 4A       		.uleb128 0x4a
 9169 03ca 898201   		.uleb128 0x4109
 9170 03cd 00       		.byte	0
 9171 03ce 11       		.uleb128 0x11
 9172 03cf 01       		.uleb128 0x1
 9173 03d0 31       		.uleb128 0x31
 9174 03d1 13       		.uleb128 0x13
 9175 03d2 00       		.byte	0
 9176 03d3 00       		.byte	0
 9177 03d4 4B       		.uleb128 0x4b
 9178 03d5 05       		.uleb128 0x5
 9179 03d6 00       		.byte	0
 9180 03d7 31       		.uleb128 0x31
 9181 03d8 13       		.uleb128 0x13
 9182 03d9 02       		.uleb128 0x2
 9183 03da 0A       		.uleb128 0xa
 9184 03db 00       		.byte	0
 9185 03dc 00       		.byte	0
 9186 03dd 4C       		.uleb128 0x4c
 9187 03de 1D       		.uleb128 0x1d
 9188 03df 01       		.byte	0x1
 9189 03e0 31       		.uleb128 0x31
 9190 03e1 13       		.uleb128 0x13
 9191 03e2 52       		.uleb128 0x52
 9192 03e3 01       		.uleb128 0x1
 9193 03e4 55       		.uleb128 0x55
 9194 03e5 06       		.uleb128 0x6
 9195 03e6 58       		.uleb128 0x58
 9196 03e7 0B       		.uleb128 0xb
 9197 03e8 59       		.uleb128 0x59
 9198 03e9 05       		.uleb128 0x5
 9199 03ea 00       		.byte	0
 9200 03eb 00       		.byte	0
 9201 03ec 4D       		.uleb128 0x4d
ARM GAS  /tmp/cc3IGbAH.s 			page 163


 9202 03ed 05       		.uleb128 0x5
 9203 03ee 00       		.byte	0
 9204 03ef 31       		.uleb128 0x31
 9205 03f0 13       		.uleb128 0x13
 9206 03f1 00       		.byte	0
 9207 03f2 00       		.byte	0
 9208 03f3 4E       		.uleb128 0x4e
 9209 03f4 898201   		.uleb128 0x4109
 9210 03f7 01       		.byte	0x1
 9211 03f8 11       		.uleb128 0x11
 9212 03f9 01       		.uleb128 0x1
 9213 03fa 31       		.uleb128 0x31
 9214 03fb 13       		.uleb128 0x13
 9215 03fc 00       		.byte	0
 9216 03fd 00       		.byte	0
 9217 03fe 4F       		.uleb128 0x4f
 9218 03ff 2E       		.uleb128 0x2e
 9219 0400 01       		.byte	0x1
 9220 0401 3F       		.uleb128 0x3f
 9221 0402 0C       		.uleb128 0xc
 9222 0403 03       		.uleb128 0x3
 9223 0404 0E       		.uleb128 0xe
 9224 0405 3A       		.uleb128 0x3a
 9225 0406 0B       		.uleb128 0xb
 9226 0407 3B       		.uleb128 0x3b
 9227 0408 05       		.uleb128 0x5
 9228 0409 27       		.uleb128 0x27
 9229 040a 0C       		.uleb128 0xc
 9230 040b 11       		.uleb128 0x11
 9231 040c 01       		.uleb128 0x1
 9232 040d 12       		.uleb128 0x12
 9233 040e 01       		.uleb128 0x1
 9234 040f 40       		.uleb128 0x40
 9235 0410 06       		.uleb128 0x6
 9236 0411 9742     		.uleb128 0x2117
 9237 0413 0C       		.uleb128 0xc
 9238 0414 01       		.uleb128 0x1
 9239 0415 13       		.uleb128 0x13
 9240 0416 00       		.byte	0
 9241 0417 00       		.byte	0
 9242 0418 50       		.uleb128 0x50
 9243 0419 34       		.uleb128 0x34
 9244 041a 00       		.byte	0
 9245 041b 31       		.uleb128 0x31
 9246 041c 13       		.uleb128 0x13
 9247 041d 02       		.uleb128 0x2
 9248 041e 0A       		.uleb128 0xa
 9249 041f 00       		.byte	0
 9250 0420 00       		.byte	0
 9251 0421 51       		.uleb128 0x51
 9252 0422 898201   		.uleb128 0x4109
 9253 0425 01       		.byte	0x1
 9254 0426 11       		.uleb128 0x11
 9255 0427 01       		.uleb128 0x1
 9256 0428 31       		.uleb128 0x31
 9257 0429 13       		.uleb128 0x13
 9258 042a 01       		.uleb128 0x1
ARM GAS  /tmp/cc3IGbAH.s 			page 164


 9259 042b 13       		.uleb128 0x13
 9260 042c 00       		.byte	0
 9261 042d 00       		.byte	0
 9262 042e 52       		.uleb128 0x52
 9263 042f 898201   		.uleb128 0x4109
 9264 0432 00       		.byte	0
 9265 0433 11       		.uleb128 0x11
 9266 0434 01       		.uleb128 0x1
 9267 0435 9542     		.uleb128 0x2115
 9268 0437 0C       		.uleb128 0xc
 9269 0438 31       		.uleb128 0x31
 9270 0439 13       		.uleb128 0x13
 9271 043a 00       		.byte	0
 9272 043b 00       		.byte	0
 9273 043c 53       		.uleb128 0x53
 9274 043d 2E       		.uleb128 0x2e
 9275 043e 01       		.byte	0x1
 9276 043f 3F       		.uleb128 0x3f
 9277 0440 0C       		.uleb128 0xc
 9278 0441 03       		.uleb128 0x3
 9279 0442 0E       		.uleb128 0xe
 9280 0443 3A       		.uleb128 0x3a
 9281 0444 0B       		.uleb128 0xb
 9282 0445 3B       		.uleb128 0x3b
 9283 0446 05       		.uleb128 0x5
 9284 0447 27       		.uleb128 0x27
 9285 0448 0C       		.uleb128 0xc
 9286 0449 11       		.uleb128 0x11
 9287 044a 01       		.uleb128 0x1
 9288 044b 12       		.uleb128 0x12
 9289 044c 01       		.uleb128 0x1
 9290 044d 40       		.uleb128 0x40
 9291 044e 0A       		.uleb128 0xa
 9292 044f 9742     		.uleb128 0x2117
 9293 0451 0C       		.uleb128 0xc
 9294 0452 01       		.uleb128 0x1
 9295 0453 13       		.uleb128 0x13
 9296 0454 00       		.byte	0
 9297 0455 00       		.byte	0
 9298 0456 54       		.uleb128 0x54
 9299 0457 05       		.uleb128 0x5
 9300 0458 00       		.byte	0
 9301 0459 03       		.uleb128 0x3
 9302 045a 0E       		.uleb128 0xe
 9303 045b 3A       		.uleb128 0x3a
 9304 045c 0B       		.uleb128 0xb
 9305 045d 3B       		.uleb128 0x3b
 9306 045e 05       		.uleb128 0x5
 9307 045f 49       		.uleb128 0x49
 9308 0460 13       		.uleb128 0x13
 9309 0461 02       		.uleb128 0x2
 9310 0462 0A       		.uleb128 0xa
 9311 0463 00       		.byte	0
 9312 0464 00       		.byte	0
 9313 0465 55       		.uleb128 0x55
 9314 0466 05       		.uleb128 0x5
 9315 0467 00       		.byte	0
ARM GAS  /tmp/cc3IGbAH.s 			page 165


 9316 0468 31       		.uleb128 0x31
 9317 0469 13       		.uleb128 0x13
 9318 046a 1C       		.uleb128 0x1c
 9319 046b 0B       		.uleb128 0xb
 9320 046c 00       		.byte	0
 9321 046d 00       		.byte	0
 9322 046e 56       		.uleb128 0x56
 9323 046f 2E       		.uleb128 0x2e
 9324 0470 01       		.byte	0x1
 9325 0471 3F       		.uleb128 0x3f
 9326 0472 0C       		.uleb128 0xc
 9327 0473 03       		.uleb128 0x3
 9328 0474 0E       		.uleb128 0xe
 9329 0475 3A       		.uleb128 0x3a
 9330 0476 0B       		.uleb128 0xb
 9331 0477 3B       		.uleb128 0x3b
 9332 0478 05       		.uleb128 0x5
 9333 0479 27       		.uleb128 0x27
 9334 047a 0C       		.uleb128 0xc
 9335 047b 49       		.uleb128 0x49
 9336 047c 13       		.uleb128 0x13
 9337 047d 11       		.uleb128 0x11
 9338 047e 01       		.uleb128 0x1
 9339 047f 12       		.uleb128 0x12
 9340 0480 01       		.uleb128 0x1
 9341 0481 40       		.uleb128 0x40
 9342 0482 0A       		.uleb128 0xa
 9343 0483 9742     		.uleb128 0x2117
 9344 0485 0C       		.uleb128 0xc
 9345 0486 01       		.uleb128 0x1
 9346 0487 13       		.uleb128 0x13
 9347 0488 00       		.byte	0
 9348 0489 00       		.byte	0
 9349 048a 57       		.uleb128 0x57
 9350 048b 34       		.uleb128 0x34
 9351 048c 00       		.byte	0
 9352 048d 03       		.uleb128 0x3
 9353 048e 08       		.uleb128 0x8
 9354 048f 3A       		.uleb128 0x3a
 9355 0490 0B       		.uleb128 0xb
 9356 0491 3B       		.uleb128 0x3b
 9357 0492 05       		.uleb128 0x5
 9358 0493 49       		.uleb128 0x49
 9359 0494 13       		.uleb128 0x13
 9360 0495 02       		.uleb128 0x2
 9361 0496 0A       		.uleb128 0xa
 9362 0497 00       		.byte	0
 9363 0498 00       		.byte	0
 9364 0499 58       		.uleb128 0x58
 9365 049a 05       		.uleb128 0x5
 9366 049b 00       		.byte	0
 9367 049c 03       		.uleb128 0x3
 9368 049d 08       		.uleb128 0x8
 9369 049e 3A       		.uleb128 0x3a
 9370 049f 0B       		.uleb128 0xb
 9371 04a0 3B       		.uleb128 0x3b
 9372 04a1 05       		.uleb128 0x5
ARM GAS  /tmp/cc3IGbAH.s 			page 166


 9373 04a2 49       		.uleb128 0x49
 9374 04a3 13       		.uleb128 0x13
 9375 04a4 02       		.uleb128 0x2
 9376 04a5 0A       		.uleb128 0xa
 9377 04a6 00       		.byte	0
 9378 04a7 00       		.byte	0
 9379 04a8 59       		.uleb128 0x59
 9380 04a9 34       		.uleb128 0x34
 9381 04aa 00       		.byte	0
 9382 04ab 03       		.uleb128 0x3
 9383 04ac 0E       		.uleb128 0xe
 9384 04ad 3A       		.uleb128 0x3a
 9385 04ae 0B       		.uleb128 0xb
 9386 04af 3B       		.uleb128 0x3b
 9387 04b0 0B       		.uleb128 0xb
 9388 04b1 49       		.uleb128 0x49
 9389 04b2 13       		.uleb128 0x13
 9390 04b3 3F       		.uleb128 0x3f
 9391 04b4 0C       		.uleb128 0xc
 9392 04b5 3C       		.uleb128 0x3c
 9393 04b6 0C       		.uleb128 0xc
 9394 04b7 00       		.byte	0
 9395 04b8 00       		.byte	0
 9396 04b9 5A       		.uleb128 0x5a
 9397 04ba 34       		.uleb128 0x34
 9398 04bb 00       		.byte	0
 9399 04bc 03       		.uleb128 0x3
 9400 04bd 0E       		.uleb128 0xe
 9401 04be 3A       		.uleb128 0x3a
 9402 04bf 0B       		.uleb128 0xb
 9403 04c0 3B       		.uleb128 0x3b
 9404 04c1 05       		.uleb128 0x5
 9405 04c2 49       		.uleb128 0x49
 9406 04c3 13       		.uleb128 0x13
 9407 04c4 3F       		.uleb128 0x3f
 9408 04c5 0C       		.uleb128 0xc
 9409 04c6 3C       		.uleb128 0x3c
 9410 04c7 0C       		.uleb128 0xc
 9411 04c8 00       		.byte	0
 9412 04c9 00       		.byte	0
 9413 04ca 5B       		.uleb128 0x5b
 9414 04cb 34       		.uleb128 0x34
 9415 04cc 00       		.byte	0
 9416 04cd 03       		.uleb128 0x3
 9417 04ce 0E       		.uleb128 0xe
 9418 04cf 3A       		.uleb128 0x3a
 9419 04d0 0B       		.uleb128 0xb
 9420 04d1 3B       		.uleb128 0x3b
 9421 04d2 0B       		.uleb128 0xb
 9422 04d3 49       		.uleb128 0x49
 9423 04d4 13       		.uleb128 0x13
 9424 04d5 3F       		.uleb128 0x3f
 9425 04d6 0C       		.uleb128 0xc
 9426 04d7 02       		.uleb128 0x2
 9427 04d8 0A       		.uleb128 0xa
 9428 04d9 00       		.byte	0
 9429 04da 00       		.byte	0
ARM GAS  /tmp/cc3IGbAH.s 			page 167


 9430 04db 5C       		.uleb128 0x5c
 9431 04dc 2E       		.uleb128 0x2e
 9432 04dd 01       		.byte	0x1
 9433 04de 3F       		.uleb128 0x3f
 9434 04df 0C       		.uleb128 0xc
 9435 04e0 03       		.uleb128 0x3
 9436 04e1 0E       		.uleb128 0xe
 9437 04e2 3A       		.uleb128 0x3a
 9438 04e3 0B       		.uleb128 0xb
 9439 04e4 3B       		.uleb128 0x3b
 9440 04e5 0B       		.uleb128 0xb
 9441 04e6 27       		.uleb128 0x27
 9442 04e7 0C       		.uleb128 0xc
 9443 04e8 3C       		.uleb128 0x3c
 9444 04e9 0C       		.uleb128 0xc
 9445 04ea 01       		.uleb128 0x1
 9446 04eb 13       		.uleb128 0x13
 9447 04ec 00       		.byte	0
 9448 04ed 00       		.byte	0
 9449 04ee 5D       		.uleb128 0x5d
 9450 04ef 2E       		.uleb128 0x2e
 9451 04f0 01       		.byte	0x1
 9452 04f1 3F       		.uleb128 0x3f
 9453 04f2 0C       		.uleb128 0xc
 9454 04f3 03       		.uleb128 0x3
 9455 04f4 0E       		.uleb128 0xe
 9456 04f5 3A       		.uleb128 0x3a
 9457 04f6 0B       		.uleb128 0xb
 9458 04f7 3B       		.uleb128 0x3b
 9459 04f8 0B       		.uleb128 0xb
 9460 04f9 27       		.uleb128 0x27
 9461 04fa 0C       		.uleb128 0xc
 9462 04fb 49       		.uleb128 0x49
 9463 04fc 13       		.uleb128 0x13
 9464 04fd 3C       		.uleb128 0x3c
 9465 04fe 0C       		.uleb128 0xc
 9466 04ff 01       		.uleb128 0x1
 9467 0500 13       		.uleb128 0x13
 9468 0501 00       		.byte	0
 9469 0502 00       		.byte	0
 9470 0503 5E       		.uleb128 0x5e
 9471 0504 2E       		.uleb128 0x2e
 9472 0505 00       		.byte	0
 9473 0506 3F       		.uleb128 0x3f
 9474 0507 0C       		.uleb128 0xc
 9475 0508 03       		.uleb128 0x3
 9476 0509 0E       		.uleb128 0xe
 9477 050a 3A       		.uleb128 0x3a
 9478 050b 0B       		.uleb128 0xb
 9479 050c 3B       		.uleb128 0x3b
 9480 050d 0B       		.uleb128 0xb
 9481 050e 27       		.uleb128 0x27
 9482 050f 0C       		.uleb128 0xc
 9483 0510 3C       		.uleb128 0x3c
 9484 0511 0C       		.uleb128 0xc
 9485 0512 00       		.byte	0
 9486 0513 00       		.byte	0
ARM GAS  /tmp/cc3IGbAH.s 			page 168


 9487 0514 5F       		.uleb128 0x5f
 9488 0515 2E       		.uleb128 0x2e
 9489 0516 01       		.byte	0x1
 9490 0517 3F       		.uleb128 0x3f
 9491 0518 0C       		.uleb128 0xc
 9492 0519 03       		.uleb128 0x3
 9493 051a 0E       		.uleb128 0xe
 9494 051b 3A       		.uleb128 0x3a
 9495 051c 0B       		.uleb128 0xb
 9496 051d 3B       		.uleb128 0x3b
 9497 051e 05       		.uleb128 0x5
 9498 051f 27       		.uleb128 0x27
 9499 0520 0C       		.uleb128 0xc
 9500 0521 3C       		.uleb128 0x3c
 9501 0522 0C       		.uleb128 0xc
 9502 0523 01       		.uleb128 0x1
 9503 0524 13       		.uleb128 0x13
 9504 0525 00       		.byte	0
 9505 0526 00       		.byte	0
 9506 0527 60       		.uleb128 0x60
 9507 0528 2E       		.uleb128 0x2e
 9508 0529 00       		.byte	0
 9509 052a 3F       		.uleb128 0x3f
 9510 052b 0C       		.uleb128 0xc
 9511 052c 03       		.uleb128 0x3
 9512 052d 0E       		.uleb128 0xe
 9513 052e 3A       		.uleb128 0x3a
 9514 052f 0B       		.uleb128 0xb
 9515 0530 3B       		.uleb128 0x3b
 9516 0531 05       		.uleb128 0x5
 9517 0532 27       		.uleb128 0x27
 9518 0533 0C       		.uleb128 0xc
 9519 0534 3C       		.uleb128 0x3c
 9520 0535 0C       		.uleb128 0xc
 9521 0536 00       		.byte	0
 9522 0537 00       		.byte	0
 9523 0538 61       		.uleb128 0x61
 9524 0539 2E       		.uleb128 0x2e
 9525 053a 01       		.byte	0x1
 9526 053b 3F       		.uleb128 0x3f
 9527 053c 0C       		.uleb128 0xc
 9528 053d 03       		.uleb128 0x3
 9529 053e 0E       		.uleb128 0xe
 9530 053f 3A       		.uleb128 0x3a
 9531 0540 0B       		.uleb128 0xb
 9532 0541 3B       		.uleb128 0x3b
 9533 0542 05       		.uleb128 0x5
 9534 0543 27       		.uleb128 0x27
 9535 0544 0C       		.uleb128 0xc
 9536 0545 49       		.uleb128 0x49
 9537 0546 13       		.uleb128 0x13
 9538 0547 3C       		.uleb128 0x3c
 9539 0548 0C       		.uleb128 0xc
 9540 0549 01       		.uleb128 0x1
 9541 054a 13       		.uleb128 0x13
 9542 054b 00       		.byte	0
 9543 054c 00       		.byte	0
ARM GAS  /tmp/cc3IGbAH.s 			page 169


 9544 054d 62       		.uleb128 0x62
 9545 054e 2E       		.uleb128 0x2e
 9546 054f 01       		.byte	0x1
 9547 0550 3F       		.uleb128 0x3f
 9548 0551 0C       		.uleb128 0xc
 9549 0552 03       		.uleb128 0x3
 9550 0553 0E       		.uleb128 0xe
 9551 0554 3A       		.uleb128 0x3a
 9552 0555 0B       		.uleb128 0xb
 9553 0556 3B       		.uleb128 0x3b
 9554 0557 05       		.uleb128 0x5
 9555 0558 27       		.uleb128 0x27
 9556 0559 0C       		.uleb128 0xc
 9557 055a 3C       		.uleb128 0x3c
 9558 055b 0C       		.uleb128 0xc
 9559 055c 00       		.byte	0
 9560 055d 00       		.byte	0
 9561 055e 00       		.byte	0
 9562              		.section	.debug_loc,"",%progbits
 9563              	.Ldebug_loc0:
 9564              	.LLST0:
 9565 0000 00000000 		.4byte	.LFB120
 9566 0004 0A000000 		.4byte	.LCFI0
 9567 0008 0200     		.2byte	0x2
 9568 000a 7D       		.byte	0x7d
 9569 000b 00       		.sleb128 0
 9570 000c 0A000000 		.4byte	.LCFI0
 9571 0010 82000000 		.4byte	.LFE120
 9572 0014 0200     		.2byte	0x2
 9573 0016 7D       		.byte	0x7d
 9574 0017 14       		.sleb128 20
 9575 0018 00000000 		.4byte	0
 9576 001c 00000000 		.4byte	0
 9577              	.LLST1:
 9578 0020 00000000 		.4byte	.LVL0
 9579 0024 0C000000 		.4byte	.LVL2
 9580 0028 0100     		.2byte	0x1
 9581 002a 50       		.byte	0x50
 9582 002b 0C000000 		.4byte	.LVL2
 9583 002f 82000000 		.4byte	.LFE120
 9584 0033 0400     		.2byte	0x4
 9585 0035 F3       		.byte	0xf3
 9586 0036 01       		.uleb128 0x1
 9587 0037 50       		.byte	0x50
 9588 0038 9F       		.byte	0x9f
 9589 0039 00000000 		.4byte	0
 9590 003d 00000000 		.4byte	0
 9591              	.LLST2:
 9592 0041 04000000 		.4byte	.LVL1
 9593 0045 18000000 		.4byte	.LVL3
 9594 0049 0200     		.2byte	0x2
 9595 004b 30       		.byte	0x30
 9596 004c 9F       		.byte	0x9f
 9597 004d 3C000000 		.4byte	.LVL4
 9598 0051 48000000 		.4byte	.LVL5
 9599 0055 0100     		.2byte	0x1
 9600 0057 52       		.byte	0x52
ARM GAS  /tmp/cc3IGbAH.s 			page 170


 9601 0058 74000000 		.4byte	.LVL6
 9602 005c 82000000 		.4byte	.LFE120
 9603 0060 0100     		.2byte	0x1
 9604 0062 52       		.byte	0x52
 9605 0063 00000000 		.4byte	0
 9606 0067 00000000 		.4byte	0
 9607              	.LLST3:
 9608 006b 00000000 		.4byte	.LFB134
 9609 006f 02000000 		.4byte	.LCFI1
 9610 0073 0200     		.2byte	0x2
 9611 0075 7D       		.byte	0x7d
 9612 0076 00       		.sleb128 0
 9613 0077 02000000 		.4byte	.LCFI1
 9614 007b 5C000000 		.4byte	.LFE134
 9615 007f 0200     		.2byte	0x2
 9616 0081 7D       		.byte	0x7d
 9617 0082 18       		.sleb128 24
 9618 0083 00000000 		.4byte	0
 9619 0087 00000000 		.4byte	0
 9620              	.LLST4:
 9621 008b 00000000 		.4byte	.LVL7
 9622 008f 24000000 		.4byte	.LVL10
 9623 0093 0100     		.2byte	0x1
 9624 0095 50       		.byte	0x50
 9625 0096 24000000 		.4byte	.LVL10
 9626 009a 50000000 		.4byte	.LVL12
 9627 009e 0100     		.2byte	0x1
 9628 00a0 55       		.byte	0x55
 9629 00a1 50000000 		.4byte	.LVL12
 9630 00a5 59000000 		.4byte	.LVL13-1
 9631 00a9 0100     		.2byte	0x1
 9632 00ab 50       		.byte	0x50
 9633 00ac 59000000 		.4byte	.LVL13-1
 9634 00b0 5C000000 		.4byte	.LFE134
 9635 00b4 0100     		.2byte	0x1
 9636 00b6 55       		.byte	0x55
 9637 00b7 00000000 		.4byte	0
 9638 00bb 00000000 		.4byte	0
 9639              	.LLST5:
 9640 00bf 00000000 		.4byte	.LVL7
 9641 00c3 24000000 		.4byte	.LVL10
 9642 00c7 0100     		.2byte	0x1
 9643 00c9 51       		.byte	0x51
 9644 00ca 24000000 		.4byte	.LVL10
 9645 00ce 50000000 		.4byte	.LVL12
 9646 00d2 0400     		.2byte	0x4
 9647 00d4 F3       		.byte	0xf3
 9648 00d5 01       		.uleb128 0x1
 9649 00d6 51       		.byte	0x51
 9650 00d7 9F       		.byte	0x9f
 9651 00d8 50000000 		.4byte	.LVL12
 9652 00dc 59000000 		.4byte	.LVL13-1
 9653 00e0 0100     		.2byte	0x1
 9654 00e2 51       		.byte	0x51
 9655 00e3 59000000 		.4byte	.LVL13-1
 9656 00e7 5C000000 		.4byte	.LFE134
 9657 00eb 0400     		.2byte	0x4
ARM GAS  /tmp/cc3IGbAH.s 			page 171


 9658 00ed F3       		.byte	0xf3
 9659 00ee 01       		.uleb128 0x1
 9660 00ef 51       		.byte	0x51
 9661 00f0 9F       		.byte	0x9f
 9662 00f1 00000000 		.4byte	0
 9663 00f5 00000000 		.4byte	0
 9664              	.LLST6:
 9665 00f9 00000000 		.4byte	.LVL14
 9666 00fd 0A000000 		.4byte	.LVL17
 9667 0101 0100     		.2byte	0x1
 9668 0103 50       		.byte	0x50
 9669 0104 0A000000 		.4byte	.LVL17
 9670 0108 16000000 		.4byte	.LFE122
 9671 010c 0400     		.2byte	0x4
 9672 010e F3       		.byte	0xf3
 9673 010f 01       		.uleb128 0x1
 9674 0110 50       		.byte	0x50
 9675 0111 9F       		.byte	0x9f
 9676 0112 00000000 		.4byte	0
 9677 0116 00000000 		.4byte	0
 9678              	.LLST7:
 9679 011a 00000000 		.4byte	.LVL14
 9680 011e 04000000 		.4byte	.LVL16
 9681 0122 0100     		.2byte	0x1
 9682 0124 51       		.byte	0x51
 9683 0125 04000000 		.4byte	.LVL16
 9684 0129 16000000 		.4byte	.LFE122
 9685 012d 0400     		.2byte	0x4
 9686 012f F3       		.byte	0xf3
 9687 0130 01       		.uleb128 0x1
 9688 0131 51       		.byte	0x51
 9689 0132 9F       		.byte	0x9f
 9690 0133 00000000 		.4byte	0
 9691 0137 00000000 		.4byte	0
 9692              	.LLST8:
 9693 013b 02000000 		.4byte	.LVL15
 9694 013f 15000000 		.4byte	.LVL18-1
 9695 0143 0100     		.2byte	0x1
 9696 0145 52       		.byte	0x52
 9697 0146 00000000 		.4byte	0
 9698 014a 00000000 		.4byte	0
 9699              	.LLST9:
 9700 014e 00000000 		.4byte	.LFB136
 9701 0152 04000000 		.4byte	.LCFI2
 9702 0156 0200     		.2byte	0x2
 9703 0158 7D       		.byte	0x7d
 9704 0159 00       		.sleb128 0
 9705 015a 04000000 		.4byte	.LCFI2
 9706 015e 18000000 		.4byte	.LCFI3
 9707 0162 0200     		.2byte	0x2
 9708 0164 7D       		.byte	0x7d
 9709 0165 24       		.sleb128 36
 9710 0166 18000000 		.4byte	.LCFI3
 9711 016a 8A040000 		.4byte	.LFE136
 9712 016e 0300     		.2byte	0x3
 9713 0170 7D       		.byte	0x7d
 9714 0171 C000     		.sleb128 64
ARM GAS  /tmp/cc3IGbAH.s 			page 172


 9715 0173 00000000 		.4byte	0
 9716 0177 00000000 		.4byte	0
 9717              	.LLST10:
 9718 017b 00000000 		.4byte	.LVL19
 9719 017f 16000000 		.4byte	.LVL21
 9720 0183 0100     		.2byte	0x1
 9721 0185 50       		.byte	0x50
 9722 0186 16000000 		.4byte	.LVL21
 9723 018a 8A040000 		.4byte	.LFE136
 9724 018e 0100     		.2byte	0x1
 9725 0190 5B       		.byte	0x5b
 9726 0191 00000000 		.4byte	0
 9727 0195 00000000 		.4byte	0
 9728              	.LLST11:
 9729 0199 14000000 		.4byte	.LVL20
 9730 019d 16000000 		.4byte	.LVL21
 9731 01a1 0100     		.2byte	0x1
 9732 01a3 50       		.byte	0x50
 9733 01a4 16000000 		.4byte	.LVL21
 9734 01a8 8A040000 		.4byte	.LFE136
 9735 01ac 0100     		.2byte	0x1
 9736 01ae 5B       		.byte	0x5b
 9737 01af 00000000 		.4byte	0
 9738 01b3 00000000 		.4byte	0
 9739              	.LLST12:
 9740 01b7 20000000 		.4byte	.LVL23
 9741 01bb 28000000 		.4byte	.LVL25
 9742 01bf 0100     		.2byte	0x1
 9743 01c1 53       		.byte	0x53
 9744 01c2 00000000 		.4byte	0
 9745 01c6 00000000 		.4byte	0
 9746              	.LLST13:
 9747 01ca 60000000 		.4byte	.LVL28
 9748 01ce 62000000 		.4byte	.LVL29
 9749 01d2 0200     		.2byte	0x2
 9750 01d4 30       		.byte	0x30
 9751 01d5 9F       		.byte	0x9f
 9752 01d6 00010000 		.4byte	.LVL58
 9753 01da 0C010000 		.4byte	.LVL60
 9754 01de 0100     		.2byte	0x1
 9755 01e0 52       		.byte	0x52
 9756 01e1 00000000 		.4byte	0
 9757 01e5 00000000 		.4byte	0
 9758              	.LLST14:
 9759 01e9 EE000000 		.4byte	.LVL55
 9760 01ed F6000000 		.4byte	.LVL56
 9761 01f1 0100     		.2byte	0x1
 9762 01f3 55       		.byte	0x55
 9763 01f4 F6000000 		.4byte	.LVL56
 9764 01f8 0C010000 		.4byte	.LVL60
 9765 01fc 0200     		.2byte	0x2
 9766 01fe 91       		.byte	0x91
 9767 01ff 50       		.sleb128 -48
 9768 0200 5C020000 		.4byte	.LVL108
 9769 0204 74020000 		.4byte	.LVL111
 9770 0208 0100     		.2byte	0x1
 9771 020a 55       		.byte	0x55
ARM GAS  /tmp/cc3IGbAH.s 			page 173


 9772 020b 74020000 		.4byte	.LVL111
 9773 020f 8A040000 		.4byte	.LFE136
 9774 0213 0200     		.2byte	0x2
 9775 0215 91       		.byte	0x91
 9776 0216 50       		.sleb128 -48
 9777 0217 00000000 		.4byte	0
 9778 021b 00000000 		.4byte	0
 9779              	.LLST15:
 9780 021f 24000000 		.4byte	.LVL24
 9781 0223 5C000000 		.4byte	.LVL27
 9782 0227 0100     		.2byte	0x1
 9783 0229 58       		.byte	0x58
 9784 022a 60000000 		.4byte	.LVL28
 9785 022e 62000000 		.4byte	.LVL29
 9786 0232 0100     		.2byte	0x1
 9787 0234 53       		.byte	0x53
 9788 0235 62000000 		.4byte	.LVL29
 9789 0239 8A040000 		.4byte	.LFE136
 9790 023d 0100     		.2byte	0x1
 9791 023f 58       		.byte	0x58
 9792 0240 00000000 		.4byte	0
 9793 0244 00000000 		.4byte	0
 9794              	.LLST16:
 9795 0248 6C000000 		.4byte	.LVL30
 9796 024c E2000000 		.4byte	.LVL53
 9797 0250 0100     		.2byte	0x1
 9798 0252 5B       		.byte	0x5b
 9799 0253 0C010000 		.4byte	.LVL60
 9800 0257 5C020000 		.4byte	.LVL108
 9801 025b 0100     		.2byte	0x1
 9802 025d 5B       		.byte	0x5b
 9803 025e 00000000 		.4byte	0
 9804 0262 00000000 		.4byte	0
 9805              	.LLST17:
 9806 0266 72000000 		.4byte	.LVL31
 9807 026a 92000000 		.4byte	.LVL35
 9808 026e 0100     		.2byte	0x1
 9809 0270 55       		.byte	0x55
 9810 0271 0C010000 		.4byte	.LVL60
 9811 0275 1C010000 		.4byte	.LVL62
 9812 0279 0100     		.2byte	0x1
 9813 027b 55       		.byte	0x55
 9814 027c 00000000 		.4byte	0
 9815 0280 00000000 		.4byte	0
 9816              	.LLST18:
 9817 0284 82000000 		.4byte	.LVL32
 9818 0288 92000000 		.4byte	.LVL35
 9819 028c 0900     		.2byte	0x9
 9820 028e 75       		.byte	0x75
 9821 028f 00       		.sleb128 0
 9822 0290 0A       		.byte	0xa
 9823 0291 F07F     		.2byte	0x7ff0
 9824 0293 1A       		.byte	0x1a
 9825 0294 34       		.byte	0x34
 9826 0295 25       		.byte	0x25
 9827 0296 9F       		.byte	0x9f
 9828 0297 16010000 		.4byte	.LVL61
ARM GAS  /tmp/cc3IGbAH.s 			page 174


 9829 029b 94010000 		.4byte	.LVL85
 9830 029f 0100     		.2byte	0x1
 9831 02a1 56       		.byte	0x56
 9832 02a2 98010000 		.4byte	.LVL86
 9833 02a6 5C020000 		.4byte	.LVL108
 9834 02aa 0100     		.2byte	0x1
 9835 02ac 56       		.byte	0x56
 9836 02ad 00000000 		.4byte	0
 9837 02b1 00000000 		.4byte	0
 9838              	.LLST19:
 9839 02b5 82000000 		.4byte	.LVL32
 9840 02b9 86000000 		.4byte	.LVL33
 9841 02bd 0500     		.2byte	0x5
 9842 02bf 75       		.byte	0x75
 9843 02c0 00       		.sleb128 0
 9844 02c1 3F       		.byte	0x3f
 9845 02c2 1A       		.byte	0x1a
 9846 02c3 9F       		.byte	0x9f
 9847 02c4 86000000 		.4byte	.LVL33
 9848 02c8 94000000 		.4byte	.LVL36
 9849 02cc 0100     		.2byte	0x1
 9850 02ce 56       		.byte	0x56
 9851 02cf 94000000 		.4byte	.LVL36
 9852 02d3 A2000000 		.4byte	.LVL40
 9853 02d7 0300     		.2byte	0x3
 9854 02d9 71       		.byte	0x71
 9855 02da 7C       		.sleb128 -4
 9856 02db 9F       		.byte	0x9f
 9857 02dc 16010000 		.4byte	.LVL61
 9858 02e0 8E010000 		.4byte	.LVL84
 9859 02e4 0300     		.2byte	0x3
 9860 02e6 77       		.byte	0x77
 9861 02e7 7C       		.sleb128 -4
 9862 02e8 9F       		.byte	0x9f
 9863 02e9 98010000 		.4byte	.LVL86
 9864 02ed 5C020000 		.4byte	.LVL108
 9865 02f1 0300     		.2byte	0x3
 9866 02f3 77       		.byte	0x77
 9867 02f4 7C       		.sleb128 -4
 9868 02f5 9F       		.byte	0x9f
 9869 02f6 00000000 		.4byte	0
 9870 02fa 00000000 		.4byte	0
 9871              	.LLST20:
 9872 02fe 96000000 		.4byte	.LVL37
 9873 0302 AC000000 		.4byte	.LVL42
 9874 0306 0200     		.2byte	0x2
 9875 0308 32       		.byte	0x32
 9876 0309 9F       		.byte	0x9f
 9877 030a AC000000 		.4byte	.LVL42
 9878 030e B6000000 		.4byte	.LVL44
 9879 0312 0100     		.2byte	0x1
 9880 0314 53       		.byte	0x53
 9881 0315 B6000000 		.4byte	.LVL44
 9882 0319 BC000000 		.4byte	.LVL46
 9883 031d 0200     		.2byte	0x2
 9884 031f 31       		.byte	0x31
 9885 0320 9F       		.byte	0x9f
ARM GAS  /tmp/cc3IGbAH.s 			page 175


 9886 0321 BC000000 		.4byte	.LVL46
 9887 0325 E2000000 		.4byte	.LVL53
 9888 0329 0100     		.2byte	0x1
 9889 032b 53       		.byte	0x53
 9890 032c 00000000 		.4byte	0
 9891 0330 00000000 		.4byte	0
 9892              	.LLST21:
 9893 0334 96000000 		.4byte	.LVL37
 9894 0338 B4000000 		.4byte	.LVL43
 9895 033c 0100     		.2byte	0x1
 9896 033e 56       		.byte	0x56
 9897 033f B4000000 		.4byte	.LVL43
 9898 0343 B8000000 		.4byte	.LVL45
 9899 0347 0300     		.2byte	0x3
 9900 0349 71       		.byte	0x71
 9901 034a 01       		.sleb128 1
 9902 034b 9F       		.byte	0x9f
 9903 034c B8000000 		.4byte	.LVL45
 9904 0350 BC000000 		.4byte	.LVL46
 9905 0354 0300     		.2byte	0x3
 9906 0356 72       		.byte	0x72
 9907 0357 01       		.sleb128 1
 9908 0358 9F       		.byte	0x9f
 9909 0359 00000000 		.4byte	0
 9910 035d 00000000 		.4byte	0
 9911              	.LLST22:
 9912 0361 96000000 		.4byte	.LVL37
 9913 0365 E0000000 		.4byte	.LVL52
 9914 0369 0100     		.2byte	0x1
 9915 036b 57       		.byte	0x57
 9916 036c 00000000 		.4byte	0
 9917 0370 00000000 		.4byte	0
 9918              	.LLST23:
 9919 0374 96000000 		.4byte	.LVL37
 9920 0378 9C000000 		.4byte	.LVL38
 9921 037c 0400     		.2byte	0x4
 9922 037e 70       		.byte	0x70
 9923 037f 8020     		.sleb128 4096
 9924 0381 9F       		.byte	0x9f
 9925 0382 9C000000 		.4byte	.LVL38
 9926 0386 DC000000 		.4byte	.LVL51
 9927 038a 0100     		.2byte	0x1
 9928 038c 50       		.byte	0x50
 9929 038d DC000000 		.4byte	.LVL51
 9930 0391 E2000000 		.4byte	.LVL53
 9931 0395 0700     		.2byte	0x7
 9932 0397 7B       		.byte	0x7b
 9933 0398 3C       		.sleb128 60
 9934 0399 06       		.byte	0x6
 9935 039a 23       		.byte	0x23
 9936 039b 8020     		.uleb128 0x1000
 9937 039d 9F       		.byte	0x9f
 9938 039e 00000000 		.4byte	0
 9939 03a2 00000000 		.4byte	0
 9940              	.LLST24:
 9941 03a6 A0000000 		.4byte	.LVL39
 9942 03aa AC000000 		.4byte	.LVL42
ARM GAS  /tmp/cc3IGbAH.s 			page 176


 9943 03ae 0100     		.2byte	0x1
 9944 03b0 53       		.byte	0x53
 9945 03b1 AC000000 		.4byte	.LVL42
 9946 03b5 B4000000 		.4byte	.LVL43
 9947 03b9 0200     		.2byte	0x2
 9948 03bb 77       		.byte	0x77
 9949 03bc 7C       		.sleb128 -4
 9950 03bd 00000000 		.4byte	0
 9951 03c1 00000000 		.4byte	0
 9952              	.LLST25:
 9953 03c5 28010000 		.4byte	.LVL64
 9954 03c9 2A010000 		.4byte	.LVL65
 9955 03cd 0600     		.2byte	0x6
 9956 03cf 71       		.byte	0x71
 9957 03d0 00       		.sleb128 0
 9958 03d1 73       		.byte	0x73
 9959 03d2 00       		.sleb128 0
 9960 03d3 1C       		.byte	0x1c
 9961 03d4 9F       		.byte	0x9f
 9962 03d5 2A010000 		.4byte	.LVL65
 9963 03d9 2C010000 		.4byte	.LVL66
 9964 03dd 0700     		.2byte	0x7
 9965 03df 75       		.byte	0x75
 9966 03e0 04       		.sleb128 4
 9967 03e1 06       		.byte	0x6
 9968 03e2 73       		.byte	0x73
 9969 03e3 00       		.sleb128 0
 9970 03e4 1C       		.byte	0x1c
 9971 03e5 9F       		.byte	0x9f
 9972 03e6 2C010000 		.4byte	.LVL66
 9973 03ea 30010000 		.4byte	.LVL68
 9974 03ee 0800     		.2byte	0x8
 9975 03f0 75       		.byte	0x75
 9976 03f1 04       		.sleb128 4
 9977 03f2 06       		.byte	0x6
 9978 03f3 75       		.byte	0x75
 9979 03f4 08       		.sleb128 8
 9980 03f5 06       		.byte	0x6
 9981 03f6 1C       		.byte	0x1c
 9982 03f7 9F       		.byte	0x9f
 9983 03f8 30010000 		.4byte	.LVL68
 9984 03fc 8A010000 		.4byte	.LVL83
 9985 0400 0100     		.2byte	0x1
 9986 0402 53       		.byte	0x53
 9987 0403 00000000 		.4byte	0
 9988 0407 00000000 		.4byte	0
 9989              	.LLST26:
 9990 040b 28010000 		.4byte	.LVL64
 9991 040f 2E010000 		.4byte	.LVL67
 9992 0413 0100     		.2byte	0x1
 9993 0415 56       		.byte	0x56
 9994 0416 2E010000 		.4byte	.LVL67
 9995 041a 32010000 		.4byte	.LVL69
 9996 041e 0500     		.2byte	0x5
 9997 0420 71       		.byte	0x71
 9998 0421 00       		.sleb128 0
 9999 0422 32       		.byte	0x32
ARM GAS  /tmp/cc3IGbAH.s 			page 177


 10000 0423 25       		.byte	0x25
 10001 0424 9F       		.byte	0x9f
 10002 0425 32010000 		.4byte	.LVL69
 10003 0429 4E010000 		.4byte	.LVL74
 10004 042d 0100     		.2byte	0x1
 10005 042f 51       		.byte	0x51
 10006 0430 4E010000 		.4byte	.LVL74
 10007 0434 5A010000 		.4byte	.LVL75
 10008 0438 0300     		.2byte	0x3
 10009 043a 79       		.byte	0x79
 10010 043b 01       		.sleb128 1
 10011 043c 9F       		.byte	0x9f
 10012 043d 5A010000 		.4byte	.LVL75
 10013 0441 62010000 		.4byte	.LVL77
 10014 0445 0500     		.2byte	0x5
 10015 0447 76       		.byte	0x76
 10016 0448 03       		.sleb128 3
 10017 0449 32       		.byte	0x32
 10018 044a 25       		.byte	0x25
 10019 044b 9F       		.byte	0x9f
 10020 044c 00000000 		.4byte	0
 10021 0450 00000000 		.4byte	0
 10022              	.LLST27:
 10023 0454 28010000 		.4byte	.LVL64
 10024 0458 86010000 		.4byte	.LVL82
 10025 045c 0100     		.2byte	0x1
 10026 045e 52       		.byte	0x52
 10027 045f 00000000 		.4byte	0
 10028 0463 00000000 		.4byte	0
 10029              	.LLST28:
 10030 0467 28010000 		.4byte	.LVL64
 10031 046b 38010000 		.4byte	.LVL70
 10032 046f 0400     		.2byte	0x4
 10033 0471 70       		.byte	0x70
 10034 0472 8020     		.sleb128 4096
 10035 0474 9F       		.byte	0x9f
 10036 0475 38010000 		.4byte	.LVL70
 10037 0479 86010000 		.4byte	.LVL82
 10038 047d 0100     		.2byte	0x1
 10039 047f 50       		.byte	0x50
 10040 0480 86010000 		.4byte	.LVL82
 10041 0484 8A010000 		.4byte	.LVL83
 10042 0488 0700     		.2byte	0x7
 10043 048a 7B       		.byte	0x7b
 10044 048b 3C       		.sleb128 60
 10045 048c 06       		.byte	0x6
 10046 048d 23       		.byte	0x23
 10047 048e 8020     		.uleb128 0x1000
 10048 0490 9F       		.byte	0x9f
 10049 0491 00000000 		.4byte	0
 10050 0495 00000000 		.4byte	0
 10051              	.LLST29:
 10052 0499 44010000 		.4byte	.LVL71
 10053 049d 5A010000 		.4byte	.LVL75
 10054 04a1 0100     		.2byte	0x1
 10055 04a3 5C       		.byte	0x5c
 10056 04a4 00000000 		.4byte	0
ARM GAS  /tmp/cc3IGbAH.s 			page 178


 10057 04a8 00000000 		.4byte	0
 10058              	.LLST30:
 10059 04ac 9E010000 		.4byte	.LVL87
 10060 04b0 5C020000 		.4byte	.LVL108
 10061 04b4 0100     		.2byte	0x1
 10062 04b6 56       		.byte	0x56
 10063 04b7 00000000 		.4byte	0
 10064 04bb 00000000 		.4byte	0
 10065              	.LLST31:
 10066 04bf 9E010000 		.4byte	.LVL87
 10067 04c3 5C020000 		.4byte	.LVL108
 10068 04c7 0100     		.2byte	0x1
 10069 04c9 55       		.byte	0x55
 10070 04ca 00000000 		.4byte	0
 10071 04ce 00000000 		.4byte	0
 10072              	.LLST32:
 10073 04d2 9E010000 		.4byte	.LVL87
 10074 04d6 2E020000 		.4byte	.LVL101
 10075 04da 0100     		.2byte	0x1
 10076 04dc 50       		.byte	0x50
 10077 04dd 2E020000 		.4byte	.LVL101
 10078 04e1 36020000 		.4byte	.LVL102
 10079 04e5 0700     		.2byte	0x7
 10080 04e7 7B       		.byte	0x7b
 10081 04e8 3C       		.sleb128 60
 10082 04e9 06       		.byte	0x6
 10083 04ea 23       		.byte	0x23
 10084 04eb 8020     		.uleb128 0x1000
 10085 04ed 9F       		.byte	0x9f
 10086 04ee 00000000 		.4byte	0
 10087 04f2 00000000 		.4byte	0
 10088              	.LLST33:
 10089 04f6 9E010000 		.4byte	.LVL87
 10090 04fa A6010000 		.4byte	.LVL88
 10091 04fe 0100     		.2byte	0x1
 10092 0500 56       		.byte	0x56
 10093 0501 A6010000 		.4byte	.LVL88
 10094 0505 BE010000 		.4byte	.LVL92
 10095 0509 0100     		.2byte	0x1
 10096 050b 53       		.byte	0x53
 10097 050c BE010000 		.4byte	.LVL92
 10098 0510 D2010000 		.4byte	.LVL93
 10099 0514 0300     		.2byte	0x3
 10100 0516 73       		.byte	0x73
 10101 0517 7F       		.sleb128 -1
 10102 0518 9F       		.byte	0x9f
 10103 0519 D2010000 		.4byte	.LVL93
 10104 051d EE010000 		.4byte	.LVL94
 10105 0521 0300     		.2byte	0x3
 10106 0523 73       		.byte	0x73
 10107 0524 7E       		.sleb128 -2
 10108 0525 9F       		.byte	0x9f
 10109 0526 EE010000 		.4byte	.LVL94
 10110 052a 0A020000 		.4byte	.LVL95
 10111 052e 0300     		.2byte	0x3
 10112 0530 73       		.byte	0x73
 10113 0531 7D       		.sleb128 -3
ARM GAS  /tmp/cc3IGbAH.s 			page 179


 10114 0532 9F       		.byte	0x9f
 10115 0533 0A020000 		.4byte	.LVL95
 10116 0537 20020000 		.4byte	.LVL97
 10117 053b 0300     		.2byte	0x3
 10118 053d 73       		.byte	0x73
 10119 053e 7C       		.sleb128 -4
 10120 053f 9F       		.byte	0x9f
 10121 0540 20020000 		.4byte	.LVL97
 10122 0544 22020000 		.4byte	.LVL98
 10123 0548 0100     		.2byte	0x1
 10124 054a 53       		.byte	0x53
 10125 054b 00000000 		.4byte	0
 10126 054f 00000000 		.4byte	0
 10127              	.LLST34:
 10128 0553 BE010000 		.4byte	.LVL92
 10129 0557 0E020000 		.4byte	.LVL96
 10130 055b 0100     		.2byte	0x1
 10131 055d 52       		.byte	0x52
 10132 055e 00000000 		.4byte	0
 10133 0562 00000000 		.4byte	0
 10134              	.LLST35:
 10135 0566 BE010000 		.4byte	.LVL92
 10136 056a D2010000 		.4byte	.LVL93
 10137 056e 0200     		.2byte	0x2
 10138 0570 31       		.byte	0x31
 10139 0571 9F       		.byte	0x9f
 10140 0572 D2010000 		.4byte	.LVL93
 10141 0576 EE010000 		.4byte	.LVL94
 10142 057a 0200     		.2byte	0x2
 10143 057c 32       		.byte	0x32
 10144 057d 9F       		.byte	0x9f
 10145 057e EE010000 		.4byte	.LVL94
 10146 0582 0A020000 		.4byte	.LVL95
 10147 0586 0200     		.2byte	0x2
 10148 0588 33       		.byte	0x33
 10149 0589 9F       		.byte	0x9f
 10150 058a 0A020000 		.4byte	.LVL95
 10151 058e 22020000 		.4byte	.LVL98
 10152 0592 0200     		.2byte	0x2
 10153 0594 34       		.byte	0x34
 10154 0595 9F       		.byte	0x9f
 10155 0596 00000000 		.4byte	0
 10156 059a 00000000 		.4byte	0
 10157              	.LLST36:
 10158 059e A6010000 		.4byte	.LVL88
 10159 05a2 AC010000 		.4byte	.LVL89
 10160 05a6 0500     		.2byte	0x5
 10161 05a8 73       		.byte	0x73
 10162 05a9 00       		.sleb128 0
 10163 05aa 32       		.byte	0x32
 10164 05ab 25       		.byte	0x25
 10165 05ac 9F       		.byte	0x9f
 10166 05ad B8010000 		.4byte	.LVL90
 10167 05b1 BC010000 		.4byte	.LVL91
 10168 05b5 0500     		.2byte	0x5
 10169 05b7 73       		.byte	0x73
 10170 05b8 00       		.sleb128 0
ARM GAS  /tmp/cc3IGbAH.s 			page 180


 10171 05b9 32       		.byte	0x32
 10172 05ba 25       		.byte	0x25
 10173 05bb 9F       		.byte	0x9f
 10174 05bc 00000000 		.4byte	0
 10175 05c0 00000000 		.4byte	0
 10176              	.LLST37:
 10177 05c4 AC010000 		.4byte	.LVL89
 10178 05c8 BC010000 		.4byte	.LVL91
 10179 05cc 0200     		.2byte	0x2
 10180 05ce 30       		.byte	0x30
 10181 05cf 9F       		.byte	0x9f
 10182 05d0 00000000 		.4byte	0
 10183 05d4 00000000 		.4byte	0
 10184              	.LLST39:
 10185 05d8 2A020000 		.4byte	.LVL100
 10186 05dc 38020000 		.4byte	.LVL103
 10187 05e0 0100     		.2byte	0x1
 10188 05e2 53       		.byte	0x53
 10189 05e3 4A020000 		.4byte	.LVL105
 10190 05e7 4D020000 		.4byte	.LVL106-1
 10191 05eb 0100     		.2byte	0x1
 10192 05ed 53       		.byte	0x53
 10193 05ee 00000000 		.4byte	0
 10194 05f2 00000000 		.4byte	0
 10195              	.LLST40:
 10196 05f6 36020000 		.4byte	.LVL102
 10197 05fa 4A020000 		.4byte	.LVL105
 10198 05fe 0100     		.2byte	0x1
 10199 0600 55       		.byte	0x55
 10200 0601 00000000 		.4byte	0
 10201 0605 00000000 		.4byte	0
 10202              	.LLST41:
 10203 0609 36020000 		.4byte	.LVL102
 10204 060d 3F020000 		.4byte	.LVL104-1
 10205 0611 0100     		.2byte	0x1
 10206 0613 50       		.byte	0x50
 10207 0614 00000000 		.4byte	0
 10208 0618 00000000 		.4byte	0
 10209              	.LLST42:
 10210 061c 62000000 		.4byte	.LVL29
 10211 0620 90000000 		.4byte	.LVL34
 10212 0624 0100     		.2byte	0x1
 10213 0626 53       		.byte	0x53
 10214 0627 E2000000 		.4byte	.LVL53
 10215 062b E8000000 		.4byte	.LVL54
 10216 062f 0100     		.2byte	0x1
 10217 0631 53       		.byte	0x53
 10218 0632 0C010000 		.4byte	.LVL60
 10219 0636 1E010000 		.4byte	.LVL63
 10220 063a 0100     		.2byte	0x1
 10221 063c 53       		.byte	0x53
 10222 063d 8A010000 		.4byte	.LVL83
 10223 0641 98010000 		.4byte	.LVL86
 10224 0645 0100     		.2byte	0x1
 10225 0647 53       		.byte	0x53
 10226 0648 54020000 		.4byte	.LVL107
 10227 064c 5C020000 		.4byte	.LVL108
ARM GAS  /tmp/cc3IGbAH.s 			page 181


 10228 0650 0100     		.2byte	0x1
 10229 0652 53       		.byte	0x53
 10230 0653 00000000 		.4byte	0
 10231 0657 00000000 		.4byte	0
 10232              	.LLST43:
 10233 065b 24000000 		.4byte	.LVL24
 10234 065f 28000000 		.4byte	.LVL25
 10235 0663 0100     		.2byte	0x1
 10236 0665 53       		.byte	0x53
 10237 0666 0A010000 		.4byte	.LVL59
 10238 066a 0C010000 		.4byte	.LVL60
 10239 066e 0100     		.2byte	0x1
 10240 0670 53       		.byte	0x53
 10241 0671 00000000 		.4byte	0
 10242 0675 00000000 		.4byte	0
 10243              	.LLST44:
 10244 0679 62020000 		.4byte	.LVL110
 10245 067d 7A020000 		.4byte	.LVL112
 10246 0681 0100     		.2byte	0x1
 10247 0683 53       		.byte	0x53
 10248 0684 00000000 		.4byte	0
 10249 0688 00000000 		.4byte	0
 10250              	.LLST45:
 10251 068c 82020000 		.4byte	.LVL113
 10252 0690 8E020000 		.4byte	.LVL114
 10253 0694 0100     		.2byte	0x1
 10254 0696 53       		.byte	0x53
 10255 0697 00000000 		.4byte	0
 10256 069b 00000000 		.4byte	0
 10257              	.LLST46:
 10258 069f 82020000 		.4byte	.LVL113
 10259 06a3 B2020000 		.4byte	.LVL117
 10260 06a7 0100     		.2byte	0x1
 10261 06a9 54       		.byte	0x54
 10262 06aa B2020000 		.4byte	.LVL117
 10263 06ae C0020000 		.4byte	.LVL118
 10264 06b2 0300     		.2byte	0x3
 10265 06b4 74       		.byte	0x74
 10266 06b5 7F       		.sleb128 -1
 10267 06b6 9F       		.byte	0x9f
 10268 06b7 C0020000 		.4byte	.LVL118
 10269 06bb 44030000 		.4byte	.LVL131
 10270 06bf 0600     		.2byte	0x6
 10271 06c1 91       		.byte	0x91
 10272 06c2 54       		.sleb128 -44
 10273 06c3 06       		.byte	0x6
 10274 06c4 31       		.byte	0x31
 10275 06c5 1C       		.byte	0x1c
 10276 06c6 9F       		.byte	0x9f
 10277 06c7 44030000 		.4byte	.LVL131
 10278 06cb 82040000 		.4byte	.LVL171
 10279 06cf 0600     		.2byte	0x6
 10280 06d1 91       		.byte	0x91
 10281 06d2 48       		.sleb128 -56
 10282 06d3 06       		.byte	0x6
 10283 06d4 34       		.byte	0x34
 10284 06d5 1C       		.byte	0x1c
ARM GAS  /tmp/cc3IGbAH.s 			page 182


 10285 06d6 9F       		.byte	0x9f
 10286 06d7 82040000 		.4byte	.LVL171
 10287 06db 86040000 		.4byte	.LVL172
 10288 06df 0100     		.2byte	0x1
 10289 06e1 54       		.byte	0x54
 10290 06e2 86040000 		.4byte	.LVL172
 10291 06e6 8A040000 		.4byte	.LFE136
 10292 06ea 0600     		.2byte	0x6
 10293 06ec 91       		.byte	0x91
 10294 06ed 48       		.sleb128 -56
 10295 06ee 06       		.byte	0x6
 10296 06ef 34       		.byte	0x34
 10297 06f0 1C       		.byte	0x1c
 10298 06f1 9F       		.byte	0x9f
 10299 06f2 00000000 		.4byte	0
 10300 06f6 00000000 		.4byte	0
 10301              	.LLST47:
 10302 06fa A2020000 		.4byte	.LVL115
 10303 06fe AE020000 		.4byte	.LVL116
 10304 0702 0100     		.2byte	0x1
 10305 0704 50       		.byte	0x50
 10306 0705 AE020000 		.4byte	.LVL116
 10307 0709 26030000 		.4byte	.LVL128
 10308 070d 0100     		.2byte	0x1
 10309 070f 55       		.byte	0x55
 10310 0710 30030000 		.4byte	.LVL129
 10311 0714 44030000 		.4byte	.LVL131
 10312 0718 0100     		.2byte	0x1
 10313 071a 55       		.byte	0x55
 10314 071b 6E030000 		.4byte	.LVL136
 10315 071f 7E030000 		.4byte	.LVL138
 10316 0723 0100     		.2byte	0x1
 10317 0725 55       		.byte	0x55
 10318 0726 7E030000 		.4byte	.LVL138
 10319 072a E4030000 		.4byte	.LVL151
 10320 072e 0100     		.2byte	0x1
 10321 0730 5E       		.byte	0x5e
 10322 0731 E4030000 		.4byte	.LVL151
 10323 0735 16040000 		.4byte	.LVL161
 10324 0739 0100     		.2byte	0x1
 10325 073b 55       		.byte	0x55
 10326 073c 16040000 		.4byte	.LVL161
 10327 0740 82040000 		.4byte	.LVL171
 10328 0744 0100     		.2byte	0x1
 10329 0746 5E       		.byte	0x5e
 10330 0747 00000000 		.4byte	0
 10331 074b 00000000 		.4byte	0
 10332              	.LLST48:
 10333 074f D0020000 		.4byte	.LVL119
 10334 0753 0E030000 		.4byte	.LVL126
 10335 0757 0100     		.2byte	0x1
 10336 0759 55       		.byte	0x55
 10337 075a 00000000 		.4byte	0
 10338 075e 00000000 		.4byte	0
 10339              	.LLST49:
 10340 0762 D0020000 		.4byte	.LVL119
 10341 0766 D8020000 		.4byte	.LVL120
ARM GAS  /tmp/cc3IGbAH.s 			page 183


 10342 076a 0100     		.2byte	0x1
 10343 076c 51       		.byte	0x51
 10344 076d D8020000 		.4byte	.LVL120
 10345 0771 0E030000 		.4byte	.LVL126
 10346 0775 0200     		.2byte	0x2
 10347 0777 72       		.byte	0x72
 10348 0778 0C       		.sleb128 12
 10349 0779 00000000 		.4byte	0
 10350 077d 00000000 		.4byte	0
 10351              	.LLST50:
 10352 0781 D0020000 		.4byte	.LVL119
 10353 0785 0C030000 		.4byte	.LVL125
 10354 0789 0100     		.2byte	0x1
 10355 078b 50       		.byte	0x50
 10356 078c 00000000 		.4byte	0
 10357 0790 00000000 		.4byte	0
 10358              	.LLST51:
 10359 0794 D0020000 		.4byte	.LVL119
 10360 0798 DE020000 		.4byte	.LVL121
 10361 079c 0100     		.2byte	0x1
 10362 079e 57       		.byte	0x57
 10363 079f DE020000 		.4byte	.LVL121
 10364 07a3 F2020000 		.4byte	.LVL123
 10365 07a7 0300     		.2byte	0x3
 10366 07a9 73       		.byte	0x73
 10367 07aa 01       		.sleb128 1
 10368 07ab 9F       		.byte	0x9f
 10369 07ac F2020000 		.4byte	.LVL123
 10370 07b0 F4020000 		.4byte	.LVL124
 10371 07b4 0300     		.2byte	0x3
 10372 07b6 73       		.byte	0x73
 10373 07b7 02       		.sleb128 2
 10374 07b8 9F       		.byte	0x9f
 10375 07b9 00000000 		.4byte	0
 10376 07bd 00000000 		.4byte	0
 10377              	.LLST52:
 10378 07c1 D0020000 		.4byte	.LVL119
 10379 07c5 D8020000 		.4byte	.LVL120
 10380 07c9 0100     		.2byte	0x1
 10381 07cb 51       		.byte	0x51
 10382 07cc D8020000 		.4byte	.LVL120
 10383 07d0 E6020000 		.4byte	.LVL122
 10384 07d4 0200     		.2byte	0x2
 10385 07d6 72       		.byte	0x72
 10386 07d7 0C       		.sleb128 12
 10387 07d8 00000000 		.4byte	0
 10388 07dc 00000000 		.4byte	0
 10389              	.LLST54:
 10390 07e0 74030000 		.4byte	.LVL137
 10391 07e4 7E030000 		.4byte	.LVL138
 10392 07e8 0100     		.2byte	0x1
 10393 07ea 55       		.byte	0x55
 10394 07eb 7E030000 		.4byte	.LVL138
 10395 07ef E4030000 		.4byte	.LVL151
 10396 07f3 0100     		.2byte	0x1
 10397 07f5 5E       		.byte	0x5e
 10398 07f6 E4030000 		.4byte	.LVL151
ARM GAS  /tmp/cc3IGbAH.s 			page 184


 10399 07fa 16040000 		.4byte	.LVL161
 10400 07fe 0100     		.2byte	0x1
 10401 0800 55       		.byte	0x55
 10402 0801 16040000 		.4byte	.LVL161
 10403 0805 82040000 		.4byte	.LVL171
 10404 0809 0100     		.2byte	0x1
 10405 080b 5E       		.byte	0x5e
 10406 080c 00000000 		.4byte	0
 10407 0810 00000000 		.4byte	0
 10408              	.LLST55:
 10409 0814 74030000 		.4byte	.LVL137
 10410 0818 82040000 		.4byte	.LVL171
 10411 081c 0100     		.2byte	0x1
 10412 081e 54       		.byte	0x54
 10413 081f 00000000 		.4byte	0
 10414 0823 00000000 		.4byte	0
 10415              	.LLST56:
 10416 0827 74030000 		.4byte	.LVL137
 10417 082b EC030000 		.4byte	.LVL154
 10418 082f 0100     		.2byte	0x1
 10419 0831 51       		.byte	0x51
 10420 0832 16040000 		.4byte	.LVL161
 10421 0836 82040000 		.4byte	.LVL171
 10422 083a 0100     		.2byte	0x1
 10423 083c 51       		.byte	0x51
 10424 083d 00000000 		.4byte	0
 10425 0841 00000000 		.4byte	0
 10426              	.LLST57:
 10427 0845 74030000 		.4byte	.LVL137
 10428 0849 7E030000 		.4byte	.LVL138
 10429 084d 0100     		.2byte	0x1
 10430 084f 55       		.byte	0x55
 10431 0850 7E030000 		.4byte	.LVL138
 10432 0854 E4030000 		.4byte	.LVL151
 10433 0858 0100     		.2byte	0x1
 10434 085a 52       		.byte	0x52
 10435 085b 16040000 		.4byte	.LVL161
 10436 085f 20040000 		.4byte	.LVL163
 10437 0863 0100     		.2byte	0x1
 10438 0865 52       		.byte	0x52
 10439 0866 20040000 		.4byte	.LVL163
 10440 086a 44040000 		.4byte	.LVL164
 10441 086e 0300     		.2byte	0x3
 10442 0870 72       		.byte	0x72
 10443 0871 7F       		.sleb128 -1
 10444 0872 9F       		.byte	0x9f
 10445 0873 44040000 		.4byte	.LVL164
 10446 0877 5C040000 		.4byte	.LVL165
 10447 087b 0300     		.2byte	0x3
 10448 087d 72       		.byte	0x72
 10449 087e 7E       		.sleb128 -2
 10450 087f 9F       		.byte	0x9f
 10451 0880 5C040000 		.4byte	.LVL165
 10452 0884 70040000 		.4byte	.LVL166
 10453 0888 0300     		.2byte	0x3
 10454 088a 72       		.byte	0x72
 10455 088b 7D       		.sleb128 -3
ARM GAS  /tmp/cc3IGbAH.s 			page 185


 10456 088c 9F       		.byte	0x9f
 10457 088d 70040000 		.4byte	.LVL166
 10458 0891 74040000 		.4byte	.LVL167
 10459 0895 0300     		.2byte	0x3
 10460 0897 72       		.byte	0x72
 10461 0898 01       		.sleb128 1
 10462 0899 9F       		.byte	0x9f
 10463 089a 78040000 		.4byte	.LVL169
 10464 089e 7E040000 		.4byte	.LVL170
 10465 08a2 0100     		.2byte	0x1
 10466 08a4 52       		.byte	0x52
 10467 08a5 00000000 		.4byte	0
 10468 08a9 00000000 		.4byte	0
 10469              	.LLST58:
 10470 08ad 1A040000 		.4byte	.LVL162
 10471 08b1 20040000 		.4byte	.LVL163
 10472 08b5 0200     		.2byte	0x2
 10473 08b7 30       		.byte	0x30
 10474 08b8 9F       		.byte	0x9f
 10475 08b9 20040000 		.4byte	.LVL163
 10476 08bd 82040000 		.4byte	.LVL171
 10477 08c1 0100     		.2byte	0x1
 10478 08c3 53       		.byte	0x53
 10479 08c4 00000000 		.4byte	0
 10480 08c8 00000000 		.4byte	0
 10481              	.LLST59:
 10482 08cc 1A040000 		.4byte	.LVL162
 10483 08d0 20040000 		.4byte	.LVL163
 10484 08d4 0200     		.2byte	0x2
 10485 08d6 30       		.byte	0x30
 10486 08d7 9F       		.byte	0x9f
 10487 08d8 20040000 		.4byte	.LVL163
 10488 08dc 44040000 		.4byte	.LVL164
 10489 08e0 0200     		.2byte	0x2
 10490 08e2 31       		.byte	0x31
 10491 08e3 9F       		.byte	0x9f
 10492 08e4 44040000 		.4byte	.LVL164
 10493 08e8 5C040000 		.4byte	.LVL165
 10494 08ec 0200     		.2byte	0x2
 10495 08ee 32       		.byte	0x32
 10496 08ef 9F       		.byte	0x9f
 10497 08f0 5C040000 		.4byte	.LVL165
 10498 08f4 74040000 		.4byte	.LVL167
 10499 08f8 0200     		.2byte	0x2
 10500 08fa 33       		.byte	0x33
 10501 08fb 9F       		.byte	0x9f
 10502 08fc 74040000 		.4byte	.LVL167
 10503 0900 76040000 		.4byte	.LVL168
 10504 0904 0200     		.2byte	0x2
 10505 0906 34       		.byte	0x34
 10506 0907 9F       		.byte	0x9f
 10507 0908 00000000 		.4byte	0
 10508 090c 00000000 		.4byte	0
 10509              	.LLST60:
 10510 0910 7E030000 		.4byte	.LVL138
 10511 0914 80030000 		.4byte	.LVL139
 10512 0918 0500     		.2byte	0x5
ARM GAS  /tmp/cc3IGbAH.s 			page 186


 10513 091a 72       		.byte	0x72
 10514 091b 00       		.sleb128 0
 10515 091c 32       		.byte	0x32
 10516 091d 25       		.byte	0x25
 10517 091e 9F       		.byte	0x9f
 10518 091f 80030000 		.4byte	.LVL139
 10519 0923 A0030000 		.4byte	.LVL143
 10520 0927 0100     		.2byte	0x1
 10521 0929 57       		.byte	0x57
 10522 092a 00000000 		.4byte	0
 10523 092e 00000000 		.4byte	0
 10524              	.LLST61:
 10525 0932 92030000 		.4byte	.LVL141
 10526 0936 A6030000 		.4byte	.LVL144
 10527 093a 0100     		.2byte	0x1
 10528 093c 53       		.byte	0x53
 10529 093d A6030000 		.4byte	.LVL144
 10530 0941 BC030000 		.4byte	.LVL146
 10531 0945 0300     		.2byte	0x3
 10532 0947 73       		.byte	0x73
 10533 0948 01       		.sleb128 1
 10534 0949 9F       		.byte	0x9f
 10535 094a BC030000 		.4byte	.LVL146
 10536 094e C0030000 		.4byte	.LVL148
 10537 0952 0300     		.2byte	0x3
 10538 0954 73       		.byte	0x73
 10539 0955 02       		.sleb128 2
 10540 0956 9F       		.byte	0x9f
 10541 0957 00000000 		.4byte	0
 10542 095b 00000000 		.4byte	0
 10543              	.LLST62:
 10544 095f 84030000 		.4byte	.LVL140
 10545 0963 D4030000 		.4byte	.LVL149
 10546 0967 0800     		.2byte	0x8
 10547 0969 70       		.byte	0x70
 10548 096a 00       		.sleb128 0
 10549 096b 75       		.byte	0x75
 10550 096c 00       		.sleb128 0
 10551 096d 1C       		.byte	0x1c
 10552 096e 34       		.byte	0x34
 10553 096f 1B       		.byte	0x1b
 10554 0970 9F       		.byte	0x9f
 10555 0971 D4030000 		.4byte	.LVL149
 10556 0975 E2030000 		.4byte	.LVL150
 10557 0979 0900     		.2byte	0x9
 10558 097b 70       		.byte	0x70
 10559 097c 00       		.sleb128 0
 10560 097d 74       		.byte	0x74
 10561 097e 18       		.sleb128 24
 10562 097f 06       		.byte	0x6
 10563 0980 1C       		.byte	0x1c
 10564 0981 34       		.byte	0x34
 10565 0982 1B       		.byte	0x1b
 10566 0983 9F       		.byte	0x9f
 10567 0984 16040000 		.4byte	.LVL161
 10568 0988 1A040000 		.4byte	.LVL162
 10569 098c 0900     		.2byte	0x9
ARM GAS  /tmp/cc3IGbAH.s 			page 187


 10570 098e 70       		.byte	0x70
 10571 098f 00       		.sleb128 0
 10572 0990 74       		.byte	0x74
 10573 0991 18       		.sleb128 24
 10574 0992 06       		.byte	0x6
 10575 0993 1C       		.byte	0x1c
 10576 0994 34       		.byte	0x34
 10577 0995 1B       		.byte	0x1b
 10578 0996 9F       		.byte	0x9f
 10579 0997 00000000 		.4byte	0
 10580 099b 00000000 		.4byte	0
 10581              	.LLST63:
 10582 099f 9A030000 		.4byte	.LVL142
 10583 09a3 AA030000 		.4byte	.LVL145
 10584 09a7 0100     		.2byte	0x1
 10585 09a9 55       		.byte	0x55
 10586 09aa 00000000 		.4byte	0
 10587 09ae 00000000 		.4byte	0
 10588              	.LLST64:
 10589 09b2 9A030000 		.4byte	.LVL142
 10590 09b6 A6030000 		.4byte	.LVL144
 10591 09ba 0100     		.2byte	0x1
 10592 09bc 53       		.byte	0x53
 10593 09bd A6030000 		.4byte	.LVL144
 10594 09c1 BC030000 		.4byte	.LVL146
 10595 09c5 0300     		.2byte	0x3
 10596 09c7 73       		.byte	0x73
 10597 09c8 01       		.sleb128 1
 10598 09c9 9F       		.byte	0x9f
 10599 09ca BC030000 		.4byte	.LVL146
 10600 09ce BE030000 		.4byte	.LVL147
 10601 09d2 0300     		.2byte	0x3
 10602 09d4 73       		.byte	0x73
 10603 09d5 02       		.sleb128 2
 10604 09d6 9F       		.byte	0x9f
 10605 09d7 00000000 		.4byte	0
 10606 09db 00000000 		.4byte	0
 10607              	.LLST65:
 10608 09df EA030000 		.4byte	.LVL153
 10609 09e3 F8030000 		.4byte	.LVL156
 10610 09e7 0100     		.2byte	0x1
 10611 09e9 53       		.byte	0x53
 10612 09ea 0A040000 		.4byte	.LVL158
 10613 09ee 0D040000 		.4byte	.LVL159-1
 10614 09f2 0100     		.2byte	0x1
 10615 09f4 53       		.byte	0x53
 10616 09f5 00000000 		.4byte	0
 10617 09f9 00000000 		.4byte	0
 10618              	.LLST66:
 10619 09fd F6030000 		.4byte	.LVL155
 10620 0a01 0A040000 		.4byte	.LVL158
 10621 0a05 0100     		.2byte	0x1
 10622 0a07 54       		.byte	0x54
 10623 0a08 00000000 		.4byte	0
 10624 0a0c 00000000 		.4byte	0
 10625              	.LLST67:
 10626 0a10 F6030000 		.4byte	.LVL155
ARM GAS  /tmp/cc3IGbAH.s 			page 188


 10627 0a14 FF030000 		.4byte	.LVL157-1
 10628 0a18 0100     		.2byte	0x1
 10629 0a1a 50       		.byte	0x50
 10630 0a1b 00000000 		.4byte	0
 10631 0a1f 00000000 		.4byte	0
 10632              	.LLST68:
 10633 0a23 0E030000 		.4byte	.LVL126
 10634 0a27 1C030000 		.4byte	.LVL127
 10635 0a2b 0100     		.2byte	0x1
 10636 0a2d 53       		.byte	0x53
 10637 0a2e 14040000 		.4byte	.LVL160
 10638 0a32 16040000 		.4byte	.LVL161
 10639 0a36 0100     		.2byte	0x1
 10640 0a38 53       		.byte	0x53
 10641 0a39 00000000 		.4byte	0
 10642 0a3d 00000000 		.4byte	0
 10643              	.LLST69:
 10644 0a41 4A030000 		.4byte	.LVL133
 10645 0a45 68030000 		.4byte	.LVL134
 10646 0a49 0100     		.2byte	0x1
 10647 0a4b 53       		.byte	0x53
 10648 0a4c 00000000 		.4byte	0
 10649 0a50 00000000 		.4byte	0
 10650              	.LLST70:
 10651 0a54 F6000000 		.4byte	.LVL56
 10652 0a58 FE000000 		.4byte	.LVL57
 10653 0a5c 0100     		.2byte	0x1
 10654 0a5e 53       		.byte	0x53
 10655 0a5f 6C030000 		.4byte	.LVL135
 10656 0a63 6E030000 		.4byte	.LVL136
 10657 0a67 0100     		.2byte	0x1
 10658 0a69 53       		.byte	0x53
 10659 0a6a 00000000 		.4byte	0
 10660 0a6e 00000000 		.4byte	0
 10661              	.LLST71:
 10662 0a72 00000000 		.4byte	.LFB133
 10663 0a76 02000000 		.4byte	.LCFI4
 10664 0a7a 0200     		.2byte	0x2
 10665 0a7c 7D       		.byte	0x7d
 10666 0a7d 00       		.sleb128 0
 10667 0a7e 02000000 		.4byte	.LCFI4
 10668 0a82 80000000 		.4byte	.LFE133
 10669 0a86 0200     		.2byte	0x2
 10670 0a88 7D       		.byte	0x7d
 10671 0a89 18       		.sleb128 24
 10672 0a8a 00000000 		.4byte	0
 10673 0a8e 00000000 		.4byte	0
 10674              	.LLST72:
 10675 0a92 00000000 		.4byte	.LVL173
 10676 0a96 24000000 		.4byte	.LVL176
 10677 0a9a 0100     		.2byte	0x1
 10678 0a9c 50       		.byte	0x50
 10679 0a9d 24000000 		.4byte	.LVL176
 10680 0aa1 64000000 		.4byte	.LVL184
 10681 0aa5 0100     		.2byte	0x1
 10682 0aa7 55       		.byte	0x55
 10683 0aa8 64000000 		.4byte	.LVL184
ARM GAS  /tmp/cc3IGbAH.s 			page 189


 10684 0aac 7D000000 		.4byte	.LVL185-1
 10685 0ab0 0100     		.2byte	0x1
 10686 0ab2 50       		.byte	0x50
 10687 0ab3 7D000000 		.4byte	.LVL185-1
 10688 0ab7 80000000 		.4byte	.LFE133
 10689 0abb 0100     		.2byte	0x1
 10690 0abd 55       		.byte	0x55
 10691 0abe 00000000 		.4byte	0
 10692 0ac2 00000000 		.4byte	0
 10693              	.LLST73:
 10694 0ac6 00000000 		.4byte	.LVL173
 10695 0aca 24000000 		.4byte	.LVL176
 10696 0ace 0100     		.2byte	0x1
 10697 0ad0 51       		.byte	0x51
 10698 0ad1 24000000 		.4byte	.LVL176
 10699 0ad5 64000000 		.4byte	.LVL184
 10700 0ad9 0400     		.2byte	0x4
 10701 0adb F3       		.byte	0xf3
 10702 0adc 01       		.uleb128 0x1
 10703 0add 51       		.byte	0x51
 10704 0ade 9F       		.byte	0x9f
 10705 0adf 64000000 		.4byte	.LVL184
 10706 0ae3 7D000000 		.4byte	.LVL185-1
 10707 0ae7 0100     		.2byte	0x1
 10708 0ae9 51       		.byte	0x51
 10709 0aea 7D000000 		.4byte	.LVL185-1
 10710 0aee 80000000 		.4byte	.LFE133
 10711 0af2 0400     		.2byte	0x4
 10712 0af4 F3       		.byte	0xf3
 10713 0af5 01       		.uleb128 0x1
 10714 0af6 51       		.byte	0x51
 10715 0af7 9F       		.byte	0x9f
 10716 0af8 00000000 		.4byte	0
 10717 0afc 00000000 		.4byte	0
 10718              	.LLST74:
 10719 0b00 3E000000 		.4byte	.LVL178
 10720 0b04 40000000 		.4byte	.LVL179
 10721 0b08 0100     		.2byte	0x1
 10722 0b0a 53       		.byte	0x53
 10723 0b0b 00000000 		.4byte	0
 10724 0b0f 00000000 		.4byte	0
 10725              	.LLST75:
 10726 0b13 52000000 		.4byte	.LVL180
 10727 0b17 64000000 		.4byte	.LVL184
 10728 0b1b 0100     		.2byte	0x1
 10729 0b1d 55       		.byte	0x55
 10730 0b1e 00000000 		.4byte	0
 10731 0b22 00000000 		.4byte	0
 10732              	.LLST76:
 10733 0b26 62000000 		.4byte	.LVL183
 10734 0b2a 64000000 		.4byte	.LVL184
 10735 0b2e 0100     		.2byte	0x1
 10736 0b30 53       		.byte	0x53
 10737 0b31 00000000 		.4byte	0
 10738 0b35 00000000 		.4byte	0
 10739              	.LLST77:
 10740 0b39 00000000 		.4byte	.LFB137
ARM GAS  /tmp/cc3IGbAH.s 			page 190


 10741 0b3d 02000000 		.4byte	.LCFI5
 10742 0b41 0200     		.2byte	0x2
 10743 0b43 7D       		.byte	0x7d
 10744 0b44 00       		.sleb128 0
 10745 0b45 02000000 		.4byte	.LCFI5
 10746 0b49 00010000 		.4byte	.LFE137
 10747 0b4d 0200     		.2byte	0x2
 10748 0b4f 7D       		.byte	0x7d
 10749 0b50 10       		.sleb128 16
 10750 0b51 00000000 		.4byte	0
 10751 0b55 00000000 		.4byte	0
 10752              	.LLST78:
 10753 0b59 06000000 		.4byte	.LVL187
 10754 0b5d 32000000 		.4byte	.LVL191
 10755 0b61 0100     		.2byte	0x1
 10756 0b63 55       		.byte	0x55
 10757 0b64 6A000000 		.4byte	.LVL198
 10758 0b68 A4000000 		.4byte	.LVL207
 10759 0b6c 0100     		.2byte	0x1
 10760 0b6e 55       		.byte	0x55
 10761 0b6f 00000000 		.4byte	0
 10762 0b73 00000000 		.4byte	0
 10763              	.LLST79:
 10764 0b77 32000000 		.4byte	.LVL191
 10765 0b7b 6A000000 		.4byte	.LVL198
 10766 0b7f 0100     		.2byte	0x1
 10767 0b81 55       		.byte	0x55
 10768 0b82 A4000000 		.4byte	.LVL207
 10769 0b86 00010000 		.4byte	.LFE137
 10770 0b8a 0100     		.2byte	0x1
 10771 0b8c 55       		.byte	0x55
 10772 0b8d 00000000 		.4byte	0
 10773 0b91 00000000 		.4byte	0
 10774              	.LLST80:
 10775 0b95 86000000 		.4byte	.LVL202
 10776 0b99 8E000000 		.4byte	.LVL203
 10777 0b9d 0100     		.2byte	0x1
 10778 0b9f 53       		.byte	0x53
 10779 0ba0 00000000 		.4byte	0
 10780 0ba4 00000000 		.4byte	0
 10781              	.LLST81:
 10782 0ba8 90000000 		.4byte	.LVL204
 10783 0bac A4000000 		.4byte	.LVL207
 10784 0bb0 0600     		.2byte	0x6
 10785 0bb2 03       		.byte	0x3
 10786 0bb3 00000000 		.4byte	USBD1
 10787 0bb7 9F       		.byte	0x9f
 10788 0bb8 00000000 		.4byte	0
 10789 0bbc 00000000 		.4byte	0
 10790              	.LLST82:
 10791 0bc0 2C000000 		.4byte	.LVL190
 10792 0bc4 3A000000 		.4byte	.LVL192
 10793 0bc8 0100     		.2byte	0x1
 10794 0bca 53       		.byte	0x53
 10795 0bcb 44000000 		.4byte	.LVL193
 10796 0bcf 4A000000 		.4byte	.LVL194
 10797 0bd3 0100     		.2byte	0x1
ARM GAS  /tmp/cc3IGbAH.s 			page 191


 10798 0bd5 53       		.byte	0x53
 10799 0bd6 58000000 		.4byte	.LVL195
 10800 0bda 5F000000 		.4byte	.LVL196-1
 10801 0bde 0100     		.2byte	0x1
 10802 0be0 53       		.byte	0x53
 10803 0be1 A2000000 		.4byte	.LVL206
 10804 0be5 A4000000 		.4byte	.LVL207
 10805 0be9 0100     		.2byte	0x1
 10806 0beb 53       		.byte	0x53
 10807 0bec CC000000 		.4byte	.LVL211
 10808 0bf0 D3000000 		.4byte	.LVL212-1
 10809 0bf4 0100     		.2byte	0x1
 10810 0bf6 53       		.byte	0x53
 10811 0bf7 00000000 		.4byte	0
 10812 0bfb 00000000 		.4byte	0
 10813              	.LLST83:
 10814 0bff 00000000 		.4byte	.LFB138
 10815 0c03 02000000 		.4byte	.LCFI6
 10816 0c07 0200     		.2byte	0x2
 10817 0c09 7D       		.byte	0x7d
 10818 0c0a 00       		.sleb128 0
 10819 0c0b 02000000 		.4byte	.LCFI6
 10820 0c0f 28000000 		.4byte	.LFE138
 10821 0c13 0200     		.2byte	0x2
 10822 0c15 7D       		.byte	0x7d
 10823 0c16 08       		.sleb128 8
 10824 0c17 00000000 		.4byte	0
 10825 0c1b 00000000 		.4byte	0
 10826              	.LLST84:
 10827 0c1f 00000000 		.4byte	.LFB139
 10828 0c23 02000000 		.4byte	.LCFI7
 10829 0c27 0200     		.2byte	0x2
 10830 0c29 7D       		.byte	0x7d
 10831 0c2a 00       		.sleb128 0
 10832 0c2b 02000000 		.4byte	.LCFI7
 10833 0c2f 0A000000 		.4byte	.LCFI8
 10834 0c33 0200     		.2byte	0x2
 10835 0c35 7D       		.byte	0x7d
 10836 0c36 10       		.sleb128 16
 10837 0c37 0A000000 		.4byte	.LCFI8
 10838 0c3b DC000000 		.4byte	.LFE139
 10839 0c3f 0200     		.2byte	0x2
 10840 0c41 7D       		.byte	0x7d
 10841 0c42 18       		.sleb128 24
 10842 0c43 00000000 		.4byte	0
 10843 0c47 00000000 		.4byte	0
 10844              	.LLST85:
 10845 0c4b 00000000 		.4byte	.LVL217
 10846 0c4f 0E000000 		.4byte	.LVL219
 10847 0c53 0100     		.2byte	0x1
 10848 0c55 50       		.byte	0x50
 10849 0c56 0E000000 		.4byte	.LVL219
 10850 0c5a 12000000 		.4byte	.LVL220
 10851 0c5e 0100     		.2byte	0x1
 10852 0c60 56       		.byte	0x56
 10853 0c61 12000000 		.4byte	.LVL220
 10854 0c65 14000000 		.4byte	.LVL221
ARM GAS  /tmp/cc3IGbAH.s 			page 192


 10855 0c69 0100     		.2byte	0x1
 10856 0c6b 50       		.byte	0x50
 10857 0c6c 14000000 		.4byte	.LVL221
 10858 0c70 DC000000 		.4byte	.LFE139
 10859 0c74 0100     		.2byte	0x1
 10860 0c76 56       		.byte	0x56
 10861 0c77 00000000 		.4byte	0
 10862 0c7b 00000000 		.4byte	0
 10863              	.LLST86:
 10864 0c7f 46000000 		.4byte	.LVL222
 10865 0c83 94000000 		.4byte	.LVL226
 10866 0c87 0100     		.2byte	0x1
 10867 0c89 56       		.byte	0x56
 10868 0c8a 00000000 		.4byte	0
 10869 0c8e 00000000 		.4byte	0
 10870              	.LLST87:
 10871 0c92 46000000 		.4byte	.LVL222
 10872 0c96 5C000000 		.4byte	.LVL224
 10873 0c9a 0100     		.2byte	0x1
 10874 0c9c 54       		.byte	0x54
 10875 0c9d 00000000 		.4byte	0
 10876 0ca1 00000000 		.4byte	0
 10877              	.LLST88:
 10878 0ca5 00000000 		.4byte	.LFB141
 10879 0ca9 04000000 		.4byte	.LCFI9
 10880 0cad 0200     		.2byte	0x2
 10881 0caf 7D       		.byte	0x7d
 10882 0cb0 00       		.sleb128 0
 10883 0cb1 04000000 		.4byte	.LCFI9
 10884 0cb5 2C010000 		.4byte	.LFE141
 10885 0cb9 0200     		.2byte	0x2
 10886 0cbb 7D       		.byte	0x7d
 10887 0cbc 28       		.sleb128 40
 10888 0cbd 00000000 		.4byte	0
 10889 0cc1 00000000 		.4byte	0
 10890              	.LLST89:
 10891 0cc5 00000000 		.4byte	.LVL231
 10892 0cc9 0D000000 		.4byte	.LVL233-1
 10893 0ccd 0100     		.2byte	0x1
 10894 0ccf 50       		.byte	0x50
 10895 0cd0 0D000000 		.4byte	.LVL233-1
 10896 0cd4 2C010000 		.4byte	.LFE141
 10897 0cd8 0100     		.2byte	0x1
 10898 0cda 58       		.byte	0x58
 10899 0cdb 00000000 		.4byte	0
 10900 0cdf 00000000 		.4byte	0
 10901              	.LLST90:
 10902 0ce3 C0000000 		.4byte	.LVL235
 10903 0ce7 CF000000 		.4byte	.LVL236-1
 10904 0ceb 0100     		.2byte	0x1
 10905 0ced 52       		.byte	0x52
 10906 0cee 00000000 		.4byte	0
 10907 0cf2 00000000 		.4byte	0
 10908              	.LLST91:
 10909 0cf6 00000000 		.4byte	.LVL238
 10910 0cfa 0E000000 		.4byte	.LVL240
 10911 0cfe 0100     		.2byte	0x1
ARM GAS  /tmp/cc3IGbAH.s 			page 193


 10912 0d00 50       		.byte	0x50
 10913 0d01 0E000000 		.4byte	.LVL240
 10914 0d05 18000000 		.4byte	.LFE142
 10915 0d09 0400     		.2byte	0x4
 10916 0d0b F3       		.byte	0xf3
 10917 0d0c 01       		.uleb128 0x1
 10918 0d0d 50       		.byte	0x50
 10919 0d0e 9F       		.byte	0x9f
 10920 0d0f 00000000 		.4byte	0
 10921 0d13 00000000 		.4byte	0
 10922              	.LLST92:
 10923 0d17 00000000 		.4byte	.LFB143
 10924 0d1b 04000000 		.4byte	.LCFI10
 10925 0d1f 0200     		.2byte	0x2
 10926 0d21 7D       		.byte	0x7d
 10927 0d22 00       		.sleb128 0
 10928 0d23 04000000 		.4byte	.LCFI10
 10929 0d27 36010000 		.4byte	.LFE143
 10930 0d2b 0200     		.2byte	0x2
 10931 0d2d 7D       		.byte	0x7d
 10932 0d2e 18       		.sleb128 24
 10933 0d2f 00000000 		.4byte	0
 10934 0d33 00000000 		.4byte	0
 10935              	.LLST93:
 10936 0d37 00000000 		.4byte	.LVL241
 10937 0d3b 14000000 		.4byte	.LVL243
 10938 0d3f 0100     		.2byte	0x1
 10939 0d41 50       		.byte	0x50
 10940 0d42 14000000 		.4byte	.LVL243
 10941 0d46 36010000 		.4byte	.LFE143
 10942 0d4a 0100     		.2byte	0x1
 10943 0d4c 56       		.byte	0x56
 10944 0d4d 00000000 		.4byte	0
 10945 0d51 00000000 		.4byte	0
 10946              	.LLST94:
 10947 0d55 00000000 		.4byte	.LVL241
 10948 0d59 24000000 		.4byte	.LVL244
 10949 0d5d 0100     		.2byte	0x1
 10950 0d5f 51       		.byte	0x51
 10951 0d60 24000000 		.4byte	.LVL244
 10952 0d64 C6000000 		.4byte	.LVL251
 10953 0d68 0400     		.2byte	0x4
 10954 0d6a F3       		.byte	0xf3
 10955 0d6b 01       		.uleb128 0x1
 10956 0d6c 51       		.byte	0x51
 10957 0d6d 9F       		.byte	0x9f
 10958 0d6e C6000000 		.4byte	.LVL251
 10959 0d72 D2000000 		.4byte	.LVL255
 10960 0d76 0100     		.2byte	0x1
 10961 0d78 51       		.byte	0x51
 10962 0d79 D2000000 		.4byte	.LVL255
 10963 0d7d 36010000 		.4byte	.LFE143
 10964 0d81 0400     		.2byte	0x4
 10965 0d83 F3       		.byte	0xf3
 10966 0d84 01       		.uleb128 0x1
 10967 0d85 51       		.byte	0x51
 10968 0d86 9F       		.byte	0x9f
ARM GAS  /tmp/cc3IGbAH.s 			page 194


 10969 0d87 00000000 		.4byte	0
 10970 0d8b 00000000 		.4byte	0
 10971              	.LLST95:
 10972 0d8f 32000000 		.4byte	.LVL245
 10973 0d93 C6000000 		.4byte	.LVL251
 10974 0d97 0100     		.2byte	0x1
 10975 0d99 58       		.byte	0x58
 10976 0d9a C6000000 		.4byte	.LVL251
 10977 0d9e CA000000 		.4byte	.LVL252
 10978 0da2 0600     		.2byte	0x6
 10979 0da4 0C       		.byte	0xc
 10980 0da5 00800810 		.4byte	0x10088000
 10981 0da9 9F       		.byte	0x9f
 10982 0daa CC000000 		.4byte	.LVL253
 10983 0dae D0000000 		.4byte	.LVL254
 10984 0db2 0600     		.2byte	0x6
 10985 0db4 0C       		.byte	0xc
 10986 0db5 00800C10 		.4byte	0x100c8000
 10987 0db9 9F       		.byte	0x9f
 10988 0dba D2000000 		.4byte	.LVL255
 10989 0dbe 36010000 		.4byte	.LFE143
 10990 0dc2 0100     		.2byte	0x1
 10991 0dc4 58       		.byte	0x58
 10992 0dc5 00000000 		.4byte	0
 10993 0dc9 00000000 		.4byte	0
 10994              	.LLST96:
 10995 0dcd 7A000000 		.4byte	.LVL246
 10996 0dd1 90000000 		.4byte	.LVL249
 10997 0dd5 0100     		.2byte	0x1
 10998 0dd7 53       		.byte	0x53
 10999 0dd8 00000000 		.4byte	0
 11000 0ddc 00000000 		.4byte	0
 11001              	.LLST97:
 11002 0de0 80000000 		.4byte	.LVL247
 11003 0de4 90000000 		.4byte	.LVL249
 11004 0de8 0100     		.2byte	0x1
 11005 0dea 53       		.byte	0x53
 11006 0deb 00000000 		.4byte	0
 11007 0def 00000000 		.4byte	0
 11008              	.LLST98:
 11009 0df3 80000000 		.4byte	.LVL247
 11010 0df7 C6000000 		.4byte	.LVL251
 11011 0dfb 0100     		.2byte	0x1
 11012 0dfd 56       		.byte	0x56
 11013 0dfe 00000000 		.4byte	0
 11014 0e02 00000000 		.4byte	0
 11015              	.LLST99:
 11016 0e06 86000000 		.4byte	.LVL248
 11017 0e0a 9B000000 		.4byte	.LVL250-1
 11018 0e0e 0100     		.2byte	0x1
 11019 0e10 52       		.byte	0x52
 11020 0e11 00000000 		.4byte	0
 11021 0e15 00000000 		.4byte	0
 11022              	.LLST100:
 11023 0e19 00000000 		.4byte	.LVL257
 11024 0e1d 09000000 		.4byte	.LVL258-1
 11025 0e21 0100     		.2byte	0x1
ARM GAS  /tmp/cc3IGbAH.s 			page 195


 11026 0e23 50       		.byte	0x50
 11027 0e24 09000000 		.4byte	.LVL258-1
 11028 0e28 0A000000 		.4byte	.LFE144
 11029 0e2c 0400     		.2byte	0x4
 11030 0e2e F3       		.byte	0xf3
 11031 0e2f 01       		.uleb128 0x1
 11032 0e30 50       		.byte	0x50
 11033 0e31 9F       		.byte	0x9f
 11034 0e32 00000000 		.4byte	0
 11035 0e36 00000000 		.4byte	0
 11036              	.LLST102:
 11037 0e3a 00000000 		.4byte	.LVL259
 11038 0e3e 0C000000 		.4byte	.LVL262
 11039 0e42 0100     		.2byte	0x1
 11040 0e44 50       		.byte	0x50
 11041 0e45 0C000000 		.4byte	.LVL262
 11042 0e49 1A000000 		.4byte	.LFE145
 11043 0e4d 0400     		.2byte	0x4
 11044 0e4f F3       		.byte	0xf3
 11045 0e50 01       		.uleb128 0x1
 11046 0e51 50       		.byte	0x50
 11047 0e52 9F       		.byte	0x9f
 11048 0e53 00000000 		.4byte	0
 11049 0e57 00000000 		.4byte	0
 11050              	.LLST103:
 11051 0e5b 00000000 		.4byte	.LVL259
 11052 0e5f 02000000 		.4byte	.LVL260
 11053 0e63 0100     		.2byte	0x1
 11054 0e65 51       		.byte	0x51
 11055 0e66 02000000 		.4byte	.LVL260
 11056 0e6a 1A000000 		.4byte	.LFE145
 11057 0e6e 0400     		.2byte	0x4
 11058 0e70 F3       		.byte	0xf3
 11059 0e71 01       		.uleb128 0x1
 11060 0e72 51       		.byte	0x51
 11061 0e73 9F       		.byte	0x9f
 11062 0e74 00000000 		.4byte	0
 11063 0e78 00000000 		.4byte	0
 11064              	.LLST104:
 11065 0e7c 00000000 		.4byte	.LVL263
 11066 0e80 0C000000 		.4byte	.LVL266
 11067 0e84 0100     		.2byte	0x1
 11068 0e86 50       		.byte	0x50
 11069 0e87 0C000000 		.4byte	.LVL266
 11070 0e8b 1A000000 		.4byte	.LFE146
 11071 0e8f 0400     		.2byte	0x4
 11072 0e91 F3       		.byte	0xf3
 11073 0e92 01       		.uleb128 0x1
 11074 0e93 50       		.byte	0x50
 11075 0e94 9F       		.byte	0x9f
 11076 0e95 00000000 		.4byte	0
 11077 0e99 00000000 		.4byte	0
 11078              	.LLST105:
 11079 0e9d 00000000 		.4byte	.LVL263
 11080 0ea1 02000000 		.4byte	.LVL264
 11081 0ea5 0100     		.2byte	0x1
 11082 0ea7 51       		.byte	0x51
ARM GAS  /tmp/cc3IGbAH.s 			page 196


 11083 0ea8 02000000 		.4byte	.LVL264
 11084 0eac 1A000000 		.4byte	.LFE146
 11085 0eb0 0400     		.2byte	0x4
 11086 0eb2 F3       		.byte	0xf3
 11087 0eb3 01       		.uleb128 0x1
 11088 0eb4 51       		.byte	0x51
 11089 0eb5 9F       		.byte	0x9f
 11090 0eb6 00000000 		.4byte	0
 11091 0eba 00000000 		.4byte	0
 11092              	.LLST106:
 11093 0ebe 00000000 		.4byte	.LVL267
 11094 0ec2 08000000 		.4byte	.LVL269
 11095 0ec6 0100     		.2byte	0x1
 11096 0ec8 50       		.byte	0x50
 11097 0ec9 08000000 		.4byte	.LVL269
 11098 0ecd 12000000 		.4byte	.LFE147
 11099 0ed1 0400     		.2byte	0x4
 11100 0ed3 F3       		.byte	0xf3
 11101 0ed4 01       		.uleb128 0x1
 11102 0ed5 50       		.byte	0x50
 11103 0ed6 9F       		.byte	0x9f
 11104 0ed7 00000000 		.4byte	0
 11105 0edb 00000000 		.4byte	0
 11106              	.LLST107:
 11107 0edf 00000000 		.4byte	.LVL267
 11108 0ee3 02000000 		.4byte	.LVL268
 11109 0ee7 0100     		.2byte	0x1
 11110 0ee9 51       		.byte	0x51
 11111 0eea 02000000 		.4byte	.LVL268
 11112 0eee 12000000 		.4byte	.LFE147
 11113 0ef2 0400     		.2byte	0x4
 11114 0ef4 F3       		.byte	0xf3
 11115 0ef5 01       		.uleb128 0x1
 11116 0ef6 51       		.byte	0x51
 11117 0ef7 9F       		.byte	0x9f
 11118 0ef8 00000000 		.4byte	0
 11119 0efc 00000000 		.4byte	0
 11120              	.LLST108:
 11121 0f00 00000000 		.4byte	.LFB148
 11122 0f04 04000000 		.4byte	.LCFI11
 11123 0f08 0200     		.2byte	0x2
 11124 0f0a 7D       		.byte	0x7d
 11125 0f0b 00       		.sleb128 0
 11126 0f0c 04000000 		.4byte	.LCFI11
 11127 0f10 2C000000 		.4byte	.LFE148
 11128 0f14 0200     		.2byte	0x2
 11129 0f16 7D       		.byte	0x7d
 11130 0f17 04       		.sleb128 4
 11131 0f18 00000000 		.4byte	0
 11132 0f1c 00000000 		.4byte	0
 11133              	.LLST109:
 11134 0f20 00000000 		.4byte	.LVL270
 11135 0f24 0A000000 		.4byte	.LVL271
 11136 0f28 0100     		.2byte	0x1
 11137 0f2a 50       		.byte	0x50
 11138 0f2b 0A000000 		.4byte	.LVL271
 11139 0f2f 2C000000 		.4byte	.LFE148
ARM GAS  /tmp/cc3IGbAH.s 			page 197


 11140 0f33 0400     		.2byte	0x4
 11141 0f35 F3       		.byte	0xf3
 11142 0f36 01       		.uleb128 0x1
 11143 0f37 50       		.byte	0x50
 11144 0f38 9F       		.byte	0x9f
 11145 0f39 00000000 		.4byte	0
 11146 0f3d 00000000 		.4byte	0
 11147              	.LLST110:
 11148 0f41 00000000 		.4byte	.LVL270
 11149 0f45 18000000 		.4byte	.LVL275
 11150 0f49 0100     		.2byte	0x1
 11151 0f4b 51       		.byte	0x51
 11152 0f4c 18000000 		.4byte	.LVL275
 11153 0f50 2C000000 		.4byte	.LFE148
 11154 0f54 0400     		.2byte	0x4
 11155 0f56 F3       		.byte	0xf3
 11156 0f57 01       		.uleb128 0x1
 11157 0f58 51       		.byte	0x51
 11158 0f59 9F       		.byte	0x9f
 11159 0f5a 00000000 		.4byte	0
 11160 0f5e 00000000 		.4byte	0
 11161              	.LLST111:
 11162 0f62 0E000000 		.4byte	.LVL272
 11163 0f66 10000000 		.4byte	.LVL273
 11164 0f6a 1500     		.2byte	0x15
 11165 0f6c 70       		.byte	0x70
 11166 0f6d 18       		.sleb128 24
 11167 0f6e 06       		.byte	0x6
 11168 0f6f 23       		.byte	0x23
 11169 0f70 04       		.uleb128 0x4
 11170 0f71 06       		.byte	0x6
 11171 0f72 73       		.byte	0x73
 11172 0f73 00       		.sleb128 0
 11173 0f74 22       		.byte	0x22
 11174 0f75 31       		.byte	0x31
 11175 0f76 1C       		.byte	0x1c
 11176 0f77 F7       		.byte	0xf7
 11177 0f78 29       		.uleb128 0x29
 11178 0f79 73       		.byte	0x73
 11179 0f7a 00       		.sleb128 0
 11180 0f7b F7       		.byte	0xf7
 11181 0f7c 29       		.uleb128 0x29
 11182 0f7d 1B       		.byte	0x1b
 11183 0f7e F7       		.byte	0xf7
 11184 0f7f 00       		.uleb128 0
 11185 0f80 9F       		.byte	0x9f
 11186 0f81 10000000 		.4byte	.LVL273
 11187 0f85 18000000 		.4byte	.LVL275
 11188 0f89 1E00     		.2byte	0x1e
 11189 0f8b 71       		.byte	0x71
 11190 0f8c 04       		.sleb128 4
 11191 0f8d 32       		.byte	0x32
 11192 0f8e 24       		.byte	0x24
 11193 0f8f F3       		.byte	0xf3
 11194 0f90 01       		.uleb128 0x1
 11195 0f91 50       		.byte	0x50
 11196 0f92 22       		.byte	0x22
ARM GAS  /tmp/cc3IGbAH.s 			page 198


 11197 0f93 06       		.byte	0x6
 11198 0f94 23       		.byte	0x23
 11199 0f95 18       		.uleb128 0x18
 11200 0f96 06       		.byte	0x6
 11201 0f97 23       		.byte	0x23
 11202 0f98 04       		.uleb128 0x4
 11203 0f99 06       		.byte	0x6
 11204 0f9a 73       		.byte	0x73
 11205 0f9b 00       		.sleb128 0
 11206 0f9c 22       		.byte	0x22
 11207 0f9d 31       		.byte	0x31
 11208 0f9e 1C       		.byte	0x1c
 11209 0f9f F7       		.byte	0xf7
 11210 0fa0 29       		.uleb128 0x29
 11211 0fa1 73       		.byte	0x73
 11212 0fa2 00       		.sleb128 0
 11213 0fa3 F7       		.byte	0xf7
 11214 0fa4 29       		.uleb128 0x29
 11215 0fa5 1B       		.byte	0x1b
 11216 0fa6 F7       		.byte	0xf7
 11217 0fa7 00       		.uleb128 0
 11218 0fa8 9F       		.byte	0x9f
 11219 0fa9 00000000 		.4byte	0
 11220 0fad 00000000 		.4byte	0
 11221              	.LLST112:
 11222 0fb1 0A000000 		.4byte	.LVL271
 11223 0fb5 10000000 		.4byte	.LVL273
 11224 0fb9 0200     		.2byte	0x2
 11225 0fbb 70       		.byte	0x70
 11226 0fbc 18       		.sleb128 24
 11227 0fbd 10000000 		.4byte	.LVL273
 11228 0fc1 12000000 		.4byte	.LVL274
 11229 0fc5 0100     		.2byte	0x1
 11230 0fc7 52       		.byte	0x52
 11231 0fc8 12000000 		.4byte	.LVL274
 11232 0fcc 18000000 		.4byte	.LVL275
 11233 0fd0 0B00     		.2byte	0xb
 11234 0fd2 71       		.byte	0x71
 11235 0fd3 04       		.sleb128 4
 11236 0fd4 32       		.byte	0x32
 11237 0fd5 24       		.byte	0x24
 11238 0fd6 F3       		.byte	0xf3
 11239 0fd7 01       		.uleb128 0x1
 11240 0fd8 50       		.byte	0x50
 11241 0fd9 22       		.byte	0x22
 11242 0fda 06       		.byte	0x6
 11243 0fdb 23       		.byte	0x23
 11244 0fdc 18       		.uleb128 0x18
 11245 0fdd 00000000 		.4byte	0
 11246 0fe1 00000000 		.4byte	0
 11247              	.LLST113:
 11248 0fe5 00000000 		.4byte	.LFB149
 11249 0fe9 04000000 		.4byte	.LCFI12
 11250 0fed 0200     		.2byte	0x2
 11251 0fef 7D       		.byte	0x7d
 11252 0ff0 00       		.sleb128 0
 11253 0ff1 04000000 		.4byte	.LCFI12
ARM GAS  /tmp/cc3IGbAH.s 			page 199


 11254 0ff5 3A000000 		.4byte	.LFE149
 11255 0ff9 0200     		.2byte	0x2
 11256 0ffb 7D       		.byte	0x7d
 11257 0ffc 04       		.sleb128 4
 11258 0ffd 00000000 		.4byte	0
 11259 1001 00000000 		.4byte	0
 11260              	.LLST114:
 11261 1005 00000000 		.4byte	.LVL276
 11262 1009 12000000 		.4byte	.LVL279
 11263 100d 0100     		.2byte	0x1
 11264 100f 50       		.byte	0x50
 11265 1010 12000000 		.4byte	.LVL279
 11266 1014 2A000000 		.4byte	.LVL282
 11267 1018 0400     		.2byte	0x4
 11268 101a F3       		.byte	0xf3
 11269 101b 01       		.uleb128 0x1
 11270 101c 50       		.byte	0x50
 11271 101d 9F       		.byte	0x9f
 11272 101e 2A000000 		.4byte	.LVL282
 11273 1022 2C000000 		.4byte	.LVL283
 11274 1026 0100     		.2byte	0x1
 11275 1028 50       		.byte	0x50
 11276 1029 2C000000 		.4byte	.LVL283
 11277 102d 3A000000 		.4byte	.LFE149
 11278 1031 0400     		.2byte	0x4
 11279 1033 F3       		.byte	0xf3
 11280 1034 01       		.uleb128 0x1
 11281 1035 50       		.byte	0x50
 11282 1036 9F       		.byte	0x9f
 11283 1037 00000000 		.4byte	0
 11284 103b 00000000 		.4byte	0
 11285              	.LLST115:
 11286 103f 00000000 		.4byte	.LVL276
 11287 1043 1E000000 		.4byte	.LVL281
 11288 1047 0100     		.2byte	0x1
 11289 1049 51       		.byte	0x51
 11290 104a 1E000000 		.4byte	.LVL281
 11291 104e 2A000000 		.4byte	.LVL282
 11292 1052 0400     		.2byte	0x4
 11293 1054 F3       		.byte	0xf3
 11294 1055 01       		.uleb128 0x1
 11295 1056 51       		.byte	0x51
 11296 1057 9F       		.byte	0x9f
 11297 1058 2A000000 		.4byte	.LVL282
 11298 105c 34000000 		.4byte	.LVL285
 11299 1060 0100     		.2byte	0x1
 11300 1062 51       		.byte	0x51
 11301 1063 34000000 		.4byte	.LVL285
 11302 1067 3A000000 		.4byte	.LFE149
 11303 106b 0400     		.2byte	0x4
 11304 106d F3       		.byte	0xf3
 11305 106e 01       		.uleb128 0x1
 11306 106f 51       		.byte	0x51
 11307 1070 9F       		.byte	0x9f
 11308 1071 00000000 		.4byte	0
 11309 1075 00000000 		.4byte	0
 11310              	.LLST116:
ARM GAS  /tmp/cc3IGbAH.s 			page 200


 11311 1079 08000000 		.4byte	.LVL277
 11312 107d 10000000 		.4byte	.LVL278
 11313 1081 0200     		.2byte	0x2
 11314 1083 72       		.byte	0x72
 11315 1084 14       		.sleb128 20
 11316 1085 10000000 		.4byte	.LVL278
 11317 1089 12000000 		.4byte	.LVL279
 11318 108d 0A00     		.2byte	0xa
 11319 108f 71       		.byte	0x71
 11320 1090 04       		.sleb128 4
 11321 1091 32       		.byte	0x32
 11322 1092 24       		.byte	0x24
 11323 1093 70       		.byte	0x70
 11324 1094 00       		.sleb128 0
 11325 1095 22       		.byte	0x22
 11326 1096 06       		.byte	0x6
 11327 1097 23       		.byte	0x23
 11328 1098 14       		.uleb128 0x14
 11329 1099 12000000 		.4byte	.LVL279
 11330 109d 1E000000 		.4byte	.LVL281
 11331 10a1 0B00     		.2byte	0xb
 11332 10a3 71       		.byte	0x71
 11333 10a4 04       		.sleb128 4
 11334 10a5 32       		.byte	0x32
 11335 10a6 24       		.byte	0x24
 11336 10a7 F3       		.byte	0xf3
 11337 10a8 01       		.uleb128 0x1
 11338 10a9 50       		.byte	0x50
 11339 10aa 22       		.byte	0x22
 11340 10ab 06       		.byte	0x6
 11341 10ac 23       		.byte	0x23
 11342 10ad 14       		.uleb128 0x14
 11343 10ae 2A000000 		.4byte	.LVL282
 11344 10b2 30000000 		.4byte	.LVL284
 11345 10b6 0200     		.2byte	0x2
 11346 10b8 72       		.byte	0x72
 11347 10b9 14       		.sleb128 20
 11348 10ba 30000000 		.4byte	.LVL284
 11349 10be 34000000 		.4byte	.LVL285
 11350 10c2 0B00     		.2byte	0xb
 11351 10c4 71       		.byte	0x71
 11352 10c5 04       		.sleb128 4
 11353 10c6 32       		.byte	0x32
 11354 10c7 24       		.byte	0x24
 11355 10c8 F3       		.byte	0xf3
 11356 10c9 01       		.uleb128 0x1
 11357 10ca 50       		.byte	0x50
 11358 10cb 22       		.byte	0x22
 11359 10cc 06       		.byte	0x6
 11360 10cd 23       		.byte	0x23
 11361 10ce 14       		.uleb128 0x14
 11362 10cf 00000000 		.4byte	0
 11363 10d3 00000000 		.4byte	0
 11364              	.LLST117:
 11365 10d7 10000000 		.4byte	.LVL278
 11366 10db 1A000000 		.4byte	.LVL280
 11367 10df 1100     		.2byte	0x11
ARM GAS  /tmp/cc3IGbAH.s 			page 201


 11368 10e1 72       		.byte	0x72
 11369 10e2 00       		.sleb128 0
 11370 10e3 73       		.byte	0x73
 11371 10e4 00       		.sleb128 0
 11372 10e5 22       		.byte	0x22
 11373 10e6 31       		.byte	0x31
 11374 10e7 1C       		.byte	0x1c
 11375 10e8 F7       		.byte	0xf7
 11376 10e9 29       		.uleb128 0x29
 11377 10ea 72       		.byte	0x72
 11378 10eb 00       		.sleb128 0
 11379 10ec F7       		.byte	0xf7
 11380 10ed 29       		.uleb128 0x29
 11381 10ee 1B       		.byte	0x1b
 11382 10ef F7       		.byte	0xf7
 11383 10f0 00       		.uleb128 0
 11384 10f1 9F       		.byte	0x9f
 11385 10f2 1A000000 		.4byte	.LVL280
 11386 10f6 1E000000 		.4byte	.LVL281
 11387 10fa 2F00     		.2byte	0x2f
 11388 10fc 71       		.byte	0x71
 11389 10fd 04       		.sleb128 4
 11390 10fe 32       		.byte	0x32
 11391 10ff 24       		.byte	0x24
 11392 1100 F3       		.byte	0xf3
 11393 1101 01       		.uleb128 0x1
 11394 1102 50       		.byte	0x50
 11395 1103 22       		.byte	0x22
 11396 1104 06       		.byte	0x6
 11397 1105 23       		.byte	0x23
 11398 1106 10       		.uleb128 0x10
 11399 1107 94       		.byte	0x94
 11400 1108 02       		.byte	0x2
 11401 1109 0A       		.byte	0xa
 11402 110a FFFF     		.2byte	0xffff
 11403 110c 1A       		.byte	0x1a
 11404 110d 73       		.byte	0x73
 11405 110e 00       		.sleb128 0
 11406 110f 22       		.byte	0x22
 11407 1110 31       		.byte	0x31
 11408 1111 1C       		.byte	0x1c
 11409 1112 F7       		.byte	0xf7
 11410 1113 29       		.uleb128 0x29
 11411 1114 71       		.byte	0x71
 11412 1115 04       		.sleb128 4
 11413 1116 32       		.byte	0x32
 11414 1117 24       		.byte	0x24
 11415 1118 F3       		.byte	0xf3
 11416 1119 01       		.uleb128 0x1
 11417 111a 50       		.byte	0x50
 11418 111b 22       		.byte	0x22
 11419 111c 06       		.byte	0x6
 11420 111d 23       		.byte	0x23
 11421 111e 10       		.uleb128 0x10
 11422 111f 94       		.byte	0x94
 11423 1120 02       		.byte	0x2
 11424 1121 0A       		.byte	0xa
ARM GAS  /tmp/cc3IGbAH.s 			page 202


 11425 1122 FFFF     		.2byte	0xffff
 11426 1124 1A       		.byte	0x1a
 11427 1125 F7       		.byte	0xf7
 11428 1126 29       		.uleb128 0x29
 11429 1127 1B       		.byte	0x1b
 11430 1128 F7       		.byte	0xf7
 11431 1129 00       		.uleb128 0
 11432 112a 9F       		.byte	0x9f
 11433 112b 00000000 		.4byte	0
 11434 112f 00000000 		.4byte	0
 11435              	.LLST118:
 11436 1133 00000000 		.4byte	.LVL286
 11437 1137 0C000000 		.4byte	.LVL288
 11438 113b 0100     		.2byte	0x1
 11439 113d 50       		.byte	0x50
 11440 113e 0C000000 		.4byte	.LVL288
 11441 1142 10000000 		.4byte	.LFE150
 11442 1146 0400     		.2byte	0x4
 11443 1148 F3       		.byte	0xf3
 11444 1149 01       		.uleb128 0x1
 11445 114a 50       		.byte	0x50
 11446 114b 9F       		.byte	0x9f
 11447 114c 00000000 		.4byte	0
 11448 1150 00000000 		.4byte	0
 11449              	.LLST119:
 11450 1154 00000000 		.4byte	.LVL286
 11451 1158 02000000 		.4byte	.LVL287
 11452 115c 0100     		.2byte	0x1
 11453 115e 51       		.byte	0x51
 11454 115f 02000000 		.4byte	.LVL287
 11455 1163 10000000 		.4byte	.LFE150
 11456 1167 0400     		.2byte	0x4
 11457 1169 F3       		.byte	0xf3
 11458 116a 01       		.uleb128 0x1
 11459 116b 51       		.byte	0x51
 11460 116c 9F       		.byte	0x9f
 11461 116d 00000000 		.4byte	0
 11462 1171 00000000 		.4byte	0
 11463              	.LLST120:
 11464 1175 00000000 		.4byte	.LVL289
 11465 1179 0A000000 		.4byte	.LVL290
 11466 117d 0100     		.2byte	0x1
 11467 117f 50       		.byte	0x50
 11468 1180 0A000000 		.4byte	.LVL290
 11469 1184 22000000 		.4byte	.LFE151
 11470 1188 0400     		.2byte	0x4
 11471 118a F3       		.byte	0xf3
 11472 118b 01       		.uleb128 0x1
 11473 118c 50       		.byte	0x50
 11474 118d 9F       		.byte	0x9f
 11475 118e 00000000 		.4byte	0
 11476 1192 00000000 		.4byte	0
 11477              	.LLST121:
 11478 1196 00000000 		.4byte	.LVL289
 11479 119a 1A000000 		.4byte	.LVL291
 11480 119e 0100     		.2byte	0x1
 11481 11a0 51       		.byte	0x51
ARM GAS  /tmp/cc3IGbAH.s 			page 203


 11482 11a1 1A000000 		.4byte	.LVL291
 11483 11a5 22000000 		.4byte	.LFE151
 11484 11a9 0400     		.2byte	0x4
 11485 11ab F3       		.byte	0xf3
 11486 11ac 01       		.uleb128 0x1
 11487 11ad 51       		.byte	0x51
 11488 11ae 9F       		.byte	0x9f
 11489 11af 00000000 		.4byte	0
 11490 11b3 00000000 		.4byte	0
 11491              	.LLST122:
 11492 11b7 00000000 		.4byte	.LVL292
 11493 11bb 0C000000 		.4byte	.LVL294
 11494 11bf 0100     		.2byte	0x1
 11495 11c1 50       		.byte	0x50
 11496 11c2 0C000000 		.4byte	.LVL294
 11497 11c6 10000000 		.4byte	.LFE152
 11498 11ca 0400     		.2byte	0x4
 11499 11cc F3       		.byte	0xf3
 11500 11cd 01       		.uleb128 0x1
 11501 11ce 50       		.byte	0x50
 11502 11cf 9F       		.byte	0x9f
 11503 11d0 00000000 		.4byte	0
 11504 11d4 00000000 		.4byte	0
 11505              	.LLST123:
 11506 11d8 00000000 		.4byte	.LVL292
 11507 11dc 02000000 		.4byte	.LVL293
 11508 11e0 0100     		.2byte	0x1
 11509 11e2 51       		.byte	0x51
 11510 11e3 02000000 		.4byte	.LVL293
 11511 11e7 10000000 		.4byte	.LFE152
 11512 11eb 0400     		.2byte	0x4
 11513 11ed F3       		.byte	0xf3
 11514 11ee 01       		.uleb128 0x1
 11515 11ef 51       		.byte	0x51
 11516 11f0 9F       		.byte	0x9f
 11517 11f1 00000000 		.4byte	0
 11518 11f5 00000000 		.4byte	0
 11519              	.LLST124:
 11520 11f9 00000000 		.4byte	.LVL295
 11521 11fd 0C000000 		.4byte	.LVL297
 11522 1201 0100     		.2byte	0x1
 11523 1203 50       		.byte	0x50
 11524 1204 0C000000 		.4byte	.LVL297
 11525 1208 10000000 		.4byte	.LFE153
 11526 120c 0400     		.2byte	0x4
 11527 120e F3       		.byte	0xf3
 11528 120f 01       		.uleb128 0x1
 11529 1210 50       		.byte	0x50
 11530 1211 9F       		.byte	0x9f
 11531 1212 00000000 		.4byte	0
 11532 1216 00000000 		.4byte	0
 11533              	.LLST125:
 11534 121a 00000000 		.4byte	.LVL295
 11535 121e 02000000 		.4byte	.LVL296
 11536 1222 0100     		.2byte	0x1
 11537 1224 51       		.byte	0x51
 11538 1225 02000000 		.4byte	.LVL296
ARM GAS  /tmp/cc3IGbAH.s 			page 204


 11539 1229 10000000 		.4byte	.LFE153
 11540 122d 0400     		.2byte	0x4
 11541 122f F3       		.byte	0xf3
 11542 1230 01       		.uleb128 0x1
 11543 1231 51       		.byte	0x51
 11544 1232 9F       		.byte	0x9f
 11545 1233 00000000 		.4byte	0
 11546 1237 00000000 		.4byte	0
 11547              	.LLST126:
 11548 123b 00000000 		.4byte	.LVL298
 11549 123f 0C000000 		.4byte	.LVL300
 11550 1243 0100     		.2byte	0x1
 11551 1245 50       		.byte	0x50
 11552 1246 0C000000 		.4byte	.LVL300
 11553 124a 10000000 		.4byte	.LFE154
 11554 124e 0400     		.2byte	0x4
 11555 1250 F3       		.byte	0xf3
 11556 1251 01       		.uleb128 0x1
 11557 1252 50       		.byte	0x50
 11558 1253 9F       		.byte	0x9f
 11559 1254 00000000 		.4byte	0
 11560 1258 00000000 		.4byte	0
 11561              	.LLST127:
 11562 125c 00000000 		.4byte	.LVL298
 11563 1260 02000000 		.4byte	.LVL299
 11564 1264 0100     		.2byte	0x1
 11565 1266 51       		.byte	0x51
 11566 1267 02000000 		.4byte	.LVL299
 11567 126b 10000000 		.4byte	.LFE154
 11568 126f 0400     		.2byte	0x4
 11569 1271 F3       		.byte	0xf3
 11570 1272 01       		.uleb128 0x1
 11571 1273 51       		.byte	0x51
 11572 1274 9F       		.byte	0x9f
 11573 1275 00000000 		.4byte	0
 11574 1279 00000000 		.4byte	0
 11575              	.LLST128:
 11576 127d 00000000 		.4byte	.LVL301
 11577 1281 0C000000 		.4byte	.LVL303
 11578 1285 0100     		.2byte	0x1
 11579 1287 50       		.byte	0x50
 11580 1288 0C000000 		.4byte	.LVL303
 11581 128c 10000000 		.4byte	.LFE155
 11582 1290 0400     		.2byte	0x4
 11583 1292 F3       		.byte	0xf3
 11584 1293 01       		.uleb128 0x1
 11585 1294 50       		.byte	0x50
 11586 1295 9F       		.byte	0x9f
 11587 1296 00000000 		.4byte	0
 11588 129a 00000000 		.4byte	0
 11589              	.LLST129:
 11590 129e 00000000 		.4byte	.LVL301
 11591 12a2 02000000 		.4byte	.LVL302
 11592 12a6 0100     		.2byte	0x1
 11593 12a8 51       		.byte	0x51
 11594 12a9 02000000 		.4byte	.LVL302
 11595 12ad 10000000 		.4byte	.LFE155
ARM GAS  /tmp/cc3IGbAH.s 			page 205


 11596 12b1 0400     		.2byte	0x4
 11597 12b3 F3       		.byte	0xf3
 11598 12b4 01       		.uleb128 0x1
 11599 12b5 51       		.byte	0x51
 11600 12b6 9F       		.byte	0x9f
 11601 12b7 00000000 		.4byte	0
 11602 12bb 00000000 		.4byte	0
 11603              		.section	.debug_aranges,"",%progbits
 11604 0000 D4000000 		.4byte	0xd4
 11605 0004 0200     		.2byte	0x2
 11606 0006 00000000 		.4byte	.Ldebug_info0
 11607 000a 04       		.byte	0x4
 11608 000b 00       		.byte	0
 11609 000c 0000     		.2byte	0
 11610 000e 0000     		.2byte	0
 11611 0010 00000000 		.4byte	.LFB120
 11612 0014 82000000 		.4byte	.LFE120-.LFB120
 11613 0018 00000000 		.4byte	.LFB134
 11614 001c 5C000000 		.4byte	.LFE134-.LFB134
 11615 0020 00000000 		.4byte	.LFB122
 11616 0024 16000000 		.4byte	.LFE122-.LFB122
 11617 0028 00000000 		.4byte	.LFB136
 11618 002c 8A040000 		.4byte	.LFE136-.LFB136
 11619 0030 00000000 		.4byte	.LFB133
 11620 0034 80000000 		.4byte	.LFE133-.LFB133
 11621 0038 00000000 		.4byte	.LFB137
 11622 003c 00010000 		.4byte	.LFE137-.LFB137
 11623 0040 00000000 		.4byte	.LFB138
 11624 0044 28000000 		.4byte	.LFE138-.LFB138
 11625 0048 00000000 		.4byte	.LFB139
 11626 004c DC000000 		.4byte	.LFE139-.LFB139
 11627 0050 00000000 		.4byte	.LFB140
 11628 0054 16000000 		.4byte	.LFE140-.LFB140
 11629 0058 00000000 		.4byte	.LFB141
 11630 005c 2C010000 		.4byte	.LFE141-.LFB141
 11631 0060 00000000 		.4byte	.LFB142
 11632 0064 18000000 		.4byte	.LFE142-.LFB142
 11633 0068 00000000 		.4byte	.LFB143
 11634 006c 36010000 		.4byte	.LFE143-.LFB143
 11635 0070 00000000 		.4byte	.LFB144
 11636 0074 0A000000 		.4byte	.LFE144-.LFB144
 11637 0078 00000000 		.4byte	.LFB145
 11638 007c 1A000000 		.4byte	.LFE145-.LFB145
 11639 0080 00000000 		.4byte	.LFB146
 11640 0084 1A000000 		.4byte	.LFE146-.LFB146
 11641 0088 00000000 		.4byte	.LFB147
 11642 008c 12000000 		.4byte	.LFE147-.LFB147
 11643 0090 00000000 		.4byte	.LFB148
 11644 0094 2C000000 		.4byte	.LFE148-.LFB148
 11645 0098 00000000 		.4byte	.LFB149
 11646 009c 3A000000 		.4byte	.LFE149-.LFB149
 11647 00a0 00000000 		.4byte	.LFB150
 11648 00a4 10000000 		.4byte	.LFE150-.LFB150
 11649 00a8 00000000 		.4byte	.LFB151
 11650 00ac 22000000 		.4byte	.LFE151-.LFB151
 11651 00b0 00000000 		.4byte	.LFB152
 11652 00b4 10000000 		.4byte	.LFE152-.LFB152
ARM GAS  /tmp/cc3IGbAH.s 			page 206


 11653 00b8 00000000 		.4byte	.LFB153
 11654 00bc 10000000 		.4byte	.LFE153-.LFB153
 11655 00c0 00000000 		.4byte	.LFB154
 11656 00c4 10000000 		.4byte	.LFE154-.LFB154
 11657 00c8 00000000 		.4byte	.LFB155
 11658 00cc 10000000 		.4byte	.LFE155-.LFB155
 11659 00d0 00000000 		.4byte	0
 11660 00d4 00000000 		.4byte	0
 11661              		.section	.debug_ranges,"",%progbits
 11662              	.Ldebug_ranges0:
 11663 0000 18000000 		.4byte	.LBB85
 11664 0004 1A000000 		.4byte	.LBE85
 11665 0008 1C000000 		.4byte	.LBB86
 11666 000c 20000000 		.4byte	.LBE86
 11667 0010 00000000 		.4byte	0
 11668 0014 00000000 		.4byte	0
 11669 0018 20000000 		.4byte	.LBB87
 11670 001c 0A010000 		.4byte	.LBE87
 11671 0020 0C010000 		.4byte	.LBB154
 11672 0024 8A040000 		.4byte	.LBE154
 11673 0028 00000000 		.4byte	0
 11674 002c 00000000 		.4byte	0
 11675 0030 20000000 		.4byte	.LBB88
 11676 0034 24000000 		.4byte	.LBE88
 11677 0038 5A000000 		.4byte	.LBB89
 11678 003c 62000000 		.4byte	.LBE89
 11679 0040 00000000 		.4byte	0
 11680 0044 00000000 		.4byte	0
 11681 0048 6C000000 		.4byte	.LBB90
 11682 004c D8000000 		.4byte	.LBE90
 11683 0050 0C010000 		.4byte	.LBB120
 11684 0054 5C020000 		.4byte	.LBE120
 11685 0058 00000000 		.4byte	0
 11686 005c 00000000 		.4byte	0
 11687 0060 6C000000 		.4byte	.LBB91
 11688 0064 D8000000 		.4byte	.LBE91
 11689 0068 0C010000 		.4byte	.LBB118
 11690 006c 5C020000 		.4byte	.LBE118
 11691 0070 00000000 		.4byte	0
 11692 0074 00000000 		.4byte	0
 11693 0078 90000000 		.4byte	.LBB92
 11694 007c 94000000 		.4byte	.LBE92
 11695 0080 96000000 		.4byte	.LBB100
 11696 0084 D8000000 		.4byte	.LBE100
 11697 0088 00000000 		.4byte	0
 11698 008c 00000000 		.4byte	0
 11699 0090 9E000000 		.4byte	.LBB94
 11700 0094 A0000000 		.4byte	.LBE94
 11701 0098 A2000000 		.4byte	.LBB95
 11702 009c AC000000 		.4byte	.LBE95
 11703 00a0 B2000000 		.4byte	.LBB96
 11704 00a4 B6000000 		.4byte	.LBE96
 11705 00a8 B8000000 		.4byte	.LBB97
 11706 00ac BC000000 		.4byte	.LBE97
 11707 00b0 BE000000 		.4byte	.LBB98
 11708 00b4 D4000000 		.4byte	.LBE98
 11709 00b8 00000000 		.4byte	0
ARM GAS  /tmp/cc3IGbAH.s 			page 207


 11710 00bc 00000000 		.4byte	0
 11711 00c0 24010000 		.4byte	.LBB101
 11712 00c4 26010000 		.4byte	.LBE101
 11713 00c8 2A010000 		.4byte	.LBB107
 11714 00cc 86010000 		.4byte	.LBE107
 11715 00d0 00000000 		.4byte	0
 11716 00d4 00000000 		.4byte	0
 11717 00d8 40010000 		.4byte	.LBB103
 11718 00dc 4C010000 		.4byte	.LBE103
 11719 00e0 56010000 		.4byte	.LBB104
 11720 00e4 62010000 		.4byte	.LBE104
 11721 00e8 68010000 		.4byte	.LBB105
 11722 00ec 7E010000 		.4byte	.LBE105
 11723 00f0 00000000 		.4byte	0
 11724 00f4 00000000 		.4byte	0
 11725 00f8 A8010000 		.4byte	.LBB111
 11726 00fc AA010000 		.4byte	.LBE111
 11727 0100 AC010000 		.4byte	.LBB112
 11728 0104 B4010000 		.4byte	.LBE112
 11729 0108 B6010000 		.4byte	.LBB113
 11730 010c BA010000 		.4byte	.LBE113
 11731 0110 00000000 		.4byte	0
 11732 0114 00000000 		.4byte	0
 11733 0118 78020000 		.4byte	.LBB123
 11734 011c 7A020000 		.4byte	.LBE123
 11735 0120 7E020000 		.4byte	.LBB124
 11736 0124 82020000 		.4byte	.LBE124
 11737 0128 00000000 		.4byte	0
 11738 012c 00000000 		.4byte	0
 11739 0130 82020000 		.4byte	.LBB125
 11740 0134 44030000 		.4byte	.LBE125
 11741 0138 6E030000 		.4byte	.LBB153
 11742 013c 8A040000 		.4byte	.LBE153
 11743 0140 00000000 		.4byte	0
 11744 0144 00000000 		.4byte	0
 11745 0148 82020000 		.4byte	.LBB126
 11746 014c 44030000 		.4byte	.LBE126
 11747 0150 6E030000 		.4byte	.LBB150
 11748 0154 8A040000 		.4byte	.LBE150
 11749 0158 00000000 		.4byte	0
 11750 015c 00000000 		.4byte	0
 11751 0160 C6020000 		.4byte	.LBB127
 11752 0164 C8020000 		.4byte	.LBE127
 11753 0168 CC020000 		.4byte	.LBB135
 11754 016c CE020000 		.4byte	.LBE135
 11755 0170 D0020000 		.4byte	.LBB136
 11756 0174 0A030000 		.4byte	.LBE136
 11757 0178 00000000 		.4byte	0
 11758 017c 00000000 		.4byte	0
 11759 0180 CC020000 		.4byte	.LBB129
 11760 0184 CE020000 		.4byte	.LBE129
 11761 0188 D0020000 		.4byte	.LBB132
 11762 018c 0A030000 		.4byte	.LBE132
 11763 0190 00000000 		.4byte	0
 11764 0194 00000000 		.4byte	0
 11765 0198 42030000 		.4byte	.LBB137
 11766 019c 44030000 		.4byte	.LBE137
ARM GAS  /tmp/cc3IGbAH.s 			page 208


 11767 01a0 74030000 		.4byte	.LBB149
 11768 01a4 8A040000 		.4byte	.LBE149
 11769 01a8 00000000 		.4byte	0
 11770 01ac 00000000 		.4byte	0
 11771 01b0 42030000 		.4byte	.LBB138
 11772 01b4 44030000 		.4byte	.LBE138
 11773 01b8 74030000 		.4byte	.LBB148
 11774 01bc 8A040000 		.4byte	.LBE148
 11775 01c0 00000000 		.4byte	0
 11776 01c4 00000000 		.4byte	0
 11777 01c8 7E030000 		.4byte	.LBB139
 11778 01cc DE030000 		.4byte	.LBE139
 11779 01d0 16040000 		.4byte	.LBB147
 11780 01d4 78040000 		.4byte	.LBE147
 11781 01d8 00000000 		.4byte	0
 11782 01dc 00000000 		.4byte	0
 11783 01e0 44000000 		.4byte	.LBB160
 11784 01e4 46000000 		.4byte	.LBE160
 11785 01e8 52000000 		.4byte	.LBB163
 11786 01ec 5C000000 		.4byte	.LBE163
 11787 01f0 00000000 		.4byte	0
 11788 01f4 00000000 		.4byte	0
 11789 01f8 02000000 		.4byte	.LBB171
 11790 01fc 58000000 		.4byte	.LBE171
 11791 0200 60000000 		.4byte	.LBB180
 11792 0204 00010000 		.4byte	.LBE180
 11793 0208 00000000 		.4byte	0
 11794 020c 00000000 		.4byte	0
 11795 0210 02000000 		.4byte	.LBB172
 11796 0214 58000000 		.4byte	.LBE172
 11797 0218 60000000 		.4byte	.LBB179
 11798 021c 00010000 		.4byte	.LBE179
 11799 0220 00000000 		.4byte	0
 11800 0224 00000000 		.4byte	0
 11801 0228 88000000 		.4byte	.LBB174
 11802 022c 8A000000 		.4byte	.LBE174
 11803 0230 90000000 		.4byte	.LBB177
 11804 0234 9C000000 		.4byte	.LBE177
 11805 0238 00000000 		.4byte	0
 11806 023c 00000000 		.4byte	0
 11807 0240 26000000 		.4byte	.LBB183
 11808 0244 28000000 		.4byte	.LBE183
 11809 0248 3A000000 		.4byte	.LBB187
 11810 024c 3C000000 		.4byte	.LBE187
 11811 0250 46000000 		.4byte	.LBB188
 11812 0254 5A000000 		.4byte	.LBE188
 11813 0258 00000000 		.4byte	0
 11814 025c 00000000 		.4byte	0
 11815 0260 26000000 		.4byte	.LBB184
 11816 0264 28000000 		.4byte	.LBE184
 11817 0268 3A000000 		.4byte	.LBB185
 11818 026c 3C000000 		.4byte	.LBE185
 11819 0270 46000000 		.4byte	.LBB186
 11820 0274 5A000000 		.4byte	.LBE186
 11821 0278 00000000 		.4byte	0
 11822 027c 00000000 		.4byte	0
 11823 0280 A0000000 		.4byte	.LBB195
ARM GAS  /tmp/cc3IGbAH.s 			page 209


 11824 0284 A4000000 		.4byte	.LBE195
 11825 0288 BA000000 		.4byte	.LBB203
 11826 028c BE000000 		.4byte	.LBE203
 11827 0290 00000000 		.4byte	0
 11828 0294 00000000 		.4byte	0
 11829 0298 A4000000 		.4byte	.LBB198
 11830 029c A8000000 		.4byte	.LBE198
 11831 02a0 B0000000 		.4byte	.LBB202
 11832 02a4 B2000000 		.4byte	.LBE202
 11833 02a8 C0000000 		.4byte	.LBB204
 11834 02ac D0000000 		.4byte	.LBE204
 11835 02b0 00000000 		.4byte	0
 11836 02b4 00000000 		.4byte	0
 11837 02b8 A4000000 		.4byte	.LBB199
 11838 02bc A8000000 		.4byte	.LBE199
 11839 02c0 B0000000 		.4byte	.LBB200
 11840 02c4 B2000000 		.4byte	.LBE200
 11841 02c8 C0000000 		.4byte	.LBB201
 11842 02cc D0000000 		.4byte	.LBE201
 11843 02d0 00000000 		.4byte	0
 11844 02d4 00000000 		.4byte	0
 11845 02d8 D4000000 		.4byte	.LBB205
 11846 02dc D8000000 		.4byte	.LBE205
 11847 02e0 00010000 		.4byte	.LBB209
 11848 02e4 04010000 		.4byte	.LBE209
 11849 02e8 1C010000 		.4byte	.LBB210
 11850 02ec 20010000 		.4byte	.LBE210
 11851 02f0 00000000 		.4byte	0
 11852 02f4 00000000 		.4byte	0
 11853 02f8 D4000000 		.4byte	.LBB206
 11854 02fc D8000000 		.4byte	.LBE206
 11855 0300 00010000 		.4byte	.LBB207
 11856 0304 04010000 		.4byte	.LBE207
 11857 0308 1C010000 		.4byte	.LBB208
 11858 030c 20010000 		.4byte	.LBE208
 11859 0310 00000000 		.4byte	0
 11860 0314 00000000 		.4byte	0
 11861 0318 84000000 		.4byte	.LBB211
 11862 031c 86000000 		.4byte	.LBE211
 11863 0320 8A000000 		.4byte	.LBB215
 11864 0324 8C000000 		.4byte	.LBE215
 11865 0328 90000000 		.4byte	.LBB216
 11866 032c 92000000 		.4byte	.LBE216
 11867 0330 00000000 		.4byte	0
 11868 0334 00000000 		.4byte	0
 11869 0338 84000000 		.4byte	.LBB212
 11870 033c 86000000 		.4byte	.LBE212
 11871 0340 8A000000 		.4byte	.LBB213
 11872 0344 8C000000 		.4byte	.LBE213
 11873 0348 90000000 		.4byte	.LBB214
 11874 034c 92000000 		.4byte	.LBE214
 11875 0350 00000000 		.4byte	0
 11876 0354 00000000 		.4byte	0
 11877 0358 00000000 		.4byte	.LFB120
 11878 035c 82000000 		.4byte	.LFE120
 11879 0360 00000000 		.4byte	.LFB134
 11880 0364 5C000000 		.4byte	.LFE134
ARM GAS  /tmp/cc3IGbAH.s 			page 210


 11881 0368 00000000 		.4byte	.LFB122
 11882 036c 16000000 		.4byte	.LFE122
 11883 0370 00000000 		.4byte	.LFB136
 11884 0374 8A040000 		.4byte	.LFE136
 11885 0378 00000000 		.4byte	.LFB133
 11886 037c 80000000 		.4byte	.LFE133
 11887 0380 00000000 		.4byte	.LFB137
 11888 0384 00010000 		.4byte	.LFE137
 11889 0388 00000000 		.4byte	.LFB138
 11890 038c 28000000 		.4byte	.LFE138
 11891 0390 00000000 		.4byte	.LFB139
 11892 0394 DC000000 		.4byte	.LFE139
 11893 0398 00000000 		.4byte	.LFB140
 11894 039c 16000000 		.4byte	.LFE140
 11895 03a0 00000000 		.4byte	.LFB141
 11896 03a4 2C010000 		.4byte	.LFE141
 11897 03a8 00000000 		.4byte	.LFB142
 11898 03ac 18000000 		.4byte	.LFE142
 11899 03b0 00000000 		.4byte	.LFB143
 11900 03b4 36010000 		.4byte	.LFE143
 11901 03b8 00000000 		.4byte	.LFB144
 11902 03bc 0A000000 		.4byte	.LFE144
 11903 03c0 00000000 		.4byte	.LFB145
 11904 03c4 1A000000 		.4byte	.LFE145
 11905 03c8 00000000 		.4byte	.LFB146
 11906 03cc 1A000000 		.4byte	.LFE146
 11907 03d0 00000000 		.4byte	.LFB147
 11908 03d4 12000000 		.4byte	.LFE147
 11909 03d8 00000000 		.4byte	.LFB148
 11910 03dc 2C000000 		.4byte	.LFE148
 11911 03e0 00000000 		.4byte	.LFB149
 11912 03e4 3A000000 		.4byte	.LFE149
 11913 03e8 00000000 		.4byte	.LFB150
 11914 03ec 10000000 		.4byte	.LFE150
 11915 03f0 00000000 		.4byte	.LFB151
 11916 03f4 22000000 		.4byte	.LFE151
 11917 03f8 00000000 		.4byte	.LFB152
 11918 03fc 10000000 		.4byte	.LFE152
 11919 0400 00000000 		.4byte	.LFB153
 11920 0404 10000000 		.4byte	.LFE153
 11921 0408 00000000 		.4byte	.LFB154
 11922 040c 10000000 		.4byte	.LFE154
 11923 0410 00000000 		.4byte	.LFB155
 11924 0414 10000000 		.4byte	.LFE155
 11925 0418 00000000 		.4byte	0
 11926 041c 00000000 		.4byte	0
 11927              		.section	.debug_line,"",%progbits
 11928              	.Ldebug_line0:
 11929 0000 0F080000 		.section	.debug_str,"MS",%progbits,1
 11929      02005302 
 11929      00000201 
 11929      FB0E0D00 
 11929      01010101 
 11930              	.LASF11:
 11931 0000 73697A65 		.ascii	"size_t\000"
 11931      5F7400
 11932              	.LASF132:
ARM GAS  /tmp/cc3IGbAH.s 			page 211


 11933 0007 54494D38 		.ascii	"TIM8_UP_TIM13_IRQn\000"
 11933      5F55505F 
 11933      54494D31 
 11933      335F4952 
 11933      516E00
 11934              	.LASF8:
 11935 001a 73697A65 		.ascii	"sizetype\000"
 11935      74797065 
 11935      00
 11936              	.LASF25:
 11937 0023 73797374 		.ascii	"systime_t\000"
 11937      696D655F 
 11937      7400
 11938              	.LASF196:
 11939 002d 504C4C49 		.ascii	"PLLI2SCFGR\000"
 11939      32534346 
 11939      475200
 11940              	.LASF30:
 11941 0038 705F6374 		.ascii	"p_ctx\000"
 11941      7800
 11942              	.LASF22:
 11943 003e 74707269 		.ascii	"tprio_t\000"
 11943      6F5F7400 
 11944              	.LASF40:
 11945 0046 705F6D73 		.ascii	"p_msgqueue\000"
 11945      67717565 
 11945      756500
 11946              	.LASF54:
 11947 0051 725F6374 		.ascii	"r_ctx\000"
 11947      7800
 11948              	.LASF14:
 11949 0057 696E7433 		.ascii	"int32_t\000"
 11949      325F7400 
 11950              	.LASF262:
 11951 005f 72657376 		.ascii	"resvd4\000"
 11951      643400
 11952              	.LASF253:
 11953 0066 72657376 		.ascii	"resvd8\000"
 11953      643800
 11954              	.LASF366:
 11955 006d 6F74675F 		.ascii	"otg_fifo_read_to_buffer\000"
 11955      6669666F 
 11955      5F726561 
 11955      645F746F 
 11955      5F627566 
 11956              	.LASF264:
 11957 0085 72657376 		.ascii	"resvdC\000"
 11957      644300
 11958              	.LASF407:
 11959 008c 7573625F 		.ascii	"usb_lld_prepare_transmit\000"
 11959      6C6C645F 
 11959      70726570 
 11959      6172655F 
 11959      7472616E 
 11960              	.LASF427:
 11961 00a5 63685363 		.ascii	"chSchReadyI\000"
 11961      68526561 
ARM GAS  /tmp/cc3IGbAH.s 			page 212


 11961      64794900 
 11962              	.LASF412:
 11963 00b1 7573625F 		.ascii	"usb_lld_clear_out\000"
 11963      6C6C645F 
 11963      636C6561 
 11963      725F6F75 
 11963      7400
 11964              	.LASF403:
 11965 00c3 7573625F 		.ascii	"usb_lld_get_status_in\000"
 11965      6C6C645F 
 11965      6765745F 
 11965      73746174 
 11965      75735F69 
 11966              	.LASF231:
 11967 00d9 5553425F 		.ascii	"USB_EP0_TX\000"
 11967      4550305F 
 11967      545800
 11968              	.LASF145:
 11969 00e4 444D4132 		.ascii	"DMA2_Stream1_IRQn\000"
 11969      5F537472 
 11969      65616D31 
 11969      5F495251 
 11969      6E00
 11970              	.LASF362:
 11971 00f6 6669666F 		.ascii	"fifop\000"
 11971      7000
 11972              	.LASF415:
 11973 00fc 65703073 		.ascii	"ep0setup_buffer\000"
 11973      65747570 
 11973      5F627566 
 11973      66657200 
 11974              	.LASF139:
 11975 010c 53504933 		.ascii	"SPI3_IRQn\000"
 11975      5F495251 
 11975      6E00
 11976              	.LASF92:
 11977 0116 464C4153 		.ascii	"FLASH_IRQn\000"
 11977      485F4952 
 11977      516E00
 11978              	.LASF302:
 11979 0121 72657376 		.ascii	"resvd700\000"
 11979      64373030 
 11979      00
 11980              	.LASF166:
 11981 012a 44434D49 		.ascii	"DCMI_IRQn\000"
 11981      5F495251 
 11981      6E00
 11982              	.LASF400:
 11983 0134 6673697A 		.ascii	"fsize\000"
 11983      6500
 11984              	.LASF201:
 11985 013a 636F6E66 		.ascii	"config\000"
 11985      696700
 11986              	.LASF200:
 11987 0141 73746174 		.ascii	"state\000"
 11987      6500
 11988              	.LASF346:
ARM GAS  /tmp/cc3IGbAH.s 			page 213


 11989 0147 65705F6D 		.ascii	"ep_mode\000"
 11989      6F646500 
 11990              	.LASF410:
 11991 014f 7573625F 		.ascii	"usb_lld_stall_out\000"
 11991      6C6C645F 
 11991      7374616C 
 11991      6C5F6F75 
 11991      7400
 11992              	.LASF224:
 11993 0161 5553425F 		.ascii	"USB_ACTIVE\000"
 11993      41435449 
 11993      564500
 11994              	.LASF116:
 11995 016c 54494D32 		.ascii	"TIM2_IRQn\000"
 11995      5F495251 
 11995      6E00
 11996              	.LASF399:
 11997 0176 7573625F 		.ascii	"usb_lld_init_endpoint\000"
 11997      6C6C645F 
 11997      696E6974 
 11997      5F656E64 
 11997      706F696E 
 11998              	.LASF429:
 11999 018c 474E5520 		.ascii	"GNU C 4.7.4 20130913 (release) [ARM/embedded-4_7-br"
 11999      4320342E 
 11999      372E3420 
 11999      32303133 
 11999      30393133 
 12000 01bf 616E6368 		.ascii	"anch revision 202601]\000"
 12000      20726576 
 12000      6973696F 
 12000      6E203230 
 12000      32363031 
 12001              	.LASF152:
 12002 01d5 43414E32 		.ascii	"CAN2_RX0_IRQn\000"
 12002      5F525830 
 12002      5F495251 
 12002      6E00
 12003              	.LASF159:
 12004 01e3 55534152 		.ascii	"USART6_IRQn\000"
 12004      54365F49 
 12004      52516E00 
 12005              	.LASF395:
 12006 01ef 7573625F 		.ascii	"usb_lld_stop\000"
 12006      6C6C645F 
 12006      73746F70 
 12006      00
 12007              	.LASF61:
 12008 01fc 6D5F6F77 		.ascii	"m_owner\000"
 12008      6E657200 
 12009              	.LASF64:
 12010 0204 65786974 		.ascii	"exitcode\000"
 12010      636F6465 
 12010      00
 12011              	.LASF236:
 12012 020d 75736265 		.ascii	"usbep0state_t\000"
 12012      70307374 
ARM GAS  /tmp/cc3IGbAH.s 			page 214


 12012      6174655F 
 12012      7400
 12013              	.LASF164:
 12014 021b 4F54475F 		.ascii	"OTG_HS_WKUP_IRQn\000"
 12014      48535F57 
 12014      4B55505F 
 12014      4952516E 
 12014      00
 12015              	.LASF72:
 12016 022c 715F746F 		.ascii	"q_top\000"
 12016      7000
 12017              	.LASF66:
 12018 0232 65776D61 		.ascii	"ewmask\000"
 12018      736B00
 12019              	.LASF131:
 12020 0239 54494D38 		.ascii	"TIM8_BRK_TIM12_IRQn\000"
 12020      5F42524B 
 12020      5F54494D 
 12020      31325F49 
 12020      52516E00 
 12021              	.LASF187:
 12022 024d 41484232 		.ascii	"AHB2LPENR\000"
 12022      4C50454E 
 12022      5200
 12023              	.LASF229:
 12024 0257 75736265 		.ascii	"usbepstatus_t\000"
 12024      70737461 
 12024      7475735F 
 12024      7400
 12025              	.LASF71:
 12026 0265 715F6275 		.ascii	"q_buffer\000"
 12026      66666572 
 12026      00
 12027              	.LASF238:
 12028 026e 5553425F 		.ascii	"USB_EVENT_ADDRESS\000"
 12028      4556454E 
 12028      545F4144 
 12028      44524553 
 12028      5300
 12029              	.LASF283:
 12030 0280 44494550 		.ascii	"DIEPTXF0\000"
 12030      54584630 
 12030      00
 12031              	.LASF75:
 12032 0289 715F6E6F 		.ascii	"q_notify\000"
 12032      74696679 
 12032      00
 12033              	.LASF31:
 12034 0292 705F6E65 		.ascii	"p_newer\000"
 12034      77657200 
 12035              	.LASF379:
 12036 029a 6669666F 		.ascii	"fifo\000"
 12036      00
 12037              	.LASF7:
 12038 029f 6C6F6E67 		.ascii	"long int\000"
 12038      20696E74 
 12038      00
ARM GAS  /tmp/cc3IGbAH.s 			page 215


 12039              	.LASF27:
 12040 02a8 705F6E65 		.ascii	"p_next\000"
 12040      787400
 12041              	.LASF74:
 12042 02af 715F7264 		.ascii	"q_rdptr\000"
 12042      70747200 
 12043              	.LASF28:
 12044 02b7 705F7072 		.ascii	"p_prev\000"
 12044      657600
 12045              	.LASF156:
 12046 02be 444D4132 		.ascii	"DMA2_Stream5_IRQn\000"
 12046      5F537472 
 12046      65616D35 
 12046      5F495251 
 12046      6E00
 12047              	.LASF19:
 12048 02d0 74737461 		.ascii	"tstate_t\000"
 12048      74655F74 
 12048      00
 12049              	.LASF351:
 12050 02d9 6F75745F 		.ascii	"out_maxsize\000"
 12050      6D617873 
 12050      697A6500 
 12051              	.LASF43:
 12052 02e5 705F6D74 		.ascii	"p_mtxlist\000"
 12052      786C6973 
 12052      7400
 12053              	.LASF114:
 12054 02ef 54494D31 		.ascii	"TIM1_TRG_COM_TIM11_IRQn\000"
 12054      5F545247 
 12054      5F434F4D 
 12054      5F54494D 
 12054      31315F49 
 12055              	.LASF217:
 12056 0307 7468645F 		.ascii	"thd_wait\000"
 12056      77616974 
 12056      00
 12057              	.LASF331:
 12058 0310 74786275 		.ascii	"txbuf\000"
 12058      6600
 12059              	.LASF367:
 12060 0316 6F74675F 		.ascii	"otg_fifo_write_from_buffer\000"
 12060      6669666F 
 12060      5F777269 
 12060      74655F66 
 12060      726F6D5F 
 12061              	.LASF48:
 12062 0331 72656761 		.ascii	"regarm_t\000"
 12062      726D5F74 
 12062      00
 12063              	.LASF386:
 12064 033a 6F74675F 		.ascii	"otg_fifo_write_from_queue\000"
 12064      6669666F 
 12064      5F777269 
 12064      74655F66 
 12064      726F6D5F 
 12065              	.LASF309:
ARM GAS  /tmp/cc3IGbAH.s 			page 216


 12066 0354 4441494E 		.ascii	"DAINT\000"
 12066      5400
 12067              	.LASF230:
 12068 035a 5553425F 		.ascii	"USB_EP0_WAITING_SETUP\000"
 12068      4550305F 
 12068      57414954 
 12068      494E475F 
 12068      53455455 
 12069              	.LASF308:
 12070 0370 444F4550 		.ascii	"DOEPMSK\000"
 12070      4D534B00 
 12071              	.LASF184:
 12072 0378 41504232 		.ascii	"APB2ENR\000"
 12072      454E5200 
 12073              	.LASF322:
 12074 0380 72657376 		.ascii	"resvdD00\000"
 12074      64443030 
 12074      00
 12075              	.LASF186:
 12076 0389 41484231 		.ascii	"AHB1LPENR\000"
 12076      4C50454E 
 12076      5200
 12077              	.LASF87:
 12078 0393 53797354 		.ascii	"SysTick_IRQn\000"
 12078      69636B5F 
 12078      4952516E 
 12078      00
 12079              	.LASF127:
 12080 03a0 55534152 		.ascii	"USART3_IRQn\000"
 12080      54335F49 
 12080      52516E00 
 12081              	.LASF1:
 12082 03ac 7369676E 		.ascii	"signed char\000"
 12082      65642063 
 12082      68617200 
 12083              	.LASF37:
 12084 03b8 705F7072 		.ascii	"p_preempt\000"
 12084      65656D70 
 12084      7400
 12085              	.LASF12:
 12086 03c2 75696E74 		.ascii	"uint8_t\000"
 12086      385F7400 
 12087              	.LASF426:
 12088 03ca 7573624F 		.ascii	"usbObjectInit\000"
 12088      626A6563 
 12088      74496E69 
 12088      7400
 12089              	.LASF242:
 12090 03d8 5553425F 		.ascii	"USB_EVENT_STALLED\000"
 12090      4556454E 
 12090      545F5354 
 12090      414C4C45 
 12090      4400
 12091              	.LASF228:
 12092 03ea 45505F53 		.ascii	"EP_STATUS_ACTIVE\000"
 12092      54415455 
 12092      535F4143 
ARM GAS  /tmp/cc3IGbAH.s 			page 217


 12092      54495645 
 12092      00
 12093              	.LASF270:
 12094 03fb 444F4550 		.ascii	"DOEPINT\000"
 12094      494E5400 
 12095              	.LASF24:
 12096 0403 6576656E 		.ascii	"eventmask_t\000"
 12096      746D6173 
 12096      6B5F7400 
 12097              	.LASF51:
 12098 040f 636F6E74 		.ascii	"context\000"
 12098      65787400 
 12099              	.LASF343:
 12100 0417 72787369 		.ascii	"rxsize\000"
 12100      7A6500
 12101              	.LASF414:
 12102 041e 6570305F 		.ascii	"ep0_state\000"
 12102      73746174 
 12102      6500
 12103              	.LASF101:
 12104 0428 444D4131 		.ascii	"DMA1_Stream2_IRQn\000"
 12104      5F537472 
 12104      65616D32 
 12104      5F495251 
 12104      6E00
 12105              	.LASF423:
 12106 043a 5F757362 		.ascii	"_usb_reset\000"
 12106      5F726573 
 12106      657400
 12107              	.LASF175:
 12108 0445 52455345 		.ascii	"RESERVED0\000"
 12108      52564544 
 12108      3000
 12109              	.LASF178:
 12110 044f 52455345 		.ascii	"RESERVED1\000"
 12110      52564544 
 12110      3100
 12111              	.LASF2:
 12112 0459 756E7369 		.ascii	"unsigned char\000"
 12112      676E6564 
 12112      20636861 
 12112      7200
 12113              	.LASF148:
 12114 0467 444D4132 		.ascii	"DMA2_Stream4_IRQn\000"
 12114      5F537472 
 12114      65616D34 
 12114      5F495251 
 12114      6E00
 12115              	.LASF189:
 12116 0479 52455345 		.ascii	"RESERVED4\000"
 12116      52564544 
 12116      3400
 12117              	.LASF76:
 12118 0483 715F6C69 		.ascii	"q_link\000"
 12118      6E6B00
 12119              	.LASF194:
 12120 048a 52455345 		.ascii	"RESERVED6\000"
ARM GAS  /tmp/cc3IGbAH.s 			page 218


 12120      52564544 
 12120      3600
 12121              	.LASF303:
 12122 0494 44434647 		.ascii	"DCFG\000"
 12122      00
 12123              	.LASF120:
 12124 0499 49324331 		.ascii	"I2C1_ER_IRQn\000"
 12124      5F45525F 
 12124      4952516E 
 12124      00
 12125              	.LASF55:
 12126 04a6 725F6E65 		.ascii	"r_newer\000"
 12126      77657200 
 12127              	.LASF287:
 12128 04ae 47434346 		.ascii	"GCCFG\000"
 12128      4700
 12129              	.LASF205:
 12130 04b4 65703073 		.ascii	"ep0state\000"
 12130      74617465 
 12130      00
 12131              	.LASF154:
 12132 04bd 43414E32 		.ascii	"CAN2_SCE_IRQn\000"
 12132      5F534345 
 12132      5F495251 
 12132      6E00
 12133              	.LASF265:
 12134 04cb 44494550 		.ascii	"DIEPTSIZ\000"
 12134      5453495A 
 12134      00
 12135              	.LASF359:
 12136 04d4 72657175 		.ascii	"requests_hook_cb\000"
 12136      65737473 
 12136      5F686F6F 
 12136      6B5F6362 
 12136      00
 12137              	.LASF406:
 12138 04e5 70636E74 		.ascii	"pcnt\000"
 12138      00
 12139              	.LASF380:
 12140 04ea 6F74675F 		.ascii	"otg_rxfifo_handler\000"
 12140      72786669 
 12140      666F5F68 
 12140      616E646C 
 12140      657200
 12141              	.LASF182:
 12142 04fd 52455345 		.ascii	"RESERVED2\000"
 12142      52564544 
 12142      3200
 12143              	.LASF185:
 12144 0507 52455345 		.ascii	"RESERVED3\000"
 12144      52564544 
 12144      3300
 12145              	.LASF292:
 12146 0511 48434647 		.ascii	"HCFG\000"
 12146      00
 12147              	.LASF138:
 12148 0516 54494D35 		.ascii	"TIM5_IRQn\000"
ARM GAS  /tmp/cc3IGbAH.s 			page 219


 12148      5F495251 
 12148      6E00
 12149              	.LASF192:
 12150 0520 52455345 		.ascii	"RESERVED5\000"
 12150      52564544 
 12150      3500
 12151              	.LASF83:
 12152 052a 55736167 		.ascii	"UsageFault_IRQn\000"
 12152      65466175 
 12152      6C745F49 
 12152      52516E00 
 12153              	.LASF404:
 12154 053a 7573625F 		.ascii	"usb_lld_read_setup\000"
 12154      6C6C645F 
 12154      72656164 
 12154      5F736574 
 12154      757000
 12155              	.LASF272:
 12156 054d 73746D33 		.ascii	"stm32_otg_out_ep_t\000"
 12156      325F6F74 
 12156      675F6F75 
 12156      745F6570 
 12156      5F7400
 12157              	.LASF10:
 12158 0560 63686172 		.ascii	"char\000"
 12158      00
 12159              	.LASF207:
 12160 0565 6570306E 		.ascii	"ep0n\000"
 12160      00
 12161              	.LASF306:
 12162 056a 72657376 		.ascii	"resvd80C\000"
 12162      64383043 
 12162      00
 12163              	.LASF300:
 12164 0573 48505254 		.ascii	"HPRT\000"
 12164      00
 12165              	.LASF29:
 12166 0578 705F7072 		.ascii	"p_prio\000"
 12166      696F00
 12167              	.LASF204:
 12168 057f 72656365 		.ascii	"receiving\000"
 12168      6976696E 
 12168      6700
 12169              	.LASF180:
 12170 0589 41484232 		.ascii	"AHB2ENR\000"
 12170      454E5200 
 12171              	.LASF68:
 12172 0591 47656E65 		.ascii	"GenericQueue\000"
 12172      72696351 
 12172      75657565 
 12172      00
 12173              	.LASF387:
 12174 059e 65706D61 		.ascii	"epmask\000"
 12174      736B00
 12175              	.LASF65:
 12176 05a5 77746F62 		.ascii	"wtobjp\000"
 12176      6A7000
ARM GAS  /tmp/cc3IGbAH.s 			page 220


 12177              	.LASF108:
 12178 05ac 43414E31 		.ascii	"CAN1_RX0_IRQn\000"
 12178      5F525830 
 12178      5F495251 
 12178      6E00
 12179              	.LASF347:
 12180 05ba 73657475 		.ascii	"setup_cb\000"
 12180      705F6362 
 12180      00
 12181              	.LASF245:
 12182 05c3 75645F73 		.ascii	"ud_string\000"
 12182      7472696E 
 12182      6700
 12183              	.LASF376:
 12184 05cd 6F74675F 		.ascii	"otg_epout_handler\000"
 12184      65706F75 
 12184      745F6861 
 12184      6E646C65 
 12184      7200
 12185              	.LASF348:
 12186 05df 696E5F63 		.ascii	"in_cb\000"
 12186      6200
 12187              	.LASF49:
 12188 05e5 73746B61 		.ascii	"stkalign_t\000"
 12188      6C69676E 
 12188      5F7400
 12189              	.LASF79:
 12190 05f0 4F757470 		.ascii	"OutputQueue\000"
 12190      75745175 
 12190      65756500 
 12191              	.LASF294:
 12192 05fc 48464E55 		.ascii	"HFNUM\000"
 12192      4D00
 12193              	.LASF249:
 12194 0602 75736265 		.ascii	"usbeventcb_t\000"
 12194      76656E74 
 12194      63625F74 
 12194      00
 12195              	.LASF377:
 12196 060f 6570696E 		.ascii	"epint\000"
 12196      7400
 12197              	.LASF118:
 12198 0615 54494D34 		.ascii	"TIM4_IRQn\000"
 12198      5F495251 
 12198      6E00
 12199              	.LASF383:
 12200 061f 73747265 		.ascii	"streak\000"
 12200      616B00
 12201              	.LASF126:
 12202 0626 55534152 		.ascii	"USART2_IRQn\000"
 12202      54325F49 
 12202      52516E00 
 12203              	.LASF260:
 12204 0632 73746D33 		.ascii	"stm32_otg_host_chn_t\000"
 12204      325F6F74 
 12204      675F686F 
 12204      73745F63 
ARM GAS  /tmp/cc3IGbAH.s 			page 221


 12204      686E5F74 
 12205              	.LASF203:
 12206 0647 7472616E 		.ascii	"transmitting\000"
 12206      736D6974 
 12206      74696E67 
 12206      00
 12207              	.LASF256:
 12208 0654 48435453 		.ascii	"HCTSIZ\000"
 12208      495A00
 12209              	.LASF339:
 12210 065b 55534249 		.ascii	"USBInEndpointState\000"
 12210      6E456E64 
 12210      706F696E 
 12210      74537461 
 12210      746500
 12211              	.LASF311:
 12212 066e 72657376 		.ascii	"resvd820\000"
 12212      64383230 
 12212      00
 12213              	.LASF312:
 12214 0677 72657376 		.ascii	"resvd824\000"
 12214      64383234 
 12214      00
 12215              	.LASF193:
 12216 0680 42444352 		.ascii	"BDCR\000"
 12216      00
 12217              	.LASF314:
 12218 0685 44564255 		.ascii	"DVBUSPULSE\000"
 12218      5350554C 
 12218      534500
 12219              	.LASF220:
 12220 0690 5553425F 		.ascii	"USB_UNINIT\000"
 12220      554E494E 
 12220      495400
 12221              	.LASF119:
 12222 069b 49324331 		.ascii	"I2C1_EV_IRQn\000"
 12222      5F45565F 
 12222      4952516E 
 12222      00
 12223              	.LASF316:
 12224 06a8 44494550 		.ascii	"DIEPEMPMSK\000"
 12224      454D504D 
 12224      534B00
 12225              	.LASF246:
 12226 06b3 55534244 		.ascii	"USBDescriptor\000"
 12226      65736372 
 12226      6970746F 
 12226      7200
 12227              	.LASF330:
 12228 06c1 73746D33 		.ascii	"stm32_otg_params_t\000"
 12228      325F6F74 
 12228      675F7061 
 12228      72616D73 
 12228      5F7400
 12229              	.LASF209:
 12230 06d4 73657475 		.ascii	"setup\000"
 12230      7000
ARM GAS  /tmp/cc3IGbAH.s 			page 222


 12231              	.LASF50:
 12232 06da 696E7463 		.ascii	"intctx\000"
 12232      747800
 12233              	.LASF42:
 12234 06e1 705F6570 		.ascii	"p_epending\000"
 12234      656E6469 
 12234      6E6700
 12235              	.LASF277:
 12236 06ec 47525354 		.ascii	"GRSTCTL\000"
 12236      43544C00 
 12237              	.LASF243:
 12238 06f4 75736265 		.ascii	"usbevent_t\000"
 12238      76656E74 
 12238      5F7400
 12239              	.LASF317:
 12240 06ff 72657376 		.ascii	"resvd838\000"
 12240      64383338 
 12240      00
 12241              	.LASF244:
 12242 0708 75645F73 		.ascii	"ud_size\000"
 12242      697A6500 
 12243              	.LASF171:
 12244 0710 43464752 		.ascii	"CFGR\000"
 12244      00
 12245              	.LASF422:
 12246 0715 63685363 		.ascii	"chSchGoSleepS\000"
 12246      68476F53 
 12246      6C656570 
 12246      5300
 12247              	.LASF223:
 12248 0723 5553425F 		.ascii	"USB_SELECTED\000"
 12248      53454C45 
 12248      43544544 
 12248      00
 12249              	.LASF115:
 12250 0730 54494D31 		.ascii	"TIM1_CC_IRQn\000"
 12250      5F43435F 
 12250      4952516E 
 12250      00
 12251              	.LASF168:
 12252 073d 48415348 		.ascii	"HASH_RNG_IRQn\000"
 12252      5F524E47 
 12252      5F495251 
 12252      6E00
 12253              	.LASF95:
 12254 074b 45585449 		.ascii	"EXTI1_IRQn\000"
 12254      315F4952 
 12254      516E00
 12255              	.LASF107:
 12256 0756 43414E31 		.ascii	"CAN1_TX_IRQn\000"
 12256      5F54585F 
 12256      4952516E 
 12256      00
 12257              	.LASF282:
 12258 0763 47525846 		.ascii	"GRXFSIZ\000"
 12258      53495A00 
 12259              	.LASF227:
ARM GAS  /tmp/cc3IGbAH.s 			page 223


 12260 076b 45505F53 		.ascii	"EP_STATUS_STALLED\000"
 12260      54415455 
 12260      535F5354 
 12260      414C4C45 
 12260      4400
 12261              	.LASF104:
 12262 077d 444D4131 		.ascii	"DMA1_Stream5_IRQn\000"
 12262      5F537472 
 12262      65616D35 
 12262      5F495251 
 12262      6E00
 12263              	.LASF269:
 12264 078f 444F4550 		.ascii	"DOEPCTL\000"
 12264      43544C00 
 12265              	.LASF133:
 12266 0797 54494D38 		.ascii	"TIM8_TRG_COM_TIM14_IRQn\000"
 12266      5F545247 
 12266      5F434F4D 
 12266      5F54494D 
 12266      31345F49 
 12267              	.LASF158:
 12268 07af 444D4132 		.ascii	"DMA2_Stream7_IRQn\000"
 12268      5F537472 
 12268      65616D37 
 12268      5F495251 
 12268      6E00
 12269              	.LASF70:
 12270 07c1 715F636F 		.ascii	"q_counter\000"
 12270      756E7465 
 12270      7200
 12271              	.LASF373:
 12272 07cb 7573625F 		.ascii	"usb_lld_serve_interrupt\000"
 12272      6C6C645F 
 12272      73657276 
 12272      655F696E 
 12272      74657272 
 12273              	.LASF155:
 12274 07e3 4F54475F 		.ascii	"OTG_FS_IRQn\000"
 12274      46535F49 
 12274      52516E00 
 12275              	.LASF319:
 12276 07ef 72657376 		.ascii	"resvd840\000"
 12276      64383430 
 12276      00
 12277              	.LASF80:
 12278 07f8 4E6F6E4D 		.ascii	"NonMaskableInt_IRQn\000"
 12278      61736B61 
 12278      626C6549 
 12278      6E745F49 
 12278      52516E00 
 12279              	.LASF136:
 12280 080c 46534D43 		.ascii	"FSMC_IRQn\000"
 12280      5F495251 
 12280      6E00
 12281              	.LASF290:
 12282 0816 44494550 		.ascii	"DIEPTXF\000"
 12282      54584600 
ARM GAS  /tmp/cc3IGbAH.s 			page 224


 12283              	.LASF88:
 12284 081e 57574447 		.ascii	"WWDG_IRQn\000"
 12284      5F495251 
 12284      6E00
 12285              	.LASF9:
 12286 0828 6C6F6E67 		.ascii	"long unsigned int\000"
 12286      20756E73 
 12286      69676E65 
 12286      6420696E 
 12286      7400
 12287              	.LASF81:
 12288 083a 4D656D6F 		.ascii	"MemoryManagement_IRQn\000"
 12288      72794D61 
 12288      6E616765 
 12288      6D656E74 
 12288      5F495251 
 12289              	.LASF210:
 12290 0850 73746174 		.ascii	"status\000"
 12290      757300
 12291              	.LASF202:
 12292 0857 70617261 		.ascii	"param\000"
 12292      6D00
 12293              	.LASF211:
 12294 085d 61646472 		.ascii	"address\000"
 12294      65737300 
 12295              	.LASF90:
 12296 0865 54414D50 		.ascii	"TAMP_STAMP_IRQn\000"
 12296      5F535441 
 12296      4D505F49 
 12296      52516E00 
 12297              	.LASF208:
 12298 0875 65703065 		.ascii	"ep0endcb\000"
 12298      6E646362 
 12298      00
 12299              	.LASF110:
 12300 087e 43414E31 		.ascii	"CAN1_SCE_IRQn\000"
 12300      5F534345 
 12300      5F495251 
 12300      6E00
 12301              	.LASF275:
 12302 088c 47414842 		.ascii	"GAHBCFG\000"
 12302      43464700 
 12303              	.LASF252:
 12304 0894 48434348 		.ascii	"HCCHAR\000"
 12304      415200
 12305              	.LASF354:
 12306 089b 696E5F6D 		.ascii	"in_multiplier\000"
 12306      756C7469 
 12306      706C6965 
 12306      7200
 12307              	.LASF144:
 12308 08a9 444D4132 		.ascii	"DMA2_Stream0_IRQn\000"
 12308      5F537472 
 12308      65616D30 
 12308      5F495251 
 12308      6E00
 12309              	.LASF369:
ARM GAS  /tmp/cc3IGbAH.s 			page 225


 12310 08bb 75736270 		.ascii	"usbp\000"
 12310      00
 12311              	.LASF329:
 12312 08c0 6E756D5F 		.ascii	"num_endpoints\000"
 12312      656E6470 
 12312      6F696E74 
 12312      7300
 12313              	.LASF73:
 12314 08ce 715F7772 		.ascii	"q_wrptr\000"
 12314      70747200 
 12315              	.LASF336:
 12316 08d6 74787369 		.ascii	"txsize\000"
 12316      7A6500
 12317              	.LASF431:
 12318 08dd 2F426967 		.ascii	"/BigDriver/home/nacho/WORKHOME/programacion/chibiOS"
 12318      44726976 
 12318      65722F68 
 12318      6F6D652F 
 12318      6E616368 
 12319 0910 2F636869 		.ascii	"/chibios/nacho/lx200\000"
 12319      62696F73 
 12319      2F6E6163 
 12319      686F2F6C 
 12319      78323030 
 12320              	.LASF216:
 12321 0925 7468645F 		.ascii	"thd_ptr\000"
 12321      70747200 
 12322              	.LASF344:
 12323 092d 7278636E 		.ascii	"rxcnt\000"
 12323      7400
 12324              	.LASF122:
 12325 0933 49324332 		.ascii	"I2C2_ER_IRQn\000"
 12325      5F45525F 
 12325      4952516E 
 12325      00
 12326              	.LASF225:
 12327 0940 75736273 		.ascii	"usbstate_t\000"
 12327      74617465 
 12327      5F7400
 12328              	.LASF417:
 12329 094b 66737061 		.ascii	"fsparams\000"
 12329      72616D73 
 12329      00
 12330              	.LASF388:
 12331 0954 646F6E65 		.ascii	"done\000"
 12331      00
 12332              	.LASF235:
 12333 0959 5553425F 		.ascii	"USB_EP0_ERROR\000"
 12333      4550305F 
 12333      4552524F 
 12333      5200
 12334              	.LASF295:
 12335 0967 72657376 		.ascii	"resvd40C\000"
 12335      64343043 
 12335      00
 12336              	.LASF434:
 12337 0970 6E766963 		.ascii	"nvicEnableVector\000"
ARM GAS  /tmp/cc3IGbAH.s 			page 226


 12337      456E6162 
 12337      6C655665 
 12337      63746F72 
 12337      00
 12338              	.LASF82:
 12339 0981 42757346 		.ascii	"BusFault_IRQn\000"
 12339      61756C74 
 12339      5F495251 
 12339      6E00
 12340              	.LASF273:
 12341 098f 474F5447 		.ascii	"GOTGCTL\000"
 12341      43544C00 
 12342              	.LASF170:
 12343 0997 504C4C43 		.ascii	"PLLCFGR\000"
 12343      46475200 
 12344              	.LASF141:
 12345 099f 55415254 		.ascii	"UART5_IRQn\000"
 12345      355F4952 
 12345      516E00
 12346              	.LASF385:
 12347 09aa 6F74675F 		.ascii	"otg_txfifo_handler\000"
 12347      74786669 
 12347      666F5F68 
 12347      616E646C 
 12347      657200
 12348              	.LASF112:
 12349 09bd 54494D31 		.ascii	"TIM1_BRK_TIM9_IRQn\000"
 12349      5F42524B 
 12349      5F54494D 
 12349      395F4952 
 12349      516E00
 12350              	.LASF340:
 12351 09d0 72786275 		.ascii	"rxbuf\000"
 12351      6600
 12352              	.LASF281:
 12353 09d6 47525853 		.ascii	"GRXSTSP\000"
 12353      54535000 
 12354              	.LASF352:
 12355 09de 696E5F73 		.ascii	"in_state\000"
 12355      74617465 
 12355      00
 12356              	.LASF280:
 12357 09e7 47525853 		.ascii	"GRXSTSR\000"
 12357      54535200 
 12358              	.LASF241:
 12359 09ef 5553425F 		.ascii	"USB_EVENT_WAKEUP\000"
 12359      4556454E 
 12359      545F5741 
 12359      4B455550 
 12359      00
 12360              	.LASF323:
 12361 0a00 50434743 		.ascii	"PCGCCTL\000"
 12361      43544C00 
 12362              	.LASF363:
 12363 0a08 6F74675F 		.ascii	"otg_do_push\000"
 12363      646F5F70 
 12363      75736800 
ARM GAS  /tmp/cc3IGbAH.s 			page 227


 12364              	.LASF357:
 12365 0a14 6576656E 		.ascii	"event_cb\000"
 12365      745F6362 
 12365      00
 12366              	.LASF59:
 12367 0a1d 4D757465 		.ascii	"Mutex\000"
 12367      7800
 12368              	.LASF143:
 12369 0a23 54494D37 		.ascii	"TIM7_IRQn\000"
 12369      5F495251 
 12369      6E00
 12370              	.LASF5:
 12371 0a2d 6C6F6E67 		.ascii	"long long int\000"
 12371      206C6F6E 
 12371      6720696E 
 12371      7400
 12372              	.LASF222:
 12373 0a3b 5553425F 		.ascii	"USB_READY\000"
 12373      52454144 
 12373      5900
 12374              	.LASF150:
 12375 0a45 4554485F 		.ascii	"ETH_WKUP_IRQn\000"
 12375      574B5550 
 12375      5F495251 
 12375      6E00
 12376              	.LASF124:
 12377 0a53 53504932 		.ascii	"SPI2_IRQn\000"
 12377      5F495251 
 12377      6E00
 12378              	.LASF165:
 12379 0a5d 4F54475F 		.ascii	"OTG_HS_IRQn\000"
 12379      48535F49 
 12379      52516E00 
 12380              	.LASF60:
 12381 0a69 6D5F7175 		.ascii	"m_queue\000"
 12381      65756500 
 12382              	.LASF195:
 12383 0a71 53534347 		.ascii	"SSCGR\000"
 12383      5200
 12384              	.LASF123:
 12385 0a77 53504931 		.ascii	"SPI1_IRQn\000"
 12385      5F495251 
 12385      6E00
 12386              	.LASF358:
 12387 0a81 6765745F 		.ascii	"get_descriptor_cb\000"
 12387      64657363 
 12387      72697074 
 12387      6F725F63 
 12387      6200
 12388              	.LASF206:
 12389 0a93 6570306E 		.ascii	"ep0next\000"
 12389      65787400 
 12390              	.LASF84:
 12391 0a9b 53564361 		.ascii	"SVCall_IRQn\000"
 12391      6C6C5F49 
 12391      52516E00 
 12392              	.LASF177:
ARM GAS  /tmp/cc3IGbAH.s 			page 228


 12393 0aa7 41504232 		.ascii	"APB2RSTR\000"
 12393      52535452 
 12393      00
 12394              	.LASF248:
 12395 0ab0 75736265 		.ascii	"usbepcallback_t\000"
 12395      7063616C 
 12395      6C626163 
 12395      6B5F7400 
 12396              	.LASF320:
 12397 0ac0 72657376 		.ascii	"resvd880\000"
 12397      64383830 
 12397      00
 12398              	.LASF169:
 12399 0ac9 4650555F 		.ascii	"FPU_IRQn\000"
 12399      4952516E 
 12399      00
 12400              	.LASF318:
 12401 0ad2 72657376 		.ascii	"resvd83C\000"
 12401      64383343 
 12401      00
 12402              	.LASF67:
 12403 0adb 7466756E 		.ascii	"tfunc_t\000"
 12403      635F7400 
 12404              	.LASF140:
 12405 0ae3 55415254 		.ascii	"UART4_IRQn\000"
 12405      345F4952 
 12405      516E00
 12406              	.LASF191:
 12407 0aee 41504232 		.ascii	"APB2LPENR\000"
 12407      4C50454E 
 12407      5200
 12408              	.LASF389:
 12409 0af8 7573625F 		.ascii	"usb_lld_wakeup_pump\000"
 12409      6C6C645F 
 12409      77616B65 
 12409      75705F70 
 12409      756D7000 
 12410              	.LASF77:
 12411 0b0c 716E6F74 		.ascii	"qnotify_t\000"
 12411      6966795F 
 12411      7400
 12412              	.LASF39:
 12413 0b16 705F7761 		.ascii	"p_waiting\000"
 12413      6974696E 
 12413      6700
 12414              	.LASF130:
 12415 0b20 4F54475F 		.ascii	"OTG_FS_WKUP_IRQn\000"
 12415      46535F57 
 12415      4B55505F 
 12415      4952516E 
 12415      00
 12416              	.LASF35:
 12417 0b31 705F666C 		.ascii	"p_flags\000"
 12417      61677300 
 12418              	.LASF271:
 12419 0b39 444F4550 		.ascii	"DOEPTSIZ\000"
 12419      5453495A 
ARM GAS  /tmp/cc3IGbAH.s 			page 229


 12419      00
 12420              	.LASF297:
 12421 0b42 4841494E 		.ascii	"HAINT\000"
 12421      5400
 12422              	.LASF0:
 12423 0b48 756E7369 		.ascii	"unsigned int\000"
 12423      676E6564 
 12423      20696E74 
 12423      00
 12424              	.LASF142:
 12425 0b55 54494D36 		.ascii	"TIM6_DAC_IRQn\000"
 12425      5F444143 
 12425      5F495251 
 12425      6E00
 12426              	.LASF392:
 12427 0b63 7573625F 		.ascii	"usb_lld_init\000"
 12427      6C6C645F 
 12427      696E6974 
 12427      00
 12428              	.LASF361:
 12429 0b70 55534243 		.ascii	"USBConfig\000"
 12429      6F6E6669 
 12429      6700
 12430              	.LASF391:
 12431 0b7a 56656374 		.ascii	"Vector14C\000"
 12431      6F723134 
 12431      4300
 12432              	.LASF215:
 12433 0b84 74787065 		.ascii	"txpending\000"
 12433      6E64696E 
 12433      6700
 12434              	.LASF45:
 12435 0b8e 705F6D70 		.ascii	"p_mpool\000"
 12435      6F6F6C00 
 12436              	.LASF121:
 12437 0b96 49324332 		.ascii	"I2C2_EV_IRQn\000"
 12437      5F45565F 
 12437      4952516E 
 12437      00
 12438              	.LASF411:
 12439 0ba3 7573625F 		.ascii	"usb_lld_stall_in\000"
 12439      6C6C645F 
 12439      7374616C 
 12439      6C5F696E 
 12439      00
 12440              	.LASF326:
 12441 0bb4 73746D33 		.ascii	"stm32_otg_t\000"
 12441      325F6F74 
 12441      675F7400 
 12442              	.LASF36:
 12443 0bc0 705F7265 		.ascii	"p_refs\000"
 12443      667300
 12444              	.LASF408:
 12445 0bc7 7573625F 		.ascii	"usb_lld_start_out\000"
 12445      6C6C645F 
 12445      73746172 
 12445      745F6F75 
ARM GAS  /tmp/cc3IGbAH.s 			page 230


 12445      7400
 12446              	.LASF421:
 12447 0bd9 68616C50 		.ascii	"halPolledDelay\000"
 12447      6F6C6C65 
 12447      6444656C 
 12447      617900
 12448              	.LASF355:
 12449 0be8 73657475 		.ascii	"setup_buf\000"
 12449      705F6275 
 12449      6600
 12450              	.LASF425:
 12451 0bf2 5F706F72 		.ascii	"_port_irq_epilogue\000"
 12451      745F6972 
 12451      715F6570 
 12451      696C6F67 
 12451      756500
 12452              	.LASF47:
 12453 0c05 54687265 		.ascii	"ThreadsList\000"
 12453      6164734C 
 12453      69737400 
 12454              	.LASF301:
 12455 0c11 72657376 		.ascii	"resvd444\000"
 12455      64343434 
 12455      00
 12456              	.LASF416:
 12457 0c1a 65703063 		.ascii	"ep0config\000"
 12457      6F6E6669 
 12457      6700
 12458              	.LASF349:
 12459 0c24 6F75745F 		.ascii	"out_cb\000"
 12459      636200
 12460              	.LASF199:
 12461 0c2b 55534244 		.ascii	"USBDriver\000"
 12461      72697665 
 12461      7200
 12462              	.LASF190:
 12463 0c35 41504231 		.ascii	"APB1LPENR\000"
 12463      4C50454E 
 12463      5200
 12464              	.LASF100:
 12465 0c3f 444D4131 		.ascii	"DMA1_Stream1_IRQn\000"
 12465      5F537472 
 12465      65616D31 
 12465      5F495251 
 12465      6E00
 12466              	.LASF298:
 12467 0c51 4841494E 		.ascii	"HAINTMSK\000"
 12467      544D534B 
 12467      00
 12468              	.LASF221:
 12469 0c5a 5553425F 		.ascii	"USB_STOP\000"
 12469      53544F50 
 12469      00
 12470              	.LASF147:
 12471 0c63 444D4132 		.ascii	"DMA2_Stream3_IRQn\000"
 12471      5F537472 
 12471      65616D33 
ARM GAS  /tmp/cc3IGbAH.s 			page 231


 12471      5F495251 
 12471      6E00
 12472              	.LASF350:
 12473 0c75 696E5F6D 		.ascii	"in_maxsize\000"
 12473      61787369 
 12473      7A6500
 12474              	.LASF151:
 12475 0c80 43414E32 		.ascii	"CAN2_TX_IRQn\000"
 12475      5F54585F 
 12475      4952516E 
 12475      00
 12476              	.LASF279:
 12477 0c8d 47494E54 		.ascii	"GINTMSK\000"
 12477      4D534B00 
 12478              	.LASF38:
 12479 0c95 705F7469 		.ascii	"p_time\000"
 12479      6D6500
 12480              	.LASF353:
 12481 0c9c 6F75745F 		.ascii	"out_state\000"
 12481      73746174 
 12481      6500
 12482              	.LASF397:
 12483 0ca6 7573625F 		.ascii	"usb_lld_reset\000"
 12483      6C6C645F 
 12483      72657365 
 12483      7400
 12484              	.LASF432:
 12485 0cb4 4952516E 		.ascii	"IRQn\000"
 12485      00
 12486              	.LASF105:
 12487 0cb9 444D4131 		.ascii	"DMA1_Stream6_IRQn\000"
 12487      5F537472 
 12487      65616D36 
 12487      5F495251 
 12487      6E00
 12488              	.LASF398:
 12489 0ccb 7573625F 		.ascii	"usb_lld_set_address\000"
 12489      6C6C645F 
 12489      7365745F 
 12489      61646472 
 12489      65737300 
 12490              	.LASF433:
 12491 0cdf 7573625F 		.ascii	"usb_lld_pump\000"
 12491      6C6C645F 
 12491      70756D70 
 12491      00
 12492              	.LASF174:
 12493 0cec 41484233 		.ascii	"AHB3RSTR\000"
 12493      52535452 
 12493      00
 12494              	.LASF337:
 12495 0cf5 7478636E 		.ascii	"txcnt\000"
 12495      7400
 12496              	.LASF44:
 12497 0cfb 705F7265 		.ascii	"p_realprio\000"
 12497      616C7072 
 12497      696F00
ARM GAS  /tmp/cc3IGbAH.s 			page 232


 12498              	.LASF213:
 12499 0d06 6F746770 		.ascii	"otgparams\000"
 12499      6172616D 
 12499      7300
 12500              	.LASF315:
 12501 0d10 72657376 		.ascii	"resvd830\000"
 12501      64383330 
 12501      00
 12502              	.LASF99:
 12503 0d19 444D4131 		.ascii	"DMA1_Stream0_IRQn\000"
 12503      5F537472 
 12503      65616D30 
 12503      5F495251 
 12503      6E00
 12504              	.LASF176:
 12505 0d2b 41504231 		.ascii	"APB1RSTR\000"
 12505      52535452 
 12505      00
 12506              	.LASF129:
 12507 0d34 5254435F 		.ascii	"RTC_Alarm_IRQn\000"
 12507      416C6172 
 12507      6D5F4952 
 12507      516E00
 12508              	.LASF183:
 12509 0d43 41504231 		.ascii	"APB1ENR\000"
 12509      454E5200 
 12510              	.LASF345:
 12511 0d4b 5553424F 		.ascii	"USBOutEndpointState\000"
 12511      7574456E 
 12511      64706F69 
 12511      6E745374 
 12511      61746500 
 12512              	.LASF161:
 12513 0d5f 49324333 		.ascii	"I2C3_ER_IRQn\000"
 12513      5F45525F 
 12513      4952516E 
 12513      00
 12514              	.LASF409:
 12515 0d6c 7573625F 		.ascii	"usb_lld_start_in\000"
 12515      6C6C645F 
 12515      73746172 
 12515      745F696E 
 12515      00
 12516              	.LASF371:
 12517 0d7d 73697A65 		.ascii	"size\000"
 12517      00
 12518              	.LASF167:
 12519 0d82 43525950 		.ascii	"CRYP_IRQn\000"
 12519      5F495251 
 12519      6E00
 12520              	.LASF128:
 12521 0d8c 45585449 		.ascii	"EXTI15_10_IRQn\000"
 12521      31355F31 
 12521      305F4952 
 12521      516E00
 12522              	.LASF6:
 12523 0d9b 6C6F6E67 		.ascii	"long long unsigned int\000"
ARM GAS  /tmp/cc3IGbAH.s 			page 233


 12523      206C6F6E 
 12523      6720756E 
 12523      7369676E 
 12523      65642069 
 12524              	.LASF289:
 12525 0db2 48505458 		.ascii	"HPTXFSIZ\000"
 12525      4653495A 
 12525      00
 12526              	.LASF401:
 12527 0dbb 7573625F 		.ascii	"usb_lld_disable_endpoints\000"
 12527      6C6C645F 
 12527      64697361 
 12527      626C655F 
 12527      656E6470 
 12528              	.LASF32:
 12529 0dd5 705F6F6C 		.ascii	"p_older\000"
 12529      64657200 
 12530              	.LASF13:
 12531 0ddd 75696E74 		.ascii	"uint16_t\000"
 12531      31365F74 
 12531      00
 12532              	.LASF254:
 12533 0de6 4843494E 		.ascii	"HCINT\000"
 12533      5400
 12534              	.LASF333:
 12535 0dec 6C696E65 		.ascii	"linear\000"
 12535      617200
 12536              	.LASF23:
 12537 0df3 6D73675F 		.ascii	"msg_t\000"
 12537      7400
 12538              	.LASF304:
 12539 0df9 4443544C 		.ascii	"DCTL\000"
 12539      00
 12540              	.LASF356:
 12541 0dfe 55534245 		.ascii	"USBEndpointConfig\000"
 12541      6E64706F 
 12541      696E7443 
 12541      6F6E6669 
 12541      6700
 12542              	.LASF255:
 12543 0e10 4843494E 		.ascii	"HCINTMSK\000"
 12543      544D534B 
 12543      00
 12544              	.LASF117:
 12545 0e19 54494D33 		.ascii	"TIM3_IRQn\000"
 12545      5F495251 
 12545      6E00
 12546              	.LASF125:
 12547 0e23 55534152 		.ascii	"USART1_IRQn\000"
 12547      54315F49 
 12547      52516E00 
 12548              	.LASF342:
 12549 0e2f 72787175 		.ascii	"rxqueued\000"
 12549      65756564 
 12549      00
 12550              	.LASF21:
 12551 0e38 74736C69 		.ascii	"tslices_t\000"
ARM GAS  /tmp/cc3IGbAH.s 			page 234


 12551      6365735F 
 12551      7400
 12552              	.LASF405:
 12553 0e42 7573625F 		.ascii	"usb_lld_prepare_receive\000"
 12553      6C6C645F 
 12553      70726570 
 12553      6172655F 
 12553      72656365 
 12554              	.LASF274:
 12555 0e5a 474F5447 		.ascii	"GOTGINT\000"
 12555      494E5400 
 12556              	.LASF57:
 12557 0e62 725F6375 		.ascii	"r_current\000"
 12557      7272656E 
 12557      7400
 12558              	.LASF96:
 12559 0e6c 45585449 		.ascii	"EXTI2_IRQn\000"
 12559      325F4952 
 12559      516E00
 12560              	.LASF334:
 12561 0e77 71756575 		.ascii	"queue\000"
 12561      6500
 12562              	.LASF153:
 12563 0e7d 43414E32 		.ascii	"CAN2_RX1_IRQn\000"
 12563      5F525831 
 12563      5F495251 
 12563      6E00
 12564              	.LASF106:
 12565 0e8b 4144435F 		.ascii	"ADC_IRQn\000"
 12565      4952516E 
 12565      00
 12566              	.LASF341:
 12567 0e94 72787175 		.ascii	"rxqueue\000"
 12567      65756500 
 12568              	.LASF310:
 12569 0e9c 4441494E 		.ascii	"DAINTMSK\000"
 12569      544D534B 
 12569      00
 12570              	.LASF428:
 12571 0ea5 63685468 		.ascii	"chThdCreateI\000"
 12571      64437265 
 12571      61746549 
 12571      00
 12572              	.LASF188:
 12573 0eb2 41484233 		.ascii	"AHB3LPENR\000"
 12573      4C50454E 
 12573      5200
 12574              	.LASF313:
 12575 0ebc 44564255 		.ascii	"DVBUSDIS\000"
 12575      53444953 
 12575      00
 12576              	.LASF268:
 12577 0ec5 73746D33 		.ascii	"stm32_otg_in_ep_t\000"
 12577      325F6F74 
 12577      675F696E 
 12577      5F65705F 
 12577      7400
ARM GAS  /tmp/cc3IGbAH.s 			page 235


 12578              	.LASF328:
 12579 0ed7 6F74675F 		.ascii	"otg_ram_size\000"
 12579      72616D5F 
 12579      73697A65 
 12579      00
 12580              	.LASF52:
 12581 0ee4 725F7175 		.ascii	"r_queue\000"
 12581      65756500 
 12582              	.LASF89:
 12583 0eec 5056445F 		.ascii	"PVD_IRQn\000"
 12583      4952516E 
 12583      00
 12584              	.LASF239:
 12585 0ef5 5553425F 		.ascii	"USB_EVENT_CONFIGURED\000"
 12585      4556454E 
 12585      545F434F 
 12585      4E464947 
 12585      55524544 
 12586              	.LASF325:
 12587 0f0a 4649464F 		.ascii	"FIFO\000"
 12587      00
 12588              	.LASF69:
 12589 0f0f 715F7761 		.ascii	"q_waiting\000"
 12589      6974696E 
 12589      6700
 12590              	.LASF94:
 12591 0f19 45585449 		.ascii	"EXTI0_IRQn\000"
 12591      305F4952 
 12591      516E00
 12592              	.LASF418:
 12593 0f24 726C6973 		.ascii	"rlist\000"
 12593      7400
 12594              	.LASF18:
 12595 0f2a 746D6F64 		.ascii	"tmode_t\000"
 12595      655F7400 
 12596              	.LASF103:
 12597 0f32 444D4131 		.ascii	"DMA1_Stream4_IRQn\000"
 12597      5F537472 
 12597      65616D34 
 12597      5F495251 
 12597      6E00
 12598              	.LASF157:
 12599 0f44 444D4132 		.ascii	"DMA2_Stream6_IRQn\000"
 12599      5F537472 
 12599      65616D36 
 12599      5F495251 
 12599      6E00
 12600              	.LASF179:
 12601 0f56 41484231 		.ascii	"AHB1ENR\000"
 12601      454E5200 
 12602              	.LASF299:
 12603 0f5e 72657376 		.ascii	"resvd41C\000"
 12603      64343143 
 12603      00
 12604              	.LASF251:
 12605 0f67 75736267 		.ascii	"usbgetdescriptor_t\000"
 12605      65746465 
ARM GAS  /tmp/cc3IGbAH.s 			page 236


 12605      73637269 
 12605      70746F72 
 12605      5F7400
 12606              	.LASF85:
 12607 0f7a 44656275 		.ascii	"DebugMonitor_IRQn\000"
 12607      674D6F6E 
 12607      69746F72 
 12607      5F495251 
 12607      6E00
 12608              	.LASF218:
 12609 0f8c 77615F70 		.ascii	"wa_pump\000"
 12609      756D7000 
 12610              	.LASF198:
 12611 0f94 68616C72 		.ascii	"halrtcnt_t\000"
 12611      74636E74 
 12611      5F7400
 12612              	.LASF160:
 12613 0f9f 49324333 		.ascii	"I2C3_EV_IRQn\000"
 12613      5F45565F 
 12613      4952516E 
 12613      00
 12614              	.LASF56:
 12615 0fac 725F6F6C 		.ascii	"r_older\000"
 12615      64657200 
 12616              	.LASF173:
 12617 0fb4 41484232 		.ascii	"AHB2RSTR\000"
 12617      52535452 
 12617      00
 12618              	.LASF149:
 12619 0fbd 4554485F 		.ascii	"ETH_IRQn\000"
 12619      4952516E 
 12619      00
 12620              	.LASF378:
 12621 0fc6 6F74675F 		.ascii	"otg_txfifo_flush\000"
 12621      74786669 
 12621      666F5F66 
 12621      6C757368 
 12621      00
 12622              	.LASF197:
 12623 0fd7 5243435F 		.ascii	"RCC_TypeDef\000"
 12623      54797065 
 12623      44656600 
 12624              	.LASF3:
 12625 0fe3 73686F72 		.ascii	"short int\000"
 12625      7420696E 
 12625      7400
 12626              	.LASF327:
 12627 0fed 72785F66 		.ascii	"rx_fifo_size\000"
 12627      69666F5F 
 12627      73697A65 
 12627      00
 12628              	.LASF16:
 12629 0ffa 75696E74 		.ascii	"uint64_t\000"
 12629      36345F74 
 12629      00
 12630              	.LASF93:
 12631 1003 5243435F 		.ascii	"RCC_IRQn\000"
ARM GAS  /tmp/cc3IGbAH.s 			page 237


 12631      4952516E 
 12631      00
 12632              	.LASF338:
 12633 100c 6D6F6465 		.ascii	"mode\000"
 12633      00
 12634              	.LASF424:
 12635 1011 63685363 		.ascii	"chSchRescheduleS\000"
 12635      68526573 
 12635      63686564 
 12635      756C6553 
 12635      00
 12636              	.LASF237:
 12637 1022 5553425F 		.ascii	"USB_EVENT_RESET\000"
 12637      4556454E 
 12637      545F5245 
 12637      53455400 
 12638              	.LASF257:
 12639 1032 72657376 		.ascii	"resvd14\000"
 12639      64313400 
 12640              	.LASF258:
 12641 103a 72657376 		.ascii	"resvd18\000"
 12641      64313800 
 12642              	.LASF266:
 12643 1042 44545846 		.ascii	"DTXFSTS\000"
 12643      53545300 
 12644              	.LASF332:
 12645 104a 74787175 		.ascii	"txqueue\000"
 12645      65756500 
 12646              	.LASF364:
 12647 1052 6F74675F 		.ascii	"otg_do_pop\000"
 12647      646F5F70 
 12647      6F7000
 12648              	.LASF267:
 12649 105d 72657376 		.ascii	"resvd1C\000"
 12649      64314300 
 12650              	.LASF307:
 12651 1065 44494550 		.ascii	"DIEPMSK\000"
 12651      4D534B00 
 12652              	.LASF53:
 12653 106d 725F7072 		.ascii	"r_prio\000"
 12653      696F00
 12654              	.LASF102:
 12655 1074 444D4131 		.ascii	"DMA1_Stream3_IRQn\000"
 12655      5F537472 
 12655      65616D33 
 12655      5F495251 
 12655      6E00
 12656              	.LASF430:
 12657 1086 2E2E2F2E 		.ascii	"../../os/hal/platforms/STM32/OTGv1/usb_lld.c\000"
 12657      2E2F6F73 
 12657      2F68616C 
 12657      2F706C61 
 12657      74666F72 
 12658              	.LASF402:
 12659 10b3 7573625F 		.ascii	"usb_lld_get_status_out\000"
 12659      6C6C645F 
 12659      6765745F 
ARM GAS  /tmp/cc3IGbAH.s 			page 238


 12659      73746174 
 12659      75735F6F 
 12660              	.LASF394:
 12661 10ca 7573625F 		.ascii	"usb_lld_start\000"
 12661      6C6C645F 
 12661      73746172 
 12661      7400
 12662              	.LASF17:
 12663 10d8 626F6F6C 		.ascii	"bool_t\000"
 12663      5F7400
 12664              	.LASF259:
 12665 10df 72657376 		.ascii	"resvd1c\000"
 12665      64316300 
 12666              	.LASF250:
 12667 10e7 75736272 		.ascii	"usbreqhandler_t\000"
 12667      65716861 
 12667      6E646C65 
 12667      725F7400 
 12668              	.LASF261:
 12669 10f7 44494550 		.ascii	"DIEPCTL\000"
 12669      43544C00 
 12670              	.LASF247:
 12671 10ff 75736263 		.ascii	"usbcallback_t\000"
 12671      616C6C62 
 12671      61636B5F 
 12671      7400
 12672              	.LASF26:
 12673 110d 54687265 		.ascii	"Thread\000"
 12673      616400
 12674              	.LASF278:
 12675 1114 47494E54 		.ascii	"GINTSTS\000"
 12675      53545300 
 12676              	.LASF113:
 12677 111c 54494D31 		.ascii	"TIM1_UP_TIM10_IRQn\000"
 12677      5F55505F 
 12677      54494D31 
 12677      305F4952 
 12677      516E00
 12678              	.LASF419:
 12679 112f 49544D5F 		.ascii	"ITM_RxBuffer\000"
 12679      52784275 
 12679      66666572 
 12679      00
 12680              	.LASF381:
 12681 113c 6F74675F 		.ascii	"otg_fifo_read_to_queue\000"
 12681      6669666F 
 12681      5F726561 
 12681      645F746F 
 12681      5F717565 
 12682              	.LASF413:
 12683 1153 7573625F 		.ascii	"usb_lld_clear_in\000"
 12683      6C6C645F 
 12683      636C6561 
 12683      725F696E 
 12683      00
 12684              	.LASF263:
 12685 1164 44494550 		.ascii	"DIEPINT\000"
ARM GAS  /tmp/cc3IGbAH.s 			page 239


 12685      494E5400 
 12686              	.LASF284:
 12687 116c 484E5054 		.ascii	"HNPTXSTS\000"
 12687      58535453 
 12687      00
 12688              	.LASF420:
 12689 1175 55534244 		.ascii	"USBD1\000"
 12689      3100
 12690              	.LASF20:
 12691 117b 74726566 		.ascii	"trefs_t\000"
 12691      735F7400 
 12692              	.LASF162:
 12693 1183 4F54475F 		.ascii	"OTG_HS_EP1_OUT_IRQn\000"
 12693      48535F45 
 12693      50315F4F 
 12693      55545F49 
 12693      52516E00 
 12694              	.LASF360:
 12695 1197 736F665F 		.ascii	"sof_cb\000"
 12695      636200
 12696              	.LASF91:
 12697 119e 5254435F 		.ascii	"RTC_WKUP_IRQn\000"
 12697      574B5550 
 12697      5F495251 
 12697      6E00
 12698              	.LASF324:
 12699 11ac 72657376 		.ascii	"resvdE04\000"
 12699      64453034 
 12699      00
 12700              	.LASF285:
 12701 11b5 72657376 		.ascii	"resvd30\000"
 12701      64333000 
 12702              	.LASF321:
 12703 11bd 72657376 		.ascii	"resvd8C0\000"
 12703      64384330 
 12703      00
 12704              	.LASF286:
 12705 11c6 72657376 		.ascii	"resvd34\000"
 12705      64333400 
 12706              	.LASF368:
 12707 11ce 6F74675F 		.ascii	"otg_ram_reset\000"
 12707      72616D5F 
 12707      72657365 
 12707      7400
 12708              	.LASF15:
 12709 11dc 75696E74 		.ascii	"uint32_t\000"
 12709      33325F74 
 12709      00
 12710              	.LASF219:
 12711 11e5 75736265 		.ascii	"usbep_t\000"
 12711      705F7400 
 12712              	.LASF109:
 12713 11ed 43414E31 		.ascii	"CAN1_RX1_IRQn\000"
 12713      5F525831 
 12713      5F495251 
 12713      6E00
 12714              	.LASF46:
ARM GAS  /tmp/cc3IGbAH.s 			page 240


 12715 11fb 54687265 		.ascii	"ThreadsQueue\000"
 12715      61647351 
 12715      75657565 
 12715      00
 12716              	.LASF240:
 12717 1208 5553425F 		.ascii	"USB_EVENT_SUSPEND\000"
 12717      4556454E 
 12717      545F5355 
 12717      5350454E 
 12717      4400
 12718              	.LASF111:
 12719 121a 45585449 		.ascii	"EXTI9_5_IRQn\000"
 12719      395F355F 
 12719      4952516E 
 12719      00
 12720              	.LASF390:
 12721 1227 6F74675F 		.ascii	"otg_epin_handler\000"
 12721      6570696E 
 12721      5F68616E 
 12721      646C6572 
 12721      00
 12722              	.LASF382:
 12723 1238 6E746F67 		.ascii	"ntogo\000"
 12723      6F00
 12724              	.LASF63:
 12725 123e 7264796D 		.ascii	"rdymsg\000"
 12725      736700
 12726              	.LASF98:
 12727 1245 45585449 		.ascii	"EXTI4_IRQn\000"
 12727      345F4952 
 12727      516E00
 12728              	.LASF4:
 12729 1250 73686F72 		.ascii	"short unsigned int\000"
 12729      7420756E 
 12729      7369676E 
 12729      65642069 
 12729      6E7400
 12730              	.LASF305:
 12731 1263 44535453 		.ascii	"DSTS\000"
 12731      00
 12732              	.LASF134:
 12733 1268 54494D38 		.ascii	"TIM8_CC_IRQn\000"
 12733      5F43435F 
 12733      4952516E 
 12733      00
 12734              	.LASF137:
 12735 1275 5344494F 		.ascii	"SDIO_IRQn\000"
 12735      5F495251 
 12735      6E00
 12736              	.LASF396:
 12737 127f 6F74675F 		.ascii	"otg_rxfifo_flush\000"
 12737      72786669 
 12737      666F5F66 
 12737      6C757368 
 12737      00
 12738              	.LASF78:
 12739 1290 496E7075 		.ascii	"InputQueue\000"
ARM GAS  /tmp/cc3IGbAH.s 			page 241


 12739      74517565 
 12739      756500
 12740              	.LASF97:
 12741 129b 45585449 		.ascii	"EXTI3_IRQn\000"
 12741      335F4952 
 12741      516E00
 12742              	.LASF86:
 12743 12a6 50656E64 		.ascii	"PendSV_IRQn\000"
 12743      53565F49 
 12743      52516E00 
 12744              	.LASF374:
 12745 12b2 6F746770 		.ascii	"otgp\000"
 12745      00
 12746              	.LASF163:
 12747 12b7 4F54475F 		.ascii	"OTG_HS_EP1_IN_IRQn\000"
 12747      48535F45 
 12747      50315F49 
 12747      4E5F4952 
 12747      516E00
 12748              	.LASF135:
 12749 12ca 444D4131 		.ascii	"DMA1_Stream7_IRQn\000"
 12749      5F537472 
 12749      65616D37 
 12749      5F495251 
 12749      6E00
 12750              	.LASF384:
 12751 12dc 6E773265 		.ascii	"nw2end\000"
 12751      6E6400
 12752              	.LASF226:
 12753 12e3 45505F53 		.ascii	"EP_STATUS_DISABLED\000"
 12753      54415455 
 12753      535F4449 
 12753      5341424C 
 12753      454400
 12754              	.LASF172:
 12755 12f6 41484231 		.ascii	"AHB1RSTR\000"
 12755      52535452 
 12755      00
 12756              	.LASF375:
 12757 12ff 6F74675F 		.ascii	"otg_disable_ep\000"
 12757      64697361 
 12757      626C655F 
 12757      657000
 12758              	.LASF296:
 12759 130e 48505458 		.ascii	"HPTXSTS\000"
 12759      53545300 
 12760              	.LASF288:
 12761 1316 72657376 		.ascii	"resvd58\000"
 12761      64353800 
 12762              	.LASF234:
 12763 131e 5553425F 		.ascii	"USB_EP0_SENDING_STS\000"
 12763      4550305F 
 12763      53454E44 
 12763      494E475F 
 12763      53545300 
 12764              	.LASF58:
 12765 1332 52656164 		.ascii	"ReadyList\000"
ARM GAS  /tmp/cc3IGbAH.s 			page 242


 12765      794C6973 
 12765      7400
 12766              	.LASF293:
 12767 133c 48464952 		.ascii	"HFIR\000"
 12767      00
 12768              	.LASF232:
 12769 1341 5553425F 		.ascii	"USB_EP0_WAITING_STS\000"
 12769      4550305F 
 12769      57414954 
 12769      494E475F 
 12769      53545300 
 12770              	.LASF33:
 12771 1355 705F6E61 		.ascii	"p_name\000"
 12771      6D6500
 12772              	.LASF372:
 12773 135c 6E657874 		.ascii	"next\000"
 12773      00
 12774              	.LASF62:
 12775 1361 6D5F6E65 		.ascii	"m_next\000"
 12775      787400
 12776              	.LASF365:
 12777 1368 6669666F 		.ascii	"fifo_remove\000"
 12777      5F72656D 
 12777      6F766500 
 12778              	.LASF214:
 12779 1374 706D6E65 		.ascii	"pmnext\000"
 12779      787400
 12780              	.LASF370:
 12781 137b 6F74675F 		.ascii	"otg_ram_alloc\000"
 12781      72616D5F 
 12781      616C6C6F 
 12781      6300
 12782              	.LASF335:
 12783 1389 74787175 		.ascii	"txqueued\000"
 12783      65756564 
 12783      00
 12784              	.LASF276:
 12785 1392 47555342 		.ascii	"GUSBCFG\000"
 12785      43464700 
 12786              	.LASF233:
 12787 139a 5553425F 		.ascii	"USB_EP0_RX\000"
 12787      4550305F 
 12787      525800
 12788              	.LASF291:
 12789 13a5 72657376 		.ascii	"resvd140\000"
 12789      64313430 
 12789      00
 12790              	.LASF181:
 12791 13ae 41484233 		.ascii	"AHB3ENR\000"
 12791      454E5200 
 12792              	.LASF146:
 12793 13b6 444D4132 		.ascii	"DMA2_Stream2_IRQn\000"
 12793      5F537472 
 12793      65616D32 
 12793      5F495251 
 12793      6E00
 12794              	.LASF41:
ARM GAS  /tmp/cc3IGbAH.s 			page 243


 12795 13c8 705F6D73 		.ascii	"p_msg\000"
 12795      6700
 12796              	.LASF212:
 12797 13ce 636F6E66 		.ascii	"configuration\000"
 12797      69677572 
 12797      6174696F 
 12797      6E00
 12798              	.LASF393:
 12799 13dc 6F74675F 		.ascii	"otg_core_reset\000"
 12799      636F7265 
 12799      5F726573 
 12799      657400
 12800              	.LASF34:
 12801 13eb 705F7374 		.ascii	"p_state\000"
 12801      61746500 
 12802              		.ident	"GCC: (GNU Tools for ARM Embedded Processors) 4.7.4 20130913 (release) [ARM/embedded-4_7-br
ARM GAS  /tmp/cc3IGbAH.s 			page 244


DEFINED SYMBOLS
                            *ABS*:0000000000000000 usb_lld.c
     /tmp/cc3IGbAH.s:19     .text.otg_disable_ep:0000000000000000 $t
     /tmp/cc3IGbAH.s:24     .text.otg_disable_ep:0000000000000000 otg_disable_ep
     /tmp/cc3IGbAH.s:131    .text.otg_epout_handler:0000000000000000 $t
     /tmp/cc3IGbAH.s:136    .text.otg_epout_handler:0000000000000000 otg_epout_handler
     /tmp/cc3IGbAH.s:214    .text.otg_txfifo_flush:0000000000000000 $t
     /tmp/cc3IGbAH.s:219    .text.otg_txfifo_flush:0000000000000000 otg_txfifo_flush
     /tmp/cc3IGbAH.s:251    .text.usb_lld_pump:0000000000000000 $t
     /tmp/cc3IGbAH.s:256    .text.usb_lld_pump:0000000000000000 usb_lld_pump
     /tmp/cc3IGbAH.s:856    .text.usb_lld_pump:0000000000000258 $d
     /tmp/cc3IGbAH.s:867    .text.usb_lld_pump:000000000000025c $t
     /tmp/cc3IGbAH.s:1385   .text.otg_epin_handler:0000000000000000 $t
     /tmp/cc3IGbAH.s:1390   .text.otg_epin_handler:0000000000000000 otg_epin_handler
     /tmp/cc3IGbAH.s:1516   .text.Vector14C:0000000000000000 $t
     /tmp/cc3IGbAH.s:1522   .text.Vector14C:0000000000000000 Vector14C
     /tmp/cc3IGbAH.s:1767   .text.Vector14C:00000000000000fc $d
     /tmp/cc3IGbAH.s:1774   .text.usb_lld_init:0000000000000000 $t
     /tmp/cc3IGbAH.s:1780   .text.usb_lld_init:0000000000000000 usb_lld_init
     /tmp/cc3IGbAH.s:2951   .bss.USBD1:0000000000000000 .LANCHOR0
     /tmp/cc3IGbAH.s:2942   .rodata.fsparams:0000000000000000 .LANCHOR1
     /tmp/cc3IGbAH.s:1818   .text.usb_lld_start:0000000000000000 $t
     /tmp/cc3IGbAH.s:1824   .text.usb_lld_start:0000000000000000 usb_lld_start
     /tmp/cc3IGbAH.s:2002   .text.usb_lld_start:00000000000000d4 $d
     /tmp/cc3IGbAH.s:2008   .text.usb_lld_stop:0000000000000000 $t
     /tmp/cc3IGbAH.s:2014   .text.usb_lld_stop:0000000000000000 usb_lld_stop
     /tmp/cc3IGbAH.s:2045   .text.usb_lld_reset:0000000000000000 $t
     /tmp/cc3IGbAH.s:2051   .text.usb_lld_reset:0000000000000000 usb_lld_reset
     /tmp/cc3IGbAH.s:2269   .text.usb_lld_reset:0000000000000128 $d
     /tmp/cc3IGbAH.s:2274   .text.usb_lld_set_address:0000000000000000 $t
     /tmp/cc3IGbAH.s:2280   .text.usb_lld_set_address:0000000000000000 usb_lld_set_address
     /tmp/cc3IGbAH.s:2303   .text.usb_lld_init_endpoint:0000000000000000 $t
     /tmp/cc3IGbAH.s:2309   .text.usb_lld_init_endpoint:0000000000000000 usb_lld_init_endpoint
     /tmp/cc3IGbAH.s:2515   .text.usb_lld_disable_endpoints:0000000000000000 $t
     /tmp/cc3IGbAH.s:2521   .text.usb_lld_disable_endpoints:0000000000000000 usb_lld_disable_endpoints
     /tmp/cc3IGbAH.s:2545   .text.usb_lld_get_status_out:0000000000000000 $t
     /tmp/cc3IGbAH.s:2551   .text.usb_lld_get_status_out:0000000000000000 usb_lld_get_status_out
     /tmp/cc3IGbAH.s:2583   .text.usb_lld_get_status_in:0000000000000000 $t
     /tmp/cc3IGbAH.s:2589   .text.usb_lld_get_status_in:0000000000000000 usb_lld_get_status_in
     /tmp/cc3IGbAH.s:2621   .text.usb_lld_read_setup:0000000000000000 $t
     /tmp/cc3IGbAH.s:2627   .text.usb_lld_read_setup:0000000000000000 usb_lld_read_setup
     /tmp/cc3IGbAH.s:2650   .text.usb_lld_prepare_receive:0000000000000000 $t
     /tmp/cc3IGbAH.s:2656   .text.usb_lld_prepare_receive:0000000000000000 usb_lld_prepare_receive
     /tmp/cc3IGbAH.s:2701   .text.usb_lld_prepare_transmit:0000000000000000 $t
     /tmp/cc3IGbAH.s:2707   .text.usb_lld_prepare_transmit:0000000000000000 usb_lld_prepare_transmit
     /tmp/cc3IGbAH.s:2766   .text.usb_lld_start_out:0000000000000000 $t
     /tmp/cc3IGbAH.s:2772   .text.usb_lld_start_out:0000000000000000 usb_lld_start_out
     /tmp/cc3IGbAH.s:2794   .text.usb_lld_start_in:0000000000000000 $t
     /tmp/cc3IGbAH.s:2800   .text.usb_lld_start_in:0000000000000000 usb_lld_start_in
     /tmp/cc3IGbAH.s:2828   .text.usb_lld_stall_out:0000000000000000 $t
     /tmp/cc3IGbAH.s:2834   .text.usb_lld_stall_out:0000000000000000 usb_lld_stall_out
     /tmp/cc3IGbAH.s:2856   .text.usb_lld_stall_in:0000000000000000 $t
     /tmp/cc3IGbAH.s:2862   .text.usb_lld_stall_in:0000000000000000 usb_lld_stall_in
     /tmp/cc3IGbAH.s:2884   .text.usb_lld_clear_out:0000000000000000 $t
     /tmp/cc3IGbAH.s:2890   .text.usb_lld_clear_out:0000000000000000 usb_lld_clear_out
     /tmp/cc3IGbAH.s:2912   .text.usb_lld_clear_in:0000000000000000 $t
     /tmp/cc3IGbAH.s:2918   .text.usb_lld_clear_in:0000000000000000 usb_lld_clear_in
ARM GAS  /tmp/cc3IGbAH.s 			page 245


     /tmp/cc3IGbAH.s:2954   .bss.USBD1:0000000000000000 USBD1
     /tmp/cc3IGbAH.s:2941   .rodata.fsparams:0000000000000000 $d
     /tmp/cc3IGbAH.s:2945   .rodata.fsparams:0000000000000000 fsparams
     /tmp/cc3IGbAH.s:2950   .bss.USBD1:0000000000000000 $d
     /tmp/cc3IGbAH.s:2957   .rodata.str1.4:0000000000000000 $d
     /tmp/cc3IGbAH.s:2961   .rodata.ep0config:0000000000000000 $d
     /tmp/cc3IGbAH.s:2965   .rodata.ep0config:0000000000000000 ep0config
     /tmp/cc3IGbAH.s:2981   .bss.ep0_state:0000000000000000 ep0_state
     /tmp/cc3IGbAH.s:2987   .bss.ep0setup_buffer:0000000000000000 ep0setup_buffer
     /tmp/cc3IGbAH.s:2978   .bss.ep0_state:0000000000000000 $d
     /tmp/cc3IGbAH.s:2984   .bss.ep0setup_buffer:0000000000000000 $d
                     .debug_frame:0000000000000010 $d
     /tmp/cc3IGbAH.s:2007   .text.usb_lld_start:00000000000000dc $t
     /tmp/cc3IGbAH.s:2273   .text.usb_lld_reset:000000000000012c $t

UNDEFINED SYMBOLS
halPolledDelay
rlist
chSchGoSleepS
chSchReadyI
chSchRescheduleS
_port_irq_epilogue
_usb_reset
usbObjectInit
chThdCreateI
nvicEnableVector
_usb_ep0setup
_usb_ep0in
_usb_ep0out
