ARM GAS  /tmp/ccFdXZZt.s 			page 1


   1              		.syntax unified
   2              		.cpu cortex-m4
   3              		.fpu softvfp
   4              		.eabi_attribute 20, 1
   5              		.eabi_attribute 21, 1
   6              		.eabi_attribute 23, 3
   7              		.eabi_attribute 24, 1
   8              		.eabi_attribute 25, 1
   9              		.eabi_attribute 26, 1
  10              		.eabi_attribute 30, 2
  11              		.eabi_attribute 34, 1
  12              		.eabi_attribute 18, 4
  13              		.thumb
  14              		.file	"usbcfg.c"
  15              		.text
  16              	.Ltext0:
  17              		.cfi_sections	.debug_frame
  18              		.section	.text.get_descriptor,"ax",%progbits
  19              		.align	2
  20              		.p2align 4,,15
  21              		.thumb
  22              		.thumb_func
  23              		.type	get_descriptor, %function
  24              	get_descriptor:
  25              	.LFB118:
  26              		.file 1 "usbcfg.c"
  27              		.loc 1 196 0
  28              		.cfi_startproc
  29              		@ args = 0, pretend = 0, frame = 0
  30              		@ frame_needed = 0, uses_anonymous_args = 0
  31              		@ link register save eliminated.
  32              	.LVL0:
  33              		.loc 1 200 0
  34 0000 0229     		cmp	r1, #2
  35 0002 06D0     		beq	.L6
  36 0004 0329     		cmp	r1, #3
  37 0006 06D0     		beq	.L5
  38              		.loc 1 209 0
  39 0008 0748     		ldr	r0, .L9
  40              	.LVL1:
  41 000a 0129     		cmp	r1, #1
  42 000c 18BF     		it	ne
  43 000e 0020     		movne	r0, #0
  44 0010 7047     		bx	lr
  45              	.LVL2:
  46              	.L6:
  47              		.loc 1 204 0
  48 0012 0648     		ldr	r0, .L9+4
  49              	.LVL3:
  50 0014 7047     		bx	lr
  51              	.LVL4:
  52              	.L5:
  53              		.loc 1 206 0
  54 0016 032A     		cmp	r2, #3
  55 0018 03D8     		bhi	.L7
  56              		.loc 1 207 0
  57 001a 0548     		ldr	r0, .L9+8
ARM GAS  /tmp/ccFdXZZt.s 			page 2


  58              	.LVL5:
  59 001c 00EBC200 		add	r0, r0, r2, lsl #3
  60 0020 7047     		bx	lr
  61              	.LVL6:
  62              	.L7:
  63              		.loc 1 209 0
  64 0022 0020     		movs	r0, #0
  65              	.LVL7:
  66              		.loc 1 210 0
  67 0024 7047     		bx	lr
  68              	.L10:
  69 0026 00BF     		.align	2
  70              	.L9:
  71 0028 00000000 		.word	.LANCHOR0
  72 002c 00000000 		.word	.LANCHOR1
  73 0030 00000000 		.word	.LANCHOR2
  74              		.cfi_endproc
  75              	.LFE118:
  76              		.size	get_descriptor, .-get_descriptor
  77 0034 AFF30080 		.section	.text.usb_event,"ax",%progbits
  77      AFF30080 
  77      AFF30080 
  78              		.align	2
  79              		.p2align 4,,15
  80              		.thumb
  81              		.thumb_func
  82              		.type	usb_event, %function
  83              	usb_event:
  84              	.LFB119:
  85              		.loc 1 262 0
  86              		.cfi_startproc
  87              		@ args = 0, pretend = 0, frame = 0
  88              		@ frame_needed = 0, uses_anonymous_args = 0
  89              	.LVL8:
  90              		.loc 1 264 0
  91 0000 0229     		cmp	r1, #2
  92              		.loc 1 262 0
  93 0002 38B5     		push	{r3, r4, r5, lr}
  94              	.LCFI0:
  95              		.cfi_def_cfa_offset 16
  96              		.cfi_offset 3, -16
  97              		.cfi_offset 4, -12
  98              		.cfi_offset 5, -8
  99              		.cfi_offset 14, -4
 100              		.loc 1 262 0
 101 0004 0C46     		mov	r4, r1
 102 0006 0546     		mov	r5, r0
 103              		.loc 1 264 0
 104 0008 11D1     		bne	.L11
 105              	.LVL9:
 106              	.LBB8:
 107              	.LBB9:
 108              	.LBB10:
 109              		.loc 1 270 0
 110 000a 2023     		movs	r3, #32
 111              	.LVL10:
 112              	@ 270 "usbcfg.c" 1
ARM GAS  /tmp/ccFdXZZt.s 			page 3


 113 000c 83F31188 		msr     BASEPRI, r3
 114              	@ 0 "" 2
 115              	.LVL11:
 116              		.thumb
 117              	.LBE10:
 118              		.loc 1 275 0
 119 0010 0121     		movs	r1, #1
 120              	.LVL12:
 121 0012 074A     		ldr	r2, .L14
 122 0014 FFF7FEFF 		bl	usbInitEndpointI
 123              	.LVL13:
 124              		.loc 1 276 0
 125 0018 2846     		mov	r0, r5
 126 001a 2146     		mov	r1, r4
 127 001c 054A     		ldr	r2, .L14+4
 128 001e FFF7FEFF 		bl	usbInitEndpointI
 129              	.LVL14:
 130              		.loc 1 279 0
 131 0022 2846     		mov	r0, r5
 132 0024 FFF7FEFF 		bl	sduConfigureHookI
 133              	.LVL15:
 134              	.LBB11:
 135              		.loc 1 281 0
 136 0028 0023     		movs	r3, #0
 137              	.LVL16:
 138              	@ 281 "usbcfg.c" 1
 139 002a 83F31188 		msr     BASEPRI, r3
 140              	@ 0 "" 2
 141              	.LVL17:
 142              		.thumb
 143              	.L11:
 144 002e 38BD     		pop	{r3, r4, r5, pc}
 145              	.L15:
 146              		.align	2
 147              	.L14:
 148 0030 00000000 		.word	.LANCHOR3
 149 0034 00000000 		.word	.LANCHOR4
 150              	.LBE11:
 151              	.LBE9:
 152              	.LBE8:
 153              		.cfi_endproc
 154              	.LFE119:
 155              		.size	usb_event, .-usb_event
 156              		.global	serusbcfg
 157              		.global	usbcfg
 158 0038 AFF30080 		.section	.rodata.ep1config,"a",%progbits
 158      AFF30080 
 159              		.align	2
 160              		.set	.LANCHOR3,. + 0
 161              		.type	ep1config, %object
 162              		.size	ep1config, 36
 163              	ep1config:
 164 0000 02000000 		.word	2
 165 0004 00000000 		.word	0
 166 0008 00000000 		.word	sduDataTransmitted
 167 000c 00000000 		.word	sduDataReceived
 168 0010 4000     		.short	64
ARM GAS  /tmp/ccFdXZZt.s 			page 4


 169 0012 4000     		.short	64
 170 0014 00000000 		.word	ep1instate
 171 0018 00000000 		.word	ep1outstate
 172 001c 0200     		.short	2
 173 001e 0000     		.space	2
 174 0020 00000000 		.word	0
 175              		.section	.rodata.vcom_configuration_descriptor_data,"a",%progbits
 176              		.align	2
 177              		.type	vcom_configuration_descriptor_data, %object
 178              		.size	vcom_configuration_descriptor_data, 67
 179              	vcom_configuration_descriptor_data:
 180 0000 09       		.byte	9
 181 0001 02       		.byte	2
 182 0002 43       		.byte	67
 183 0003 00       		.byte	0
 184 0004 02       		.byte	2
 185 0005 01       		.byte	1
 186 0006 00       		.byte	0
 187 0007 C0       		.byte	-64
 188 0008 32       		.byte	50
 189 0009 09       		.byte	9
 190 000a 04       		.byte	4
 191 000b 00       		.byte	0
 192 000c 00       		.byte	0
 193 000d 01       		.byte	1
 194 000e 02       		.byte	2
 195 000f 02       		.byte	2
 196 0010 01       		.byte	1
 197 0011 00       		.byte	0
 198 0012 05       		.byte	5
 199 0013 24       		.byte	36
 200 0014 00       		.byte	0
 201 0015 10       		.byte	16
 202 0016 01       		.byte	1
 203 0017 05       		.byte	5
 204 0018 24       		.byte	36
 205 0019 01       		.byte	1
 206 001a 00       		.byte	0
 207 001b 01       		.byte	1
 208 001c 04       		.byte	4
 209 001d 24       		.byte	36
 210 001e 02       		.byte	2
 211 001f 02       		.byte	2
 212 0020 05       		.byte	5
 213 0021 24       		.byte	36
 214 0022 06       		.byte	6
 215 0023 00       		.byte	0
 216 0024 01       		.byte	1
 217 0025 07       		.byte	7
 218 0026 05       		.byte	5
 219 0027 82       		.byte	-126
 220 0028 03       		.byte	3
 221 0029 08       		.byte	8
 222 002a 00       		.byte	0
 223 002b FF       		.byte	-1
 224 002c 09       		.byte	9
 225 002d 04       		.byte	4
ARM GAS  /tmp/ccFdXZZt.s 			page 5


 226 002e 01       		.byte	1
 227 002f 00       		.byte	0
 228 0030 02       		.byte	2
 229 0031 0A       		.byte	10
 230 0032 00       		.byte	0
 231 0033 00       		.byte	0
 232 0034 00       		.byte	0
 233 0035 07       		.byte	7
 234 0036 05       		.byte	5
 235 0037 01       		.byte	1
 236 0038 02       		.byte	2
 237 0039 40       		.byte	64
 238 003a 00       		.byte	0
 239 003b 00       		.byte	0
 240 003c 07       		.byte	7
 241 003d 05       		.byte	5
 242 003e 81       		.byte	-127
 243 003f 02       		.byte	2
 244 0040 40       		.byte	64
 245 0041 00       		.byte	0
 246 0042 00       		.byte	0
 247 0043 00       		.section	.bss.ep1instate,"aw",%nobits
 248              		.align	2
 249              		.type	ep1instate, %object
 250              		.size	ep1instate, 16
 251              	ep1instate:
 252 0000 00000000 		.space	16
 252      00000000 
 252      00000000 
 252      00000000 
 253              		.section	.rodata.vcom_configuration_descriptor,"a",%progbits
 254              		.align	2
 255              		.set	.LANCHOR1,. + 0
 256              		.type	vcom_configuration_descriptor, %object
 257              		.size	vcom_configuration_descriptor, 8
 258              	vcom_configuration_descriptor:
 259 0000 43000000 		.word	67
 260 0004 00000000 		.word	vcom_configuration_descriptor_data
 261              		.section	.rodata.ep2config,"a",%progbits
 262              		.align	2
 263              		.set	.LANCHOR4,. + 0
 264              		.type	ep2config, %object
 265              		.size	ep2config, 36
 266              	ep2config:
 267 0000 03000000 		.word	3
 268 0004 00000000 		.word	0
 269 0008 00000000 		.word	sduInterruptTransmitted
 270 000c 00000000 		.word	0
 271 0010 1000     		.short	16
 272 0012 0000     		.short	0
 273 0014 00000000 		.word	ep2instate
 274 0018 00000000 		.word	0
 275 001c 0100     		.short	1
 276 001e 0000     		.space	2
 277 0020 00000000 		.word	0
 278              		.section	.bss.ep2instate,"aw",%nobits
 279              		.align	2
ARM GAS  /tmp/ccFdXZZt.s 			page 6


 280              		.type	ep2instate, %object
 281              		.size	ep2instate, 16
 282              	ep2instate:
 283 0000 00000000 		.space	16
 283      00000000 
 283      00000000 
 283      00000000 
 284              		.section	.rodata.usbcfg,"a",%progbits
 285              		.align	2
 286              		.type	usbcfg, %object
 287              		.size	usbcfg, 16
 288              	usbcfg:
 289 0000 00000000 		.word	usb_event
 290 0004 00000000 		.word	get_descriptor
 291 0008 00000000 		.word	sduRequestsHook
 292 000c 00000000 		.word	0
 293              		.section	.rodata.vcom_device_descriptor_data,"a",%progbits
 294              		.align	2
 295              		.type	vcom_device_descriptor_data, %object
 296              		.size	vcom_device_descriptor_data, 18
 297              	vcom_device_descriptor_data:
 298 0000 12       		.byte	18
 299 0001 01       		.byte	1
 300 0002 10       		.byte	16
 301 0003 01       		.byte	1
 302 0004 02       		.byte	2
 303 0005 00       		.byte	0
 304 0006 00       		.byte	0
 305 0007 40       		.byte	64
 306 0008 83       		.byte	-125
 307 0009 04       		.byte	4
 308 000a 40       		.byte	64
 309 000b 57       		.byte	87
 310 000c 00       		.byte	0
 311 000d 02       		.byte	2
 312 000e 01       		.byte	1
 313 000f 02       		.byte	2
 314 0010 03       		.byte	3
 315 0011 01       		.byte	1
 316 0012 0000     		.section	.bss.ep1outstate,"aw",%nobits
 317              		.align	2
 318              		.type	ep1outstate, %object
 319              		.size	ep1outstate, 16
 320              	ep1outstate:
 321 0000 00000000 		.space	16
 321      00000000 
 321      00000000 
 321      00000000 
 322              		.section	.rodata.vcom_string0,"a",%progbits
 323              		.align	2
 324              		.type	vcom_string0, %object
 325              		.size	vcom_string0, 4
 326              	vcom_string0:
 327 0000 04       		.byte	4
 328 0001 03       		.byte	3
 329 0002 09       		.byte	9
 330 0003 04       		.byte	4
ARM GAS  /tmp/ccFdXZZt.s 			page 7


 331              		.section	.rodata.vcom_string1,"a",%progbits
 332              		.align	2
 333              		.type	vcom_string1, %object
 334              		.size	vcom_string1, 38
 335              	vcom_string1:
 336 0000 26       		.byte	38
 337 0001 03       		.byte	3
 338 0002 53       		.byte	83
 339 0003 00       		.byte	0
 340 0004 54       		.byte	84
 341 0005 00       		.byte	0
 342 0006 4D       		.byte	77
 343 0007 00       		.byte	0
 344 0008 69       		.byte	105
 345 0009 00       		.byte	0
 346 000a 63       		.byte	99
 347 000b 00       		.byte	0
 348 000c 72       		.byte	114
 349 000d 00       		.byte	0
 350 000e 6F       		.byte	111
 351 000f 00       		.byte	0
 352 0010 65       		.byte	101
 353 0011 00       		.byte	0
 354 0012 6C       		.byte	108
 355 0013 00       		.byte	0
 356 0014 65       		.byte	101
 357 0015 00       		.byte	0
 358 0016 63       		.byte	99
 359 0017 00       		.byte	0
 360 0018 74       		.byte	116
 361 0019 00       		.byte	0
 362 001a 72       		.byte	114
 363 001b 00       		.byte	0
 364 001c 6F       		.byte	111
 365 001d 00       		.byte	0
 366 001e 6E       		.byte	110
 367 001f 00       		.byte	0
 368 0020 69       		.byte	105
 369 0021 00       		.byte	0
 370 0022 63       		.byte	99
 371 0023 00       		.byte	0
 372 0024 73       		.byte	115
 373 0025 00       		.byte	0
 374 0026 0000     		.section	.rodata.vcom_string2,"a",%progbits
 375              		.align	2
 376              		.type	vcom_string2, %object
 377              		.size	vcom_string2, 56
 378              	vcom_string2:
 379 0000 38       		.byte	56
 380 0001 03       		.byte	3
 381 0002 43       		.byte	67
 382 0003 00       		.byte	0
 383 0004 68       		.byte	104
 384 0005 00       		.byte	0
 385 0006 69       		.byte	105
 386 0007 00       		.byte	0
 387 0008 62       		.byte	98
ARM GAS  /tmp/ccFdXZZt.s 			page 8


 388 0009 00       		.byte	0
 389 000a 69       		.byte	105
 390 000b 00       		.byte	0
 391 000c 4F       		.byte	79
 392 000d 00       		.byte	0
 393 000e 53       		.byte	83
 394 000f 00       		.byte	0
 395 0010 2F       		.byte	47
 396 0011 00       		.byte	0
 397 0012 52       		.byte	82
 398 0013 00       		.byte	0
 399 0014 54       		.byte	84
 400 0015 00       		.byte	0
 401 0016 20       		.byte	32
 402 0017 00       		.byte	0
 403 0018 56       		.byte	86
 404 0019 00       		.byte	0
 405 001a 69       		.byte	105
 406 001b 00       		.byte	0
 407 001c 72       		.byte	114
 408 001d 00       		.byte	0
 409 001e 74       		.byte	116
 410 001f 00       		.byte	0
 411 0020 75       		.byte	117
 412 0021 00       		.byte	0
 413 0022 61       		.byte	97
 414 0023 00       		.byte	0
 415 0024 6C       		.byte	108
 416 0025 00       		.byte	0
 417 0026 20       		.byte	32
 418 0027 00       		.byte	0
 419 0028 43       		.byte	67
 420 0029 00       		.byte	0
 421 002a 4F       		.byte	79
 422 002b 00       		.byte	0
 423 002c 4D       		.byte	77
 424 002d 00       		.byte	0
 425 002e 20       		.byte	32
 426 002f 00       		.byte	0
 427 0030 50       		.byte	80
 428 0031 00       		.byte	0
 429 0032 6F       		.byte	111
 430 0033 00       		.byte	0
 431 0034 72       		.byte	114
 432 0035 00       		.byte	0
 433 0036 74       		.byte	116
 434 0037 00       		.byte	0
 435              		.section	.rodata.vcom_string3,"a",%progbits
 436              		.align	2
 437              		.type	vcom_string3, %object
 438              		.size	vcom_string3, 8
 439              	vcom_string3:
 440 0000 08       		.byte	8
 441 0001 03       		.byte	3
 442 0002 32       		.byte	50
 443 0003 00       		.byte	0
 444 0004 35       		.byte	53
ARM GAS  /tmp/ccFdXZZt.s 			page 9


 445 0005 00       		.byte	0
 446 0006 32       		.byte	50
 447 0007 00       		.byte	0
 448              		.section	.rodata.vcom_strings,"a",%progbits
 449              		.align	2
 450              		.set	.LANCHOR2,. + 0
 451              		.type	vcom_strings, %object
 452              		.size	vcom_strings, 32
 453              	vcom_strings:
 454 0000 04000000 		.word	4
 455 0004 00000000 		.word	vcom_string0
 456 0008 26000000 		.word	38
 457 000c 00000000 		.word	vcom_string1
 458 0010 38000000 		.word	56
 459 0014 00000000 		.word	vcom_string2
 460 0018 08000000 		.word	8
 461 001c 00000000 		.word	vcom_string3
 462              		.section	.rodata.serusbcfg,"a",%progbits
 463              		.align	2
 464              		.type	serusbcfg, %object
 465              		.size	serusbcfg, 4
 466              	serusbcfg:
 467 0000 00000000 		.word	USBD1
 468              		.section	.rodata.vcom_device_descriptor,"a",%progbits
 469              		.align	2
 470              		.set	.LANCHOR0,. + 0
 471              		.type	vcom_device_descriptor, %object
 472              		.size	vcom_device_descriptor, 8
 473              	vcom_device_descriptor:
 474 0000 12000000 		.word	18
 475 0004 00000000 		.word	vcom_device_descriptor_data
 476              		.text
 477              	.Letext0:
 478              		.file 2 "/usr/bin/../lib/gcc/arm-none-eabi/4.7.4/include/stddef.h"
 479              		.file 3 "/usr/bin/../lib/gcc/arm-none-eabi/4.7.4/../../../../arm-none-eabi/include/stdint.h"
 480              		.file 4 "../../os/ports/GCC/ARMCMx/chtypes.h"
 481              		.file 5 "../../os/kernel/include/chlists.h"
 482              		.file 6 "../../os/kernel/include/chthreads.h"
 483              		.file 7 "../../os/ports/GCC/ARMCMx/chcore_v7m.h"
 484              		.file 8 "../../os/kernel/include/chmtx.h"
 485              		.file 9 "../../os/kernel/include/chqueues.h"
 486              		.file 10 "../../os/hal/include/usb.h"
 487              		.file 11 "../../os/hal/platforms/STM32/OTGv1/usb_lld.h"
 488              		.file 12 "../../os/hal/platforms/STM32/OTGv1/stm32_otg.h"
 489              		.file 13 "../../os/hal/include/serial_usb.h"
 490              		.file 14 "../../os/ports/common/ARMCMx/CMSIS/include/core_cm4.h"