ARM GAS  /tmp/ccWpWnGr.s 			page 1


   1              		.syntax unified
   2              		.cpu cortex-m4
   3              		.fpu softvfp
   4              		.eabi_attribute 20, 1
   5              		.eabi_attribute 21, 1
   6              		.eabi_attribute 23, 3
   7              		.eabi_attribute 24, 1
   8              		.eabi_attribute 25, 1
   9              		.eabi_attribute 26, 1
  10              		.eabi_attribute 30, 2
  11              		.eabi_attribute 34, 1
  12              		.eabi_attribute 18, 4
  13              		.thumb
  14              		.file	"vsop87.c"
  15              		.text
  16              	.Ltext0:
  17              		.cfi_sections	.debug_frame
  18              		.global	__aeabi_dmul
  19              		.global	__aeabi_dadd
  20              		.section	.text.ln_calc_series,"ax",%progbits
  21              		.align	2
  22              		.p2align 4,,15
  23              		.global	ln_calc_series
  24              		.thumb
  25              		.thumb_func
  26              		.type	ln_calc_series, %function
  27              	ln_calc_series:
  28              	.LFB0:
  29              		.file 1 "./libnova/src/vsop87.c"
  30              		.loc 1 28 0
  31              		.cfi_startproc
  32              		@ args = 0, pretend = 0, frame = 8
  33              		@ frame_needed = 0, uses_anonymous_args = 0
  34              	.LVL0:
  35 0000 2DE9F04F 		push	{r4, r5, r6, r7, r8, r9, sl, fp, lr}
  36              	.LCFI0:
  37              		.cfi_def_cfa_offset 36
  38              		.cfi_offset 4, -36
  39              		.cfi_offset 5, -32
  40              		.cfi_offset 6, -28
  41              		.cfi_offset 7, -24
  42              		.cfi_offset 8, -20
  43              		.cfi_offset 9, -16
  44              		.cfi_offset 10, -12
  45              		.cfi_offset 11, -8
  46              		.cfi_offset 14, -4
  47              		.loc 1 32 0
  48 0004 B1F1000B 		subs	fp, r1, #0
  49              		.loc 1 28 0
  50 0008 83B0     		sub	sp, sp, #12
  51              	.LCFI1:
  52              		.cfi_def_cfa_offset 48
  53              		.loc 1 28 0
  54 000a 8046     		mov	r8, r0
  55 000c 1646     		mov	r6, r2
  56 000e 1F46     		mov	r7, r3
  57              		.loc 1 32 0
ARM GAS  /tmp/ccWpWnGr.s 			page 2


  58 0010 40F38280 		ble	.L4
  59 0014 0BF1FF35 		add	r5, fp, #-1
  60              		.loc 1 27 0
  61 0018 00F11804 		add	r4, r0, #24
  62              		.loc 1 33 0
  63 001c D0E90423 		ldrd	r2, [r0, #16]
  64              	.LVL1:
  65 0020 05F00105 		and	r5, r5, #1
  66 0024 3046     		mov	r0, r6
  67              	.LVL2:
  68 0026 3946     		mov	r1, r7
  69              	.LVL3:
  70 0028 0195     		str	r5, [sp, #4]
  71 002a FFF7FEFF 		bl	__aeabi_dmul
  72              	.LVL4:
  73 002e D8E90223 		ldrd	r2, [r8, #8]
  74 0032 FFF7FEFF 		bl	__aeabi_dadd
  75              	.LVL5:
  76 0036 FFF7FEFF 		bl	cos
  77              	.LVL6:
  78 003a 54E90623 		ldrd	r2, [r4, #-24]
  79 003e FFF7FEFF 		bl	__aeabi_dmul
  80              	.LVL7:
  81 0042 0246     		mov	r2, r0
  82 0044 0B46     		mov	r3, r1
  83 0046 0020     		movs	r0, #0
  84 0048 0021     		movs	r1, #0
  85 004a FFF7FEFF 		bl	__aeabi_dadd
  86              	.LVL8:
  87              		.loc 1 32 0
  88 004e 4FF00109 		mov	r9, #1
  89 0052 D945     		cmp	r9, fp
  90              		.loc 1 33 0
  91 0054 0446     		mov	r4, r0
  92 0056 0D46     		mov	r5, r1
  93              	.LVL9:
  94 0058 08F1300A 		add	sl, r8, #48
  95              		.loc 1 32 0
  96 005c 57D0     		beq	.L2
  97 005e 019B     		ldr	r3, [sp, #4]
  98 0060 EBB1     		cbz	r3, .L3
  99              		.loc 1 33 0
 100 0062 5AE90223 		ldrd	r2, [sl, #-8]
 101 0066 3046     		mov	r0, r6
 102 0068 3946     		mov	r1, r7
 103 006a FFF7FEFF 		bl	__aeabi_dmul
 104              	.LVL10:
 105 006e 5AE90423 		ldrd	r2, [sl, #-16]
 106 0072 FFF7FEFF 		bl	__aeabi_dadd
 107              	.LVL11:
 108 0076 FFF7FEFF 		bl	cos
 109              	.LVL12:
 110 007a 5AE90623 		ldrd	r2, [sl, #-24]
 111 007e FFF7FEFF 		bl	__aeabi_dmul
 112              	.LVL13:
 113 0082 0246     		mov	r2, r0
 114 0084 0B46     		mov	r3, r1
ARM GAS  /tmp/ccWpWnGr.s 			page 3


 115 0086 2046     		mov	r0, r4
 116 0088 2946     		mov	r1, r5
 117 008a FFF7FEFF 		bl	__aeabi_dadd
 118              	.LVL14:
 119              		.loc 1 32 0
 120 008e 4FF00209 		mov	r9, #2
 121 0092 D945     		cmp	r9, fp
 122              		.loc 1 33 0
 123 0094 0446     		mov	r4, r0
 124 0096 0D46     		mov	r5, r1
 125 0098 08F1480A 		add	sl, r8, #72
 126              		.loc 1 32 0
 127 009c 37D0     		beq	.L2
 128              	.L3:
 129              		.loc 1 33 0 discriminator 2
 130 009e 5AE90223 		ldrd	r2, [sl, #-8]
 131 00a2 3046     		mov	r0, r6
 132 00a4 3946     		mov	r1, r7
 133 00a6 FFF7FEFF 		bl	__aeabi_dmul
 134              	.LVL15:
 135 00aa 5AE90423 		ldrd	r2, [sl, #-16]
 136 00ae FFF7FEFF 		bl	__aeabi_dadd
 137              	.LVL16:
 138 00b2 FFF7FEFF 		bl	cos
 139              	.LVL17:
 140 00b6 5AE90623 		ldrd	r2, [sl, #-24]
 141 00ba FFF7FEFF 		bl	__aeabi_dmul
 142              	.LVL18:
 143 00be 0246     		mov	r2, r0
 144 00c0 0B46     		mov	r3, r1
 145 00c2 2046     		mov	r0, r4
 146 00c4 2946     		mov	r1, r5
 147 00c6 FFF7FEFF 		bl	__aeabi_dadd
 148              	.LVL19:
 149 00ca DAE90423 		ldrd	r2, [sl, #16]
 150 00ce 0446     		mov	r4, r0
 151 00d0 0D46     		mov	r5, r1
 152 00d2 3046     		mov	r0, r6
 153 00d4 3946     		mov	r1, r7
 154 00d6 FFF7FEFF 		bl	__aeabi_dmul
 155              	.LVL20:
 156 00da DAE90223 		ldrd	r2, [sl, #8]
 157 00de FFF7FEFF 		bl	__aeabi_dadd
 158              	.LVL21:
 159 00e2 0AF11808 		add	r8, sl, #24
 160 00e6 FFF7FEFF 		bl	cos
 161              	.LVL22:
 162 00ea 58E90623 		ldrd	r2, [r8, #-24]
 163 00ee FFF7FEFF 		bl	__aeabi_dmul
 164              	.LVL23:
 165 00f2 0246     		mov	r2, r0
 166 00f4 0B46     		mov	r3, r1
 167 00f6 2046     		mov	r0, r4
 168 00f8 2946     		mov	r1, r5
 169 00fa FFF7FEFF 		bl	__aeabi_dadd
 170              	.LVL24:
 171              		.loc 1 32 0 discriminator 2
ARM GAS  /tmp/ccWpWnGr.s 			page 4


 172 00fe 09F10209 		add	r9, r9, #2
 173 0102 D945     		cmp	r9, fp
 174              		.loc 1 33 0 discriminator 2
 175 0104 0446     		mov	r4, r0
 176 0106 0D46     		mov	r5, r1
 177 0108 0AF1300A 		add	sl, sl, #48
 178              		.loc 1 32 0 discriminator 2
 179 010c C7D1     		bne	.L3
 180              	.L2:
 181              		.loc 1 38 0
 182 010e 2046     		mov	r0, r4
 183 0110 2946     		mov	r1, r5
 184 0112 03B0     		add	sp, sp, #12
 185 0114 BDE8F08F 		pop	{r4, r5, r6, r7, r8, r9, sl, fp, pc}
 186              	.LVL25:
 187              	.L4:
 188              		.loc 1 29 0
 189 0118 0024     		movs	r4, #0
 190 011a 0025     		movs	r5, #0
 191 011c F7E7     		b	.L2
 192              		.cfi_endproc
 193              	.LFE0:
 194              		.size	ln_calc_series, .-ln_calc_series
 195              		.global	__aeabi_dsub
 196              		.global	__aeabi_ddiv
 197 011e 00BF     		.section	.text.ln_vsop87_to_fk5,"ax",%progbits
 198              		.align	2
 199              		.p2align 4,,15
 200              		.global	ln_vsop87_to_fk5
 201              		.thumb
 202              		.thumb_func
 203              		.type	ln_vsop87_to_fk5, %function
 204              	ln_vsop87_to_fk5:
 205              	.LFB1:
 206              		.loc 1 50 0
 207              		.cfi_startproc
 208              		@ args = 0, pretend = 0, frame = 0
 209              		@ frame_needed = 0, uses_anonymous_args = 0
 210              	.LVL26:
 211 0000 2DE9F047 		push	{r4, r5, r6, r7, r8, r9, sl, lr}
 212              	.LCFI2:
 213              		.cfi_def_cfa_offset 32
 214              		.cfi_offset 4, -32
 215              		.cfi_offset 5, -28
 216              		.cfi_offset 6, -24
 217              		.cfi_offset 7, -20
 218              		.cfi_offset 8, -16
 219              		.cfi_offset 9, -12
 220              		.cfi_offset 10, -8
 221              		.cfi_offset 14, -4
 222              		.loc 1 54 0
 223 0004 1946     		mov	r1, r3
 224              		.loc 1 50 0
 225 0006 8246     		mov	sl, r0
 226              		.loc 1 54 0
 227 0008 1046     		mov	r0, r2
 228              	.LVL27:
ARM GAS  /tmp/ccWpWnGr.s 			page 5


 229 000a 33A3     		adr	r3, .L14
 230 000c D3E90023 		ldrd	r2, [r3]
 231              	.LVL28:
 232 0010 FFF7FEFF 		bl	__aeabi_dsub
 233              	.LVL29:
 234 0014 32A3     		adr	r3, .L14+8
 235 0016 D3E90023 		ldrd	r2, [r3]
 236 001a FFF7FEFF 		bl	__aeabi_ddiv
 237              	.LVL30:
 238              		.loc 1 56 0
 239 001e 32A3     		adr	r3, .L14+16
 240 0020 D3E90023 		ldrd	r2, [r3]
 241              		.loc 1 54 0
 242 0024 0446     		mov	r4, r0
 243 0026 0D46     		mov	r5, r1
 244              	.LVL31:
 245              		.loc 1 56 0
 246 0028 FFF7FEFF 		bl	__aeabi_dmul
 247              	.LVL32:
 248 002c 0246     		mov	r2, r0
 249 002e 0B46     		mov	r3, r1
 250 0030 2FA1     		adr	r1, .L14+24
 251 0032 D1E90001 		ldrd	r0, [r1]
 252 0036 FFF7FEFF 		bl	__aeabi_dsub
 253              	.LVL33:
 254 003a 2246     		mov	r2, r4
 255 003c 2B46     		mov	r3, r5
 256 003e FFF7FEFF 		bl	__aeabi_dmul
 257              	.LVL34:
 258 0042 DAE90023 		ldrd	r2, [sl]
 259 0046 FFF7FEFF 		bl	__aeabi_dadd
 260              	.LVL35:
 261              		.loc 1 57 0
 262 004a FFF7FEFF 		bl	ln_deg_to_rad
 263              	.LVL36:
 264 004e 0646     		mov	r6, r0
 265 0050 0F46     		mov	r7, r1
 266              	.LVL37:
 267              		.loc 1 58 0
 268 0052 FFF7FEFF 		bl	cos
 269              	.LVL38:
 270 0056 0446     		mov	r4, r0
 271              	.LVL39:
 272 0058 0D46     		mov	r5, r1
 273              	.LVL40:
 274              		.loc 1 59 0
 275 005a 3046     		mov	r0, r6
 276 005c 3946     		mov	r1, r7
 277 005e FFF7FEFF 		bl	sin
 278              	.LVL41:
 279 0062 0646     		mov	r6, r0
 280              	.LVL42:
 281 0064 0F46     		mov	r7, r1
 282              	.LVL43:
 283              		.loc 1 60 0
 284 0066 DAE90201 		ldrd	r0, [sl, #8]
 285 006a FFF7FEFF 		bl	ln_deg_to_rad
ARM GAS  /tmp/ccWpWnGr.s 			page 6


 286              	.LVL44:
 287              		.loc 1 62 0
 288 006e FFF7FEFF 		bl	tan
 289              	.LVL45:
 290 0072 3246     		mov	r2, r6
 291 0074 8046     		mov	r8, r0
 292 0076 8946     		mov	r9, r1
 293              	.LVL46:
 294 0078 3B46     		mov	r3, r7
 295 007a 2046     		mov	r0, r4
 296 007c 2946     		mov	r1, r5
 297 007e FFF7FEFF 		bl	__aeabi_dadd
 298              	.LVL47:
 299 0082 1DA3     		adr	r3, .L14+32
 300 0084 D3E90023 		ldrd	r2, [r3]
 301 0088 FFF7FEFF 		bl	__aeabi_dmul
 302              	.LVL48:
 303 008c 4246     		mov	r2, r8
 304 008e 4B46     		mov	r3, r9
 305 0090 FFF7FEFF 		bl	__aeabi_dmul
 306              	.LVL49:
 307 0094 1AA3     		adr	r3, .L14+40
 308 0096 D3E90023 		ldrd	r2, [r3]
 309 009a FFF7FEFF 		bl	__aeabi_dsub
 310              	.LVL50:
 311 009e 0246     		mov	r2, r0
 312 00a0 0B46     		mov	r3, r1
 313              		.loc 1 65 0
 314 00a2 DAE90001 		ldrd	r0, [sl]
 315 00a6 FFF7FEFF 		bl	__aeabi_dadd
 316              	.LVL51:
 317              		.loc 1 63 0
 318 00aa 3246     		mov	r2, r6
 319              		.loc 1 65 0
 320 00ac CAE90001 		strd	r0, [sl]
 321              		.loc 1 63 0
 322 00b0 3B46     		mov	r3, r7
 323 00b2 2046     		mov	r0, r4
 324 00b4 2946     		mov	r1, r5
 325 00b6 FFF7FEFF 		bl	__aeabi_dsub
 326              	.LVL52:
 327 00ba 0FA3     		adr	r3, .L14+32
 328 00bc D3E90023 		ldrd	r2, [r3]
 329 00c0 FFF7FEFF 		bl	__aeabi_dmul
 330              	.LVL53:
 331 00c4 0246     		mov	r2, r0
 332 00c6 0B46     		mov	r3, r1
 333              		.loc 1 66 0
 334 00c8 DAE90201 		ldrd	r0, [sl, #8]
 335 00cc FFF7FEFF 		bl	__aeabi_dadd
 336              	.LVL54:
 337 00d0 CAE90201 		strd	r0, [sl, #8]
 338 00d4 BDE8F087 		pop	{r4, r5, r6, r7, r8, r9, sl, pc}
 339              	.L15:
 340              		.align	3
 341              	.L14:
 342 00d8 00000080 		.word	2147483648
ARM GAS  /tmp/ccWpWnGr.s 			page 7


 343 00dc 2CB44241 		.word	1094890540
 344 00e0 00000000 		.word	0
 345 00e4 A0D5E140 		.word	1088542112
 346 00e8 A94D9CDC 		.word	3701231017
 347 00ec EF50343F 		.word	1060393199
 348 00f0 273108AC 		.word	2886218023
 349 00f4 1C5AF6BF 		.word	-1074374116
 350 00f8 F63CD564 		.word	1691696374
 351 00fc F6CFE63E 		.word	1055313910
 352 0100 CD1A2A34 		.word	875174605
 353 0104 7E4FFA3E 		.word	1056591742
 354              		.cfi_endproc
 355              	.LFE1:
 356              		.size	ln_vsop87_to_fk5, .-ln_vsop87_to_fk5
 357 0108 AFF30080 		.text
 357      AFF30080 
 358              	.Letext0:
 359              		.file 2 "./libnova/src/libnova/ln_types.h"
 360              		.file 3 "./libnova/src/libnova/vsop87.h"
 361              		.file 4 "/usr/bin/../lib/gcc/arm-none-eabi/4.7.4/../../../../arm-none-eabi/include/math.h"
 362              		.file 5 "./libnova/src/libnova/utility.h"